

Microchip MPLAB XC8 Assembler V2.31 build 20201012212115 
                                                                                               Tue Jul 20 11:24:09 2021

Microchip MPLAB XC8 C Compiler v2.31 (Free license) build 20201012212115 Og1 
     1                           	processor	16LF1718
     2                           	pagewidth 120
     3                           	opt	flic
     4                           	psect	idataBANK0,global,class=CODE,delta=2,noexec
     5                           	psect	idataBANK1,global,class=CODE,delta=2,noexec
     6                           	psect	nvBANK0,global,class=BANK0,space=1,delta=1,noexec
     7                           	psect	stringtext1,global,class=STRCODE,delta=2,noexec
     8                           	psect	stringtext2,global,class=STRCODE,delta=2,noexec
     9                           	psect	stringtext3,global,class=STRCODE,delta=2,noexec
    10                           	psect	stringtext4,global,class=STRCODE,delta=2,noexec
    11                           	psect	stringtext5,global,class=STRCODE,delta=2,noexec
    12                           	psect	stringtext6,global,class=STRCODE,delta=2,noexec
    13                           	psect	stringtext7,global,class=STRCODE,delta=2,noexec
    14                           	psect	stringtext8,global,class=STRCODE,delta=2,noexec
    15                           	psect	stringtext9,global,class=STRCODE,delta=2,noexec
    16                           	psect	cinit,global,class=CODE,merge=1,delta=2
    17                           	psect	bssBANK0,global,class=BANK0,space=1,delta=1,noexec
    18                           	psect	dataBANK0,global,class=BANK0,space=1,delta=1,noexec
    19                           	psect	dataBANK1,global,class=BANK1,space=1,delta=1,noexec
    20                           	psect	inittext,global,class=CODE,delta=2
    21                           	psect	cstackBANK1,global,class=BANK1,space=1,delta=1,noexec
    22                           	psect	cstackCOMMON,global,class=COMMON,space=1,delta=1,noexec
    23                           	psect	cstackBANK0,global,class=BANK0,space=1,delta=1,noexec
    24                           	psect	maintext,global,class=CODE,merge=1,split=1,delta=2
    25                           	psect	text1,local,class=CODE,merge=1,delta=2
    26                           	psect	text2,local,class=CODE,merge=1,delta=2
    27                           	psect	text3,local,class=CODE,merge=1,delta=2
    28                           	psect	text4,local,class=CODE,merge=1,delta=2
    29                           	psect	text5,local,class=CODE,merge=1,delta=2
    30                           	psect	text6,local,class=CODE,merge=1,delta=2
    31                           	psect	text7,local,class=CODE,merge=1,delta=2
    32                           	psect	text8,local,class=CODE,merge=1,delta=2
    33                           	psect	text9,local,class=CODE,merge=1,delta=2
    34                           	psect	text10,local,class=CODE,merge=1,delta=2
    35                           	psect	text11,local,class=CODE,merge=1,delta=2
    36                           	psect	text12,local,class=CODE,merge=1,delta=2
    37                           	psect	text13,local,class=CODE,merge=1,delta=2
    38                           	psect	text14,local,class=CODE,merge=1,delta=2
    39                           	psect	text15,local,class=CODE,merge=1,delta=2
    40                           	psect	text16,local,class=CODE,merge=1,delta=2
    41                           	psect	text17,local,class=CODE,merge=1,delta=2
    42                           	psect	text18,local,class=CODE,merge=1,delta=2
    43                           	psect	text19,local,class=CODE,merge=1,delta=2
    44                           	psect	text20,local,class=CODE,merge=1,delta=2
    45                           	psect	text21,local,class=CODE,merge=1,delta=2
    46                           	psect	text22,local,class=CODE,merge=1,delta=2
    47                           	psect	intentry,global,class=CODE,delta=2
    48                           	psect	text24,local,class=CODE,merge=1,delta=2
    49                           	psect	text25,local,class=CODE,merge=1,delta=2
    50                           	psect	text26,local,class=CODE,merge=1,delta=2
    51                           	psect	text27,local,class=CODE,merge=1,delta=2
    52                           	psect	text28,local,class=CODE,merge=1,delta=2
    53                           	psect	text29,local,class=CODE,merge=1,delta=2
    54                           	psect	text30,local,class=CODE,merge=1,delta=2
    55                           	psect	text31,local,class=CODE,merge=1,delta=2
    56                           	psect	text32,local,class=CODE,merge=1,delta=2
    57                           	psect	text33,local,class=CODE,merge=1,delta=2
    58                           	psect	text34,local,class=CODE,merge=1,delta=2
    59                           	psect	text35,local,class=CODE,merge=1,delta=2
    60                           	psect	text36,local,class=CODE,merge=1,delta=2
    61                           	psect	text37,local,class=CODE,merge=1,delta=2
    62                           	psect	text38,local,class=CODE,merge=1,delta=2
    63                           	psect	text39,local,class=CODE,merge=1,delta=2
    64                           	psect	text40,local,class=CODE,merge=1,delta=2
    65                           	psect	text41,local,class=CODE,merge=1,delta=2
    66                           	psect	text42,local,class=CODE,merge=1,delta=2
    67                           	psect	text43,local,class=CODE,merge=1,delta=2
    68                           	psect	text44,local,class=CODE,merge=1,delta=2
    69                           	psect	text45,local,class=CODE,merge=1,delta=2
    70                           	psect	text46,local,class=CODE,merge=1,delta=2
    71                           	psect	text47,local,class=CODE,merge=1,delta=2
    72                           	psect	text48,local,class=CODE,merge=1,delta=2
    73                           	psect	text49,local,class=CODE,merge=1,delta=2
    74                           	psect	text50,local,class=CODE,merge=1,delta=2
    75                           	psect	config,global,abs,ovrld,class=CONFIG,space=4,delta=2,noexec
    76                           	dabs	1,0x7E,2
    77  0000                     
    78                           ; Version 2.20
    79                           ; Generated 12/02/2020 GMT
    80                           ; 
    81                           ; Copyright © 2020, Microchip Technology Inc. and its subsidiaries ("Microchip")
    82                           ; All rights reserved.
    83                           ; 
    84                           ; This software is developed by Microchip Technology Inc. and its subsidiaries ("Microch
      +                          ip").
    85                           ; 
    86                           ; Redistribution and use in source and binary forms, with or without modification, are
    87                           ; permitted provided that the following conditions are met:
    88                           ; 
    89                           ;     1. Redistributions of source code must retain the above copyright notice, this lis
      +                          t of
    90                           ;        conditions and the following disclaimer.
    91                           ; 
    92                           ;     2. Redistributions in binary form must reproduce the above copyright notice, this 
      +                          list
    93                           ;        of conditions and the following disclaimer in the documentation and/or other
    94                           ;        materials provided with the distribution.
    95                           ; 
    96                           ;     3. Microchip's name may not be used to endorse or promote products derived from th
      +                          is
    97                           ;        software without specific prior written permission.
    98                           ; 
    99                           ; THIS SOFTWARE IS PROVIDED BY MICROCHIP "AS IS" AND ANY EXPRESS OR IMPLIED WARRANTIES,
   100                           ; INCLUDING, BUT NOT LIMITED TO, THE IMPLIED WARRANTIES OF MERCHANTABILITY AND FITNESS F
      +                          OR
   101                           ; PURPOSE ARE DISCLAIMED.  IN NO EVENT SHALL MICROCHIP BE LIABLE FOR ANY DIRECT, INDIREC
      +                          T,
   102                           ; INCIDENTAL, SPECIAL, EXEMPLARY, OR CONSEQUENTIAL DAMAGES (INCLUDING BUT NOT LIMITED TO
   103                           ; PROCUREMENT OF SUBSTITUTE GOODS OR SERVICES; LOSS OF USE, DATA OR PROFITS; OR BUSINESS
   104                           ; INTERRUPTION) HOWSOEVER CAUSED AND ON ANY THEORY OF LIABILITY, WHETHER IN CONTRACT, ST
      +                          RICT
   105                           ; LIABILITY, OR TORT (INCLUDING NEGLIGENCE OR OTHERWISE) ARISING IN ANY WAY OUT OF THE U
      +                          SE OF
   106                           ; THIS SOFTWARE, EVEN IF ADVISED OF THE POSSIBILITY OF SUCH DAMAGE.
   107                           ; 
   108                           ; 
   109                           ; Code-generator required, PIC16LF1718 Definitions
   110                           ; 
   111                           ; SFR Addresses
   112  0000                     	;# 
   113  0001                     	;# 
   114  0002                     	;# 
   115  0003                     	;# 
   116  0004                     	;# 
   117  0005                     	;# 
   118  0006                     	;# 
   119  0007                     	;# 
   120  0008                     	;# 
   121  0009                     	;# 
   122  000A                     	;# 
   123  000B                     	;# 
   124  000C                     	;# 
   125  000D                     	;# 
   126  000E                     	;# 
   127  0010                     	;# 
   128  0011                     	;# 
   129  0012                     	;# 
   130  0013                     	;# 
   131  0015                     	;# 
   132  0016                     	;# 
   133  0016                     	;# 
   134  0017                     	;# 
   135  0018                     	;# 
   136  0019                     	;# 
   137  001A                     	;# 
   138  001B                     	;# 
   139  001C                     	;# 
   140  008C                     	;# 
   141  008D                     	;# 
   142  008E                     	;# 
   143  0090                     	;# 
   144  0091                     	;# 
   145  0092                     	;# 
   146  0093                     	;# 
   147  0095                     	;# 
   148  0096                     	;# 
   149  0097                     	;# 
   150  0098                     	;# 
   151  0099                     	;# 
   152  009A                     	;# 
   153  009B                     	;# 
   154  009B                     	;# 
   155  009C                     	;# 
   156  009D                     	;# 
   157  009E                     	;# 
   158  009F                     	;# 
   159  010C                     	;# 
   160  010D                     	;# 
   161  010E                     	;# 
   162  0111                     	;# 
   163  0112                     	;# 
   164  0113                     	;# 
   165  0114                     	;# 
   166  0115                     	;# 
   167  0116                     	;# 
   168  0117                     	;# 
   169  0118                     	;# 
   170  0119                     	;# 
   171  011A                     	;# 
   172  011B                     	;# 
   173  011B                     	;# 
   174  011C                     	;# 
   175  018C                     	;# 
   176  018D                     	;# 
   177  018E                     	;# 
   178  0191                     	;# 
   179  0191                     	;# 
   180  0192                     	;# 
   181  0193                     	;# 
   182  0193                     	;# 
   183  0194                     	;# 
   184  0195                     	;# 
   185  0196                     	;# 
   186  0199                     	;# 
   187  0199                     	;# 
   188  0199                     	;# 
   189  019A                     	;# 
   190  019A                     	;# 
   191  019A                     	;# 
   192  019B                     	;# 
   193  019B                     	;# 
   194  019B                     	;# 
   195  019B                     	;# 
   196  019B                     	;# 
   197  019C                     	;# 
   198  019C                     	;# 
   199  019C                     	;# 
   200  019D                     	;# 
   201  019D                     	;# 
   202  019D                     	;# 
   203  019E                     	;# 
   204  019E                     	;# 
   205  019E                     	;# 
   206  019F                     	;# 
   207  019F                     	;# 
   208  019F                     	;# 
   209  019F                     	;# 
   210  019F                     	;# 
   211  020C                     	;# 
   212  020D                     	;# 
   213  020E                     	;# 
   214  0210                     	;# 
   215  0211                     	;# 
   216  0211                     	;# 
   217  0212                     	;# 
   218  0212                     	;# 
   219  0213                     	;# 
   220  0213                     	;# 
   221  0214                     	;# 
   222  0214                     	;# 
   223  0215                     	;# 
   224  0215                     	;# 
   225  0215                     	;# 
   226  0215                     	;# 
   227  0216                     	;# 
   228  0216                     	;# 
   229  0217                     	;# 
   230  0217                     	;# 
   231  028C                     	;# 
   232  028D                     	;# 
   233  028E                     	;# 
   234  0291                     	;# 
   235  0291                     	;# 
   236  0292                     	;# 
   237  0293                     	;# 
   238  0293                     	;# 
   239  0298                     	;# 
   240  0298                     	;# 
   241  0299                     	;# 
   242  029A                     	;# 
   243  029A                     	;# 
   244  029E                     	;# 
   245  030C                     	;# 
   246  030D                     	;# 
   247  030E                     	;# 
   248  038C                     	;# 
   249  038D                     	;# 
   250  038E                     	;# 
   251  0390                     	;# 
   252  0391                     	;# 
   253  0392                     	;# 
   254  0393                     	;# 
   255  0394                     	;# 
   256  0395                     	;# 
   257  0396                     	;# 
   258  0397                     	;# 
   259  0398                     	;# 
   260  0399                     	;# 
   261  039D                     	;# 
   262  039E                     	;# 
   263  039F                     	;# 
   264  0415                     	;# 
   265  0416                     	;# 
   266  0417                     	;# 
   267  041C                     	;# 
   268  041D                     	;# 
   269  041E                     	;# 
   270  0498                     	;# 
   271  0498                     	;# 
   272  0499                     	;# 
   273  049A                     	;# 
   274  049B                     	;# 
   275  049B                     	;# 
   276  049C                     	;# 
   277  049D                     	;# 
   278  049E                     	;# 
   279  049F                     	;# 
   280  0511                     	;# 
   281  0515                     	;# 
   282  0617                     	;# 
   283  0618                     	;# 
   284  0619                     	;# 
   285  0619                     	;# 
   286  061A                     	;# 
   287  061B                     	;# 
   288  061C                     	;# 
   289  061C                     	;# 
   290  0691                     	;# 
   291  0692                     	;# 
   292  0693                     	;# 
   293  0694                     	;# 
   294  0695                     	;# 
   295  0696                     	;# 
   296  0697                     	;# 
   297  0698                     	;# 
   298  0699                     	;# 
   299  069A                     	;# 
   300  069B                     	;# 
   301  069C                     	;# 
   302  069D                     	;# 
   303  069E                     	;# 
   304  069F                     	;# 
   305  0E0F                     	;# 
   306  0E10                     	;# 
   307  0E11                     	;# 
   308  0E12                     	;# 
   309  0E13                     	;# 
   310  0E14                     	;# 
   311  0E15                     	;# 
   312  0E17                     	;# 
   313  0E20                     	;# 
   314  0E21                     	;# 
   315  0E22                     	;# 
   316  0E24                     	;# 
   317  0E25                     	;# 
   318  0E28                     	;# 
   319  0E29                     	;# 
   320  0E2A                     	;# 
   321  0E2B                     	;# 
   322  0E90                     	;# 
   323  0E91                     	;# 
   324  0E92                     	;# 
   325  0E93                     	;# 
   326  0E94                     	;# 
   327  0E95                     	;# 
   328  0E96                     	;# 
   329  0E97                     	;# 
   330  0E98                     	;# 
   331  0E99                     	;# 
   332  0E9A                     	;# 
   333  0E9B                     	;# 
   334  0E9C                     	;# 
   335  0E9D                     	;# 
   336  0E9E                     	;# 
   337  0E9F                     	;# 
   338  0EA0                     	;# 
   339  0EA1                     	;# 
   340  0EA2                     	;# 
   341  0EA3                     	;# 
   342  0EA4                     	;# 
   343  0EA5                     	;# 
   344  0EA6                     	;# 
   345  0EA7                     	;# 
   346  0F0F                     	;# 
   347  0F10                     	;# 
   348  0F11                     	;# 
   349  0F12                     	;# 
   350  0F13                     	;# 
   351  0F14                     	;# 
   352  0F15                     	;# 
   353  0F16                     	;# 
   354  0F17                     	;# 
   355  0F18                     	;# 
   356  0F19                     	;# 
   357  0F1A                     	;# 
   358  0F1B                     	;# 
   359  0F1C                     	;# 
   360  0F1D                     	;# 
   361  0F1E                     	;# 
   362  0F1F                     	;# 
   363  0F20                     	;# 
   364  0F21                     	;# 
   365  0F22                     	;# 
   366  0F23                     	;# 
   367  0F24                     	;# 
   368  0F25                     	;# 
   369  0F26                     	;# 
   370  0F27                     	;# 
   371  0F28                     	;# 
   372  0F29                     	;# 
   373  0F2A                     	;# 
   374  0F2B                     	;# 
   375  0F2C                     	;# 
   376  0F2D                     	;# 
   377  0F2E                     	;# 
   378  0F2F                     	;# 
   379  0F30                     	;# 
   380  0F31                     	;# 
   381  0F32                     	;# 
   382  0F33                     	;# 
   383  0F34                     	;# 
   384  0F35                     	;# 
   385  0F36                     	;# 
   386  0F37                     	;# 
   387  0FE4                     	;# 
   388  0FE5                     	;# 
   389  0FE6                     	;# 
   390  0FE7                     	;# 
   391  0FE8                     	;# 
   392  0FE9                     	;# 
   393  0FEA                     	;# 
   394  0FEB                     	;# 
   395  0FED                     	;# 
   396  0FEE                     	;# 
   397  0FEF                     	;# 
   398  0000                     	;# 
   399  0001                     	;# 
   400  0002                     	;# 
   401  0003                     	;# 
   402  0004                     	;# 
   403  0005                     	;# 
   404  0006                     	;# 
   405  0007                     	;# 
   406  0008                     	;# 
   407  0009                     	;# 
   408  000A                     	;# 
   409  000B                     	;# 
   410  000C                     	;# 
   411  000D                     	;# 
   412  000E                     	;# 
   413  0010                     	;# 
   414  0011                     	;# 
   415  0012                     	;# 
   416  0013                     	;# 
   417  0015                     	;# 
   418  0016                     	;# 
   419  0016                     	;# 
   420  0017                     	;# 
   421  0018                     	;# 
   422  0019                     	;# 
   423  001A                     	;# 
   424  001B                     	;# 
   425  001C                     	;# 
   426  008C                     	;# 
   427  008D                     	;# 
   428  008E                     	;# 
   429  0090                     	;# 
   430  0091                     	;# 
   431  0092                     	;# 
   432  0093                     	;# 
   433  0095                     	;# 
   434  0096                     	;# 
   435  0097                     	;# 
   436  0098                     	;# 
   437  0099                     	;# 
   438  009A                     	;# 
   439  009B                     	;# 
   440  009B                     	;# 
   441  009C                     	;# 
   442  009D                     	;# 
   443  009E                     	;# 
   444  009F                     	;# 
   445  010C                     	;# 
   446  010D                     	;# 
   447  010E                     	;# 
   448  0111                     	;# 
   449  0112                     	;# 
   450  0113                     	;# 
   451  0114                     	;# 
   452  0115                     	;# 
   453  0116                     	;# 
   454  0117                     	;# 
   455  0118                     	;# 
   456  0119                     	;# 
   457  011A                     	;# 
   458  011B                     	;# 
   459  011B                     	;# 
   460  011C                     	;# 
   461  018C                     	;# 
   462  018D                     	;# 
   463  018E                     	;# 
   464  0191                     	;# 
   465  0191                     	;# 
   466  0192                     	;# 
   467  0193                     	;# 
   468  0193                     	;# 
   469  0194                     	;# 
   470  0195                     	;# 
   471  0196                     	;# 
   472  0199                     	;# 
   473  0199                     	;# 
   474  0199                     	;# 
   475  019A                     	;# 
   476  019A                     	;# 
   477  019A                     	;# 
   478  019B                     	;# 
   479  019B                     	;# 
   480  019B                     	;# 
   481  019B                     	;# 
   482  019B                     	;# 
   483  019C                     	;# 
   484  019C                     	;# 
   485  019C                     	;# 
   486  019D                     	;# 
   487  019D                     	;# 
   488  019D                     	;# 
   489  019E                     	;# 
   490  019E                     	;# 
   491  019E                     	;# 
   492  019F                     	;# 
   493  019F                     	;# 
   494  019F                     	;# 
   495  019F                     	;# 
   496  019F                     	;# 
   497  020C                     	;# 
   498  020D                     	;# 
   499  020E                     	;# 
   500  0210                     	;# 
   501  0211                     	;# 
   502  0211                     	;# 
   503  0212                     	;# 
   504  0212                     	;# 
   505  0213                     	;# 
   506  0213                     	;# 
   507  0214                     	;# 
   508  0214                     	;# 
   509  0215                     	;# 
   510  0215                     	;# 
   511  0215                     	;# 
   512  0215                     	;# 
   513  0216                     	;# 
   514  0216                     	;# 
   515  0217                     	;# 
   516  0217                     	;# 
   517  028C                     	;# 
   518  028D                     	;# 
   519  028E                     	;# 
   520  0291                     	;# 
   521  0291                     	;# 
   522  0292                     	;# 
   523  0293                     	;# 
   524  0293                     	;# 
   525  0298                     	;# 
   526  0298                     	;# 
   527  0299                     	;# 
   528  029A                     	;# 
   529  029A                     	;# 
   530  029E                     	;# 
   531  030C                     	;# 
   532  030D                     	;# 
   533  030E                     	;# 
   534  038C                     	;# 
   535  038D                     	;# 
   536  038E                     	;# 
   537  0390                     	;# 
   538  0391                     	;# 
   539  0392                     	;# 
   540  0393                     	;# 
   541  0394                     	;# 
   542  0395                     	;# 
   543  0396                     	;# 
   544  0397                     	;# 
   545  0398                     	;# 
   546  0399                     	;# 
   547  039D                     	;# 
   548  039E                     	;# 
   549  039F                     	;# 
   550  0415                     	;# 
   551  0416                     	;# 
   552  0417                     	;# 
   553  041C                     	;# 
   554  041D                     	;# 
   555  041E                     	;# 
   556  0498                     	;# 
   557  0498                     	;# 
   558  0499                     	;# 
   559  049A                     	;# 
   560  049B                     	;# 
   561  049B                     	;# 
   562  049C                     	;# 
   563  049D                     	;# 
   564  049E                     	;# 
   565  049F                     	;# 
   566  0511                     	;# 
   567  0515                     	;# 
   568  0617                     	;# 
   569  0618                     	;# 
   570  0619                     	;# 
   571  0619                     	;# 
   572  061A                     	;# 
   573  061B                     	;# 
   574  061C                     	;# 
   575  061C                     	;# 
   576  0691                     	;# 
   577  0692                     	;# 
   578  0693                     	;# 
   579  0694                     	;# 
   580  0695                     	;# 
   581  0696                     	;# 
   582  0697                     	;# 
   583  0698                     	;# 
   584  0699                     	;# 
   585  069A                     	;# 
   586  069B                     	;# 
   587  069C                     	;# 
   588  069D                     	;# 
   589  069E                     	;# 
   590  069F                     	;# 
   591  0E0F                     	;# 
   592  0E10                     	;# 
   593  0E11                     	;# 
   594  0E12                     	;# 
   595  0E13                     	;# 
   596  0E14                     	;# 
   597  0E15                     	;# 
   598  0E17                     	;# 
   599  0E20                     	;# 
   600  0E21                     	;# 
   601  0E22                     	;# 
   602  0E24                     	;# 
   603  0E25                     	;# 
   604  0E28                     	;# 
   605  0E29                     	;# 
   606  0E2A                     	;# 
   607  0E2B                     	;# 
   608  0E90                     	;# 
   609  0E91                     	;# 
   610  0E92                     	;# 
   611  0E93                     	;# 
   612  0E94                     	;# 
   613  0E95                     	;# 
   614  0E96                     	;# 
   615  0E97                     	;# 
   616  0E98                     	;# 
   617  0E99                     	;# 
   618  0E9A                     	;# 
   619  0E9B                     	;# 
   620  0E9C                     	;# 
   621  0E9D                     	;# 
   622  0E9E                     	;# 
   623  0E9F                     	;# 
   624  0EA0                     	;# 
   625  0EA1                     	;# 
   626  0EA2                     	;# 
   627  0EA3                     	;# 
   628  0EA4                     	;# 
   629  0EA5                     	;# 
   630  0EA6                     	;# 
   631  0EA7                     	;# 
   632  0F0F                     	;# 
   633  0F10                     	;# 
   634  0F11                     	;# 
   635  0F12                     	;# 
   636  0F13                     	;# 
   637  0F14                     	;# 
   638  0F15                     	;# 
   639  0F16                     	;# 
   640  0F17                     	;# 
   641  0F18                     	;# 
   642  0F19                     	;# 
   643  0F1A                     	;# 
   644  0F1B                     	;# 
   645  0F1C                     	;# 
   646  0F1D                     	;# 
   647  0F1E                     	;# 
   648  0F1F                     	;# 
   649  0F20                     	;# 
   650  0F21                     	;# 
   651  0F22                     	;# 
   652  0F23                     	;# 
   653  0F24                     	;# 
   654  0F25                     	;# 
   655  0F26                     	;# 
   656  0F27                     	;# 
   657  0F28                     	;# 
   658  0F29                     	;# 
   659  0F2A                     	;# 
   660  0F2B                     	;# 
   661  0F2C                     	;# 
   662  0F2D                     	;# 
   663  0F2E                     	;# 
   664  0F2F                     	;# 
   665  0F30                     	;# 
   666  0F31                     	;# 
   667  0F32                     	;# 
   668  0F33                     	;# 
   669  0F34                     	;# 
   670  0F35                     	;# 
   671  0F36                     	;# 
   672  0F37                     	;# 
   673  0FE4                     	;# 
   674  0FE5                     	;# 
   675  0FE6                     	;# 
   676  0FE7                     	;# 
   677  0FE8                     	;# 
   678  0FE9                     	;# 
   679  0FEA                     	;# 
   680  0FEB                     	;# 
   681  0FED                     	;# 
   682  0FEE                     	;# 
   683  0FEF                     	;# 
   684  0000                     	;# 
   685  0001                     	;# 
   686  0002                     	;# 
   687  0003                     	;# 
   688  0004                     	;# 
   689  0005                     	;# 
   690  0006                     	;# 
   691  0007                     	;# 
   692  0008                     	;# 
   693  0009                     	;# 
   694  000A                     	;# 
   695  000B                     	;# 
   696  000C                     	;# 
   697  000D                     	;# 
   698  000E                     	;# 
   699  0010                     	;# 
   700  0011                     	;# 
   701  0012                     	;# 
   702  0013                     	;# 
   703  0015                     	;# 
   704  0016                     	;# 
   705  0016                     	;# 
   706  0017                     	;# 
   707  0018                     	;# 
   708  0019                     	;# 
   709  001A                     	;# 
   710  001B                     	;# 
   711  001C                     	;# 
   712  008C                     	;# 
   713  008D                     	;# 
   714  008E                     	;# 
   715  0090                     	;# 
   716  0091                     	;# 
   717  0092                     	;# 
   718  0093                     	;# 
   719  0095                     	;# 
   720  0096                     	;# 
   721  0097                     	;# 
   722  0098                     	;# 
   723  0099                     	;# 
   724  009A                     	;# 
   725  009B                     	;# 
   726  009B                     	;# 
   727  009C                     	;# 
   728  009D                     	;# 
   729  009E                     	;# 
   730  009F                     	;# 
   731  010C                     	;# 
   732  010D                     	;# 
   733  010E                     	;# 
   734  0111                     	;# 
   735  0112                     	;# 
   736  0113                     	;# 
   737  0114                     	;# 
   738  0115                     	;# 
   739  0116                     	;# 
   740  0117                     	;# 
   741  0118                     	;# 
   742  0119                     	;# 
   743  011A                     	;# 
   744  011B                     	;# 
   745  011B                     	;# 
   746  011C                     	;# 
   747  018C                     	;# 
   748  018D                     	;# 
   749  018E                     	;# 
   750  0191                     	;# 
   751  0191                     	;# 
   752  0192                     	;# 
   753  0193                     	;# 
   754  0193                     	;# 
   755  0194                     	;# 
   756  0195                     	;# 
   757  0196                     	;# 
   758  0199                     	;# 
   759  0199                     	;# 
   760  0199                     	;# 
   761  019A                     	;# 
   762  019A                     	;# 
   763  019A                     	;# 
   764  019B                     	;# 
   765  019B                     	;# 
   766  019B                     	;# 
   767  019B                     	;# 
   768  019B                     	;# 
   769  019C                     	;# 
   770  019C                     	;# 
   771  019C                     	;# 
   772  019D                     	;# 
   773  019D                     	;# 
   774  019D                     	;# 
   775  019E                     	;# 
   776  019E                     	;# 
   777  019E                     	;# 
   778  019F                     	;# 
   779  019F                     	;# 
   780  019F                     	;# 
   781  019F                     	;# 
   782  019F                     	;# 
   783  020C                     	;# 
   784  020D                     	;# 
   785  020E                     	;# 
   786  0210                     	;# 
   787  0211                     	;# 
   788  0211                     	;# 
   789  0212                     	;# 
   790  0212                     	;# 
   791  0213                     	;# 
   792  0213                     	;# 
   793  0214                     	;# 
   794  0214                     	;# 
   795  0215                     	;# 
   796  0215                     	;# 
   797  0215                     	;# 
   798  0215                     	;# 
   799  0216                     	;# 
   800  0216                     	;# 
   801  0217                     	;# 
   802  0217                     	;# 
   803  028C                     	;# 
   804  028D                     	;# 
   805  028E                     	;# 
   806  0291                     	;# 
   807  0291                     	;# 
   808  0292                     	;# 
   809  0293                     	;# 
   810  0293                     	;# 
   811  0298                     	;# 
   812  0298                     	;# 
   813  0299                     	;# 
   814  029A                     	;# 
   815  029A                     	;# 
   816  029E                     	;# 
   817  030C                     	;# 
   818  030D                     	;# 
   819  030E                     	;# 
   820  038C                     	;# 
   821  038D                     	;# 
   822  038E                     	;# 
   823  0390                     	;# 
   824  0391                     	;# 
   825  0392                     	;# 
   826  0393                     	;# 
   827  0394                     	;# 
   828  0395                     	;# 
   829  0396                     	;# 
   830  0397                     	;# 
   831  0398                     	;# 
   832  0399                     	;# 
   833  039D                     	;# 
   834  039E                     	;# 
   835  039F                     	;# 
   836  0415                     	;# 
   837  0416                     	;# 
   838  0417                     	;# 
   839  041C                     	;# 
   840  041D                     	;# 
   841  041E                     	;# 
   842  0498                     	;# 
   843  0498                     	;# 
   844  0499                     	;# 
   845  049A                     	;# 
   846  049B                     	;# 
   847  049B                     	;# 
   848  049C                     	;# 
   849  049D                     	;# 
   850  049E                     	;# 
   851  049F                     	;# 
   852  0511                     	;# 
   853  0515                     	;# 
   854  0617                     	;# 
   855  0618                     	;# 
   856  0619                     	;# 
   857  0619                     	;# 
   858  061A                     	;# 
   859  061B                     	;# 
   860  061C                     	;# 
   861  061C                     	;# 
   862  0691                     	;# 
   863  0692                     	;# 
   864  0693                     	;# 
   865  0694                     	;# 
   866  0695                     	;# 
   867  0696                     	;# 
   868  0697                     	;# 
   869  0698                     	;# 
   870  0699                     	;# 
   871  069A                     	;# 
   872  069B                     	;# 
   873  069C                     	;# 
   874  069D                     	;# 
   875  069E                     	;# 
   876  069F                     	;# 
   877  0E0F                     	;# 
   878  0E10                     	;# 
   879  0E11                     	;# 
   880  0E12                     	;# 
   881  0E13                     	;# 
   882  0E14                     	;# 
   883  0E15                     	;# 
   884  0E17                     	;# 
   885  0E20                     	;# 
   886  0E21                     	;# 
   887  0E22                     	;# 
   888  0E24                     	;# 
   889  0E25                     	;# 
   890  0E28                     	;# 
   891  0E29                     	;# 
   892  0E2A                     	;# 
   893  0E2B                     	;# 
   894  0E90                     	;# 
   895  0E91                     	;# 
   896  0E92                     	;# 
   897  0E93                     	;# 
   898  0E94                     	;# 
   899  0E95                     	;# 
   900  0E96                     	;# 
   901  0E97                     	;# 
   902  0E98                     	;# 
   903  0E99                     	;# 
   904  0E9A                     	;# 
   905  0E9B                     	;# 
   906  0E9C                     	;# 
   907  0E9D                     	;# 
   908  0E9E                     	;# 
   909  0E9F                     	;# 
   910  0EA0                     	;# 
   911  0EA1                     	;# 
   912  0EA2                     	;# 
   913  0EA3                     	;# 
   914  0EA4                     	;# 
   915  0EA5                     	;# 
   916  0EA6                     	;# 
   917  0EA7                     	;# 
   918  0F0F                     	;# 
   919  0F10                     	;# 
   920  0F11                     	;# 
   921  0F12                     	;# 
   922  0F13                     	;# 
   923  0F14                     	;# 
   924  0F15                     	;# 
   925  0F16                     	;# 
   926  0F17                     	;# 
   927  0F18                     	;# 
   928  0F19                     	;# 
   929  0F1A                     	;# 
   930  0F1B                     	;# 
   931  0F1C                     	;# 
   932  0F1D                     	;# 
   933  0F1E                     	;# 
   934  0F1F                     	;# 
   935  0F20                     	;# 
   936  0F21                     	;# 
   937  0F22                     	;# 
   938  0F23                     	;# 
   939  0F24                     	;# 
   940  0F25                     	;# 
   941  0F26                     	;# 
   942  0F27                     	;# 
   943  0F28                     	;# 
   944  0F29                     	;# 
   945  0F2A                     	;# 
   946  0F2B                     	;# 
   947  0F2C                     	;# 
   948  0F2D                     	;# 
   949  0F2E                     	;# 
   950  0F2F                     	;# 
   951  0F30                     	;# 
   952  0F31                     	;# 
   953  0F32                     	;# 
   954  0F33                     	;# 
   955  0F34                     	;# 
   956  0F35                     	;# 
   957  0F36                     	;# 
   958  0F37                     	;# 
   959  0FE4                     	;# 
   960  0FE5                     	;# 
   961  0FE6                     	;# 
   962  0FE7                     	;# 
   963  0FE8                     	;# 
   964  0FE9                     	;# 
   965  0FEA                     	;# 
   966  0FEB                     	;# 
   967  0FED                     	;# 
   968  0FEE                     	;# 
   969  0FEF                     	;# 
   970  0000                     	;# 
   971  0001                     	;# 
   972  0002                     	;# 
   973  0003                     	;# 
   974  0004                     	;# 
   975  0005                     	;# 
   976  0006                     	;# 
   977  0007                     	;# 
   978  0008                     	;# 
   979  0009                     	;# 
   980  000A                     	;# 
   981  000B                     	;# 
   982  000C                     	;# 
   983  000D                     	;# 
   984  000E                     	;# 
   985  0010                     	;# 
   986  0011                     	;# 
   987  0012                     	;# 
   988  0013                     	;# 
   989  0015                     	;# 
   990  0016                     	;# 
   991  0016                     	;# 
   992  0017                     	;# 
   993  0018                     	;# 
   994  0019                     	;# 
   995  001A                     	;# 
   996  001B                     	;# 
   997  001C                     	;# 
   998  008C                     	;# 
   999  008D                     	;# 
  1000  008E                     	;# 
  1001  0090                     	;# 
  1002  0091                     	;# 
  1003  0092                     	;# 
  1004  0093                     	;# 
  1005  0095                     	;# 
  1006  0096                     	;# 
  1007  0097                     	;# 
  1008  0098                     	;# 
  1009  0099                     	;# 
  1010  009A                     	;# 
  1011  009B                     	;# 
  1012  009B                     	;# 
  1013  009C                     	;# 
  1014  009D                     	;# 
  1015  009E                     	;# 
  1016  009F                     	;# 
  1017  010C                     	;# 
  1018  010D                     	;# 
  1019  010E                     	;# 
  1020  0111                     	;# 
  1021  0112                     	;# 
  1022  0113                     	;# 
  1023  0114                     	;# 
  1024  0115                     	;# 
  1025  0116                     	;# 
  1026  0117                     	;# 
  1027  0118                     	;# 
  1028  0119                     	;# 
  1029  011A                     	;# 
  1030  011B                     	;# 
  1031  011B                     	;# 
  1032  011C                     	;# 
  1033  018C                     	;# 
  1034  018D                     	;# 
  1035  018E                     	;# 
  1036  0191                     	;# 
  1037  0191                     	;# 
  1038  0192                     	;# 
  1039  0193                     	;# 
  1040  0193                     	;# 
  1041  0194                     	;# 
  1042  0195                     	;# 
  1043  0196                     	;# 
  1044  0199                     	;# 
  1045  0199                     	;# 
  1046  0199                     	;# 
  1047  019A                     	;# 
  1048  019A                     	;# 
  1049  019A                     	;# 
  1050  019B                     	;# 
  1051  019B                     	;# 
  1052  019B                     	;# 
  1053  019B                     	;# 
  1054  019B                     	;# 
  1055  019C                     	;# 
  1056  019C                     	;# 
  1057  019C                     	;# 
  1058  019D                     	;# 
  1059  019D                     	;# 
  1060  019D                     	;# 
  1061  019E                     	;# 
  1062  019E                     	;# 
  1063  019E                     	;# 
  1064  019F                     	;# 
  1065  019F                     	;# 
  1066  019F                     	;# 
  1067  019F                     	;# 
  1068  019F                     	;# 
  1069  020C                     	;# 
  1070  020D                     	;# 
  1071  020E                     	;# 
  1072  0210                     	;# 
  1073  0211                     	;# 
  1074  0211                     	;# 
  1075  0212                     	;# 
  1076  0212                     	;# 
  1077  0213                     	;# 
  1078  0213                     	;# 
  1079  0214                     	;# 
  1080  0214                     	;# 
  1081  0215                     	;# 
  1082  0215                     	;# 
  1083  0215                     	;# 
  1084  0215                     	;# 
  1085  0216                     	;# 
  1086  0216                     	;# 
  1087  0217                     	;# 
  1088  0217                     	;# 
  1089  028C                     	;# 
  1090  028D                     	;# 
  1091  028E                     	;# 
  1092  0291                     	;# 
  1093  0291                     	;# 
  1094  0292                     	;# 
  1095  0293                     	;# 
  1096  0293                     	;# 
  1097  0298                     	;# 
  1098  0298                     	;# 
  1099  0299                     	;# 
  1100  029A                     	;# 
  1101  029A                     	;# 
  1102  029E                     	;# 
  1103  030C                     	;# 
  1104  030D                     	;# 
  1105  030E                     	;# 
  1106  038C                     	;# 
  1107  038D                     	;# 
  1108  038E                     	;# 
  1109  0390                     	;# 
  1110  0391                     	;# 
  1111  0392                     	;# 
  1112  0393                     	;# 
  1113  0394                     	;# 
  1114  0395                     	;# 
  1115  0396                     	;# 
  1116  0397                     	;# 
  1117  0398                     	;# 
  1118  0399                     	;# 
  1119  039D                     	;# 
  1120  039E                     	;# 
  1121  039F                     	;# 
  1122  0415                     	;# 
  1123  0416                     	;# 
  1124  0417                     	;# 
  1125  041C                     	;# 
  1126  041D                     	;# 
  1127  041E                     	;# 
  1128  0498                     	;# 
  1129  0498                     	;# 
  1130  0499                     	;# 
  1131  049A                     	;# 
  1132  049B                     	;# 
  1133  049B                     	;# 
  1134  049C                     	;# 
  1135  049D                     	;# 
  1136  049E                     	;# 
  1137  049F                     	;# 
  1138  0511                     	;# 
  1139  0515                     	;# 
  1140  0617                     	;# 
  1141  0618                     	;# 
  1142  0619                     	;# 
  1143  0619                     	;# 
  1144  061A                     	;# 
  1145  061B                     	;# 
  1146  061C                     	;# 
  1147  061C                     	;# 
  1148  0691                     	;# 
  1149  0692                     	;# 
  1150  0693                     	;# 
  1151  0694                     	;# 
  1152  0695                     	;# 
  1153  0696                     	;# 
  1154  0697                     	;# 
  1155  0698                     	;# 
  1156  0699                     	;# 
  1157  069A                     	;# 
  1158  069B                     	;# 
  1159  069C                     	;# 
  1160  069D                     	;# 
  1161  069E                     	;# 
  1162  069F                     	;# 
  1163  0E0F                     	;# 
  1164  0E10                     	;# 
  1165  0E11                     	;# 
  1166  0E12                     	;# 
  1167  0E13                     	;# 
  1168  0E14                     	;# 
  1169  0E15                     	;# 
  1170  0E17                     	;# 
  1171  0E20                     	;# 
  1172  0E21                     	;# 
  1173  0E22                     	;# 
  1174  0E24                     	;# 
  1175  0E25                     	;# 
  1176  0E28                     	;# 
  1177  0E29                     	;# 
  1178  0E2A                     	;# 
  1179  0E2B                     	;# 
  1180  0E90                     	;# 
  1181  0E91                     	;# 
  1182  0E92                     	;# 
  1183  0E93                     	;# 
  1184  0E94                     	;# 
  1185  0E95                     	;# 
  1186  0E96                     	;# 
  1187  0E97                     	;# 
  1188  0E98                     	;# 
  1189  0E99                     	;# 
  1190  0E9A                     	;# 
  1191  0E9B                     	;# 
  1192  0E9C                     	;# 
  1193  0E9D                     	;# 
  1194  0E9E                     	;# 
  1195  0E9F                     	;# 
  1196  0EA0                     	;# 
  1197  0EA1                     	;# 
  1198  0EA2                     	;# 
  1199  0EA3                     	;# 
  1200  0EA4                     	;# 
  1201  0EA5                     	;# 
  1202  0EA6                     	;# 
  1203  0EA7                     	;# 
  1204  0F0F                     	;# 
  1205  0F10                     	;# 
  1206  0F11                     	;# 
  1207  0F12                     	;# 
  1208  0F13                     	;# 
  1209  0F14                     	;# 
  1210  0F15                     	;# 
  1211  0F16                     	;# 
  1212  0F17                     	;# 
  1213  0F18                     	;# 
  1214  0F19                     	;# 
  1215  0F1A                     	;# 
  1216  0F1B                     	;# 
  1217  0F1C                     	;# 
  1218  0F1D                     	;# 
  1219  0F1E                     	;# 
  1220  0F1F                     	;# 
  1221  0F20                     	;# 
  1222  0F21                     	;# 
  1223  0F22                     	;# 
  1224  0F23                     	;# 
  1225  0F24                     	;# 
  1226  0F25                     	;# 
  1227  0F26                     	;# 
  1228  0F27                     	;# 
  1229  0F28                     	;# 
  1230  0F29                     	;# 
  1231  0F2A                     	;# 
  1232  0F2B                     	;# 
  1233  0F2C                     	;# 
  1234  0F2D                     	;# 
  1235  0F2E                     	;# 
  1236  0F2F                     	;# 
  1237  0F30                     	;# 
  1238  0F31                     	;# 
  1239  0F32                     	;# 
  1240  0F33                     	;# 
  1241  0F34                     	;# 
  1242  0F35                     	;# 
  1243  0F36                     	;# 
  1244  0F37                     	;# 
  1245  0FE4                     	;# 
  1246  0FE5                     	;# 
  1247  0FE6                     	;# 
  1248  0FE7                     	;# 
  1249  0FE8                     	;# 
  1250  0FE9                     	;# 
  1251  0FEA                     	;# 
  1252  0FEB                     	;# 
  1253  0FED                     	;# 
  1254  0FEE                     	;# 
  1255  0FEF                     	;# 
  1256  0000                     	;# 
  1257  0001                     	;# 
  1258  0002                     	;# 
  1259  0003                     	;# 
  1260  0004                     	;# 
  1261  0005                     	;# 
  1262  0006                     	;# 
  1263  0007                     	;# 
  1264  0008                     	;# 
  1265  0009                     	;# 
  1266  000A                     	;# 
  1267  000B                     	;# 
  1268  000C                     	;# 
  1269  000D                     	;# 
  1270  000E                     	;# 
  1271  0010                     	;# 
  1272  0011                     	;# 
  1273  0012                     	;# 
  1274  0013                     	;# 
  1275  0015                     	;# 
  1276  0016                     	;# 
  1277  0016                     	;# 
  1278  0017                     	;# 
  1279  0018                     	;# 
  1280  0019                     	;# 
  1281  001A                     	;# 
  1282  001B                     	;# 
  1283  001C                     	;# 
  1284  008C                     	;# 
  1285  008D                     	;# 
  1286  008E                     	;# 
  1287  0090                     	;# 
  1288  0091                     	;# 
  1289  0092                     	;# 
  1290  0093                     	;# 
  1291  0095                     	;# 
  1292  0096                     	;# 
  1293  0097                     	;# 
  1294  0098                     	;# 
  1295  0099                     	;# 
  1296  009A                     	;# 
  1297  009B                     	;# 
  1298  009B                     	;# 
  1299  009C                     	;# 
  1300  009D                     	;# 
  1301  009E                     	;# 
  1302  009F                     	;# 
  1303  010C                     	;# 
  1304  010D                     	;# 
  1305  010E                     	;# 
  1306  0111                     	;# 
  1307  0112                     	;# 
  1308  0113                     	;# 
  1309  0114                     	;# 
  1310  0115                     	;# 
  1311  0116                     	;# 
  1312  0117                     	;# 
  1313  0118                     	;# 
  1314  0119                     	;# 
  1315  011A                     	;# 
  1316  011B                     	;# 
  1317  011B                     	;# 
  1318  011C                     	;# 
  1319  018C                     	;# 
  1320  018D                     	;# 
  1321  018E                     	;# 
  1322  0191                     	;# 
  1323  0191                     	;# 
  1324  0192                     	;# 
  1325  0193                     	;# 
  1326  0193                     	;# 
  1327  0194                     	;# 
  1328  0195                     	;# 
  1329  0196                     	;# 
  1330  0199                     	;# 
  1331  0199                     	;# 
  1332  0199                     	;# 
  1333  019A                     	;# 
  1334  019A                     	;# 
  1335  019A                     	;# 
  1336  019B                     	;# 
  1337  019B                     	;# 
  1338  019B                     	;# 
  1339  019B                     	;# 
  1340  019B                     	;# 
  1341  019C                     	;# 
  1342  019C                     	;# 
  1343  019C                     	;# 
  1344  019D                     	;# 
  1345  019D                     	;# 
  1346  019D                     	;# 
  1347  019E                     	;# 
  1348  019E                     	;# 
  1349  019E                     	;# 
  1350  019F                     	;# 
  1351  019F                     	;# 
  1352  019F                     	;# 
  1353  019F                     	;# 
  1354  019F                     	;# 
  1355  020C                     	;# 
  1356  020D                     	;# 
  1357  020E                     	;# 
  1358  0210                     	;# 
  1359  0211                     	;# 
  1360  0211                     	;# 
  1361  0212                     	;# 
  1362  0212                     	;# 
  1363  0213                     	;# 
  1364  0213                     	;# 
  1365  0214                     	;# 
  1366  0214                     	;# 
  1367  0215                     	;# 
  1368  0215                     	;# 
  1369  0215                     	;# 
  1370  0215                     	;# 
  1371  0216                     	;# 
  1372  0216                     	;# 
  1373  0217                     	;# 
  1374  0217                     	;# 
  1375  028C                     	;# 
  1376  028D                     	;# 
  1377  028E                     	;# 
  1378  0291                     	;# 
  1379  0291                     	;# 
  1380  0292                     	;# 
  1381  0293                     	;# 
  1382  0293                     	;# 
  1383  0298                     	;# 
  1384  0298                     	;# 
  1385  0299                     	;# 
  1386  029A                     	;# 
  1387  029A                     	;# 
  1388  029E                     	;# 
  1389  030C                     	;# 
  1390  030D                     	;# 
  1391  030E                     	;# 
  1392  038C                     	;# 
  1393  038D                     	;# 
  1394  038E                     	;# 
  1395  0390                     	;# 
  1396  0391                     	;# 
  1397  0392                     	;# 
  1398  0393                     	;# 
  1399  0394                     	;# 
  1400  0395                     	;# 
  1401  0396                     	;# 
  1402  0397                     	;# 
  1403  0398                     	;# 
  1404  0399                     	;# 
  1405  039D                     	;# 
  1406  039E                     	;# 
  1407  039F                     	;# 
  1408  0415                     	;# 
  1409  0416                     	;# 
  1410  0417                     	;# 
  1411  041C                     	;# 
  1412  041D                     	;# 
  1413  041E                     	;# 
  1414  0498                     	;# 
  1415  0498                     	;# 
  1416  0499                     	;# 
  1417  049A                     	;# 
  1418  049B                     	;# 
  1419  049B                     	;# 
  1420  049C                     	;# 
  1421  049D                     	;# 
  1422  049E                     	;# 
  1423  049F                     	;# 
  1424  0511                     	;# 
  1425  0515                     	;# 
  1426  0617                     	;# 
  1427  0618                     	;# 
  1428  0619                     	;# 
  1429  0619                     	;# 
  1430  061A                     	;# 
  1431  061B                     	;# 
  1432  061C                     	;# 
  1433  061C                     	;# 
  1434  0691                     	;# 
  1435  0692                     	;# 
  1436  0693                     	;# 
  1437  0694                     	;# 
  1438  0695                     	;# 
  1439  0696                     	;# 
  1440  0697                     	;# 
  1441  0698                     	;# 
  1442  0699                     	;# 
  1443  069A                     	;# 
  1444  069B                     	;# 
  1445  069C                     	;# 
  1446  069D                     	;# 
  1447  069E                     	;# 
  1448  069F                     	;# 
  1449  0E0F                     	;# 
  1450  0E10                     	;# 
  1451  0E11                     	;# 
  1452  0E12                     	;# 
  1453  0E13                     	;# 
  1454  0E14                     	;# 
  1455  0E15                     	;# 
  1456  0E17                     	;# 
  1457  0E20                     	;# 
  1458  0E21                     	;# 
  1459  0E22                     	;# 
  1460  0E24                     	;# 
  1461  0E25                     	;# 
  1462  0E28                     	;# 
  1463  0E29                     	;# 
  1464  0E2A                     	;# 
  1465  0E2B                     	;# 
  1466  0E90                     	;# 
  1467  0E91                     	;# 
  1468  0E92                     	;# 
  1469  0E93                     	;# 
  1470  0E94                     	;# 
  1471  0E95                     	;# 
  1472  0E96                     	;# 
  1473  0E97                     	;# 
  1474  0E98                     	;# 
  1475  0E99                     	;# 
  1476  0E9A                     	;# 
  1477  0E9B                     	;# 
  1478  0E9C                     	;# 
  1479  0E9D                     	;# 
  1480  0E9E                     	;# 
  1481  0E9F                     	;# 
  1482  0EA0                     	;# 
  1483  0EA1                     	;# 
  1484  0EA2                     	;# 
  1485  0EA3                     	;# 
  1486  0EA4                     	;# 
  1487  0EA5                     	;# 
  1488  0EA6                     	;# 
  1489  0EA7                     	;# 
  1490  0F0F                     	;# 
  1491  0F10                     	;# 
  1492  0F11                     	;# 
  1493  0F12                     	;# 
  1494  0F13                     	;# 
  1495  0F14                     	;# 
  1496  0F15                     	;# 
  1497  0F16                     	;# 
  1498  0F17                     	;# 
  1499  0F18                     	;# 
  1500  0F19                     	;# 
  1501  0F1A                     	;# 
  1502  0F1B                     	;# 
  1503  0F1C                     	;# 
  1504  0F1D                     	;# 
  1505  0F1E                     	;# 
  1506  0F1F                     	;# 
  1507  0F20                     	;# 
  1508  0F21                     	;# 
  1509  0F22                     	;# 
  1510  0F23                     	;# 
  1511  0F24                     	;# 
  1512  0F25                     	;# 
  1513  0F26                     	;# 
  1514  0F27                     	;# 
  1515  0F28                     	;# 
  1516  0F29                     	;# 
  1517  0F2A                     	;# 
  1518  0F2B                     	;# 
  1519  0F2C                     	;# 
  1520  0F2D                     	;# 
  1521  0F2E                     	;# 
  1522  0F2F                     	;# 
  1523  0F30                     	;# 
  1524  0F31                     	;# 
  1525  0F32                     	;# 
  1526  0F33                     	;# 
  1527  0F34                     	;# 
  1528  0F35                     	;# 
  1529  0F36                     	;# 
  1530  0F37                     	;# 
  1531  0FE4                     	;# 
  1532  0FE5                     	;# 
  1533  0FE6                     	;# 
  1534  0FE7                     	;# 
  1535  0FE8                     	;# 
  1536  0FE9                     	;# 
  1537  0FEA                     	;# 
  1538  0FEB                     	;# 
  1539  0FED                     	;# 
  1540  0FEE                     	;# 
  1541  0FEF                     	;# 
  1542  0000                     	;# 
  1543  0001                     	;# 
  1544  0002                     	;# 
  1545  0003                     	;# 
  1546  0004                     	;# 
  1547  0005                     	;# 
  1548  0006                     	;# 
  1549  0007                     	;# 
  1550  0008                     	;# 
  1551  0009                     	;# 
  1552  000A                     	;# 
  1553  000B                     	;# 
  1554  000C                     	;# 
  1555  000D                     	;# 
  1556  000E                     	;# 
  1557  0010                     	;# 
  1558  0011                     	;# 
  1559  0012                     	;# 
  1560  0013                     	;# 
  1561  0015                     	;# 
  1562  0016                     	;# 
  1563  0016                     	;# 
  1564  0017                     	;# 
  1565  0018                     	;# 
  1566  0019                     	;# 
  1567  001A                     	;# 
  1568  001B                     	;# 
  1569  001C                     	;# 
  1570  008C                     	;# 
  1571  008D                     	;# 
  1572  008E                     	;# 
  1573  0090                     	;# 
  1574  0091                     	;# 
  1575  0092                     	;# 
  1576  0093                     	;# 
  1577  0095                     	;# 
  1578  0096                     	;# 
  1579  0097                     	;# 
  1580  0098                     	;# 
  1581  0099                     	;# 
  1582  009A                     	;# 
  1583  009B                     	;# 
  1584  009B                     	;# 
  1585  009C                     	;# 
  1586  009D                     	;# 
  1587  009E                     	;# 
  1588  009F                     	;# 
  1589  010C                     	;# 
  1590  010D                     	;# 
  1591  010E                     	;# 
  1592  0111                     	;# 
  1593  0112                     	;# 
  1594  0113                     	;# 
  1595  0114                     	;# 
  1596  0115                     	;# 
  1597  0116                     	;# 
  1598  0117                     	;# 
  1599  0118                     	;# 
  1600  0119                     	;# 
  1601  011A                     	;# 
  1602  011B                     	;# 
  1603  011B                     	;# 
  1604  011C                     	;# 
  1605  018C                     	;# 
  1606  018D                     	;# 
  1607  018E                     	;# 
  1608  0191                     	;# 
  1609  0191                     	;# 
  1610  0192                     	;# 
  1611  0193                     	;# 
  1612  0193                     	;# 
  1613  0194                     	;# 
  1614  0195                     	;# 
  1615  0196                     	;# 
  1616  0199                     	;# 
  1617  0199                     	;# 
  1618  0199                     	;# 
  1619  019A                     	;# 
  1620  019A                     	;# 
  1621  019A                     	;# 
  1622  019B                     	;# 
  1623  019B                     	;# 
  1624  019B                     	;# 
  1625  019B                     	;# 
  1626  019B                     	;# 
  1627  019C                     	;# 
  1628  019C                     	;# 
  1629  019C                     	;# 
  1630  019D                     	;# 
  1631  019D                     	;# 
  1632  019D                     	;# 
  1633  019E                     	;# 
  1634  019E                     	;# 
  1635  019E                     	;# 
  1636  019F                     	;# 
  1637  019F                     	;# 
  1638  019F                     	;# 
  1639  019F                     	;# 
  1640  019F                     	;# 
  1641  020C                     	;# 
  1642  020D                     	;# 
  1643  020E                     	;# 
  1644  0210                     	;# 
  1645  0211                     	;# 
  1646  0211                     	;# 
  1647  0212                     	;# 
  1648  0212                     	;# 
  1649  0213                     	;# 
  1650  0213                     	;# 
  1651  0214                     	;# 
  1652  0214                     	;# 
  1653  0215                     	;# 
  1654  0215                     	;# 
  1655  0215                     	;# 
  1656  0215                     	;# 
  1657  0216                     	;# 
  1658  0216                     	;# 
  1659  0217                     	;# 
  1660  0217                     	;# 
  1661  028C                     	;# 
  1662  028D                     	;# 
  1663  028E                     	;# 
  1664  0291                     	;# 
  1665  0291                     	;# 
  1666  0292                     	;# 
  1667  0293                     	;# 
  1668  0293                     	;# 
  1669  0298                     	;# 
  1670  0298                     	;# 
  1671  0299                     	;# 
  1672  029A                     	;# 
  1673  029A                     	;# 
  1674  029E                     	;# 
  1675  030C                     	;# 
  1676  030D                     	;# 
  1677  030E                     	;# 
  1678  038C                     	;# 
  1679  038D                     	;# 
  1680  038E                     	;# 
  1681  0390                     	;# 
  1682  0391                     	;# 
  1683  0392                     	;# 
  1684  0393                     	;# 
  1685  0394                     	;# 
  1686  0395                     	;# 
  1687  0396                     	;# 
  1688  0397                     	;# 
  1689  0398                     	;# 
  1690  0399                     	;# 
  1691  039D                     	;# 
  1692  039E                     	;# 
  1693  039F                     	;# 
  1694  0415                     	;# 
  1695  0416                     	;# 
  1696  0417                     	;# 
  1697  041C                     	;# 
  1698  041D                     	;# 
  1699  041E                     	;# 
  1700  0498                     	;# 
  1701  0498                     	;# 
  1702  0499                     	;# 
  1703  049A                     	;# 
  1704  049B                     	;# 
  1705  049B                     	;# 
  1706  049C                     	;# 
  1707  049D                     	;# 
  1708  049E                     	;# 
  1709  049F                     	;# 
  1710  0511                     	;# 
  1711  0515                     	;# 
  1712  0617                     	;# 
  1713  0618                     	;# 
  1714  0619                     	;# 
  1715  0619                     	;# 
  1716  061A                     	;# 
  1717  061B                     	;# 
  1718  061C                     	;# 
  1719  061C                     	;# 
  1720  0691                     	;# 
  1721  0692                     	;# 
  1722  0693                     	;# 
  1723  0694                     	;# 
  1724  0695                     	;# 
  1725  0696                     	;# 
  1726  0697                     	;# 
  1727  0698                     	;# 
  1728  0699                     	;# 
  1729  069A                     	;# 
  1730  069B                     	;# 
  1731  069C                     	;# 
  1732  069D                     	;# 
  1733  069E                     	;# 
  1734  069F                     	;# 
  1735  0E0F                     	;# 
  1736  0E10                     	;# 
  1737  0E11                     	;# 
  1738  0E12                     	;# 
  1739  0E13                     	;# 
  1740  0E14                     	;# 
  1741  0E15                     	;# 
  1742  0E17                     	;# 
  1743  0E20                     	;# 
  1744  0E21                     	;# 
  1745  0E22                     	;# 
  1746  0E24                     	;# 
  1747  0E25                     	;# 
  1748  0E28                     	;# 
  1749  0E29                     	;# 
  1750  0E2A                     	;# 
  1751  0E2B                     	;# 
  1752  0E90                     	;# 
  1753  0E91                     	;# 
  1754  0E92                     	;# 
  1755  0E93                     	;# 
  1756  0E94                     	;# 
  1757  0E95                     	;# 
  1758  0E96                     	;# 
  1759  0E97                     	;# 
  1760  0E98                     	;# 
  1761  0E99                     	;# 
  1762  0E9A                     	;# 
  1763  0E9B                     	;# 
  1764  0E9C                     	;# 
  1765  0E9D                     	;# 
  1766  0E9E                     	;# 
  1767  0E9F                     	;# 
  1768  0EA0                     	;# 
  1769  0EA1                     	;# 
  1770  0EA2                     	;# 
  1771  0EA3                     	;# 
  1772  0EA4                     	;# 
  1773  0EA5                     	;# 
  1774  0EA6                     	;# 
  1775  0EA7                     	;# 
  1776  0F0F                     	;# 
  1777  0F10                     	;# 
  1778  0F11                     	;# 
  1779  0F12                     	;# 
  1780  0F13                     	;# 
  1781  0F14                     	;# 
  1782  0F15                     	;# 
  1783  0F16                     	;# 
  1784  0F17                     	;# 
  1785  0F18                     	;# 
  1786  0F19                     	;# 
  1787  0F1A                     	;# 
  1788  0F1B                     	;# 
  1789  0F1C                     	;# 
  1790  0F1D                     	;# 
  1791  0F1E                     	;# 
  1792  0F1F                     	;# 
  1793  0F20                     	;# 
  1794  0F21                     	;# 
  1795  0F22                     	;# 
  1796  0F23                     	;# 
  1797  0F24                     	;# 
  1798  0F25                     	;# 
  1799  0F26                     	;# 
  1800  0F27                     	;# 
  1801  0F28                     	;# 
  1802  0F29                     	;# 
  1803  0F2A                     	;# 
  1804  0F2B                     	;# 
  1805  0F2C                     	;# 
  1806  0F2D                     	;# 
  1807  0F2E                     	;# 
  1808  0F2F                     	;# 
  1809  0F30                     	;# 
  1810  0F31                     	;# 
  1811  0F32                     	;# 
  1812  0F33                     	;# 
  1813  0F34                     	;# 
  1814  0F35                     	;# 
  1815  0F36                     	;# 
  1816  0F37                     	;# 
  1817  0FE4                     	;# 
  1818  0FE5                     	;# 
  1819  0FE6                     	;# 
  1820  0FE7                     	;# 
  1821  0FE8                     	;# 
  1822  0FE9                     	;# 
  1823  0FEA                     	;# 
  1824  0FEB                     	;# 
  1825  0FED                     	;# 
  1826  0FEE                     	;# 
  1827  0FEF                     	;# 
  1828  0000                     	;# 
  1829  0001                     	;# 
  1830  0002                     	;# 
  1831  0003                     	;# 
  1832  0004                     	;# 
  1833  0005                     	;# 
  1834  0006                     	;# 
  1835  0007                     	;# 
  1836  0008                     	;# 
  1837  0009                     	;# 
  1838  000A                     	;# 
  1839  000B                     	;# 
  1840  000C                     	;# 
  1841  000D                     	;# 
  1842  000E                     	;# 
  1843  0010                     	;# 
  1844  0011                     	;# 
  1845  0012                     	;# 
  1846  0013                     	;# 
  1847  0015                     	;# 
  1848  0016                     	;# 
  1849  0016                     	;# 
  1850  0017                     	;# 
  1851  0018                     	;# 
  1852  0019                     	;# 
  1853  001A                     	;# 
  1854  001B                     	;# 
  1855  001C                     	;# 
  1856  008C                     	;# 
  1857  008D                     	;# 
  1858  008E                     	;# 
  1859  0090                     	;# 
  1860  0091                     	;# 
  1861  0092                     	;# 
  1862  0093                     	;# 
  1863  0095                     	;# 
  1864  0096                     	;# 
  1865  0097                     	;# 
  1866  0098                     	;# 
  1867  0099                     	;# 
  1868  009A                     	;# 
  1869  009B                     	;# 
  1870  009B                     	;# 
  1871  009C                     	;# 
  1872  009D                     	;# 
  1873  009E                     	;# 
  1874  009F                     	;# 
  1875  010C                     	;# 
  1876  010D                     	;# 
  1877  010E                     	;# 
  1878  0111                     	;# 
  1879  0112                     	;# 
  1880  0113                     	;# 
  1881  0114                     	;# 
  1882  0115                     	;# 
  1883  0116                     	;# 
  1884  0117                     	;# 
  1885  0118                     	;# 
  1886  0119                     	;# 
  1887  011A                     	;# 
  1888  011B                     	;# 
  1889  011B                     	;# 
  1890  011C                     	;# 
  1891  018C                     	;# 
  1892  018D                     	;# 
  1893  018E                     	;# 
  1894  0191                     	;# 
  1895  0191                     	;# 
  1896  0192                     	;# 
  1897  0193                     	;# 
  1898  0193                     	;# 
  1899  0194                     	;# 
  1900  0195                     	;# 
  1901  0196                     	;# 
  1902  0199                     	;# 
  1903  0199                     	;# 
  1904  0199                     	;# 
  1905  019A                     	;# 
  1906  019A                     	;# 
  1907  019A                     	;# 
  1908  019B                     	;# 
  1909  019B                     	;# 
  1910  019B                     	;# 
  1911  019B                     	;# 
  1912  019B                     	;# 
  1913  019C                     	;# 
  1914  019C                     	;# 
  1915  019C                     	;# 
  1916  019D                     	;# 
  1917  019D                     	;# 
  1918  019D                     	;# 
  1919  019E                     	;# 
  1920  019E                     	;# 
  1921  019E                     	;# 
  1922  019F                     	;# 
  1923  019F                     	;# 
  1924  019F                     	;# 
  1925  019F                     	;# 
  1926  019F                     	;# 
  1927  020C                     	;# 
  1928  020D                     	;# 
  1929  020E                     	;# 
  1930  0210                     	;# 
  1931  0211                     	;# 
  1932  0211                     	;# 
  1933  0212                     	;# 
  1934  0212                     	;# 
  1935  0213                     	;# 
  1936  0213                     	;# 
  1937  0214                     	;# 
  1938  0214                     	;# 
  1939  0215                     	;# 
  1940  0215                     	;# 
  1941  0215                     	;# 
  1942  0215                     	;# 
  1943  0216                     	;# 
  1944  0216                     	;# 
  1945  0217                     	;# 
  1946  0217                     	;# 
  1947  028C                     	;# 
  1948  028D                     	;# 
  1949  028E                     	;# 
  1950  0291                     	;# 
  1951  0291                     	;# 
  1952  0292                     	;# 
  1953  0293                     	;# 
  1954  0293                     	;# 
  1955  0298                     	;# 
  1956  0298                     	;# 
  1957  0299                     	;# 
  1958  029A                     	;# 
  1959  029A                     	;# 
  1960  029E                     	;# 
  1961  030C                     	;# 
  1962  030D                     	;# 
  1963  030E                     	;# 
  1964  038C                     	;# 
  1965  038D                     	;# 
  1966  038E                     	;# 
  1967  0390                     	;# 
  1968  0391                     	;# 
  1969  0392                     	;# 
  1970  0393                     	;# 
  1971  0394                     	;# 
  1972  0395                     	;# 
  1973  0396                     	;# 
  1974  0397                     	;# 
  1975  0398                     	;# 
  1976  0399                     	;# 
  1977  039D                     	;# 
  1978  039E                     	;# 
  1979  039F                     	;# 
  1980  0415                     	;# 
  1981  0416                     	;# 
  1982  0417                     	;# 
  1983  041C                     	;# 
  1984  041D                     	;# 
  1985  041E                     	;# 
  1986  0498                     	;# 
  1987  0498                     	;# 
  1988  0499                     	;# 
  1989  049A                     	;# 
  1990  049B                     	;# 
  1991  049B                     	;# 
  1992  049C                     	;# 
  1993  049D                     	;# 
  1994  049E                     	;# 
  1995  049F                     	;# 
  1996  0511                     	;# 
  1997  0515                     	;# 
  1998  0617                     	;# 
  1999  0618                     	;# 
  2000  0619                     	;# 
  2001  0619                     	;# 
  2002  061A                     	;# 
  2003  061B                     	;# 
  2004  061C                     	;# 
  2005  061C                     	;# 
  2006  0691                     	;# 
  2007  0692                     	;# 
  2008  0693                     	;# 
  2009  0694                     	;# 
  2010  0695                     	;# 
  2011  0696                     	;# 
  2012  0697                     	;# 
  2013  0698                     	;# 
  2014  0699                     	;# 
  2015  069A                     	;# 
  2016  069B                     	;# 
  2017  069C                     	;# 
  2018  069D                     	;# 
  2019  069E                     	;# 
  2020  069F                     	;# 
  2021  0E0F                     	;# 
  2022  0E10                     	;# 
  2023  0E11                     	;# 
  2024  0E12                     	;# 
  2025  0E13                     	;# 
  2026  0E14                     	;# 
  2027  0E15                     	;# 
  2028  0E17                     	;# 
  2029  0E20                     	;# 
  2030  0E21                     	;# 
  2031  0E22                     	;# 
  2032  0E24                     	;# 
  2033  0E25                     	;# 
  2034  0E28                     	;# 
  2035  0E29                     	;# 
  2036  0E2A                     	;# 
  2037  0E2B                     	;# 
  2038  0E90                     	;# 
  2039  0E91                     	;# 
  2040  0E92                     	;# 
  2041  0E93                     	;# 
  2042  0E94                     	;# 
  2043  0E95                     	;# 
  2044  0E96                     	;# 
  2045  0E97                     	;# 
  2046  0E98                     	;# 
  2047  0E99                     	;# 
  2048  0E9A                     	;# 
  2049  0E9B                     	;# 
  2050  0E9C                     	;# 
  2051  0E9D                     	;# 
  2052  0E9E                     	;# 
  2053  0E9F                     	;# 
  2054  0EA0                     	;# 
  2055  0EA1                     	;# 
  2056  0EA2                     	;# 
  2057  0EA3                     	;# 
  2058  0EA4                     	;# 
  2059  0EA5                     	;# 
  2060  0EA6                     	;# 
  2061  0EA7                     	;# 
  2062  0F0F                     	;# 
  2063  0F10                     	;# 
  2064  0F11                     	;# 
  2065  0F12                     	;# 
  2066  0F13                     	;# 
  2067  0F14                     	;# 
  2068  0F15                     	;# 
  2069  0F16                     	;# 
  2070  0F17                     	;# 
  2071  0F18                     	;# 
  2072  0F19                     	;# 
  2073  0F1A                     	;# 
  2074  0F1B                     	;# 
  2075  0F1C                     	;# 
  2076  0F1D                     	;# 
  2077  0F1E                     	;# 
  2078  0F1F                     	;# 
  2079  0F20                     	;# 
  2080  0F21                     	;# 
  2081  0F22                     	;# 
  2082  0F23                     	;# 
  2083  0F24                     	;# 
  2084  0F25                     	;# 
  2085  0F26                     	;# 
  2086  0F27                     	;# 
  2087  0F28                     	;# 
  2088  0F29                     	;# 
  2089  0F2A                     	;# 
  2090  0F2B                     	;# 
  2091  0F2C                     	;# 
  2092  0F2D                     	;# 
  2093  0F2E                     	;# 
  2094  0F2F                     	;# 
  2095  0F30                     	;# 
  2096  0F31                     	;# 
  2097  0F32                     	;# 
  2098  0F33                     	;# 
  2099  0F34                     	;# 
  2100  0F35                     	;# 
  2101  0F36                     	;# 
  2102  0F37                     	;# 
  2103  0FE4                     	;# 
  2104  0FE5                     	;# 
  2105  0FE6                     	;# 
  2106  0FE7                     	;# 
  2107  0FE8                     	;# 
  2108  0FE9                     	;# 
  2109  0FEA                     	;# 
  2110  0FEB                     	;# 
  2111  0FED                     	;# 
  2112  0FEE                     	;# 
  2113  0FEF                     	;# 
  2114  0000                     	;# 
  2115  0001                     	;# 
  2116  0002                     	;# 
  2117  0003                     	;# 
  2118  0004                     	;# 
  2119  0005                     	;# 
  2120  0006                     	;# 
  2121  0007                     	;# 
  2122  0008                     	;# 
  2123  0009                     	;# 
  2124  000A                     	;# 
  2125  000B                     	;# 
  2126  000C                     	;# 
  2127  000D                     	;# 
  2128  000E                     	;# 
  2129  0010                     	;# 
  2130  0011                     	;# 
  2131  0012                     	;# 
  2132  0013                     	;# 
  2133  0015                     	;# 
  2134  0016                     	;# 
  2135  0016                     	;# 
  2136  0017                     	;# 
  2137  0018                     	;# 
  2138  0019                     	;# 
  2139  001A                     	;# 
  2140  001B                     	;# 
  2141  001C                     	;# 
  2142  008C                     	;# 
  2143  008D                     	;# 
  2144  008E                     	;# 
  2145  0090                     	;# 
  2146  0091                     	;# 
  2147  0092                     	;# 
  2148  0093                     	;# 
  2149  0095                     	;# 
  2150  0096                     	;# 
  2151  0097                     	;# 
  2152  0098                     	;# 
  2153  0099                     	;# 
  2154  009A                     	;# 
  2155  009B                     	;# 
  2156  009B                     	;# 
  2157  009C                     	;# 
  2158  009D                     	;# 
  2159  009E                     	;# 
  2160  009F                     	;# 
  2161  010C                     	;# 
  2162  010D                     	;# 
  2163  010E                     	;# 
  2164  0111                     	;# 
  2165  0112                     	;# 
  2166  0113                     	;# 
  2167  0114                     	;# 
  2168  0115                     	;# 
  2169  0116                     	;# 
  2170  0117                     	;# 
  2171  0118                     	;# 
  2172  0119                     	;# 
  2173  011A                     	;# 
  2174  011B                     	;# 
  2175  011B                     	;# 
  2176  011C                     	;# 
  2177  018C                     	;# 
  2178  018D                     	;# 
  2179  018E                     	;# 
  2180  0191                     	;# 
  2181  0191                     	;# 
  2182  0192                     	;# 
  2183  0193                     	;# 
  2184  0193                     	;# 
  2185  0194                     	;# 
  2186  0195                     	;# 
  2187  0196                     	;# 
  2188  0199                     	;# 
  2189  0199                     	;# 
  2190  0199                     	;# 
  2191  019A                     	;# 
  2192  019A                     	;# 
  2193  019A                     	;# 
  2194  019B                     	;# 
  2195  019B                     	;# 
  2196  019B                     	;# 
  2197  019B                     	;# 
  2198  019B                     	;# 
  2199  019C                     	;# 
  2200  019C                     	;# 
  2201  019C                     	;# 
  2202  019D                     	;# 
  2203  019D                     	;# 
  2204  019D                     	;# 
  2205  019E                     	;# 
  2206  019E                     	;# 
  2207  019E                     	;# 
  2208  019F                     	;# 
  2209  019F                     	;# 
  2210  019F                     	;# 
  2211  019F                     	;# 
  2212  019F                     	;# 
  2213  020C                     	;# 
  2214  020D                     	;# 
  2215  020E                     	;# 
  2216  0210                     	;# 
  2217  0211                     	;# 
  2218  0211                     	;# 
  2219  0212                     	;# 
  2220  0212                     	;# 
  2221  0213                     	;# 
  2222  0213                     	;# 
  2223  0214                     	;# 
  2224  0214                     	;# 
  2225  0215                     	;# 
  2226  0215                     	;# 
  2227  0215                     	;# 
  2228  0215                     	;# 
  2229  0216                     	;# 
  2230  0216                     	;# 
  2231  0217                     	;# 
  2232  0217                     	;# 
  2233  028C                     	;# 
  2234  028D                     	;# 
  2235  028E                     	;# 
  2236  0291                     	;# 
  2237  0291                     	;# 
  2238  0292                     	;# 
  2239  0293                     	;# 
  2240  0293                     	;# 
  2241  0298                     	;# 
  2242  0298                     	;# 
  2243  0299                     	;# 
  2244  029A                     	;# 
  2245  029A                     	;# 
  2246  029E                     	;# 
  2247  030C                     	;# 
  2248  030D                     	;# 
  2249  030E                     	;# 
  2250  038C                     	;# 
  2251  038D                     	;# 
  2252  038E                     	;# 
  2253  0390                     	;# 
  2254  0391                     	;# 
  2255  0392                     	;# 
  2256  0393                     	;# 
  2257  0394                     	;# 
  2258  0395                     	;# 
  2259  0396                     	;# 
  2260  0397                     	;# 
  2261  0398                     	;# 
  2262  0399                     	;# 
  2263  039D                     	;# 
  2264  039E                     	;# 
  2265  039F                     	;# 
  2266  0415                     	;# 
  2267  0416                     	;# 
  2268  0417                     	;# 
  2269  041C                     	;# 
  2270  041D                     	;# 
  2271  041E                     	;# 
  2272  0498                     	;# 
  2273  0498                     	;# 
  2274  0499                     	;# 
  2275  049A                     	;# 
  2276  049B                     	;# 
  2277  049B                     	;# 
  2278  049C                     	;# 
  2279  049D                     	;# 
  2280  049E                     	;# 
  2281  049F                     	;# 
  2282  0511                     	;# 
  2283  0515                     	;# 
  2284  0617                     	;# 
  2285  0618                     	;# 
  2286  0619                     	;# 
  2287  0619                     	;# 
  2288  061A                     	;# 
  2289  061B                     	;# 
  2290  061C                     	;# 
  2291  061C                     	;# 
  2292  0691                     	;# 
  2293  0692                     	;# 
  2294  0693                     	;# 
  2295  0694                     	;# 
  2296  0695                     	;# 
  2297  0696                     	;# 
  2298  0697                     	;# 
  2299  0698                     	;# 
  2300  0699                     	;# 
  2301  069A                     	;# 
  2302  069B                     	;# 
  2303  069C                     	;# 
  2304  069D                     	;# 
  2305  069E                     	;# 
  2306  069F                     	;# 
  2307  0E0F                     	;# 
  2308  0E10                     	;# 
  2309  0E11                     	;# 
  2310  0E12                     	;# 
  2311  0E13                     	;# 
  2312  0E14                     	;# 
  2313  0E15                     	;# 
  2314  0E17                     	;# 
  2315  0E20                     	;# 
  2316  0E21                     	;# 
  2317  0E22                     	;# 
  2318  0E24                     	;# 
  2319  0E25                     	;# 
  2320  0E28                     	;# 
  2321  0E29                     	;# 
  2322  0E2A                     	;# 
  2323  0E2B                     	;# 
  2324  0E90                     	;# 
  2325  0E91                     	;# 
  2326  0E92                     	;# 
  2327  0E93                     	;# 
  2328  0E94                     	;# 
  2329  0E95                     	;# 
  2330  0E96                     	;# 
  2331  0E97                     	;# 
  2332  0E98                     	;# 
  2333  0E99                     	;# 
  2334  0E9A                     	;# 
  2335  0E9B                     	;# 
  2336  0E9C                     	;# 
  2337  0E9D                     	;# 
  2338  0E9E                     	;# 
  2339  0E9F                     	;# 
  2340  0EA0                     	;# 
  2341  0EA1                     	;# 
  2342  0EA2                     	;# 
  2343  0EA3                     	;# 
  2344  0EA4                     	;# 
  2345  0EA5                     	;# 
  2346  0EA6                     	;# 
  2347  0EA7                     	;# 
  2348  0F0F                     	;# 
  2349  0F10                     	;# 
  2350  0F11                     	;# 
  2351  0F12                     	;# 
  2352  0F13                     	;# 
  2353  0F14                     	;# 
  2354  0F15                     	;# 
  2355  0F16                     	;# 
  2356  0F17                     	;# 
  2357  0F18                     	;# 
  2358  0F19                     	;# 
  2359  0F1A                     	;# 
  2360  0F1B                     	;# 
  2361  0F1C                     	;# 
  2362  0F1D                     	;# 
  2363  0F1E                     	;# 
  2364  0F1F                     	;# 
  2365  0F20                     	;# 
  2366  0F21                     	;# 
  2367  0F22                     	;# 
  2368  0F23                     	;# 
  2369  0F24                     	;# 
  2370  0F25                     	;# 
  2371  0F26                     	;# 
  2372  0F27                     	;# 
  2373  0F28                     	;# 
  2374  0F29                     	;# 
  2375  0F2A                     	;# 
  2376  0F2B                     	;# 
  2377  0F2C                     	;# 
  2378  0F2D                     	;# 
  2379  0F2E                     	;# 
  2380  0F2F                     	;# 
  2381  0F30                     	;# 
  2382  0F31                     	;# 
  2383  0F32                     	;# 
  2384  0F33                     	;# 
  2385  0F34                     	;# 
  2386  0F35                     	;# 
  2387  0F36                     	;# 
  2388  0F37                     	;# 
  2389  0FE4                     	;# 
  2390  0FE5                     	;# 
  2391  0FE6                     	;# 
  2392  0FE7                     	;# 
  2393  0FE8                     	;# 
  2394  0FE9                     	;# 
  2395  0FEA                     	;# 
  2396  0FEB                     	;# 
  2397  0FED                     	;# 
  2398  0FEE                     	;# 
  2399  0FEF                     	;# 
  2400                           
  2401                           	psect	idataBANK0
  2402  0765                     __pidataBANK0:
  2403                           
  2404                           ;initializer for _escucdo
  2405  0765  3404               	retlw	4
  2406                           
  2407                           ;initializer for _corazon
  2408  0766  3404               	retlw	4
  2409                           
  2410                           ;initializer for _lcdOffset
  2411  0767  3403               	retlw	3
  2412                           
  2413                           	psect	idataBANK1
  2414  03CC                     __pidataBANK1:
  2415                           
  2416                           ;initializer for main@F5669
  2417  03CC  340E               	retlw	14
  2418  03CD  3402               	retlw	2
  2419  03CE  3407               	retlw	7
  2420  03CF  341F               	retlw	31
  2421  03D0  3407               	retlw	7
  2422  03D1  3402               	retlw	2
  2423  03D2  340E               	retlw	14
  2424  03D3  3400               	retlw	0
  2425                           
  2426                           ;initializer for main@F5667
  2427  03D4  3400               	retlw	0
  2428  03D5  3400               	retlw	0
  2429  03D6  340A               	retlw	10
  2430  03D7  341F               	retlw	31
  2431  03D8  341F               	retlw	31
  2432  03D9  340E               	retlw	14
  2433  03DA  3404               	retlw	4
  2434  03DB  3400               	retlw	0
  2435                           
  2436                           ;initializer for main@F5665
  2437  03DC  3400               	retlw	0
  2438  03DD  3400               	retlw	0
  2439  03DE  340E               	retlw	14
  2440  03DF  341F               	retlw	31
  2441  03E0  340E               	retlw	14
  2442  03E1  3400               	retlw	0
  2443  03E2  3400               	retlw	0
  2444  03E3  3400               	retlw	0
  2445                           
  2446                           ;initializer for main@F5663
  2447  03E4  3400               	retlw	0
  2448  03E5  340A               	retlw	10
  2449  03E6  3411               	retlw	17
  2450  03E7  3415               	retlw	21
  2451  03E8  3415               	retlw	21
  2452  03E9  3411               	retlw	17
  2453  03EA  340A               	retlw	10
  2454  03EB  3400               	retlw	0
  2455                           
  2456                           ;initializer for main@F5661
  2457  03EC  340E               	retlw	14
  2458  03ED  3408               	retlw	8
  2459  03EE  341C               	retlw	28
  2460  03EF  341F               	retlw	31
  2461  03F0  341C               	retlw	28
  2462  03F1  3408               	retlw	8
  2463  03F2  340E               	retlw	14
  2464  03F3  3400               	retlw	0
  2465                           
  2466                           	psect	nvBANK0
  2467  0036                     __pnvBANK0:
  2468  0036                     _IOCAF5_InterruptHandler:
  2469  0036                     	ds	2
  2470  0038                     _IOCAF4_InterruptHandler:
  2471  0038                     	ds	2
  2472  003A                     _IOCAF3_InterruptHandler:
  2473  003A                     	ds	2
  2474  003C                     _IOCAF2_InterruptHandler:
  2475  003C                     	ds	2
  2476  003E                     _IOCAF1_InterruptHandler:
  2477  003E                     	ds	2
  2478  0040                     _IOCAF0_InterruptHandler:
  2479  0040                     	ds	2
  2480  000D                     _PORTBbits	set	13
  2481  000D                     _PORTB	set	13
  2482  000B                     _INTCONbits	set	11
  2483  0097                     _WDTCON	set	151
  2484  0098                     _OSCTUNE	set	152
  2485  0099                     _OSCCON	set	153
  2486  0095                     _OPTION_REGbits	set	149
  2487  008E                     _TRISC	set	142
  2488  008D                     _TRISB	set	141
  2489  008C                     _TRISA	set	140
  2490  0090                     _TRISE	set	144
  2491  0116                     _BORCON	set	278
  2492  010E                     _LATC	set	270
  2493  010D                     _LATB	set	269
  2494  010C                     _LATA	set	268
  2495  018C                     _ANSELA	set	396
  2496  018D                     _ANSELB	set	397
  2497  018E                     _ANSELC	set	398
  2498  020E                     _WPUC	set	526
  2499  020C                     _WPUA	set	524
  2500  020D                     _WPUB	set	525
  2501  0210                     _WPUE	set	528
  2502  028E                     _ODCONC	set	654
  2503  028D                     _ODCONB	set	653
  2504  028C                     _ODCONA	set	652
  2505  030E                     _SLRCONC	set	782
  2506  030D                     _SLRCONB	set	781
  2507  030C                     _SLRCONA	set	780
  2508  0391                     _IOCAPbits	set	913
  2509  0392                     _IOCANbits	set	914
  2510  0393                     _IOCAFbits	set	915
  2511  0390                     _INLVLE	set	912
  2512  038E                     _INLVLC	set	910
  2513  038D                     _INLVLB	set	909
  2514  038C                     _INLVLA	set	908
  2515                           
  2516                           	psect	stringtext1
  2517  068C                     __pstringtext1:
  2518  068C                     STR_1:
  2519  068C  3420               	retlw	32	;' '
  2520  068D  3420               	retlw	32	;' '
  2521  068E  3420               	retlw	32	;' '
  2522  068F  3420               	retlw	32	;' '
  2523  0690  3420               	retlw	32	;' '
  2524  0691  3420               	retlw	32	;' '
  2525  0692  3420               	retlw	32	;' '
  2526  0693  3420               	retlw	32	;' '
  2527  0694  3420               	retlw	32	;' '
  2528  0695  3420               	retlw	32	;' '
  2529  0696  3420               	retlw	32	;' '
  2530  0697  3420               	retlw	32	;' '
  2531  0698  3420               	retlw	32	;' '
  2532  0699  3420               	retlw	32	;' '
  2533  069A  3420               	retlw	32	;' '
  2534  069B  3420               	retlw	32	;' '
  2535  069C  3400               	retlw	0
  2536                           
  2537                           	psect	stringtext2
  2538  06CE                     __pstringtext2:
  2539  06CE                     STR_6:
  2540  06CE  3453               	retlw	83	;'S'
  2541  06CF  3465               	retlw	101	;'e'
  2542  06D0  346C               	retlw	108	;'l'
  2543  06D1  3465               	retlw	101	;'e'
  2544  06D2  3463               	retlw	99	;'c'
  2545  06D3  3474               	retlw	116	;'t'
  2546  06D4  3420               	retlw	32	;' '
  2547  06D5  3473               	retlw	115	;'s'
  2548  06D6  3468               	retlw	104	;'h'
  2549  06D7  3469               	retlw	105	;'i'
  2550  06D8  3470               	retlw	112	;'p'
  2551  06D9  3423               	retlw	35	;'#'
  2552  06DA  3431               	retlw	49	;'1'
  2553  06DB  3400               	retlw	0
  2554                           
  2555                           	psect	stringtext3
  2556  06DC                     __pstringtext3:
  2557  06DC                     STR_10:
  2558  06DC  3453               	retlw	83	;'S'
  2559  06DD  3465               	retlw	101	;'e'
  2560  06DE  346C               	retlw	108	;'l'
  2561  06DF  3465               	retlw	101	;'e'
  2562  06E0  3463               	retlw	99	;'c'
  2563  06E1  3474               	retlw	116	;'t'
  2564  06E2  3420               	retlw	32	;' '
  2565  06E3  3473               	retlw	115	;'s'
  2566  06E4  3468               	retlw	104	;'h'
  2567  06E5  3469               	retlw	105	;'i'
  2568  06E6  3470               	retlw	112	;'p'
  2569  06E7  3423               	retlw	35	;'#'
  2570  06E8  3432               	retlw	50	;'2'
  2571  06E9  3400               	retlw	0
  2572                           
  2573                           	psect	stringtext4
  2574  06EA                     __pstringtext4:
  2575  06EA                     STR_8:
  2576  06EA  3420               	retlw	32	;' '
  2577  06EB  3420               	retlw	32	;' '
  2578  06EC  3454               	retlw	84	;'T'
  2579  06ED  3469               	retlw	105	;'i'
  2580  06EE  3465               	retlw	101	;'e'
  2581  06EF  3420               	retlw	32	;' '
  2582  06F0  3446               	retlw	70	;'F'
  2583  06F1  3469               	retlw	105	;'i'
  2584  06F2  3467               	retlw	103	;'g'
  2585  06F3  3468               	retlw	104	;'h'
  2586  06F4  3474               	retlw	116	;'t'
  2587  06F5  3465               	retlw	101	;'e'
  2588  06F6  3472               	retlw	114	;'r'
  2589  06F7  3400               	retlw	0
  2590                           
  2591                           	psect	stringtext5
  2592  06F8                     __pstringtext5:
  2593  06F8                     STR_7:
  2594  06F8  343E               	retlw	62	;'>'
  2595  06F9  3420               	retlw	32	;' '
  2596  06FA  3454               	retlw	84	;'T'
  2597  06FB  3469               	retlw	105	;'i'
  2598  06FC  3465               	retlw	101	;'e'
  2599  06FD  3420               	retlw	32	;' '
  2600  06FE  3446               	retlw	70	;'F'
  2601  06FF  3469               	retlw	105	;'i'
  2602  0700  3467               	retlw	103	;'g'
  2603  0701  3468               	retlw	104	;'h'
  2604  0702  3474               	retlw	116	;'t'
  2605  0703  3465               	retlw	101	;'e'
  2606  0704  3472               	retlw	114	;'r'
  2607  0705  3400               	retlw	0
  2608                           
  2609                           	psect	stringtext6
  2610  0706                     __pstringtext6:
  2611  0706                     STR_16:
  2612  0706  3453               	retlw	83	;'S'
  2613  0707  3474               	retlw	116	;'t'
  2614  0708  3461               	retlw	97	;'a'
  2615  0709  3472               	retlw	114	;'r'
  2616  070A  3474               	retlw	116	;'t'
  2617  070B  3420               	retlw	32	;' '
  2618  070C  3446               	retlw	70	;'F'
  2619  070D  3469               	retlw	105	;'i'
  2620  070E  3467               	retlw	103	;'g'
  2621  070F  3468               	retlw	104	;'h'
  2622  0710  3474               	retlw	116	;'t'
  2623  0711  3400               	retlw	0
  2624                           
  2625                           	psect	stringtext7
  2626  0712                     __pstringtext7:
  2627  0712                     STR_5:
  2628  0712  3420               	retlw	32	;' '
  2629  0713  3420               	retlw	32	;' '
  2630  0714  3420               	retlw	32	;' '
  2631  0715  344D               	retlw	77	;'M'
  2632  0716  3465               	retlw	101	;'e'
  2633  0717  346E               	retlw	110	;'n'
  2634  0718  3475               	retlw	117	;'u'
  2635  0719  3420               	retlw	32	;' '
  2636  071A  3420               	retlw	32	;' '
  2637  071B  3420               	retlw	32	;' '
  2638  071C  3400               	retlw	0
  2639                           
  2640                           	psect	stringtext8
  2641  0727                     __pstringtext8:
  2642  0727                     STR_9:
  2643  0727  343E               	retlw	62	;'>'
  2644  0728  3420               	retlw	32	;' '
  2645  0729  3458               	retlw	88	;'X'
  2646  072A  3420               	retlw	32	;' '
  2647  072B  3477               	retlw	119	;'w'
  2648  072C  3469               	retlw	105	;'i'
  2649  072D  346E               	retlw	110	;'n'
  2650  072E  3467               	retlw	103	;'g'
  2651  072F  3400               	retlw	0
  2652                           
  2653                           	psect	stringtext9
  2654  0000                     __pstringtext9:
  2655  069B                     
  2656                           	psect	cinit
  2657  001D                     start_initialization:	
  2658                           ; #config settings
  2659                           
  2660  001D                     __initialization:
  2661                           
  2662                           ; Initialize objects allocated to BANK0
  2663  001D  3065               	movlw	low __pidataBANK0
  2664  001E  0084               	movwf	4
  2665  001F  3087               	movlw	(high __pidataBANK0)| (0+128)
  2666  0020  0085               	movwf	5
  2667  0021  3048               	movlw	low __pdataBANK0
  2668  0022  0086               	movwf	6
  2669  0023  3000               	movlw	high __pdataBANK0
  2670  0024  0087               	movwf	7
  2671  0025  3003               	movlw	3
  2672  0026  3187  2737  3180   	fcall	init_ram
  2673                           
  2674                           ; Initialize objects allocated to BANK1
  2675  0029  30CC               	movlw	low __pidataBANK1
  2676  002A  0084               	movwf	4
  2677  002B  3083               	movlw	(high __pidataBANK1)| (0+128)
  2678  002C  0085               	movwf	5
  2679  002D  30A0               	movlw	low __pdataBANK1
  2680  002E  0086               	movwf	6
  2681  002F  3000               	movlw	high __pdataBANK1
  2682  0030  0087               	movwf	7
  2683  0031  3028               	movlw	40
  2684  0032  3187  2737  3180   	fcall	init_ram
  2685                           
  2686                           ; Clear objects allocated to BANK0
  2687  0035  01C2               	clrf	__pbssBANK0& (0+127)
  2688  0036  01C3               	clrf	(__pbssBANK0+1)& (0+127)
  2689  0037  01C4               	clrf	(__pbssBANK0+2)& (0+127)
  2690  0038  01C5               	clrf	(__pbssBANK0+3)& (0+127)
  2691  0039  01C6               	clrf	(__pbssBANK0+4)& (0+127)
  2692  003A  01C7               	clrf	(__pbssBANK0+5)& (0+127)
  2693  003B                     end_of_initialization:	
  2694                           ;End of C runtime variable initialization code
  2695                           
  2696  003B                     __end_of__initialization:
  2697  003B  107E               	bcf	int$flags,0	;clear compiler interrupt flag (level 1)
  2698  003C  0020               	movlb	0
  2699  003D  3181  294D         	ljmp	_main	;jump to C main() function
  2700                           
  2701                           	psect	bssBANK0
  2702  0042                     __pbssBANK0:
  2703  0042                     _playerTurn:
  2704  0042                     	ds	1
  2705  0043                     _player:
  2706  0043                     	ds	1
  2707  0044                     _ship2:
  2708  0044                     	ds	1
  2709  0045                     _ship1:
  2710  0045                     	ds	1
  2711  0046                     _mainState:
  2712  0046                     	ds	1
  2713  0047                     _inGame:
  2714  0047                     	ds	1
  2715                           
  2716                           	psect	dataBANK0
  2717  0048                     __pdataBANK0:
  2718  0048                     _escucdo:
  2719  0048                     	ds	1
  2720  0049                     _corazon:
  2721  0049                     	ds	1
  2722  004A                     _lcdOffset:
  2723  004A                     	ds	1
  2724                           
  2725                           	psect	dataBANK1
  2726  00A0                     __pdataBANK1:
  2727  00A0                     main@F5669:
  2728  00A0                     	ds	8
  2729  00A8                     main@F5667:
  2730  00A8                     	ds	8
  2731  00B0                     main@F5665:
  2732  00B0                     	ds	8
  2733  00B8                     main@F5663:
  2734  00B8                     	ds	8
  2735  00C0                     main@F5661:
  2736  00C0                     	ds	8
  2737                           
  2738                           	psect	inittext
  2739  0737                     init_ram:
  2740  0737  00FE               	movwf	btemp
  2741  0738                     initloop:
  2742  0738  0012               	moviw fsr0++
  2743  0739  001E               	movwi fsr1++
  2744  073A  0BFE               	decfsz	btemp,f
  2745  073B  2F38               	goto	initloop
  2746  073C  3400               	retlw	0
  2747                           
  2748                           	psect	cstackBANK1
  2749  00C8                     __pcstackBANK1:
  2750  00C8                     main@Pattern1:
  2751                           
  2752                           ; 8 bytes @ 0x0
  2753  00C8                     	ds	8
  2754  00D0                     main@Pattern2:
  2755                           
  2756                           ; 8 bytes @ 0x8
  2757  00D0                     	ds	8
  2758  00D8                     main@Pattern3:
  2759                           
  2760                           ; 8 bytes @ 0x10
  2761  00D8                     	ds	8
  2762  00E0                     main@Pattern4:
  2763                           
  2764                           ; 8 bytes @ 0x18
  2765  00E0                     	ds	8
  2766  00E8                     main@Pattern5:
  2767                           
  2768                           ; 8 bytes @ 0x20
  2769  00E8                     	ds	8
  2770                           
  2771                           	psect	cstackCOMMON
  2772  0070                     __pcstackCOMMON:
  2773  0070                     ?_IOCAF0_DefaultInterruptHandler:
  2774  0070                     ??_IOCAF0_DefaultInterruptHandler:	
  2775                           ; 1 bytes @ 0x0
  2776                           
  2777  0070                     ?_IOCAF1_DefaultInterruptHandler:	
  2778                           ; 1 bytes @ 0x0
  2779                           
  2780  0070                     ??_IOCAF1_DefaultInterruptHandler:	
  2781                           ; 1 bytes @ 0x0
  2782                           
  2783  0070                     ?_IOCAF2_DefaultInterruptHandler:	
  2784                           ; 1 bytes @ 0x0
  2785                           
  2786  0070                     ??_IOCAF2_DefaultInterruptHandler:	
  2787                           ; 1 bytes @ 0x0
  2788                           
  2789  0070                     ?_IOCAF3_DefaultInterruptHandler:	
  2790                           ; 1 bytes @ 0x0
  2791                           
  2792  0070                     ??_IOCAF3_DefaultInterruptHandler:	
  2793                           ; 1 bytes @ 0x0
  2794                           
  2795  0070                     ?_IOCAF4_DefaultInterruptHandler:	
  2796                           ; 1 bytes @ 0x0
  2797                           
  2798  0070                     ??_IOCAF4_DefaultInterruptHandler:	
  2799                           ; 1 bytes @ 0x0
  2800                           
  2801  0070                     ?_IOCAF5_DefaultInterruptHandler:	
  2802                           ; 1 bytes @ 0x0
  2803                           
  2804  0070                     ??_IOCAF5_DefaultInterruptHandler:	
  2805                           ; 1 bytes @ 0x0
  2806                           
  2807  0070                     ?_IOCAF0_ISR:	
  2808                           ; 1 bytes @ 0x0
  2809                           
  2810  0070                     ?_IOCAF1_ISR:	
  2811                           ; 1 bytes @ 0x0
  2812                           
  2813  0070                     ?_IOCAF2_ISR:	
  2814                           ; 1 bytes @ 0x0
  2815                           
  2816  0070                     ?_IOCAF3_ISR:	
  2817                           ; 1 bytes @ 0x0
  2818                           
  2819  0070                     ?_IOCAF4_ISR:	
  2820                           ; 1 bytes @ 0x0
  2821                           
  2822  0070                     ?_IOCAF5_ISR:	
  2823                           ; 1 bytes @ 0x0
  2824                           
  2825  0070                     ?_printMenu:	
  2826                           ; 1 bytes @ 0x0
  2827                           
  2828  0070                     ?_disableButton:	
  2829                           ; 1 bytes @ 0x0
  2830                           
  2831  0070                     ?_enableButton:	
  2832                           ; 1 bytes @ 0x0
  2833                           
  2834  0070                     ??_enableButton:	
  2835                           ; 1 bytes @ 0x0
  2836                           
  2837  0070                     ?_startFight:	
  2838                           ; 1 bytes @ 0x0
  2839                           
  2840  0070                     ?_OSCILLATOR_Initialize:	
  2841                           ; 1 bytes @ 0x0
  2842                           
  2843  0070                     ?_WDT_Initialize:	
  2844                           ; 1 bytes @ 0x0
  2845                           
  2846  0070                     ?_LCDPutCmd:	
  2847                           ; 1 bytes @ 0x0
  2848                           
  2849  0070                     ?_cleanMenu:	
  2850                           ; 1 bytes @ 0x0
  2851                           
  2852  0070                     ?_cleanFullMenu:	
  2853                           ; 1 bytes @ 0x0
  2854                           
  2855  0070                     ?_mainMenu:	
  2856                           ; 1 bytes @ 0x0
  2857                           
  2858  0070                     ?_printShip:	
  2859                           ; 1 bytes @ 0x0
  2860                           
  2861  0070                     ?_PIN_MANAGER_Initialize:	
  2862                           ; 1 bytes @ 0x0
  2863                           
  2864  0070                     ?_PIN_MANAGER_IOC:	
  2865                           ; 1 bytes @ 0x0
  2866                           
  2867  0070                     ?_SYSTEM_Initialize:	
  2868                           ; 1 bytes @ 0x0
  2869                           
  2870  0070                     ?_INTERRUPT_InterruptManager:	
  2871                           ; 1 bytes @ 0x0
  2872                           
  2873  0070                     ?_LCD_Initialize:	
  2874                           ; 1 bytes @ 0x0
  2875                           
  2876  0070                     ?_LCDPutChar:	
  2877                           ; 1 bytes @ 0x0
  2878                           
  2879  0070                     ?_LCDClear:	
  2880                           ; 1 bytes @ 0x0
  2881                           
  2882  0070                     ?_main:	
  2883                           ; 1 bytes @ 0x0
  2884                           
  2885  0070                     ?i1_LCDWriteNibble:	
  2886                           ; 1 bytes @ 0x0
  2887                           
  2888  0070                     ?i1_LCDPutChar:	
  2889                           ; 1 bytes @ 0x0
  2890                           
  2891  0070                     ?i1_LCDPutCmd:	
  2892                           ; 1 bytes @ 0x0
  2893                           
  2894  0070                     ?i1_disableButton:	
  2895                           ; 1 bytes @ 0x0
  2896                           
  2897  0070                     ??i1_disableButton:	
  2898                           ; 1 bytes @ 0x0
  2899                           
  2900  0070                     ?i1_printMenu:	
  2901                           ; 1 bytes @ 0x0
  2902                           
  2903  0070                     ?i1_mainMenu:	
  2904                           ; 1 bytes @ 0x0
  2905                           
  2906  0070                     ?i1_cleanMenu:	
  2907                           ; 1 bytes @ 0x0
  2908                           
  2909  0070                     ?i1_cleanFullMenu:	
  2910                           ; 1 bytes @ 0x0
  2911                           
  2912  0070                     enableButton@player:	
  2913                           ; 1 bytes @ 0x0
  2914                           
  2915  0070                     i1LCDWriteNibble@rs:	
  2916                           ; 1 bytes @ 0x0
  2917                           
  2918  0070                     i1disableButton@player:	
  2919                           ; 1 bytes @ 0x0
  2920                           
  2921                           
  2922                           ; 1 bytes @ 0x0
  2923  0070                     	ds	1
  2924  0071                     ??i1_LCDWriteNibble:
  2925                           
  2926                           ; 1 bytes @ 0x1
  2927  0071                     	ds	2
  2928  0073                     i1LCDWriteNibble@ch:
  2929                           
  2930                           ; 1 bytes @ 0x3
  2931  0073                     	ds	1
  2932  0074                     ??i1_LCDPutChar:
  2933  0074                     ??i1_LCDPutCmd:	
  2934                           ; 1 bytes @ 0x4
  2935                           
  2936                           
  2937                           ; 1 bytes @ 0x4
  2938  0074                     	ds	2
  2939  0076                     i1LCDPutChar@ch:
  2940  0076                     i1LCDPutCmd@ch:	
  2941                           ; 1 bytes @ 0x6
  2942                           
  2943                           
  2944                           ; 1 bytes @ 0x6
  2945  0076                     	ds	1
  2946  0077                     ?i1_LCDPutStr:
  2947  0077                     ?i1_LCDGoto:	
  2948                           ; 1 bytes @ 0x7
  2949                           
  2950  0077                     i1LCDGoto@ln:	
  2951                           ; 1 bytes @ 0x7
  2952                           
  2953  0077                     i1LCDPutStr@str:	
  2954                           ; 1 bytes @ 0x7
  2955                           
  2956                           
  2957                           ; 2 bytes @ 0x7
  2958  0077                     	ds	1
  2959  0078                     ??i1_LCDGoto:
  2960  0078                     i1_LCDGoto$485:	
  2961                           ; 1 bytes @ 0x8
  2962                           
  2963                           
  2964                           ; 2 bytes @ 0x8
  2965  0078                     	ds	1
  2966  0079                     ??i1_LCDPutStr:
  2967                           
  2968                           ; 1 bytes @ 0x9
  2969  0079                     	ds	1
  2970  007A                     i1LCDGoto@pos:
  2971                           
  2972                           ; 1 bytes @ 0xA
  2973  007A                     	ds	2
  2974  007C                     i1LCDPutStr@i:
  2975                           
  2976                           ; 1 bytes @ 0xC
  2977  007C                     	ds	1
  2978  007D                     ??_printShip:
  2979  007D                     ??_PIN_MANAGER_IOC:	
  2980                           ; 1 bytes @ 0xD
  2981                           
  2982  007D                     ??_INTERRUPT_InterruptManager:	
  2983                           ; 1 bytes @ 0xD
  2984                           
  2985  007D                     ??_LCDClear:	
  2986                           ; 1 bytes @ 0xD
  2987                           
  2988  007D                     ??i1_printMenu:	
  2989                           ; 1 bytes @ 0xD
  2990                           
  2991  007D                     ??i1_cleanMenu:	
  2992                           ; 1 bytes @ 0xD
  2993                           
  2994  007D                     ??i1_cleanFullMenu:	
  2995                           ; 1 bytes @ 0xD
  2996                           
  2997                           
  2998                           ; 1 bytes @ 0xD
  2999  007D                     	ds	1
  3000                           
  3001                           	psect	cstackBANK0
  3002  0020                     __pcstackBANK0:
  3003  0020                     ??i1_mainMenu:
  3004                           
  3005                           ; 1 bytes @ 0x0
  3006  0020                     	ds	2
  3007  0022                     ??_IOCAF0_ISR:
  3008  0022                     ??_IOCAF1_ISR:	
  3009                           ; 1 bytes @ 0x2
  3010                           
  3011  0022                     ??_IOCAF2_ISR:	
  3012                           ; 1 bytes @ 0x2
  3013                           
  3014  0022                     ??_IOCAF3_ISR:	
  3015                           ; 1 bytes @ 0x2
  3016                           
  3017  0022                     ??_IOCAF4_ISR:	
  3018                           ; 1 bytes @ 0x2
  3019                           
  3020  0022                     ??_startFight:	
  3021                           ; 1 bytes @ 0x2
  3022                           
  3023                           
  3024                           ; 1 bytes @ 0x2
  3025  0022                     	ds	2
  3026  0024                     ??_IOCAF5_ISR:
  3027                           
  3028                           ; 1 bytes @ 0x4
  3029  0024                     	ds	2
  3030  0026                     ?_IOCAF0_SetInterruptHandler:
  3031  0026                     ?_IOCAF1_SetInterruptHandler:	
  3032                           ; 1 bytes @ 0x6
  3033                           
  3034  0026                     ?_IOCAF2_SetInterruptHandler:	
  3035                           ; 1 bytes @ 0x6
  3036                           
  3037  0026                     ?_IOCAF3_SetInterruptHandler:	
  3038                           ; 1 bytes @ 0x6
  3039                           
  3040  0026                     ?_IOCAF4_SetInterruptHandler:	
  3041                           ; 1 bytes @ 0x6
  3042                           
  3043  0026                     ?_IOCAF5_SetInterruptHandler:	
  3044                           ; 1 bytes @ 0x6
  3045                           
  3046  0026                     ??_disableButton:	
  3047                           ; 1 bytes @ 0x6
  3048                           
  3049  0026                     ??_OSCILLATOR_Initialize:	
  3050                           ; 1 bytes @ 0x6
  3051                           
  3052  0026                     ??_WDT_Initialize:	
  3053                           ; 1 bytes @ 0x6
  3054                           
  3055  0026                     ?_LCDWriteNibble:	
  3056                           ; 1 bytes @ 0x6
  3057                           
  3058  0026                     LCDWriteNibble@rs:	
  3059                           ; 1 bytes @ 0x6
  3060                           
  3061  0026                     disableButton@player:	
  3062                           ; 1 bytes @ 0x6
  3063                           
  3064  0026                     IOCAF0_SetInterruptHandler@InterruptHandler:	
  3065                           ; 1 bytes @ 0x6
  3066                           
  3067  0026                     IOCAF1_SetInterruptHandler@InterruptHandler:	
  3068                           ; 2 bytes @ 0x6
  3069                           
  3070  0026                     IOCAF2_SetInterruptHandler@InterruptHandler:	
  3071                           ; 2 bytes @ 0x6
  3072                           
  3073  0026                     IOCAF3_SetInterruptHandler@InterruptHandler:	
  3074                           ; 2 bytes @ 0x6
  3075                           
  3076  0026                     IOCAF4_SetInterruptHandler@InterruptHandler:	
  3077                           ; 2 bytes @ 0x6
  3078                           
  3079  0026                     IOCAF5_SetInterruptHandler@InterruptHandler:	
  3080                           ; 2 bytes @ 0x6
  3081                           
  3082                           
  3083                           ; 2 bytes @ 0x6
  3084  0026                     	ds	1
  3085  0027                     ??_LCDWriteNibble:
  3086                           
  3087                           ; 1 bytes @ 0x7
  3088  0027                     	ds	1
  3089  0028                     ??_IOCAF0_SetInterruptHandler:
  3090  0028                     ??_IOCAF1_SetInterruptHandler:	
  3091                           ; 1 bytes @ 0x8
  3092                           
  3093  0028                     ??_IOCAF2_SetInterruptHandler:	
  3094                           ; 1 bytes @ 0x8
  3095                           
  3096  0028                     ??_IOCAF3_SetInterruptHandler:	
  3097                           ; 1 bytes @ 0x8
  3098                           
  3099  0028                     ??_IOCAF4_SetInterruptHandler:	
  3100                           ; 1 bytes @ 0x8
  3101                           
  3102  0028                     ??_IOCAF5_SetInterruptHandler:	
  3103                           ; 1 bytes @ 0x8
  3104                           
  3105  0028                     ??_PIN_MANAGER_Initialize:	
  3106                           ; 1 bytes @ 0x8
  3107                           
  3108  0028                     ??_SYSTEM_Initialize:	
  3109                           ; 1 bytes @ 0x8
  3110                           
  3111                           
  3112                           ; 1 bytes @ 0x8
  3113  0028                     	ds	1
  3114  0029                     LCDWriteNibble@ch:
  3115                           
  3116                           ; 1 bytes @ 0x9
  3117  0029                     	ds	1
  3118  002A                     ??_LCDPutCmd:
  3119  002A                     ??_LCDPutChar:	
  3120                           ; 1 bytes @ 0xA
  3121                           
  3122                           
  3123                           ; 1 bytes @ 0xA
  3124  002A                     	ds	2
  3125  002C                     LCDPutChar@ch:
  3126  002C                     LCDPutCmd@ch:	
  3127                           ; 1 bytes @ 0xC
  3128                           
  3129                           
  3130                           ; 1 bytes @ 0xC
  3131  002C                     	ds	1
  3132  002D                     ??_LCD_Initialize:
  3133  002D                     ?_LCDPutStr:	
  3134                           ; 1 bytes @ 0xD
  3135                           
  3136  002D                     ?_LCDGoto:	
  3137                           ; 1 bytes @ 0xD
  3138                           
  3139  002D                     ?_createCustomCharacter:	
  3140                           ; 1 bytes @ 0xD
  3141                           
  3142  002D                     LCDGoto@ln:	
  3143                           ; 1 bytes @ 0xD
  3144                           
  3145  002D                     createCustomCharacter@Location:	
  3146                           ; 1 bytes @ 0xD
  3147                           
  3148  002D                     LCDPutStr@str:	
  3149                           ; 1 bytes @ 0xD
  3150                           
  3151                           
  3152                           ; 2 bytes @ 0xD
  3153  002D                     	ds	1
  3154  002E                     ??_LCDGoto:
  3155  002E                     ??_createCustomCharacter:	
  3156                           ; 1 bytes @ 0xE
  3157                           
  3158  002E                     _LCDGoto$485:	
  3159                           ; 1 bytes @ 0xE
  3160                           
  3161                           
  3162                           ; 2 bytes @ 0xE
  3163  002E                     	ds	1
  3164  002F                     ??_LCDPutStr:
  3165  002F                     createCustomCharacter@Pattern:	
  3166                           ; 1 bytes @ 0xF
  3167                           
  3168                           
  3169                           ; 1 bytes @ 0xF
  3170  002F                     	ds	1
  3171  0030                     LCDGoto@pos:
  3172  0030                     createCustomCharacter@i:	
  3173                           ; 1 bytes @ 0x10
  3174                           
  3175                           
  3176                           ; 2 bytes @ 0x10
  3177  0030                     	ds	2
  3178  0032                     LCDPutStr@i:
  3179                           
  3180                           ; 1 bytes @ 0x12
  3181  0032                     	ds	1
  3182  0033                     ??_cleanMenu:
  3183  0033                     ??_cleanFullMenu:	
  3184                           ; 1 bytes @ 0x13
  3185                           
  3186  0033                     ??_mainMenu:	
  3187                           ; 1 bytes @ 0x13
  3188                           
  3189                           
  3190                           ; 1 bytes @ 0x13
  3191  0033                     	ds	2
  3192  0035                     ??_printMenu:
  3193  0035                     ??_main:	
  3194                           ; 1 bytes @ 0x15
  3195                           
  3196                           
  3197                           ; 1 bytes @ 0x15
  3198  0035                     	ds	1
  3199                           
  3200                           	psect	maintext
  3201  014D                     __pmaintext:	
  3202 ;;
  3203 ;;Main: autosize = 0, tempsize = 1, incstack = 0, save=0
  3204 ;;
  3205 ;; *************** function _main *****************
  3206 ;; Defined at:
  3207 ;;		line 29 in file "main.c"
  3208 ;; Parameters:    Size  Location     Type
  3209 ;;		None
  3210 ;; Auto vars:     Size  Location     Type
  3211 ;;  Pattern5        8   32[BANK1 ] unsigned char [8]
  3212 ;;  Pattern4        8   24[BANK1 ] unsigned char [8]
  3213 ;;  Pattern3        8   16[BANK1 ] unsigned char [8]
  3214 ;;  Pattern2        8    8[BANK1 ] unsigned char [8]
  3215 ;;  Pattern1        8    0[BANK1 ] unsigned char [8]
  3216 ;; Return value:  Size  Location     Type
  3217 ;;                  1    wreg      void 
  3218 ;; Registers used:
  3219 ;;		wreg, fsr0l, fsr0h, fsr1l, fsr1h, status,2, status,0, pclath, cstack
  3220 ;; Tracked objects:
  3221 ;;		On entry : B1F/0
  3222 ;;		On exit  : 0/0
  3223 ;;		Unchanged: 0/0
  3224 ;; Data sizes:     COMMON   BANK0   BANK1   BANK2   BANK3   BANK4   BANK5   BANK6   BANK7   BANK8   BANK9  BANK10  BANK1
      +1  BANK12  BANK13  BANK14  BANK15  BANK16  BANK17  BANK18  BANK19  BANK20  BANK21  BANK22  BANK23  BANK24  BANK25
  3225 ;;      Params:         0       0       0       0       0       0       0       0       0       0       0       0       
      +0       0       0       0       0       0       0       0       0       0       0       0       0       0       0
  3226 ;;      Locals:         0       0      40       0       0       0       0       0       0       0       0       0       
      +0       0       0       0       0       0       0       0       0       0       0       0       0       0       0
  3227 ;;      Temps:          0       1       0       0       0       0       0       0       0       0       0       0       
      +0       0       0       0       0       0       0       0       0       0       0       0       0       0       0
  3228 ;;      Totals:         0       1      40       0       0       0       0       0       0       0       0       0       
      +0       0       0       0       0       0       0       0       0       0       0       0       0       0       0
  3229 ;;Total ram usage:       41 bytes
  3230 ;; Hardware stack levels required when called:   14
  3231 ;; This function calls:
  3232 ;;		_LCD_Initialize
  3233 ;;		_SYSTEM_Initialize
  3234 ;;		_createCustomCharacter
  3235 ;;		_disableButton
  3236 ;;		_printMenu
  3237 ;; This function is called by:
  3238 ;;		Startup code after reset
  3239 ;; This function uses a non-reentrant model
  3240 ;;
  3241                           
  3242                           
  3243                           ;psect for function _main
  3244  014D                     _main:
  3245  014D                     l2863:	
  3246                           ;incstack = 0
  3247                           ; Regs used in _main: [wreg-fsr1h+status,2+status,0+pclath+cstack]
  3248                           
  3249                           
  3250                           ;main.c: 35:     SYSTEM_Initialize();
  3251  014D  3187  271D  3181   	fcall	_SYSTEM_Initialize
  3252                           
  3253                           ;main.c: 36:     LCD_Initialize();
  3254  0150  3184  24E1  3181   	fcall	_LCD_Initialize
  3255  0153                     l2865:
  3256                           
  3257                           ;main.c: 40:     unsigned char Pattern1 [ ] = {0x0E,0x08,0x1C,0x1F,0x1C,0x08,0x0E,0x00};
  3258  0153  30C0               	movlw	low main@F5661
  3259  0154  0086               	movwf	6
  3260  0155  3000               	movlw	high main@F5661
  3261  0156  0087               	movwf	7
  3262  0157  30C8               	movlw	low main@Pattern1
  3263  0158  0084               	movwf	4
  3264  0159  3000               	movlw	high main@Pattern1
  3265  015A  0085               	movwf	5
  3266  015B  3008               	movlw	8
  3267  015C  0020               	movlb	0	; select bank0
  3268  015D  00B5               	movwf	??_main
  3269  015E                     u1280:
  3270  015E  0016               	moviw fsr1++
  3271  015F  001A               	movwi fsr0++
  3272  0160  0BB5               	decfsz	??_main,f
  3273  0161  295E               	goto	u1280
  3274  0162                     l2867:
  3275                           
  3276                           ;main.c: 42:     unsigned char Pattern2 [ ] = {0x00,0x0A,0x11,0x15,0x15,0x11,0x0A,0x00};
  3277  0162  30B8               	movlw	low main@F5663
  3278  0163  0086               	movwf	6
  3279  0164  3000               	movlw	high main@F5663
  3280  0165  0087               	movwf	7
  3281  0166  30D0               	movlw	low main@Pattern2
  3282  0167  0084               	movwf	4
  3283  0168  3000               	movlw	high main@Pattern2
  3284  0169  0085               	movwf	5
  3285  016A  3008               	movlw	8
  3286  016B  00B5               	movwf	??_main
  3287  016C                     u1290:
  3288  016C  0016               	moviw fsr1++
  3289  016D  001A               	movwi fsr0++
  3290  016E  0BB5               	decfsz	??_main,f
  3291  016F  296C               	goto	u1290
  3292  0170                     l2869:
  3293                           
  3294                           ;main.c: 44:     unsigned char Pattern3 [ ] = {0x00,0x00,0x0E,0x1F,0x0E,0x00,0x00,0x00};
  3295  0170  30B0               	movlw	low main@F5665
  3296  0171  0086               	movwf	6
  3297  0172  3000               	movlw	high main@F5665
  3298  0173  0087               	movwf	7
  3299  0174  30D8               	movlw	low main@Pattern3
  3300  0175  0084               	movwf	4
  3301  0176  3000               	movlw	high main@Pattern3
  3302  0177  0085               	movwf	5
  3303  0178  3008               	movlw	8
  3304  0179  00B5               	movwf	??_main
  3305  017A                     u1300:
  3306  017A  0016               	moviw fsr1++
  3307  017B  001A               	movwi fsr0++
  3308  017C  0BB5               	decfsz	??_main,f
  3309  017D  297A               	goto	u1300
  3310  017E                     l2871:
  3311                           
  3312                           ;main.c: 46:     unsigned char Pattern4 [ ] = {0x00,0x00,0x0A,0x1F,0x1F,0x0E,0x04,0x00};
  3313  017E  30A8               	movlw	low main@F5667
  3314  017F  0086               	movwf	6
  3315  0180  3000               	movlw	high main@F5667
  3316  0181  0087               	movwf	7
  3317  0182  30E0               	movlw	low main@Pattern4
  3318  0183  0084               	movwf	4
  3319  0184  3000               	movlw	high main@Pattern4
  3320  0185  0085               	movwf	5
  3321  0186  3008               	movlw	8
  3322  0187  00B5               	movwf	??_main
  3323  0188                     u1310:
  3324  0188  0016               	moviw fsr1++
  3325  0189  001A               	movwi fsr0++
  3326  018A  0BB5               	decfsz	??_main,f
  3327  018B  2988               	goto	u1310
  3328  018C                     l2873:
  3329                           
  3330                           ;main.c: 48:     unsigned char Pattern5 [ ] = {0x0E,0x02,0x07,0x1F,0x07,0x02,0x0E,0x00};
  3331  018C  30A0               	movlw	low main@F5669
  3332  018D  0086               	movwf	6
  3333  018E  3000               	movlw	high main@F5669
  3334  018F  0087               	movwf	7
  3335  0190  30E8               	movlw	low main@Pattern5
  3336  0191  0084               	movwf	4
  3337  0192  3000               	movlw	high main@Pattern5
  3338  0193  0085               	movwf	5
  3339  0194  3008               	movlw	8
  3340  0195  00B5               	movwf	??_main
  3341  0196                     u1320:
  3342  0196  0016               	moviw fsr1++
  3343  0197  001A               	movwi fsr0++
  3344  0198  0BB5               	decfsz	??_main,f
  3345  0199  2996               	goto	u1320
  3346  019A                     l2875:
  3347                           
  3348                           ;main.c: 52:     createCustomCharacter(Pattern1,1);
  3349  019A  01AD               	clrf	createCustomCharacter@Location
  3350  019B  0AAD               	incf	createCustomCharacter@Location,f
  3351  019C  30C8               	movlw	(low (main@Pattern1| 0))& (0+255)
  3352  019D  3182  22F0  3181   	fcall	_createCustomCharacter
  3353  01A0                     l2877:
  3354                           
  3355                           ;main.c: 53:     createCustomCharacter(Pattern2,0);
  3356  01A0  0020               	movlb	0	; select bank0
  3357  01A1  01AD               	clrf	createCustomCharacter@Location
  3358  01A2  30D0               	movlw	(low (main@Pattern2| 0))& (0+255)
  3359  01A3  3182  22F0  3181   	fcall	_createCustomCharacter
  3360  01A6                     l2879:
  3361                           
  3362                           ;main.c: 54:     createCustomCharacter(Pattern3,2);
  3363  01A6  3002               	movlw	2
  3364  01A7  0020               	movlb	0	; select bank0
  3365  01A8  00B5               	movwf	??_main
  3366  01A9  0835               	movf	??_main,w
  3367  01AA  00AD               	movwf	createCustomCharacter@Location
  3368  01AB  30D8               	movlw	(low (main@Pattern3| 0))& (0+255)
  3369  01AC  3182  22F0  3181   	fcall	_createCustomCharacter
  3370  01AF                     l2881:
  3371                           
  3372                           ;main.c: 55:     createCustomCharacter(Pattern4,3);
  3373  01AF  3003               	movlw	3
  3374  01B0  0020               	movlb	0	; select bank0
  3375  01B1  00B5               	movwf	??_main
  3376  01B2  0835               	movf	??_main,w
  3377  01B3  00AD               	movwf	createCustomCharacter@Location
  3378  01B4  30E0               	movlw	(low (main@Pattern4| 0))& (0+255)
  3379  01B5  3182  22F0  3181   	fcall	_createCustomCharacter
  3380  01B8                     l2883:
  3381                           
  3382                           ;main.c: 56:     createCustomCharacter(Pattern5,4);
  3383  01B8  3004               	movlw	4
  3384  01B9  0020               	movlb	0	; select bank0
  3385  01BA  00B5               	movwf	??_main
  3386  01BB  0835               	movf	??_main,w
  3387  01BC  00AD               	movwf	createCustomCharacter@Location
  3388  01BD  30E8               	movlw	(low (main@Pattern5| 0))& (0+255)
  3389  01BE  3182  22F0  3181   	fcall	_createCustomCharacter
  3390  01C1                     l2885:
  3391                           
  3392                           ;main.c: 61:     printMenu();
  3393  01C1  3185  2587  3181   	fcall	_printMenu
  3394  01C4                     l2887:
  3395                           
  3396                           ;main.c: 64:     (INTCONbits.GIE = 1);
  3397  01C4  178B               	bsf	11,7	;volatile
  3398  01C5                     l2889:
  3399                           
  3400                           ;main.c: 67:     disableButton(1);
  3401  01C5  3001               	movlw	1
  3402  01C6  3186  269D  3181   	fcall	_disableButton
  3403  01C9                     l383:	
  3404                           ;main.c: 69:     while (1)
  3405                           
  3406  01C9                     l384:	
  3407                           ;main.c: 70:     {;main.c: 72:     }
  3408                           
  3409  01C9  29C9               	goto	l383
  3410  01CA  3180  281B         	ljmp	start
  3411  01CC                     __end_of_main:
  3412                           
  3413                           	psect	text1
  3414  0587                     __ptext1:	
  3415 ;; *************** function _printMenu *****************
  3416 ;; Defined at:
  3417 ;;		line 32 in file "menu.c"
  3418 ;; Parameters:    Size  Location     Type
  3419 ;;		None
  3420 ;; Auto vars:     Size  Location     Type
  3421 ;;		None
  3422 ;; Return value:  Size  Location     Type
  3423 ;;                  1    wreg      void 
  3424 ;; Registers used:
  3425 ;;		wreg, fsr0l, fsr0h, status,2, status,0, pclath, cstack
  3426 ;; Tracked objects:
  3427 ;;		On entry : 0/0
  3428 ;;		On exit  : 0/0
  3429 ;;		Unchanged: 0/0
  3430 ;; Data sizes:     COMMON   BANK0   BANK1   BANK2   BANK3   BANK4   BANK5   BANK6   BANK7   BANK8   BANK9  BANK10  BANK1
      +1  BANK12  BANK13  BANK14  BANK15  BANK16  BANK17  BANK18  BANK19  BANK20  BANK21  BANK22  BANK23  BANK24  BANK25
  3431 ;;      Params:         0       0       0       0       0       0       0       0       0       0       0       0       
      +0       0       0       0       0       0       0       0       0       0       0       0       0       0       0
  3432 ;;      Locals:         0       0       0       0       0       0       0       0       0       0       0       0       
      +0       0       0       0       0       0       0       0       0       0       0       0       0       0       0
  3433 ;;      Temps:          0       0       0       0       0       0       0       0       0       0       0       0       
      +0       0       0       0       0       0       0       0       0       0       0       0       0       0       0
  3434 ;;      Totals:         0       0       0       0       0       0       0       0       0       0       0       0       
      +0       0       0       0       0       0       0       0       0       0       0       0       0       0       0
  3435 ;;Total ram usage:        0 bytes
  3436 ;; Hardware stack levels used:    1
  3437 ;; Hardware stack levels required when called:   13
  3438 ;; This function calls:
  3439 ;;		_LCDGoto
  3440 ;;		_LCDPutStr
  3441 ;;		_cleanFullMenu
  3442 ;;		_cleanMenu
  3443 ;;		_mainMenu
  3444 ;; This function is called by:
  3445 ;;		_main
  3446 ;; This function uses a non-reentrant model
  3447 ;;
  3448                           
  3449                           
  3450                           ;psect for function _printMenu
  3451  0587                     _printMenu:
  3452  0587                     l2769:	
  3453                           ;incstack = 0
  3454                           ; Regs used in _printMenu: [wreg-fsr0h+status,2+status,0+pclath+cstack]
  3455                           
  3456                           
  3457                           ;menu.c: 43:     if(inGame){
  3458  0587  0020               	movlb	0	; select bank0
  3459  0588  0847               	movf	_inGame,w
  3460  0589  1903               	btfsc	3,2
  3461  058A  2D8C               	goto	u1191
  3462  058B  2D8D               	goto	u1190
  3463  058C                     u1191:
  3464  058C  2D9F               	goto	l2777
  3465  058D                     u1190:
  3466  058D                     l2771:
  3467                           
  3468                           ;menu.c: 44:         cleanMenu();
  3469  058D  3185  25C5  3185   	fcall	_cleanMenu
  3470  0590                     l2773:
  3471                           
  3472                           ;menu.c: 45:         LCDGoto(lcdOffset, 0);
  3473  0590  0020               	movlb	0	; select bank0
  3474  0591  01AD               	clrf	LCDGoto@ln
  3475  0592  084A               	movf	_lcdOffset,w
  3476  0593  3184  241C  3185   	fcall	_LCDGoto
  3477  0596                     l2775:
  3478                           
  3479                           ;menu.c: 46:         LCDPutStr("   Menu   ");
  3480  0596  3012               	movlw	low (STR_5| (0+32768))
  3481  0597  0020               	movlb	0	; select bank0
  3482  0598  00AD               	movwf	LCDPutStr@str
  3483  0599  3087               	movlw	high (STR_5| (0+32768))
  3484  059A  00AE               	movwf	LCDPutStr@str+1
  3485  059B  3183  23F4  3185   	fcall	_LCDPutStr
  3486                           
  3487                           ;menu.c: 47:     }else {
  3488  059E  2DA5               	goto	l413
  3489  059F                     l2777:
  3490                           
  3491                           ;menu.c: 48:         cleanFullMenu();
  3492  059F  3185  25E3  3185   	fcall	_cleanFullMenu
  3493                           
  3494                           ;menu.c: 49:         mainMenu();
  3495  05A2  3180  203F  3185   	fcall	_mainMenu
  3496  05A5                     l413:
  3497  05A5  0008               	return
  3498  05A6                     __end_of_printMenu:
  3499                           
  3500                           	psect	text2
  3501  003F                     __ptext2:	
  3502 ;; *************** function _mainMenu *****************
  3503 ;; Defined at:
  3504 ;;		line 53 in file "menu.c"
  3505 ;; Parameters:    Size  Location     Type
  3506 ;;		None
  3507 ;; Auto vars:     Size  Location     Type
  3508 ;;		None
  3509 ;; Return value:  Size  Location     Type
  3510 ;;                  1    wreg      void 
  3511 ;; Registers used:
  3512 ;;		wreg, fsr0l, fsr0h, status,2, status,0, pclath, cstack
  3513 ;; Tracked objects:
  3514 ;;		On entry : 0/0
  3515 ;;		On exit  : 0/0
  3516 ;;		Unchanged: 0/0
  3517 ;; Data sizes:     COMMON   BANK0   BANK1   BANK2   BANK3   BANK4   BANK5   BANK6   BANK7   BANK8   BANK9  BANK10  BANK1
      +1  BANK12  BANK13  BANK14  BANK15  BANK16  BANK17  BANK18  BANK19  BANK20  BANK21  BANK22  BANK23  BANK24  BANK25
  3518 ;;      Params:         0       0       0       0       0       0       0       0       0       0       0       0       
      +0       0       0       0       0       0       0       0       0       0       0       0       0       0       0
  3519 ;;      Locals:         0       0       0       0       0       0       0       0       0       0       0       0       
      +0       0       0       0       0       0       0       0       0       0       0       0       0       0       0
  3520 ;;      Temps:          0       2       0       0       0       0       0       0       0       0       0       0       
      +0       0       0       0       0       0       0       0       0       0       0       0       0       0       0
  3521 ;;      Totals:         0       2       0       0       0       0       0       0       0       0       0       0       
      +0       0       0       0       0       0       0       0       0       0       0       0       0       0       0
  3522 ;;Total ram usage:        2 bytes
  3523 ;; Hardware stack levels used:    1
  3524 ;; Hardware stack levels required when called:   12
  3525 ;; This function calls:
  3526 ;;		_LCDGoto
  3527 ;;		_LCDPutStr
  3528 ;; This function is called by:
  3529 ;;		_printMenu
  3530 ;; This function uses a non-reentrant model
  3531 ;;
  3532                           
  3533                           
  3534                           ;psect for function _mainMenu
  3535  003F                     _mainMenu:
  3536  003F                     l2711:	
  3537                           ;incstack = 0
  3538                           ; Regs used in _mainMenu: [wreg-fsr0h+status,2+status,0+pclath+cstack]
  3539                           
  3540                           
  3541                           ;menu.c: 63:     switch (mainState){
  3542  003F  28B4               	goto	l2739
  3543  0040                     l2713:
  3544                           
  3545                           ;menu.c: 65:             LCDGoto(0, 0);
  3546  0040  01AD               	clrf	LCDGoto@ln
  3547  0041  3000               	movlw	0
  3548  0042  3184  241C  3180   	fcall	_LCDGoto
  3549  0045                     l2715:
  3550                           
  3551                           ;menu.c: 66:             LCDPutStr("Select ship#1");
  3552  0045  30CE               	movlw	low (STR_6| (0+32768))
  3553  0046  0020               	movlb	0	; select bank0
  3554  0047  00AD               	movwf	LCDPutStr@str
  3555  0048  3086               	movlw	high (STR_6| (0+32768))
  3556  0049  00AE               	movwf	LCDPutStr@str+1
  3557  004A  3183  23F4  3180   	fcall	_LCDPutStr
  3558  004D                     l2717:
  3559                           
  3560                           ;menu.c: 67:             LCDGoto(0, 1);
  3561  004D  0020               	movlb	0	; select bank0
  3562  004E  01AD               	clrf	LCDGoto@ln
  3563  004F  0AAD               	incf	LCDGoto@ln,f
  3564  0050  3000               	movlw	0
  3565  0051  3184  241C  3180   	fcall	_LCDGoto
  3566                           
  3567                           ;menu.c: 68:             LCDPutStr("> Tie Fighter");
  3568  0054  30F8               	movlw	low (STR_7| (0+32768))
  3569  0055  0020               	movlb	0	; select bank0
  3570  0056  00AD               	movwf	LCDPutStr@str
  3571  0057  3086               	movlw	high (STR_7| (0+32768))
  3572  0058  00AE               	movwf	LCDPutStr@str+1
  3573  0059  3183  23F4  3180   	fcall	_LCDPutStr
  3574                           
  3575                           ;menu.c: 69:         break;
  3576  005C  28CB               	goto	l423
  3577  005D                     l2719:
  3578                           
  3579                           ;menu.c: 71:             LCDGoto(0, 0);
  3580  005D  01AD               	clrf	LCDGoto@ln
  3581  005E  3000               	movlw	0
  3582  005F  3184  241C  3180   	fcall	_LCDGoto
  3583  0062                     l2721:
  3584                           
  3585                           ;menu.c: 72:             LCDPutStr("  Tie Fighter");
  3586  0062  30EA               	movlw	low (STR_8| (0+32768))
  3587  0063  0020               	movlb	0	; select bank0
  3588  0064  00AD               	movwf	LCDPutStr@str
  3589  0065  3086               	movlw	high (STR_8| (0+32768))
  3590  0066  00AE               	movwf	LCDPutStr@str+1
  3591  0067  3183  23F4  3180   	fcall	_LCDPutStr
  3592  006A                     l2723:
  3593                           
  3594                           ;menu.c: 73:             LCDGoto(0, 1);
  3595  006A  0020               	movlb	0	; select bank0
  3596  006B  01AD               	clrf	LCDGoto@ln
  3597  006C  0AAD               	incf	LCDGoto@ln,f
  3598  006D  3000               	movlw	0
  3599  006E  3184  241C  3180   	fcall	_LCDGoto
  3600                           
  3601                           ;menu.c: 74:             LCDPutStr("> X wing");
  3602  0071  3027               	movlw	low (STR_9| (0+32768))
  3603  0072  0020               	movlb	0	; select bank0
  3604  0073  00AD               	movwf	LCDPutStr@str
  3605  0074  3087               	movlw	high (STR_9| (0+32768))
  3606  0075  00AE               	movwf	LCDPutStr@str+1
  3607  0076  3183  23F4  3180   	fcall	_LCDPutStr
  3608                           
  3609                           ;menu.c: 75:         break;
  3610  0079  28CB               	goto	l423
  3611  007A                     l2725:
  3612                           
  3613                           ;menu.c: 77:             LCDGoto(0, 0);
  3614  007A  01AD               	clrf	LCDGoto@ln
  3615  007B  3000               	movlw	0
  3616  007C  3184  241C  3180   	fcall	_LCDGoto
  3617  007F                     l2727:
  3618                           
  3619                           ;menu.c: 78:             LCDPutStr("Select ship#2");
  3620  007F  30DC               	movlw	low (STR_10| (0+32768))
  3621  0080  0020               	movlb	0	; select bank0
  3622  0081  00AD               	movwf	LCDPutStr@str
  3623  0082  3086               	movlw	high (STR_10| (0+32768))
  3624  0083  00AE               	movwf	LCDPutStr@str+1
  3625  0084  3183  23F4  3180   	fcall	_LCDPutStr
  3626  0087                     l2729:
  3627                           
  3628                           ;menu.c: 79:             LCDGoto(0, 1);
  3629  0087  0020               	movlb	0	; select bank0
  3630  0088  01AD               	clrf	LCDGoto@ln
  3631  0089  0AAD               	incf	LCDGoto@ln,f
  3632  008A  3000               	movlw	0
  3633  008B  3184  241C  3180   	fcall	_LCDGoto
  3634                           
  3635                           ;menu.c: 80:             LCDPutStr("> Tie Fighter");
  3636  008E  30F8               	movlw	low (STR_7| (0+32768))
  3637  008F  0020               	movlb	0	; select bank0
  3638  0090  00AD               	movwf	LCDPutStr@str
  3639  0091  3086               	movlw	high (STR_7| (0+32768))
  3640  0092  00AE               	movwf	LCDPutStr@str+1
  3641  0093  3183  23F4  3180   	fcall	_LCDPutStr
  3642                           
  3643                           ;menu.c: 81:         break;
  3644  0096  28CB               	goto	l423
  3645  0097                     l2731:
  3646                           
  3647                           ;menu.c: 83:             LCDGoto(0, 0);
  3648  0097  01AD               	clrf	LCDGoto@ln
  3649  0098  3000               	movlw	0
  3650  0099  3184  241C  3180   	fcall	_LCDGoto
  3651  009C                     l2733:
  3652                           
  3653                           ;menu.c: 84:             LCDPutStr("  Tie Fighter");
  3654  009C  30EA               	movlw	low (STR_8| (0+32768))
  3655  009D  0020               	movlb	0	; select bank0
  3656  009E  00AD               	movwf	LCDPutStr@str
  3657  009F  3086               	movlw	high (STR_8| (0+32768))
  3658  00A0  00AE               	movwf	LCDPutStr@str+1
  3659  00A1  3183  23F4  3180   	fcall	_LCDPutStr
  3660  00A4                     l2735:
  3661                           
  3662                           ;menu.c: 85:             LCDGoto(0, 1);
  3663  00A4  0020               	movlb	0	; select bank0
  3664  00A5  01AD               	clrf	LCDGoto@ln
  3665  00A6  0AAD               	incf	LCDGoto@ln,f
  3666  00A7  3000               	movlw	0
  3667  00A8  3184  241C  3180   	fcall	_LCDGoto
  3668                           
  3669                           ;menu.c: 86:             LCDPutStr("> X wing");
  3670  00AB  3027               	movlw	low (STR_9| (0+32768))
  3671  00AC  0020               	movlb	0	; select bank0
  3672  00AD  00AD               	movwf	LCDPutStr@str
  3673  00AE  3087               	movlw	high (STR_9| (0+32768))
  3674  00AF  00AE               	movwf	LCDPutStr@str+1
  3675  00B0  3183  23F4  3180   	fcall	_LCDPutStr
  3676                           
  3677                           ;menu.c: 87:         break;
  3678  00B3  28CB               	goto	l423
  3679  00B4                     l2739:
  3680  00B4  0020               	movlb	0	; select bank0
  3681  00B5  0846               	movf	_mainState,w
  3682  00B6  00B3               	movwf	??_mainMenu
  3683  00B7  01B4               	clrf	??_mainMenu+1
  3684                           
  3685                           ; Switch on 2 bytes has been partitioned into a top level switch of size 1, and 1 sub-sw
      +                          itches
  3686                           ; Switch size 1, requested type "simple"
  3687                           ; Number of cases is 1, Range of values is 0 to 0
  3688                           ; switch strategies available:
  3689                           ; Name         Instructions Cycles
  3690                           ; simple_byte            4     3 (average)
  3691                           ; direct_byte            8     6 (fixed)
  3692                           ; jumptable            260     6 (fixed)
  3693                           ;	Chosen strategy is simple_byte
  3694  00B8  0834               	movf	??_mainMenu+1,w
  3695  00B9  3A00               	xorlw	0	; case 0
  3696  00BA  1903               	skipnz
  3697  00BB  28BD               	goto	l3051
  3698  00BC  28CB               	goto	l423
  3699  00BD                     l3051:
  3700                           
  3701                           ; Switch size 1, requested type "simple"
  3702                           ; Number of cases is 4, Range of values is 0 to 3
  3703                           ; switch strategies available:
  3704                           ; Name         Instructions Cycles
  3705                           ; simple_byte           13     7 (average)
  3706                           ; direct_byte           14     6 (fixed)
  3707                           ; jumptable            260     6 (fixed)
  3708                           ;	Chosen strategy is simple_byte
  3709  00BD  0833               	movf	??_mainMenu,w
  3710  00BE  3A00               	xorlw	0	; case 0
  3711  00BF  1903               	skipnz
  3712  00C0  2840               	goto	l2713
  3713  00C1  3A01               	xorlw	1	; case 1
  3714  00C2  1903               	skipnz
  3715  00C3  285D               	goto	l2719
  3716  00C4  3A03               	xorlw	3	; case 2
  3717  00C5  1903               	skipnz
  3718  00C6  287A               	goto	l2725
  3719  00C7  3A01               	xorlw	1	; case 3
  3720  00C8  1903               	skipnz
  3721  00C9  2897               	goto	l2731
  3722  00CA  28CB               	goto	l423
  3723  00CB                     l423:
  3724  00CB  0008               	return
  3725  00CC                     __end_of_mainMenu:
  3726                           
  3727                           	psect	text3
  3728  05C5                     __ptext3:	
  3729 ;; *************** function _cleanMenu *****************
  3730 ;; Defined at:
  3731 ;;		line 93 in file "menu.c"
  3732 ;; Parameters:    Size  Location     Type
  3733 ;;		None
  3734 ;; Auto vars:     Size  Location     Type
  3735 ;;		None
  3736 ;; Return value:  Size  Location     Type
  3737 ;;                  1    wreg      void 
  3738 ;; Registers used:
  3739 ;;		wreg, fsr0l, fsr0h, status,2, status,0, pclath, cstack
  3740 ;; Tracked objects:
  3741 ;;		On entry : 0/0
  3742 ;;		On exit  : 0/0
  3743 ;;		Unchanged: 0/0
  3744 ;; Data sizes:     COMMON   BANK0   BANK1   BANK2   BANK3   BANK4   BANK5   BANK6   BANK7   BANK8   BANK9  BANK10  BANK1
      +1  BANK12  BANK13  BANK14  BANK15  BANK16  BANK17  BANK18  BANK19  BANK20  BANK21  BANK22  BANK23  BANK24  BANK25
  3745 ;;      Params:         0       0       0       0       0       0       0       0       0       0       0       0       
      +0       0       0       0       0       0       0       0       0       0       0       0       0       0       0
  3746 ;;      Locals:         0       0       0       0       0       0       0       0       0       0       0       0       
      +0       0       0       0       0       0       0       0       0       0       0       0       0       0       0
  3747 ;;      Temps:          0       0       0       0       0       0       0       0       0       0       0       0       
      +0       0       0       0       0       0       0       0       0       0       0       0       0       0       0
  3748 ;;      Totals:         0       0       0       0       0       0       0       0       0       0       0       0       
      +0       0       0       0       0       0       0       0       0       0       0       0       0       0       0
  3749 ;;Total ram usage:        0 bytes
  3750 ;; Hardware stack levels used:    1
  3751 ;; Hardware stack levels required when called:   12
  3752 ;; This function calls:
  3753 ;;		_LCDGoto
  3754 ;;		_LCDPutStr
  3755 ;; This function is called by:
  3756 ;;		_printMenu
  3757 ;; This function uses a non-reentrant model
  3758 ;;
  3759                           
  3760                           
  3761                           ;psect for function _cleanMenu
  3762  05C5                     _cleanMenu:
  3763  05C5                     l2699:	
  3764                           ;incstack = 0
  3765                           ; Regs used in _cleanMenu: [wreg-fsr0h+status,2+status,0+pclath+cstack]
  3766                           
  3767                           
  3768                           ;menu.c: 104:         LCDGoto(lcdOffset, 0);
  3769  05C5  0020               	movlb	0	; select bank0
  3770  05C6  01AD               	clrf	LCDGoto@ln
  3771  05C7  084A               	movf	_lcdOffset,w
  3772  05C8  3184  241C  3185   	fcall	_LCDGoto
  3773  05CB                     l2701:
  3774                           
  3775                           ;menu.c: 105:         LCDPutStr("           ");
  3776  05CB  3091               	movlw	low ((STR_1+5)| (0+32768))
  3777  05CC  0020               	movlb	0	; select bank0
  3778  05CD  00AD               	movwf	LCDPutStr@str
  3779  05CE  3086               	movlw	high ((STR_1+5)| (0+32768))
  3780  05CF  00AE               	movwf	LCDPutStr@str+1
  3781  05D0  3183  23F4  3185   	fcall	_LCDPutStr
  3782  05D3                     l2703:
  3783                           
  3784                           ;menu.c: 106:         LCDGoto(lcdOffset, 1);
  3785  05D3  0020               	movlb	0	; select bank0
  3786  05D4  01AD               	clrf	LCDGoto@ln
  3787  05D5  0AAD               	incf	LCDGoto@ln,f
  3788  05D6  084A               	movf	_lcdOffset,w
  3789  05D7  3184  241C  3185   	fcall	_LCDGoto
  3790                           
  3791                           ;menu.c: 107:         LCDPutStr("           ");
  3792  05DA  3091               	movlw	low ((STR_1+5)| (0+32768))
  3793  05DB  0020               	movlb	0	; select bank0
  3794  05DC  00AD               	movwf	LCDPutStr@str
  3795  05DD  3086               	movlw	high ((STR_1+5)| (0+32768))
  3796  05DE  00AE               	movwf	LCDPutStr@str+1
  3797  05DF  3183  23F4  3185   	fcall	_LCDPutStr
  3798  05E2                     l426:
  3799  05E2  0008               	return
  3800  05E3                     __end_of_cleanMenu:
  3801                           
  3802                           	psect	text4
  3803  05E3                     __ptext4:	
  3804 ;; *************** function _cleanFullMenu *****************
  3805 ;; Defined at:
  3806 ;;		line 134 in file "menu.c"
  3807 ;; Parameters:    Size  Location     Type
  3808 ;;		None
  3809 ;; Auto vars:     Size  Location     Type
  3810 ;;		None
  3811 ;; Return value:  Size  Location     Type
  3812 ;;                  1    wreg      void 
  3813 ;; Registers used:
  3814 ;;		wreg, fsr0l, fsr0h, status,2, status,0, pclath, cstack
  3815 ;; Tracked objects:
  3816 ;;		On entry : 0/0
  3817 ;;		On exit  : 0/0
  3818 ;;		Unchanged: 0/0
  3819 ;; Data sizes:     COMMON   BANK0   BANK1   BANK2   BANK3   BANK4   BANK5   BANK6   BANK7   BANK8   BANK9  BANK10  BANK1
      +1  BANK12  BANK13  BANK14  BANK15  BANK16  BANK17  BANK18  BANK19  BANK20  BANK21  BANK22  BANK23  BANK24  BANK25
  3820 ;;      Params:         0       0       0       0       0       0       0       0       0       0       0       0       
      +0       0       0       0       0       0       0       0       0       0       0       0       0       0       0
  3821 ;;      Locals:         0       0       0       0       0       0       0       0       0       0       0       0       
      +0       0       0       0       0       0       0       0       0       0       0       0       0       0       0
  3822 ;;      Temps:          0       0       0       0       0       0       0       0       0       0       0       0       
      +0       0       0       0       0       0       0       0       0       0       0       0       0       0       0
  3823 ;;      Totals:         0       0       0       0       0       0       0       0       0       0       0       0       
      +0       0       0       0       0       0       0       0       0       0       0       0       0       0       0
  3824 ;;Total ram usage:        0 bytes
  3825 ;; Hardware stack levels used:    1
  3826 ;; Hardware stack levels required when called:   12
  3827 ;; This function calls:
  3828 ;;		_LCDGoto
  3829 ;;		_LCDPutStr
  3830 ;; This function is called by:
  3831 ;;		_printMenu
  3832 ;; This function uses a non-reentrant model
  3833 ;;
  3834                           
  3835                           
  3836                           ;psect for function _cleanFullMenu
  3837  05E3                     _cleanFullMenu:
  3838  05E3                     l2705:	
  3839                           ;incstack = 0
  3840                           ; Regs used in _cleanFullMenu: [wreg-fsr0h+status,2+status,0+pclath+cstack]
  3841                           
  3842                           
  3843                           ;menu.c: 144:         LCDGoto(0, 0);
  3844  05E3  0020               	movlb	0	; select bank0
  3845  05E4  01AD               	clrf	LCDGoto@ln
  3846  05E5  3000               	movlw	0
  3847  05E6  3184  241C  3185   	fcall	_LCDGoto
  3848  05E9                     l2707:
  3849                           
  3850                           ;menu.c: 145:         LCDPutStr("                ");
  3851  05E9  308C               	movlw	low (STR_1| (0+32768))
  3852  05EA  0020               	movlb	0	; select bank0
  3853  05EB  00AD               	movwf	LCDPutStr@str
  3854  05EC  3086               	movlw	high (STR_1| (0+32768))
  3855  05ED  00AE               	movwf	LCDPutStr@str+1
  3856  05EE  3183  23F4  3185   	fcall	_LCDPutStr
  3857  05F1                     l2709:
  3858                           
  3859                           ;menu.c: 146:         LCDGoto(0, 1);
  3860  05F1  0020               	movlb	0	; select bank0
  3861  05F2  01AD               	clrf	LCDGoto@ln
  3862  05F3  0AAD               	incf	LCDGoto@ln,f
  3863  05F4  3000               	movlw	0
  3864  05F5  3184  241C  3185   	fcall	_LCDGoto
  3865                           
  3866                           ;menu.c: 147:         LCDPutStr("                ");
  3867  05F8  308C               	movlw	low (STR_1| (0+32768))
  3868  05F9  0020               	movlb	0	; select bank0
  3869  05FA  00AD               	movwf	LCDPutStr@str
  3870  05FB  3086               	movlw	high (STR_1| (0+32768))
  3871  05FC  00AE               	movwf	LCDPutStr@str+1
  3872  05FD  3183  23F4  3185   	fcall	_LCDPutStr
  3873  0600                     l432:
  3874  0600  0008               	return
  3875  0601                     __end_of_cleanFullMenu:
  3876                           
  3877                           	psect	text5
  3878  03F4                     __ptext5:	
  3879 ;; *************** function _LCDPutStr *****************
  3880 ;; Defined at:
  3881 ;;		line 131 in file "lcd.c"
  3882 ;; Parameters:    Size  Location     Type
  3883 ;;  str             2   13[BANK0 ] PTR const unsigned char 
  3884 ;;		 -> STR_18(17), STR_17(17), STR_16(12), STR_15(12), 
  3885 ;;		 -> STR_14(12), STR_13(9), STR_12(14), STR_11(14), 
  3886 ;;		 -> STR_10(14), STR_9(9), STR_8(14), STR_7(14), 
  3887 ;;		 -> STR_6(14), STR_5(11), STR_4(2), STR_3(2), 
  3888 ;;		 -> STR_2(17), STR_1(17), 
  3889 ;; Auto vars:     Size  Location     Type
  3890 ;;  i               1   18[BANK0 ] unsigned char 
  3891 ;; Return value:  Size  Location     Type
  3892 ;;                  1    wreg      void 
  3893 ;; Registers used:
  3894 ;;		wreg, fsr0l, fsr0h, status,2, status,0, pclath, cstack
  3895 ;; Tracked objects:
  3896 ;;		On entry : 0/0
  3897 ;;		On exit  : 0/0
  3898 ;;		Unchanged: 0/0
  3899 ;; Data sizes:     COMMON   BANK0   BANK1   BANK2   BANK3   BANK4   BANK5   BANK6   BANK7   BANK8   BANK9  BANK10  BANK1
      +1  BANK12  BANK13  BANK14  BANK15  BANK16  BANK17  BANK18  BANK19  BANK20  BANK21  BANK22  BANK23  BANK24  BANK25
  3900 ;;      Params:         0       2       0       0       0       0       0       0       0       0       0       0       
      +0       0       0       0       0       0       0       0       0       0       0       0       0       0       0
  3901 ;;      Locals:         0       1       0       0       0       0       0       0       0       0       0       0       
      +0       0       0       0       0       0       0       0       0       0       0       0       0       0       0
  3902 ;;      Temps:          0       3       0       0       0       0       0       0       0       0       0       0       
      +0       0       0       0       0       0       0       0       0       0       0       0       0       0       0
  3903 ;;      Totals:         0       6       0       0       0       0       0       0       0       0       0       0       
      +0       0       0       0       0       0       0       0       0       0       0       0       0       0       0
  3904 ;;Total ram usage:        6 bytes
  3905 ;; Hardware stack levels used:    1
  3906 ;; Hardware stack levels required when called:   11
  3907 ;; This function calls:
  3908 ;;		_LCDPutChar
  3909 ;; This function is called by:
  3910 ;;		_printMenu
  3911 ;;		_mainMenu
  3912 ;;		_cleanMenu
  3913 ;;		_cleanFullMenu
  3914 ;;		_basicShoot
  3915 ;; This function uses a non-reentrant model
  3916 ;;
  3917                           
  3918                           
  3919                           ;psect for function _LCDPutStr
  3920  03F4                     _LCDPutStr:
  3921  03F4                     l2457:	
  3922                           ;incstack = 0
  3923                           ; Regs used in _LCDPutStr: [wreg-fsr0h+status,2+status,0+pclath+cstack]
  3924                           
  3925                           
  3926                           ;lcd.c: 131: void LCDPutStr(const char *str);lcd.c: 132: {;lcd.c: 133:   uint8_t i = 0;
  3927  03F4  0020               	movlb	0	; select bank0
  3928  03F5  01B2               	clrf	LCDPutStr@i
  3929                           
  3930                           ;lcd.c: 136:   while (str[i])
  3931  03F6  2C0B               	goto	l2463
  3932  03F7                     l2459:
  3933                           
  3934                           ;lcd.c: 137:   {;lcd.c: 139:     LCDPutChar(str[i++]);
  3935  03F7  082E               	movf	LCDPutStr@str+1,w
  3936  03F8  00B0               	movwf	??_LCDPutStr+1
  3937  03F9  082D               	movf	LCDPutStr@str,w
  3938  03FA  00AF               	movwf	??_LCDPutStr
  3939  03FB  0832               	movf	LCDPutStr@i,w
  3940  03FC  072F               	addwf	??_LCDPutStr,w
  3941  03FD  0084               	movwf	4
  3942  03FE  0830               	movf	??_LCDPutStr+1,w
  3943  03FF  1803               	skipnc
  3944  0400  0A30               	incf	??_LCDPutStr+1,w
  3945  0401  0085               	movwf	5
  3946  0402  0800               	movf	0,w	;code access
  3947  0403  3185  2527  3183   	fcall	_LCDPutChar
  3948  0406                     l2461:
  3949  0406  3001               	movlw	1
  3950  0407  0020               	movlb	0	; select bank0
  3951  0408  00AF               	movwf	??_LCDPutStr
  3952  0409  082F               	movf	??_LCDPutStr,w
  3953  040A  07B2               	addwf	LCDPutStr@i,f
  3954  040B                     l2463:
  3955                           
  3956                           ;lcd.c: 136:   while (str[i])
  3957  040B  082E               	movf	LCDPutStr@str+1,w
  3958  040C  00B0               	movwf	??_LCDPutStr+1
  3959  040D  082D               	movf	LCDPutStr@str,w
  3960  040E  00AF               	movwf	??_LCDPutStr
  3961  040F  0832               	movf	LCDPutStr@i,w
  3962  0410  072F               	addwf	??_LCDPutStr,w
  3963  0411  0084               	movwf	4
  3964  0412  0830               	movf	??_LCDPutStr+1,w
  3965  0413  1803               	skipnc
  3966  0414  0A30               	incf	??_LCDPutStr+1,w
  3967  0415  0085               	movwf	5
  3968  0416  0012               	moviw fsr0++
  3969  0417  1D03               	btfss	3,2
  3970  0418  2C1A               	goto	u971
  3971  0419  2C1B               	goto	u970
  3972  041A                     u971:
  3973  041A  2BF7               	goto	l2459
  3974  041B                     u970:
  3975  041B                     l298:
  3976  041B  0008               	return
  3977  041C                     __end_of_LCDPutStr:
  3978                           
  3979                           	psect	text6
  3980  041C                     __ptext6:	
  3981 ;; *************** function _LCDGoto *****************
  3982 ;; Defined at:
  3983 ;;		line 143 in file "lcd.c"
  3984 ;; Parameters:    Size  Location     Type
  3985 ;;  pos             1    wreg     unsigned char 
  3986 ;;  ln              1   13[BANK0 ] unsigned char 
  3987 ;; Auto vars:     Size  Location     Type
  3988 ;;  pos             1   16[BANK0 ] unsigned char 
  3989 ;; Return value:  Size  Location     Type
  3990 ;;                  1    wreg      void 
  3991 ;; Registers used:
  3992 ;;		wreg, status,2, status,0, pclath, cstack
  3993 ;; Tracked objects:
  3994 ;;		On entry : 0/0
  3995 ;;		On exit  : 0/0
  3996 ;;		Unchanged: 0/0
  3997 ;; Data sizes:     COMMON   BANK0   BANK1   BANK2   BANK3   BANK4   BANK5   BANK6   BANK7   BANK8   BANK9  BANK10  BANK1
      +1  BANK12  BANK13  BANK14  BANK15  BANK16  BANK17  BANK18  BANK19  BANK20  BANK21  BANK22  BANK23  BANK24  BANK25
  3998 ;;      Params:         0       1       0       0       0       0       0       0       0       0       0       0       
      +0       0       0       0       0       0       0       0       0       0       0       0       0       0       0
  3999 ;;      Locals:         0       3       0       0       0       0       0       0       0       0       0       0       
      +0       0       0       0       0       0       0       0       0       0       0       0       0       0       0
  4000 ;;      Temps:          0       0       0       0       0       0       0       0       0       0       0       0       
      +0       0       0       0       0       0       0       0       0       0       0       0       0       0       0
  4001 ;;      Totals:         0       4       0       0       0       0       0       0       0       0       0       0       
      +0       0       0       0       0       0       0       0       0       0       0       0       0       0       0
  4002 ;;Total ram usage:        4 bytes
  4003 ;; Hardware stack levels used:    1
  4004 ;; Hardware stack levels required when called:   11
  4005 ;; This function calls:
  4006 ;;		_LCDPutCmd
  4007 ;; This function is called by:
  4008 ;;		_printMenu
  4009 ;;		_mainMenu
  4010 ;;		_cleanMenu
  4011 ;;		_cleanFullMenu
  4012 ;;		_idleScreen
  4013 ;;		_basicShoot
  4014 ;; This function uses a non-reentrant model
  4015 ;;
  4016                           
  4017                           
  4018                           ;psect for function _LCDGoto
  4019  041C                     _LCDGoto:
  4020                           
  4021                           ;incstack = 0
  4022                           ; Regs used in _LCDGoto: [wreg+status,2+status,0+pclath+cstack]
  4023                           ;LCDGoto@pos stored from wreg
  4024  041C  0020               	movlb	0	; select bank0
  4025  041D  00B0               	movwf	LCDGoto@pos
  4026  041E                     l2465:
  4027                           
  4028                           ;lcd.c: 143: void LCDGoto(uint8_t pos, uint8_t ln);lcd.c: 144: {;lcd.c: 146:   if ((ln >
      +                           (2 - 1)) || (pos > (16 - 1)))
  4029  041E  3002               	movlw	2
  4030  041F  022D               	subwf	LCDGoto@ln,w
  4031  0420  1803               	skipnc
  4032  0421  2C23               	goto	u981
  4033  0422  2C24               	goto	u980
  4034  0423                     u981:
  4035  0423  2C43               	goto	l304
  4036  0424                     u980:
  4037  0424                     l2467:
  4038  0424  3010               	movlw	16
  4039  0425  0230               	subwf	LCDGoto@pos,w
  4040  0426  1C03               	skipc
  4041  0427  2C29               	goto	u991
  4042  0428  2C2A               	goto	u990
  4043  0429                     u991:
  4044  0429  2C2B               	goto	l2469
  4045  042A                     u990:
  4046  042A  2C43               	goto	l304
  4047  042B                     l2469:
  4048                           
  4049                           ;lcd.c: 153:   LCDPutCmd((ln == 1) ? (0xC0 | pos) : (0x80 | pos));
  4050  042B  032D               	decf	LCDGoto@ln,w
  4051  042C  1903               	btfsc	3,2
  4052  042D  2C2F               	goto	u1001
  4053  042E  2C30               	goto	u1000
  4054  042F                     u1001:
  4055  042F  2C36               	goto	l2473
  4056  0430                     u1000:
  4057  0430                     l2471:
  4058  0430  3080               	movlw	128
  4059  0431  0430               	iorwf	LCDGoto@pos,w
  4060  0432  00AE               	movwf	_LCDGoto$485
  4061  0433  3000               	movlw	0
  4062  0434  00AF               	movwf	_LCDGoto$485+1
  4063  0435  2C3B               	goto	l2475
  4064  0436                     l2473:
  4065  0436  30C0               	movlw	192
  4066  0437  0430               	iorwf	LCDGoto@pos,w
  4067  0438  00AE               	movwf	_LCDGoto$485
  4068  0439  3000               	movlw	0
  4069  043A  00AF               	movwf	_LCDGoto$485+1
  4070  043B                     l2475:
  4071  043B  082E               	movf	_LCDGoto$485,w
  4072  043C  3185  2504  3184   	fcall	_LCDPutCmd
  4073  043F                     l2477:
  4074                           
  4075                           ;lcd.c: 156:   _delay((unsigned long)((5)*(500000/4000.0)));
  4076  043F  30D0               	movlw	208
  4077  0440                     u1337:
  4078  0440  0B89               	decfsz	9,f
  4079  0441  2C40               	goto	u1337
  4080  0442  0000               	nop
  4081  0443                     l304:
  4082  0443  0008               	return
  4083  0444                     __end_of_LCDGoto:
  4084                           
  4085                           	psect	text7
  4086  069D                     __ptext7:	
  4087 ;; *************** function _disableButton *****************
  4088 ;; Defined at:
  4089 ;;		line 124 in file "functions.c"
  4090 ;; Parameters:    Size  Location     Type
  4091 ;;  player          1    wreg     _Bool 
  4092 ;; Auto vars:     Size  Location     Type
  4093 ;;  player          1    6[BANK0 ] _Bool 
  4094 ;; Return value:  Size  Location     Type
  4095 ;;                  1    wreg      void 
  4096 ;; Registers used:
  4097 ;;		wreg, status,2, status,0
  4098 ;; Tracked objects:
  4099 ;;		On entry : 0/0
  4100 ;;		On exit  : 0/0
  4101 ;;		Unchanged: 0/0
  4102 ;; Data sizes:     COMMON   BANK0   BANK1   BANK2   BANK3   BANK4   BANK5   BANK6   BANK7   BANK8   BANK9  BANK10  BANK1
      +1  BANK12  BANK13  BANK14  BANK15  BANK16  BANK17  BANK18  BANK19  BANK20  BANK21  BANK22  BANK23  BANK24  BANK25
  4103 ;;      Params:         0       0       0       0       0       0       0       0       0       0       0       0       
      +0       0       0       0       0       0       0       0       0       0       0       0       0       0       0
  4104 ;;      Locals:         0       1       0       0       0       0       0       0       0       0       0       0       
      +0       0       0       0       0       0       0       0       0       0       0       0       0       0       0
  4105 ;;      Temps:          0       0       0       0       0       0       0       0       0       0       0       0       
      +0       0       0       0       0       0       0       0       0       0       0       0       0       0       0
  4106 ;;      Totals:         0       1       0       0       0       0       0       0       0       0       0       0       
      +0       0       0       0       0       0       0       0       0       0       0       0       0       0       0
  4107 ;;Total ram usage:        1 bytes
  4108 ;; Hardware stack levels used:    1
  4109 ;; Hardware stack levels required when called:    9
  4110 ;; This function calls:
  4111 ;;		Nothing
  4112 ;; This function is called by:
  4113 ;;		_main
  4114 ;; This function uses a non-reentrant model
  4115 ;;
  4116                           
  4117                           
  4118                           ;psect for function _disableButton
  4119  069D                     _disableButton:
  4120                           
  4121                           ;incstack = 0
  4122                           ; Regs used in _disableButton: [wreg+status,2+status,0]
  4123                           ;disableButton@player stored from wreg
  4124  069D  0020               	movlb	0	; select bank0
  4125  069E  00A6               	movwf	disableButton@player
  4126  069F                     l2779:
  4127                           
  4128                           ;functions.c: 124: void disableButton (_Bool player);functions.c: 135:     {;functions.c
      +                          : 136:     if (player == 1)
  4129  069F  0326               	decf	disableButton@player,w
  4130  06A0  1D03               	btfss	3,2
  4131  06A1  2EA3               	goto	u1201
  4132  06A2  2EA4               	goto	u1200
  4133  06A3                     u1201:
  4134  06A3  2EA9               	goto	l349
  4135  06A4                     u1200:
  4136  06A4                     l2781:
  4137                           
  4138                           ;functions.c: 138:         {;functions.c: 140:         IOCANbits.IOCAN3 = 0;
  4139  06A4  0027               	movlb	7	; select bank7
  4140  06A5  1192               	bcf	18,3	;volatile
  4141                           
  4142                           ;functions.c: 142:         IOCANbits.IOCAN4 = 0;
  4143  06A6  1212               	bcf	18,4	;volatile
  4144                           
  4145                           ;functions.c: 144:         IOCANbits.IOCAN5 = 0;
  4146  06A7  1292               	bcf	18,5	;volatile
  4147                           
  4148                           ;functions.c: 145:         }
  4149  06A8  2EAD               	goto	l351
  4150  06A9                     l349:	
  4151                           ;functions.c: 146:     else
  4152                           
  4153                           
  4154                           ;functions.c: 148:         {;functions.c: 150:         IOCANbits.IOCAN0 = 0;
  4155  06A9  0027               	movlb	7	; select bank7
  4156  06AA  1012               	bcf	18,0	;volatile
  4157                           
  4158                           ;functions.c: 152:         IOCANbits.IOCAN1 = 0;
  4159  06AB  1092               	bcf	18,1	;volatile
  4160                           
  4161                           ;functions.c: 154:         IOCANbits.IOCAN2 = 0;
  4162  06AC  1112               	bcf	18,2	;volatile
  4163  06AD                     l351:
  4164  06AD  0008               	return
  4165  06AE                     __end_of_disableButton:
  4166                           
  4167                           	psect	text8
  4168  02F0                     __ptext8:	
  4169 ;; *************** function _createCustomCharacter *****************
  4170 ;; Defined at:
  4171 ;;		line 29 in file "functions.c"
  4172 ;; Parameters:    Size  Location     Type
  4173 ;;  Pattern         1    wreg     PTR unsigned char 
  4174 ;;		 -> main@Pattern5(8), main@Pattern4(8), main@Pattern3(8), main@Pattern2(8), 
  4175 ;;		 -> main@Pattern1(8), 
  4176 ;;  Location        1   13[BANK0 ] const unsigned char 
  4177 ;; Auto vars:     Size  Location     Type
  4178 ;;  Pattern         1   15[BANK0 ] PTR unsigned char 
  4179 ;;		 -> main@Pattern5(8), main@Pattern4(8), main@Pattern3(8), main@Pattern2(8), 
  4180 ;;		 -> main@Pattern1(8), 
  4181 ;;  i               2   16[BANK0 ] int 
  4182 ;; Return value:  Size  Location     Type
  4183 ;;                  1    wreg      void 
  4184 ;; Registers used:
  4185 ;;		wreg, fsr1l, fsr1h, status,2, status,0, pclath, cstack
  4186 ;; Tracked objects:
  4187 ;;		On entry : 0/0
  4188 ;;		On exit  : 0/0
  4189 ;;		Unchanged: 0/0
  4190 ;; Data sizes:     COMMON   BANK0   BANK1   BANK2   BANK3   BANK4   BANK5   BANK6   BANK7   BANK8   BANK9  BANK10  BANK1
      +1  BANK12  BANK13  BANK14  BANK15  BANK16  BANK17  BANK18  BANK19  BANK20  BANK21  BANK22  BANK23  BANK24  BANK25
  4191 ;;      Params:         0       1       0       0       0       0       0       0       0       0       0       0       
      +0       0       0       0       0       0       0       0       0       0       0       0       0       0       0
  4192 ;;      Locals:         0       3       0       0       0       0       0       0       0       0       0       0       
      +0       0       0       0       0       0       0       0       0       0       0       0       0       0       0
  4193 ;;      Temps:          0       1       0       0       0       0       0       0       0       0       0       0       
      +0       0       0       0       0       0       0       0       0       0       0       0       0       0       0
  4194 ;;      Totals:         0       5       0       0       0       0       0       0       0       0       0       0       
      +0       0       0       0       0       0       0       0       0       0       0       0       0       0       0
  4195 ;;Total ram usage:        5 bytes
  4196 ;; Hardware stack levels used:    1
  4197 ;; Hardware stack levels required when called:   11
  4198 ;; This function calls:
  4199 ;;		_LCDPutChar
  4200 ;;		_LCDPutCmd
  4201 ;; This function is called by:
  4202 ;;		_main
  4203 ;; This function uses a non-reentrant model
  4204 ;;
  4205                           
  4206                           
  4207                           ;psect for function _createCustomCharacter
  4208  02F0                     _createCustomCharacter:
  4209                           
  4210                           ;incstack = 0
  4211                           ; Regs used in _createCustomCharacter: [wreg+fsr1l+fsr1h+status,2+status,0+pclath+cstack
      +                          ]
  4212                           ;createCustomCharacter@Pattern stored from wreg
  4213  02F0  0020               	movlb	0	; select bank0
  4214  02F1  00AF               	movwf	createCustomCharacter@Pattern
  4215  02F2                     l2801:
  4216  02F2                     l2803:
  4217                           
  4218                           ;functions.c: 46:     LCDPutCmd (0x40+(Location*8));
  4219  02F2  082D               	movf	createCustomCharacter@Location,w
  4220  02F3  00AE               	movwf	??_createCustomCharacter
  4221  02F4  3002               	movlw	2
  4222  02F5                     u1215:
  4223  02F5  35AE               	lslf	??_createCustomCharacter,f
  4224  02F6  3EFF               	addlw	-1
  4225  02F7  1D03               	skipz
  4226  02F8  2AF5               	goto	u1215
  4227  02F9  352E               	lslf	??_createCustomCharacter,w
  4228  02FA  3E40               	addlw	64
  4229  02FB  3185  2504  3182   	fcall	_LCDPutCmd
  4230  02FE                     l2805:
  4231                           
  4232                           ;functions.c: 48:     for (i=0; i<8; i++)
  4233  02FE  0020               	movlb	0	; select bank0
  4234  02FF  01B0               	clrf	createCustomCharacter@i
  4235  0300  01B1               	clrf	createCustomCharacter@i+1
  4236  0301                     l2811:
  4237                           
  4238                           ;functions.c: 50:         LCDPutChar (Pattern [ i ] );
  4239  0301  0020               	movlb	0	; select bank0
  4240  0302  0830               	movf	createCustomCharacter@i,w
  4241  0303  072F               	addwf	createCustomCharacter@Pattern,w
  4242  0304  00AE               	movwf	??_createCustomCharacter
  4243  0305  082E               	movf	??_createCustomCharacter,w
  4244  0306  0086               	movwf	6
  4245  0307  0187               	clrf	7
  4246  0308  0801               	movf	1,w
  4247  0309  3185  2527  3182   	fcall	_LCDPutChar
  4248  030C                     l2813:
  4249  030C  3001               	movlw	1
  4250  030D  0020               	movlb	0	; select bank0
  4251  030E  07B0               	addwf	createCustomCharacter@i,f
  4252  030F  3000               	movlw	0
  4253  0310  3DB1               	addwfc	createCustomCharacter@i+1,f
  4254  0311                     l2815:
  4255  0311  0831               	movf	createCustomCharacter@i+1,w
  4256  0312  3A80               	xorlw	128
  4257  0313  00AE               	movwf	??_createCustomCharacter
  4258  0314  3080               	movlw	128
  4259  0315  022E               	subwf	??_createCustomCharacter,w
  4260  0316  1D03               	skipz
  4261  0317  2B1A               	goto	u1225
  4262  0318  3008               	movlw	8
  4263  0319  0230               	subwf	createCustomCharacter@i,w
  4264  031A                     u1225:
  4265  031A  1C03               	skipc
  4266  031B  2B1D               	goto	u1221
  4267  031C  2B1E               	goto	u1220
  4268  031D                     u1221:
  4269  031D  2B01               	goto	l2811
  4270  031E                     u1220:
  4271  031E                     l332:
  4272  031E  0008               	return
  4273  031F                     __end_of_createCustomCharacter:
  4274                           
  4275                           	psect	text9
  4276  0527                     __ptext9:	
  4277 ;; *************** function _LCDPutChar *****************
  4278 ;; Defined at:
  4279 ;;		line 101 in file "lcd.c"
  4280 ;; Parameters:    Size  Location     Type
  4281 ;;  ch              1    wreg     unsigned char 
  4282 ;; Auto vars:     Size  Location     Type
  4283 ;;  ch              1   12[BANK0 ] unsigned char 
  4284 ;; Return value:  Size  Location     Type
  4285 ;;                  1    wreg      void 
  4286 ;; Registers used:
  4287 ;;		wreg, status,2, status,0, pclath, cstack
  4288 ;; Tracked objects:
  4289 ;;		On entry : 0/0
  4290 ;;		On exit  : 0/0
  4291 ;;		Unchanged: 0/0
  4292 ;; Data sizes:     COMMON   BANK0   BANK1   BANK2   BANK3   BANK4   BANK5   BANK6   BANK7   BANK8   BANK9  BANK10  BANK1
      +1  BANK12  BANK13  BANK14  BANK15  BANK16  BANK17  BANK18  BANK19  BANK20  BANK21  BANK22  BANK23  BANK24  BANK25
  4293 ;;      Params:         0       0       0       0       0       0       0       0       0       0       0       0       
      +0       0       0       0       0       0       0       0       0       0       0       0       0       0       0
  4294 ;;      Locals:         0       1       0       0       0       0       0       0       0       0       0       0       
      +0       0       0       0       0       0       0       0       0       0       0       0       0       0       0
  4295 ;;      Temps:          0       2       0       0       0       0       0       0       0       0       0       0       
      +0       0       0       0       0       0       0       0       0       0       0       0       0       0       0
  4296 ;;      Totals:         0       3       0       0       0       0       0       0       0       0       0       0       
      +0       0       0       0       0       0       0       0       0       0       0       0       0       0       0
  4297 ;;Total ram usage:        3 bytes
  4298 ;; Hardware stack levels used:    1
  4299 ;; Hardware stack levels required when called:   10
  4300 ;; This function calls:
  4301 ;;		_LCDWriteNibble
  4302 ;; This function is called by:
  4303 ;;		_LCDPutStr
  4304 ;;		_createCustomCharacter
  4305 ;;		_idleScreen
  4306 ;;		_basicShoot
  4307 ;; This function uses a non-reentrant model
  4308 ;;
  4309                           
  4310                           
  4311                           ;psect for function _LCDPutChar
  4312  0527                     _LCDPutChar:
  4313                           
  4314                           ;incstack = 0
  4315                           ; Regs used in _LCDPutChar: [wreg+status,2+status,0+pclath+cstack]
  4316                           ;LCDPutChar@ch stored from wreg
  4317  0527  0020               	movlb	0	; select bank0
  4318  0528  00AC               	movwf	LCDPutChar@ch
  4319  0529                     l2413:
  4320                           
  4321                           ;lcd.c: 101: void LCDPutChar(uint8_t ch);lcd.c: 102: {;lcd.c: 103:   _delay((unsigned lo
      +                          ng)((5)*(500000/4000.0)));
  4322  0529  30D0               	movlw	208
  4323  052A                     u1347:
  4324  052A  0B89               	decfsz	9,f
  4325  052B  2D2A               	goto	u1347
  4326  052C  0000               	nop
  4327  052D                     l2415:
  4328                           
  4329                           ;lcd.c: 106:   LCDWriteNibble(ch, 1);
  4330  052D  0020               	movlb	0	; select bank0
  4331  052E  01A6               	clrf	LCDWriteNibble@rs
  4332  052F  0AA6               	incf	LCDWriteNibble@rs,f
  4333  0530  082C               	movf	LCDPutChar@ch,w
  4334  0531  3185  2547  3185   	fcall	_LCDWriteNibble
  4335  0534                     l2417:
  4336                           
  4337                           ;lcd.c: 109:   ch = (uint8_t)(ch << 4);
  4338  0534  0020               	movlb	0	; select bank0
  4339  0535  082C               	movf	LCDPutChar@ch,w
  4340  0536  00AA               	movwf	??_LCDPutChar
  4341  0537  3003               	movlw	3
  4342  0538                     u955:
  4343  0538  35AA               	lslf	??_LCDPutChar,f
  4344  0539  3EFF               	addlw	-1
  4345  053A  1D03               	skipz
  4346  053B  2D38               	goto	u955
  4347  053C  352A               	lslf	??_LCDPutChar,w
  4348  053D  00AB               	movwf	??_LCDPutChar+1
  4349  053E  082B               	movf	??_LCDPutChar+1,w
  4350  053F  00AC               	movwf	LCDPutChar@ch
  4351  0540                     l2419:
  4352                           
  4353                           ;lcd.c: 112:   LCDWriteNibble(ch, 1);
  4354  0540  01A6               	clrf	LCDWriteNibble@rs
  4355  0541  0AA6               	incf	LCDWriteNibble@rs,f
  4356  0542  082C               	movf	LCDPutChar@ch,w
  4357  0543  3185  2547  3185   	fcall	_LCDWriteNibble
  4358  0546                     l289:
  4359  0546  0008               	return
  4360  0547                     __end_of_LCDPutChar:
  4361                           
  4362                           	psect	text10
  4363  071D                     __ptext10:	
  4364 ;; *************** function _SYSTEM_Initialize *****************
  4365 ;; Defined at:
  4366 ;;		line 50 in file "mcc_generated_files/mcc.c"
  4367 ;; Parameters:    Size  Location     Type
  4368 ;;		None
  4369 ;; Auto vars:     Size  Location     Type
  4370 ;;		None
  4371 ;; Return value:  Size  Location     Type
  4372 ;;                  1    wreg      void 
  4373 ;; Registers used:
  4374 ;;		wreg, status,2, status,0, pclath, cstack
  4375 ;; Tracked objects:
  4376 ;;		On entry : 0/0
  4377 ;;		On exit  : 0/0
  4378 ;;		Unchanged: 0/0
  4379 ;; Data sizes:     COMMON   BANK0   BANK1   BANK2   BANK3   BANK4   BANK5   BANK6   BANK7   BANK8   BANK9  BANK10  BANK1
      +1  BANK12  BANK13  BANK14  BANK15  BANK16  BANK17  BANK18  BANK19  BANK20  BANK21  BANK22  BANK23  BANK24  BANK25
  4380 ;;      Params:         0       0       0       0       0       0       0       0       0       0       0       0       
      +0       0       0       0       0       0       0       0       0       0       0       0       0       0       0
  4381 ;;      Locals:         0       0       0       0       0       0       0       0       0       0       0       0       
      +0       0       0       0       0       0       0       0       0       0       0       0       0       0       0
  4382 ;;      Temps:          0       0       0       0       0       0       0       0       0       0       0       0       
      +0       0       0       0       0       0       0       0       0       0       0       0       0       0       0
  4383 ;;      Totals:         0       0       0       0       0       0       0       0       0       0       0       0       
      +0       0       0       0       0       0       0       0       0       0       0       0       0       0       0
  4384 ;;Total ram usage:        0 bytes
  4385 ;; Hardware stack levels used:    1
  4386 ;; Hardware stack levels required when called:   11
  4387 ;; This function calls:
  4388 ;;		_OSCILLATOR_Initialize
  4389 ;;		_PIN_MANAGER_Initialize
  4390 ;;		_WDT_Initialize
  4391 ;; This function is called by:
  4392 ;;		_main
  4393 ;; This function uses a non-reentrant model
  4394 ;;
  4395                           
  4396                           
  4397                           ;psect for function _SYSTEM_Initialize
  4398  071D                     _SYSTEM_Initialize:
  4399  071D                     l2783:	
  4400                           ;incstack = 0
  4401                           ; Regs used in _SYSTEM_Initialize: [wreg+status,2+status,0+pclath+cstack]
  4402                           
  4403                           
  4404                           ;mcc_generated_files/mcc.c: 53:     PIN_MANAGER_Initialize();
  4405  071D  3181  21CC  3187   	fcall	_PIN_MANAGER_Initialize
  4406                           
  4407                           ;mcc_generated_files/mcc.c: 54:     OSCILLATOR_Initialize();
  4408  0720  3187  2730  3187   	fcall	_OSCILLATOR_Initialize
  4409                           
  4410                           ;mcc_generated_files/mcc.c: 55:     WDT_Initialize();
  4411  0723  3187  2761  3187   	fcall	_WDT_Initialize
  4412  0726                     l251:
  4413  0726  0008               	return
  4414  0727                     __end_of_SYSTEM_Initialize:
  4415                           
  4416                           	psect	text11
  4417  0761                     __ptext11:	
  4418 ;; *************** function _WDT_Initialize *****************
  4419 ;; Defined at:
  4420 ;;		line 68 in file "mcc_generated_files/mcc.c"
  4421 ;; Parameters:    Size  Location     Type
  4422 ;;		None
  4423 ;; Auto vars:     Size  Location     Type
  4424 ;;		None
  4425 ;; Return value:  Size  Location     Type
  4426 ;;                  1    wreg      void 
  4427 ;; Registers used:
  4428 ;;		wreg
  4429 ;; Tracked objects:
  4430 ;;		On entry : 0/0
  4431 ;;		On exit  : 0/0
  4432 ;;		Unchanged: 0/0
  4433 ;; Data sizes:     COMMON   BANK0   BANK1   BANK2   BANK3   BANK4   BANK5   BANK6   BANK7   BANK8   BANK9  BANK10  BANK1
      +1  BANK12  BANK13  BANK14  BANK15  BANK16  BANK17  BANK18  BANK19  BANK20  BANK21  BANK22  BANK23  BANK24  BANK25
  4434 ;;      Params:         0       0       0       0       0       0       0       0       0       0       0       0       
      +0       0       0       0       0       0       0       0       0       0       0       0       0       0       0
  4435 ;;      Locals:         0       0       0       0       0       0       0       0       0       0       0       0       
      +0       0       0       0       0       0       0       0       0       0       0       0       0       0       0
  4436 ;;      Temps:          0       0       0       0       0       0       0       0       0       0       0       0       
      +0       0       0       0       0       0       0       0       0       0       0       0       0       0       0
  4437 ;;      Totals:         0       0       0       0       0       0       0       0       0       0       0       0       
      +0       0       0       0       0       0       0       0       0       0       0       0       0       0       0
  4438 ;;Total ram usage:        0 bytes
  4439 ;; Hardware stack levels used:    1
  4440 ;; Hardware stack levels required when called:    9
  4441 ;; This function calls:
  4442 ;;		Nothing
  4443 ;; This function is called by:
  4444 ;;		_SYSTEM_Initialize
  4445 ;; This function uses a non-reentrant model
  4446 ;;
  4447                           
  4448                           
  4449                           ;psect for function _WDT_Initialize
  4450  0761                     _WDT_Initialize:
  4451  0761                     l2697:	
  4452                           ;incstack = 0
  4453                           ; Regs used in _WDT_Initialize: [wreg]
  4454                           
  4455                           
  4456                           ;mcc_generated_files/mcc.c: 71:     WDTCON = 0x16;
  4457  0761  3016               	movlw	22
  4458  0762  0021               	movlb	1	; select bank1
  4459  0763  0097               	movwf	23	;volatile
  4460  0764                     l257:
  4461  0764  0008               	return
  4462  0765                     __end_of_WDT_Initialize:
  4463                           
  4464                           	psect	text12
  4465  01CC                     __ptext12:	
  4466 ;; *************** function _PIN_MANAGER_Initialize *****************
  4467 ;; Defined at:
  4468 ;;		line 65 in file "mcc_generated_files/pin_manager.c"
  4469 ;; Parameters:    Size  Location     Type
  4470 ;;		None
  4471 ;; Auto vars:     Size  Location     Type
  4472 ;;		None
  4473 ;; Return value:  Size  Location     Type
  4474 ;;                  1    wreg      void 
  4475 ;; Registers used:
  4476 ;;		wreg, status,2, status,0, pclath, cstack
  4477 ;; Tracked objects:
  4478 ;;		On entry : 0/0
  4479 ;;		On exit  : 0/0
  4480 ;;		Unchanged: 0/0
  4481 ;; Data sizes:     COMMON   BANK0   BANK1   BANK2   BANK3   BANK4   BANK5   BANK6   BANK7   BANK8   BANK9  BANK10  BANK1
      +1  BANK12  BANK13  BANK14  BANK15  BANK16  BANK17  BANK18  BANK19  BANK20  BANK21  BANK22  BANK23  BANK24  BANK25
  4482 ;;      Params:         0       0       0       0       0       0       0       0       0       0       0       0       
      +0       0       0       0       0       0       0       0       0       0       0       0       0       0       0
  4483 ;;      Locals:         0       0       0       0       0       0       0       0       0       0       0       0       
      +0       0       0       0       0       0       0       0       0       0       0       0       0       0       0
  4484 ;;      Temps:          0       0       0       0       0       0       0       0       0       0       0       0       
      +0       0       0       0       0       0       0       0       0       0       0       0       0       0       0
  4485 ;;      Totals:         0       0       0       0       0       0       0       0       0       0       0       0       
      +0       0       0       0       0       0       0       0       0       0       0       0       0       0       0
  4486 ;;Total ram usage:        0 bytes
  4487 ;; Hardware stack levels used:    1
  4488 ;; Hardware stack levels required when called:   10
  4489 ;; This function calls:
  4490 ;;		_IOCAF0_SetInterruptHandler
  4491 ;;		_IOCAF1_SetInterruptHandler
  4492 ;;		_IOCAF2_SetInterruptHandler
  4493 ;;		_IOCAF3_SetInterruptHandler
  4494 ;;		_IOCAF4_SetInterruptHandler
  4495 ;;		_IOCAF5_SetInterruptHandler
  4496 ;; This function is called by:
  4497 ;;		_SYSTEM_Initialize
  4498 ;; This function uses a non-reentrant model
  4499 ;;
  4500                           
  4501                           
  4502                           ;psect for function _PIN_MANAGER_Initialize
  4503  01CC                     _PIN_MANAGER_Initialize:
  4504  01CC                     l2479:	
  4505                           ;incstack = 0
  4506                           ; Regs used in _PIN_MANAGER_Initialize: [wreg+status,2+status,0+pclath+cstack]
  4507                           
  4508                           
  4509                           ;mcc_generated_files/pin_manager.c: 70:     LATA = 0x00;
  4510  01CC  0022               	movlb	2	; select bank2
  4511  01CD  018C               	clrf	12	;volatile
  4512                           
  4513                           ;mcc_generated_files/pin_manager.c: 71:     LATB = 0x00;
  4514  01CE  018D               	clrf	13	;volatile
  4515                           
  4516                           ;mcc_generated_files/pin_manager.c: 72:     LATC = 0x00;
  4517  01CF  018E               	clrf	14	;volatile
  4518  01D0                     l2481:
  4519                           
  4520                           ;mcc_generated_files/pin_manager.c: 77:     TRISE = 0x08;
  4521  01D0  3008               	movlw	8
  4522  01D1  0021               	movlb	1	; select bank1
  4523  01D2  0090               	movwf	16	;volatile
  4524  01D3                     l2483:
  4525                           
  4526                           ;mcc_generated_files/pin_manager.c: 78:     TRISA = 0xFF;
  4527  01D3  30FF               	movlw	255
  4528  01D4  008C               	movwf	12	;volatile
  4529                           
  4530                           ;mcc_generated_files/pin_manager.c: 79:     TRISB = 0x00;
  4531  01D5  018D               	clrf	13	;volatile
  4532  01D6                     l2485:
  4533                           
  4534                           ;mcc_generated_files/pin_manager.c: 80:     TRISC = 0xFF;
  4535  01D6  30FF               	movlw	255
  4536  01D7  008E               	movwf	14	;volatile
  4537  01D8                     l2487:
  4538                           
  4539                           ;mcc_generated_files/pin_manager.c: 85:     ANSELC = 0xFC;
  4540  01D8  30FC               	movlw	252
  4541  01D9  0023               	movlb	3	; select bank3
  4542  01DA  008E               	movwf	14	;volatile
  4543                           
  4544                           ;mcc_generated_files/pin_manager.c: 86:     ANSELB = 0x00;
  4545  01DB  018D               	clrf	13	;volatile
  4546                           
  4547                           ;mcc_generated_files/pin_manager.c: 87:     ANSELA = 0x00;
  4548  01DC  018C               	clrf	12	;volatile
  4549  01DD                     l2489:
  4550                           
  4551                           ;mcc_generated_files/pin_manager.c: 92:     WPUE = 0x08;
  4552  01DD  3008               	movlw	8
  4553  01DE  0024               	movlb	4	; select bank4
  4554  01DF  0090               	movwf	16	;volatile
  4555  01E0                     l2491:
  4556                           
  4557                           ;mcc_generated_files/pin_manager.c: 93:     WPUB = 0x00;
  4558  01E0  018D               	clrf	13	;volatile
  4559                           
  4560                           ;mcc_generated_files/pin_manager.c: 94:     WPUA = 0x3F;
  4561  01E1  303F               	movlw	63
  4562  01E2  008C               	movwf	12	;volatile
  4563  01E3                     l2493:
  4564                           
  4565                           ;mcc_generated_files/pin_manager.c: 95:     WPUC = 0x00;
  4566  01E3  018E               	clrf	14	;volatile
  4567  01E4                     l2495:
  4568                           
  4569                           ;mcc_generated_files/pin_manager.c: 96:     OPTION_REGbits.nWPUEN = 0;
  4570  01E4  0021               	movlb	1	; select bank1
  4571  01E5  1395               	bcf	21,7	;volatile
  4572  01E6                     l2497:
  4573                           
  4574                           ;mcc_generated_files/pin_manager.c: 101:     ODCONA = 0x00;
  4575  01E6  0025               	movlb	5	; select bank5
  4576  01E7  018C               	clrf	12	;volatile
  4577  01E8                     l2499:
  4578                           
  4579                           ;mcc_generated_files/pin_manager.c: 102:     ODCONB = 0x00;
  4580  01E8  018D               	clrf	13	;volatile
  4581  01E9                     l2501:
  4582                           
  4583                           ;mcc_generated_files/pin_manager.c: 103:     ODCONC = 0x00;
  4584  01E9  018E               	clrf	14	;volatile
  4585                           
  4586                           ;mcc_generated_files/pin_manager.c: 108:     SLRCONA = 0xFF;
  4587  01EA  30FF               	movlw	255
  4588  01EB  0026               	movlb	6	; select bank6
  4589  01EC  008C               	movwf	12	;volatile
  4590                           
  4591                           ;mcc_generated_files/pin_manager.c: 109:     SLRCONB = 0xFF;
  4592  01ED  30FF               	movlw	255
  4593  01EE  008D               	movwf	13	;volatile
  4594                           
  4595                           ;mcc_generated_files/pin_manager.c: 110:     SLRCONC = 0xFF;
  4596  01EF  30FF               	movlw	255
  4597  01F0  008E               	movwf	14	;volatile
  4598                           
  4599                           ;mcc_generated_files/pin_manager.c: 115:     INLVLA = 0xFF;
  4600  01F1  30FF               	movlw	255
  4601  01F2  0027               	movlb	7	; select bank7
  4602  01F3  008C               	movwf	12	;volatile
  4603                           
  4604                           ;mcc_generated_files/pin_manager.c: 116:     INLVLB = 0xFF;
  4605  01F4  30FF               	movlw	255
  4606  01F5  008D               	movwf	13	;volatile
  4607                           
  4608                           ;mcc_generated_files/pin_manager.c: 117:     INLVLC = 0xFF;
  4609  01F6  30FF               	movlw	255
  4610  01F7  008E               	movwf	14	;volatile
  4611                           
  4612                           ;mcc_generated_files/pin_manager.c: 118:     INLVLE = 0x08;
  4613  01F8  3008               	movlw	8
  4614  01F9  0090               	movwf	16	;volatile
  4615  01FA                     l2503:
  4616                           
  4617                           ;mcc_generated_files/pin_manager.c: 125:     IOCAFbits.IOCAF0 = 0;
  4618  01FA  1013               	bcf	19,0	;volatile
  4619  01FB                     l2505:
  4620                           
  4621                           ;mcc_generated_files/pin_manager.c: 127:     IOCAFbits.IOCAF1 = 0;
  4622  01FB  1093               	bcf	19,1	;volatile
  4623  01FC                     l2507:
  4624                           
  4625                           ;mcc_generated_files/pin_manager.c: 129:     IOCAFbits.IOCAF2 = 0;
  4626  01FC  1113               	bcf	19,2	;volatile
  4627  01FD                     l2509:
  4628                           
  4629                           ;mcc_generated_files/pin_manager.c: 131:     IOCAFbits.IOCAF3 = 0;
  4630  01FD  1193               	bcf	19,3	;volatile
  4631  01FE                     l2511:
  4632                           
  4633                           ;mcc_generated_files/pin_manager.c: 133:     IOCAFbits.IOCAF4 = 0;
  4634  01FE  1213               	bcf	19,4	;volatile
  4635  01FF                     l2513:
  4636                           
  4637                           ;mcc_generated_files/pin_manager.c: 135:     IOCAFbits.IOCAF5 = 0;
  4638  01FF  1293               	bcf	19,5	;volatile
  4639  0200                     l2515:
  4640                           
  4641                           ;mcc_generated_files/pin_manager.c: 137:     IOCANbits.IOCAN0 = 1;
  4642  0200  1412               	bsf	18,0	;volatile
  4643  0201                     l2517:
  4644                           
  4645                           ;mcc_generated_files/pin_manager.c: 139:     IOCANbits.IOCAN1 = 1;
  4646  0201  1492               	bsf	18,1	;volatile
  4647  0202                     l2519:
  4648                           
  4649                           ;mcc_generated_files/pin_manager.c: 141:     IOCANbits.IOCAN2 = 1;
  4650  0202  1512               	bsf	18,2	;volatile
  4651  0203                     l2521:
  4652                           
  4653                           ;mcc_generated_files/pin_manager.c: 143:     IOCANbits.IOCAN3 = 1;
  4654  0203  1592               	bsf	18,3	;volatile
  4655  0204                     l2523:
  4656                           
  4657                           ;mcc_generated_files/pin_manager.c: 145:     IOCANbits.IOCAN4 = 1;
  4658  0204  1612               	bsf	18,4	;volatile
  4659  0205                     l2525:
  4660                           
  4661                           ;mcc_generated_files/pin_manager.c: 147:     IOCANbits.IOCAN5 = 1;
  4662  0205  1692               	bsf	18,5	;volatile
  4663  0206                     l2527:
  4664                           
  4665                           ;mcc_generated_files/pin_manager.c: 149:     IOCAPbits.IOCAP0 = 1;
  4666  0206  1411               	bsf	17,0	;volatile
  4667  0207                     l2529:
  4668                           
  4669                           ;mcc_generated_files/pin_manager.c: 151:     IOCAPbits.IOCAP1 = 0;
  4670  0207  1091               	bcf	17,1	;volatile
  4671  0208                     l2531:
  4672                           
  4673                           ;mcc_generated_files/pin_manager.c: 153:     IOCAPbits.IOCAP2 = 0;
  4674  0208  1111               	bcf	17,2	;volatile
  4675  0209                     l2533:
  4676                           
  4677                           ;mcc_generated_files/pin_manager.c: 155:     IOCAPbits.IOCAP3 = 1;
  4678  0209  1591               	bsf	17,3	;volatile
  4679  020A                     l2535:
  4680                           
  4681                           ;mcc_generated_files/pin_manager.c: 157:     IOCAPbits.IOCAP4 = 0;
  4682  020A  1211               	bcf	17,4	;volatile
  4683  020B                     l2537:
  4684                           
  4685                           ;mcc_generated_files/pin_manager.c: 159:     IOCAPbits.IOCAP5 = 0;
  4686  020B  1291               	bcf	17,5	;volatile
  4687  020C                     l2539:
  4688                           
  4689                           ;mcc_generated_files/pin_manager.c: 164:     IOCAF0_SetInterruptHandler(IOCAF0_DefaultIn
      +                          terruptHandler);
  4690  020C  306D               	movlw	low _IOCAF0_DefaultInterruptHandler
  4691  020D  0020               	movlb	0	; select bank0
  4692  020E  00A6               	movwf	IOCAF0_SetInterruptHandler@InterruptHandler
  4693  020F  3007               	movlw	high _IOCAF0_DefaultInterruptHandler
  4694  0210  00A7               	movwf	IOCAF0_SetInterruptHandler@InterruptHandler+1
  4695  0211  3187  275B  3181   	fcall	_IOCAF0_SetInterruptHandler
  4696  0214                     l2541:
  4697                           
  4698                           ;mcc_generated_files/pin_manager.c: 165:     IOCAF1_SetInterruptHandler(IOCAF1_DefaultIn
      +                          terruptHandler);
  4699  0214  306C               	movlw	low _IOCAF1_DefaultInterruptHandler
  4700  0215  0020               	movlb	0	; select bank0
  4701  0216  00A6               	movwf	IOCAF1_SetInterruptHandler@InterruptHandler
  4702  0217  3007               	movlw	high _IOCAF1_DefaultInterruptHandler
  4703  0218  00A7               	movwf	IOCAF1_SetInterruptHandler@InterruptHandler+1
  4704  0219  3187  2755  3181   	fcall	_IOCAF1_SetInterruptHandler
  4705  021C                     l2543:
  4706                           
  4707                           ;mcc_generated_files/pin_manager.c: 166:     IOCAF2_SetInterruptHandler(IOCAF2_DefaultIn
      +                          terruptHandler);
  4708  021C  306B               	movlw	low _IOCAF2_DefaultInterruptHandler
  4709  021D  0020               	movlb	0	; select bank0
  4710  021E  00A6               	movwf	IOCAF2_SetInterruptHandler@InterruptHandler
  4711  021F  3007               	movlw	high _IOCAF2_DefaultInterruptHandler
  4712  0220  00A7               	movwf	IOCAF2_SetInterruptHandler@InterruptHandler+1
  4713  0221  3187  274F  3181   	fcall	_IOCAF2_SetInterruptHandler
  4714  0224                     l2545:
  4715                           
  4716                           ;mcc_generated_files/pin_manager.c: 167:     IOCAF3_SetInterruptHandler(IOCAF3_DefaultIn
      +                          terruptHandler);
  4717  0224  306A               	movlw	low _IOCAF3_DefaultInterruptHandler
  4718  0225  0020               	movlb	0	; select bank0
  4719  0226  00A6               	movwf	IOCAF3_SetInterruptHandler@InterruptHandler
  4720  0227  3007               	movlw	high _IOCAF3_DefaultInterruptHandler
  4721  0228  00A7               	movwf	IOCAF3_SetInterruptHandler@InterruptHandler+1
  4722  0229  3187  2749  3181   	fcall	_IOCAF3_SetInterruptHandler
  4723  022C                     l2547:
  4724                           
  4725                           ;mcc_generated_files/pin_manager.c: 168:     IOCAF4_SetInterruptHandler(IOCAF4_DefaultIn
      +                          terruptHandler);
  4726  022C  3069               	movlw	low _IOCAF4_DefaultInterruptHandler
  4727  022D  0020               	movlb	0	; select bank0
  4728  022E  00A6               	movwf	IOCAF4_SetInterruptHandler@InterruptHandler
  4729  022F  3007               	movlw	high _IOCAF4_DefaultInterruptHandler
  4730  0230  00A7               	movwf	IOCAF4_SetInterruptHandler@InterruptHandler+1
  4731  0231  3187  2743  3181   	fcall	_IOCAF4_SetInterruptHandler
  4732  0234                     l2549:
  4733                           
  4734                           ;mcc_generated_files/pin_manager.c: 169:     IOCAF5_SetInterruptHandler(IOCAF5_DefaultIn
      +                          terruptHandler);
  4735  0234  3068               	movlw	low _IOCAF5_DefaultInterruptHandler
  4736  0235  0020               	movlb	0	; select bank0
  4737  0236  00A6               	movwf	IOCAF5_SetInterruptHandler@InterruptHandler
  4738  0237  3007               	movlw	high _IOCAF5_DefaultInterruptHandler
  4739  0238  00A7               	movwf	IOCAF5_SetInterruptHandler@InterruptHandler+1
  4740  0239  3187  273D  3181   	fcall	_IOCAF5_SetInterruptHandler
  4741  023C                     l2551:
  4742                           
  4743                           ;mcc_generated_files/pin_manager.c: 172:     INTCONbits.IOCIE = 1;
  4744  023C  158B               	bsf	11,3	;volatile
  4745  023D                     l125:
  4746  023D  0008               	return
  4747  023E                     __end_of_PIN_MANAGER_Initialize:
  4748                           
  4749                           	psect	text13
  4750  073D                     __ptext13:	
  4751 ;; *************** function _IOCAF5_SetInterruptHandler *****************
  4752 ;; Defined at:
  4753 ;;		line 475 in file "mcc_generated_files/pin_manager.c"
  4754 ;; Parameters:    Size  Location     Type
  4755 ;;  InterruptHan    2    6[BANK0 ] PTR FTN()void 
  4756 ;;		 -> IOCAF5_DefaultInterruptHandler(1), 
  4757 ;; Auto vars:     Size  Location     Type
  4758 ;;		None
  4759 ;; Return value:  Size  Location     Type
  4760 ;;                  1    wreg      void 
  4761 ;; Registers used:
  4762 ;;		wreg
  4763 ;; Tracked objects:
  4764 ;;		On entry : 0/0
  4765 ;;		On exit  : 0/0
  4766 ;;		Unchanged: 0/0
  4767 ;; Data sizes:     COMMON   BANK0   BANK1   BANK2   BANK3   BANK4   BANK5   BANK6   BANK7   BANK8   BANK9  BANK10  BANK1
      +1  BANK12  BANK13  BANK14  BANK15  BANK16  BANK17  BANK18  BANK19  BANK20  BANK21  BANK22  BANK23  BANK24  BANK25
  4768 ;;      Params:         0       2       0       0       0       0       0       0       0       0       0       0       
      +0       0       0       0       0       0       0       0       0       0       0       0       0       0       0
  4769 ;;      Locals:         0       0       0       0       0       0       0       0       0       0       0       0       
      +0       0       0       0       0       0       0       0       0       0       0       0       0       0       0
  4770 ;;      Temps:          0       0       0       0       0       0       0       0       0       0       0       0       
      +0       0       0       0       0       0       0       0       0       0       0       0       0       0       0
  4771 ;;      Totals:         0       2       0       0       0       0       0       0       0       0       0       0       
      +0       0       0       0       0       0       0       0       0       0       0       0       0       0       0
  4772 ;;Total ram usage:        2 bytes
  4773 ;; Hardware stack levels used:    1
  4774 ;; Hardware stack levels required when called:    9
  4775 ;; This function calls:
  4776 ;;		Nothing
  4777 ;; This function is called by:
  4778 ;;		_PIN_MANAGER_Initialize
  4779 ;; This function uses a non-reentrant model
  4780 ;;
  4781                           
  4782                           
  4783                           ;psect for function _IOCAF5_SetInterruptHandler
  4784  073D                     _IOCAF5_SetInterruptHandler:
  4785  073D                     l2441:	
  4786                           ;incstack = 0
  4787                           ; Regs used in _IOCAF5_SetInterruptHandler: [wreg]
  4788                           
  4789                           
  4790                           ;mcc_generated_files/pin_manager.c: 476:     IOCAF5_InterruptHandler = InterruptHandler;
  4791  073D  0020               	movlb	0	; select bank0
  4792  073E  0827               	movf	IOCAF5_SetInterruptHandler@InterruptHandler+1,w
  4793  073F  00B7               	movwf	_IOCAF5_InterruptHandler+1
  4794  0740  0826               	movf	IOCAF5_SetInterruptHandler@InterruptHandler,w
  4795  0741  00B6               	movwf	_IOCAF5_InterruptHandler
  4796  0742                     l231:
  4797  0742  0008               	return
  4798  0743                     __end_of_IOCAF5_SetInterruptHandler:
  4799                           
  4800                           	psect	text14
  4801  0743                     __ptext14:	
  4802 ;; *************** function _IOCAF4_SetInterruptHandler *****************
  4803 ;; Defined at:
  4804 ;;		line 425 in file "mcc_generated_files/pin_manager.c"
  4805 ;; Parameters:    Size  Location     Type
  4806 ;;  InterruptHan    2    6[BANK0 ] PTR FTN()void 
  4807 ;;		 -> IOCAF4_DefaultInterruptHandler(1), 
  4808 ;; Auto vars:     Size  Location     Type
  4809 ;;		None
  4810 ;; Return value:  Size  Location     Type
  4811 ;;                  1    wreg      void 
  4812 ;; Registers used:
  4813 ;;		wreg
  4814 ;; Tracked objects:
  4815 ;;		On entry : 0/0
  4816 ;;		On exit  : 0/0
  4817 ;;		Unchanged: 0/0
  4818 ;; Data sizes:     COMMON   BANK0   BANK1   BANK2   BANK3   BANK4   BANK5   BANK6   BANK7   BANK8   BANK9  BANK10  BANK1
      +1  BANK12  BANK13  BANK14  BANK15  BANK16  BANK17  BANK18  BANK19  BANK20  BANK21  BANK22  BANK23  BANK24  BANK25
  4819 ;;      Params:         0       2       0       0       0       0       0       0       0       0       0       0       
      +0       0       0       0       0       0       0       0       0       0       0       0       0       0       0
  4820 ;;      Locals:         0       0       0       0       0       0       0       0       0       0       0       0       
      +0       0       0       0       0       0       0       0       0       0       0       0       0       0       0
  4821 ;;      Temps:          0       0       0       0       0       0       0       0       0       0       0       0       
      +0       0       0       0       0       0       0       0       0       0       0       0       0       0       0
  4822 ;;      Totals:         0       2       0       0       0       0       0       0       0       0       0       0       
      +0       0       0       0       0       0       0       0       0       0       0       0       0       0       0
  4823 ;;Total ram usage:        2 bytes
  4824 ;; Hardware stack levels used:    1
  4825 ;; Hardware stack levels required when called:    9
  4826 ;; This function calls:
  4827 ;;		Nothing
  4828 ;; This function is called by:
  4829 ;;		_PIN_MANAGER_Initialize
  4830 ;; This function uses a non-reentrant model
  4831 ;;
  4832                           
  4833                           
  4834                           ;psect for function _IOCAF4_SetInterruptHandler
  4835  0743                     _IOCAF4_SetInterruptHandler:
  4836  0743                     l2439:	
  4837                           ;incstack = 0
  4838                           ; Regs used in _IOCAF4_SetInterruptHandler: [wreg]
  4839                           
  4840                           
  4841                           ;mcc_generated_files/pin_manager.c: 426:     IOCAF4_InterruptHandler = InterruptHandler;
  4842  0743  0020               	movlb	0	; select bank0
  4843  0744  0827               	movf	IOCAF4_SetInterruptHandler@InterruptHandler+1,w
  4844  0745  00B9               	movwf	_IOCAF4_InterruptHandler+1
  4845  0746  0826               	movf	IOCAF4_SetInterruptHandler@InterruptHandler,w
  4846  0747  00B8               	movwf	_IOCAF4_InterruptHandler
  4847  0748                     l214:
  4848  0748  0008               	return
  4849  0749                     __end_of_IOCAF4_SetInterruptHandler:
  4850                           
  4851                           	psect	text15
  4852  0749                     __ptext15:	
  4853 ;; *************** function _IOCAF3_SetInterruptHandler *****************
  4854 ;; Defined at:
  4855 ;;		line 383 in file "mcc_generated_files/pin_manager.c"
  4856 ;; Parameters:    Size  Location     Type
  4857 ;;  InterruptHan    2    6[BANK0 ] PTR FTN()void 
  4858 ;;		 -> IOCAF3_DefaultInterruptHandler(1), 
  4859 ;; Auto vars:     Size  Location     Type
  4860 ;;		None
  4861 ;; Return value:  Size  Location     Type
  4862 ;;                  1    wreg      void 
  4863 ;; Registers used:
  4864 ;;		wreg
  4865 ;; Tracked objects:
  4866 ;;		On entry : 0/0
  4867 ;;		On exit  : 0/0
  4868 ;;		Unchanged: 0/0
  4869 ;; Data sizes:     COMMON   BANK0   BANK1   BANK2   BANK3   BANK4   BANK5   BANK6   BANK7   BANK8   BANK9  BANK10  BANK1
      +1  BANK12  BANK13  BANK14  BANK15  BANK16  BANK17  BANK18  BANK19  BANK20  BANK21  BANK22  BANK23  BANK24  BANK25
  4870 ;;      Params:         0       2       0       0       0       0       0       0       0       0       0       0       
      +0       0       0       0       0       0       0       0       0       0       0       0       0       0       0
  4871 ;;      Locals:         0       0       0       0       0       0       0       0       0       0       0       0       
      +0       0       0       0       0       0       0       0       0       0       0       0       0       0       0
  4872 ;;      Temps:          0       0       0       0       0       0       0       0       0       0       0       0       
      +0       0       0       0       0       0       0       0       0       0       0       0       0       0       0
  4873 ;;      Totals:         0       2       0       0       0       0       0       0       0       0       0       0       
      +0       0       0       0       0       0       0       0       0       0       0       0       0       0       0
  4874 ;;Total ram usage:        2 bytes
  4875 ;; Hardware stack levels used:    1
  4876 ;; Hardware stack levels required when called:    9
  4877 ;; This function calls:
  4878 ;;		Nothing
  4879 ;; This function is called by:
  4880 ;;		_PIN_MANAGER_Initialize
  4881 ;; This function uses a non-reentrant model
  4882 ;;
  4883                           
  4884                           
  4885                           ;psect for function _IOCAF3_SetInterruptHandler
  4886  0749                     _IOCAF3_SetInterruptHandler:
  4887  0749                     l2437:	
  4888                           ;incstack = 0
  4889                           ; Regs used in _IOCAF3_SetInterruptHandler: [wreg]
  4890                           
  4891                           
  4892                           ;mcc_generated_files/pin_manager.c: 384:     IOCAF3_InterruptHandler = InterruptHandler;
  4893  0749  0020               	movlb	0	; select bank0
  4894  074A  0827               	movf	IOCAF3_SetInterruptHandler@InterruptHandler+1,w
  4895  074B  00BB               	movwf	_IOCAF3_InterruptHandler+1
  4896  074C  0826               	movf	IOCAF3_SetInterruptHandler@InterruptHandler,w
  4897  074D  00BA               	movwf	_IOCAF3_InterruptHandler
  4898  074E                     l198:
  4899  074E  0008               	return
  4900  074F                     __end_of_IOCAF3_SetInterruptHandler:
  4901                           
  4902                           	psect	text16
  4903  074F                     __ptext16:	
  4904 ;; *************** function _IOCAF2_SetInterruptHandler *****************
  4905 ;; Defined at:
  4906 ;;		line 341 in file "mcc_generated_files/pin_manager.c"
  4907 ;; Parameters:    Size  Location     Type
  4908 ;;  InterruptHan    2    6[BANK0 ] PTR FTN()void 
  4909 ;;		 -> IOCAF2_DefaultInterruptHandler(1), 
  4910 ;; Auto vars:     Size  Location     Type
  4911 ;;		None
  4912 ;; Return value:  Size  Location     Type
  4913 ;;                  1    wreg      void 
  4914 ;; Registers used:
  4915 ;;		wreg
  4916 ;; Tracked objects:
  4917 ;;		On entry : 0/0
  4918 ;;		On exit  : 0/0
  4919 ;;		Unchanged: 0/0
  4920 ;; Data sizes:     COMMON   BANK0   BANK1   BANK2   BANK3   BANK4   BANK5   BANK6   BANK7   BANK8   BANK9  BANK10  BANK1
      +1  BANK12  BANK13  BANK14  BANK15  BANK16  BANK17  BANK18  BANK19  BANK20  BANK21  BANK22  BANK23  BANK24  BANK25
  4921 ;;      Params:         0       2       0       0       0       0       0       0       0       0       0       0       
      +0       0       0       0       0       0       0       0       0       0       0       0       0       0       0
  4922 ;;      Locals:         0       0       0       0       0       0       0       0       0       0       0       0       
      +0       0       0       0       0       0       0       0       0       0       0       0       0       0       0
  4923 ;;      Temps:          0       0       0       0       0       0       0       0       0       0       0       0       
      +0       0       0       0       0       0       0       0       0       0       0       0       0       0       0
  4924 ;;      Totals:         0       2       0       0       0       0       0       0       0       0       0       0       
      +0       0       0       0       0       0       0       0       0       0       0       0       0       0       0
  4925 ;;Total ram usage:        2 bytes
  4926 ;; Hardware stack levels used:    1
  4927 ;; Hardware stack levels required when called:    9
  4928 ;; This function calls:
  4929 ;;		Nothing
  4930 ;; This function is called by:
  4931 ;;		_PIN_MANAGER_Initialize
  4932 ;; This function uses a non-reentrant model
  4933 ;;
  4934                           
  4935                           
  4936                           ;psect for function _IOCAF2_SetInterruptHandler
  4937  074F                     _IOCAF2_SetInterruptHandler:
  4938  074F                     l2435:	
  4939                           ;incstack = 0
  4940                           ; Regs used in _IOCAF2_SetInterruptHandler: [wreg]
  4941                           
  4942                           
  4943                           ;mcc_generated_files/pin_manager.c: 342:     IOCAF2_InterruptHandler = InterruptHandler;
  4944  074F  0020               	movlb	0	; select bank0
  4945  0750  0827               	movf	IOCAF2_SetInterruptHandler@InterruptHandler+1,w
  4946  0751  00BD               	movwf	_IOCAF2_InterruptHandler+1
  4947  0752  0826               	movf	IOCAF2_SetInterruptHandler@InterruptHandler,w
  4948  0753  00BC               	movwf	_IOCAF2_InterruptHandler
  4949  0754                     l182:
  4950  0754  0008               	return
  4951  0755                     __end_of_IOCAF2_SetInterruptHandler:
  4952                           
  4953                           	psect	text17
  4954  0755                     __ptext17:	
  4955 ;; *************** function _IOCAF1_SetInterruptHandler *****************
  4956 ;; Defined at:
  4957 ;;		line 289 in file "mcc_generated_files/pin_manager.c"
  4958 ;; Parameters:    Size  Location     Type
  4959 ;;  InterruptHan    2    6[BANK0 ] PTR FTN()void 
  4960 ;;		 -> IOCAF1_DefaultInterruptHandler(1), 
  4961 ;; Auto vars:     Size  Location     Type
  4962 ;;		None
  4963 ;; Return value:  Size  Location     Type
  4964 ;;                  1    wreg      void 
  4965 ;; Registers used:
  4966 ;;		wreg
  4967 ;; Tracked objects:
  4968 ;;		On entry : 0/0
  4969 ;;		On exit  : 0/0
  4970 ;;		Unchanged: 0/0
  4971 ;; Data sizes:     COMMON   BANK0   BANK1   BANK2   BANK3   BANK4   BANK5   BANK6   BANK7   BANK8   BANK9  BANK10  BANK1
      +1  BANK12  BANK13  BANK14  BANK15  BANK16  BANK17  BANK18  BANK19  BANK20  BANK21  BANK22  BANK23  BANK24  BANK25
  4972 ;;      Params:         0       2       0       0       0       0       0       0       0       0       0       0       
      +0       0       0       0       0       0       0       0       0       0       0       0       0       0       0
  4973 ;;      Locals:         0       0       0       0       0       0       0       0       0       0       0       0       
      +0       0       0       0       0       0       0       0       0       0       0       0       0       0       0
  4974 ;;      Temps:          0       0       0       0       0       0       0       0       0       0       0       0       
      +0       0       0       0       0       0       0       0       0       0       0       0       0       0       0
  4975 ;;      Totals:         0       2       0       0       0       0       0       0       0       0       0       0       
      +0       0       0       0       0       0       0       0       0       0       0       0       0       0       0
  4976 ;;Total ram usage:        2 bytes
  4977 ;; Hardware stack levels used:    1
  4978 ;; Hardware stack levels required when called:    9
  4979 ;; This function calls:
  4980 ;;		Nothing
  4981 ;; This function is called by:
  4982 ;;		_PIN_MANAGER_Initialize
  4983 ;; This function uses a non-reentrant model
  4984 ;;
  4985                           
  4986                           
  4987                           ;psect for function _IOCAF1_SetInterruptHandler
  4988  0755                     _IOCAF1_SetInterruptHandler:
  4989  0755                     l2433:	
  4990                           ;incstack = 0
  4991                           ; Regs used in _IOCAF1_SetInterruptHandler: [wreg]
  4992                           
  4993                           
  4994                           ;mcc_generated_files/pin_manager.c: 290:     IOCAF1_InterruptHandler = InterruptHandler;
  4995  0755  0020               	movlb	0	; select bank0
  4996  0756  0827               	movf	IOCAF1_SetInterruptHandler@InterruptHandler+1,w
  4997  0757  00BF               	movwf	_IOCAF1_InterruptHandler+1
  4998  0758  0826               	movf	IOCAF1_SetInterruptHandler@InterruptHandler,w
  4999  0759  00BE               	movwf	_IOCAF1_InterruptHandler
  5000  075A                     l165:
  5001  075A  0008               	return
  5002  075B                     __end_of_IOCAF1_SetInterruptHandler:
  5003                           
  5004                           	psect	text18
  5005  075B                     __ptext18:	
  5006 ;; *************** function _IOCAF0_SetInterruptHandler *****************
  5007 ;; Defined at:
  5008 ;;		line 244 in file "mcc_generated_files/pin_manager.c"
  5009 ;; Parameters:    Size  Location     Type
  5010 ;;  InterruptHan    2    6[BANK0 ] PTR FTN()void 
  5011 ;;		 -> IOCAF0_DefaultInterruptHandler(1), 
  5012 ;; Auto vars:     Size  Location     Type
  5013 ;;		None
  5014 ;; Return value:  Size  Location     Type
  5015 ;;                  1    wreg      void 
  5016 ;; Registers used:
  5017 ;;		wreg
  5018 ;; Tracked objects:
  5019 ;;		On entry : 0/0
  5020 ;;		On exit  : 0/0
  5021 ;;		Unchanged: 0/0
  5022 ;; Data sizes:     COMMON   BANK0   BANK1   BANK2   BANK3   BANK4   BANK5   BANK6   BANK7   BANK8   BANK9  BANK10  BANK1
      +1  BANK12  BANK13  BANK14  BANK15  BANK16  BANK17  BANK18  BANK19  BANK20  BANK21  BANK22  BANK23  BANK24  BANK25
  5023 ;;      Params:         0       2       0       0       0       0       0       0       0       0       0       0       
      +0       0       0       0       0       0       0       0       0       0       0       0       0       0       0
  5024 ;;      Locals:         0       0       0       0       0       0       0       0       0       0       0       0       
      +0       0       0       0       0       0       0       0       0       0       0       0       0       0       0
  5025 ;;      Temps:          0       0       0       0       0       0       0       0       0       0       0       0       
      +0       0       0       0       0       0       0       0       0       0       0       0       0       0       0
  5026 ;;      Totals:         0       2       0       0       0       0       0       0       0       0       0       0       
      +0       0       0       0       0       0       0       0       0       0       0       0       0       0       0
  5027 ;;Total ram usage:        2 bytes
  5028 ;; Hardware stack levels used:    1
  5029 ;; Hardware stack levels required when called:    9
  5030 ;; This function calls:
  5031 ;;		Nothing
  5032 ;; This function is called by:
  5033 ;;		_PIN_MANAGER_Initialize
  5034 ;; This function uses a non-reentrant model
  5035 ;;
  5036                           
  5037                           
  5038                           ;psect for function _IOCAF0_SetInterruptHandler
  5039  075B                     _IOCAF0_SetInterruptHandler:
  5040  075B                     l2431:	
  5041                           ;incstack = 0
  5042                           ; Regs used in _IOCAF0_SetInterruptHandler: [wreg]
  5043                           
  5044                           
  5045                           ;mcc_generated_files/pin_manager.c: 245:     IOCAF0_InterruptHandler = InterruptHandler;
  5046  075B  0020               	movlb	0	; select bank0
  5047  075C  0827               	movf	IOCAF0_SetInterruptHandler@InterruptHandler+1,w
  5048  075D  00C1               	movwf	_IOCAF0_InterruptHandler+1
  5049  075E  0826               	movf	IOCAF0_SetInterruptHandler@InterruptHandler,w
  5050  075F  00C0               	movwf	_IOCAF0_InterruptHandler
  5051  0760                     l148:
  5052  0760  0008               	return
  5053  0761                     __end_of_IOCAF0_SetInterruptHandler:
  5054                           
  5055                           	psect	text19
  5056  0730                     __ptext19:	
  5057 ;; *************** function _OSCILLATOR_Initialize *****************
  5058 ;; Defined at:
  5059 ;;		line 58 in file "mcc_generated_files/mcc.c"
  5060 ;; Parameters:    Size  Location     Type
  5061 ;;		None
  5062 ;; Auto vars:     Size  Location     Type
  5063 ;;		None
  5064 ;; Return value:  Size  Location     Type
  5065 ;;                  1    wreg      void 
  5066 ;; Registers used:
  5067 ;;		wreg, status,2
  5068 ;; Tracked objects:
  5069 ;;		On entry : 0/0
  5070 ;;		On exit  : 0/0
  5071 ;;		Unchanged: 0/0
  5072 ;; Data sizes:     COMMON   BANK0   BANK1   BANK2   BANK3   BANK4   BANK5   BANK6   BANK7   BANK8   BANK9  BANK10  BANK1
      +1  BANK12  BANK13  BANK14  BANK15  BANK16  BANK17  BANK18  BANK19  BANK20  BANK21  BANK22  BANK23  BANK24  BANK25
  5073 ;;      Params:         0       0       0       0       0       0       0       0       0       0       0       0       
      +0       0       0       0       0       0       0       0       0       0       0       0       0       0       0
  5074 ;;      Locals:         0       0       0       0       0       0       0       0       0       0       0       0       
      +0       0       0       0       0       0       0       0       0       0       0       0       0       0       0
  5075 ;;      Temps:          0       0       0       0       0       0       0       0       0       0       0       0       
      +0       0       0       0       0       0       0       0       0       0       0       0       0       0       0
  5076 ;;      Totals:         0       0       0       0       0       0       0       0       0       0       0       0       
      +0       0       0       0       0       0       0       0       0       0       0       0       0       0       0
  5077 ;;Total ram usage:        0 bytes
  5078 ;; Hardware stack levels used:    1
  5079 ;; Hardware stack levels required when called:    9
  5080 ;; This function calls:
  5081 ;;		Nothing
  5082 ;; This function is called by:
  5083 ;;		_SYSTEM_Initialize
  5084 ;; This function uses a non-reentrant model
  5085 ;;
  5086                           
  5087                           
  5088                           ;psect for function _OSCILLATOR_Initialize
  5089  0730                     _OSCILLATOR_Initialize:
  5090  0730                     l2691:	
  5091                           ;incstack = 0
  5092                           ; Regs used in _OSCILLATOR_Initialize: [wreg+status,2]
  5093                           
  5094                           
  5095                           ;mcc_generated_files/mcc.c: 61:     OSCCON = 0x3A;
  5096  0730  303A               	movlw	58
  5097  0731  0021               	movlb	1	; select bank1
  5098  0732  0099               	movwf	25	;volatile
  5099  0733                     l2693:
  5100                           
  5101                           ;mcc_generated_files/mcc.c: 63:     OSCTUNE = 0x00;
  5102  0733  0198               	clrf	24	;volatile
  5103  0734                     l2695:
  5104                           
  5105                           ;mcc_generated_files/mcc.c: 65:     BORCON = 0x00;
  5106  0734  0022               	movlb	2	; select bank2
  5107  0735  0196               	clrf	22	;volatile
  5108  0736                     l254:
  5109  0736  0008               	return
  5110  0737                     __end_of_OSCILLATOR_Initialize:
  5111                           
  5112                           	psect	text20
  5113  04E1                     __ptext20:	
  5114 ;; *************** function _LCD_Initialize *****************
  5115 ;; Defined at:
  5116 ;;		line 46 in file "lcd.c"
  5117 ;; Parameters:    Size  Location     Type
  5118 ;;		None
  5119 ;; Auto vars:     Size  Location     Type
  5120 ;;		None
  5121 ;; Return value:  Size  Location     Type
  5122 ;;                  1    wreg      void 
  5123 ;; Registers used:
  5124 ;;		wreg, status,2, status,0, pclath, cstack
  5125 ;; Tracked objects:
  5126 ;;		On entry : 0/0
  5127 ;;		On exit  : 0/0
  5128 ;;		Unchanged: 0/0
  5129 ;; Data sizes:     COMMON   BANK0   BANK1   BANK2   BANK3   BANK4   BANK5   BANK6   BANK7   BANK8   BANK9  BANK10  BANK1
      +1  BANK12  BANK13  BANK14  BANK15  BANK16  BANK17  BANK18  BANK19  BANK20  BANK21  BANK22  BANK23  BANK24  BANK25
  5130 ;;      Params:         0       0       0       0       0       0       0       0       0       0       0       0       
      +0       0       0       0       0       0       0       0       0       0       0       0       0       0       0
  5131 ;;      Locals:         0       0       0       0       0       0       0       0       0       0       0       0       
      +0       0       0       0       0       0       0       0       0       0       0       0       0       0       0
  5132 ;;      Temps:          0       1       0       0       0       0       0       0       0       0       0       0       
      +0       0       0       0       0       0       0       0       0       0       0       0       0       0       0
  5133 ;;      Totals:         0       1       0       0       0       0       0       0       0       0       0       0       
      +0       0       0       0       0       0       0       0       0       0       0       0       0       0       0
  5134 ;;Total ram usage:        1 bytes
  5135 ;; Hardware stack levels used:    1
  5136 ;; Hardware stack levels required when called:   11
  5137 ;; This function calls:
  5138 ;;		_LCDPutCmd
  5139 ;; This function is called by:
  5140 ;;		_main
  5141 ;; This function uses a non-reentrant model
  5142 ;;
  5143                           
  5144                           
  5145                           ;psect for function _LCD_Initialize
  5146  04E1                     _LCD_Initialize:
  5147  04E1                     l2785:	
  5148                           ;incstack = 0
  5149                           ; Regs used in _LCD_Initialize: [wreg+status,2+status,0+pclath+cstack]
  5150                           
  5151                           
  5152                           ;lcd.c: 49:   PORTB = 0;
  5153  04E1  0020               	movlb	0	; select bank0
  5154  04E2  018D               	clrf	13	;volatile
  5155                           
  5156                           ;lcd.c: 51:   TRISB = 0x00;
  5157  04E3  0021               	movlb	1	; select bank1
  5158  04E4  018D               	clrf	13	;volatile
  5159  04E5                     l2787:
  5160                           
  5161                           ;lcd.c: 54:   PORTBbits.RB7 = 1;
  5162  04E5  0020               	movlb	0	; select bank0
  5163  04E6  178D               	bsf	13,7	;volatile
  5164  04E7                     l2789:
  5165                           
  5166                           ;lcd.c: 57:   _delay((unsigned long)((15)*(500000/4000.0)));
  5167  04E7  3003               	movlw	3
  5168  04E8  0020               	movlb	0	; select bank0
  5169  04E9  00AD               	movwf	??_LCD_Initialize
  5170  04EA  306E               	movlw	110
  5171  04EB                     u1357:
  5172  04EB  0B89               	decfsz	9,f
  5173  04EC  2CEB               	goto	u1357
  5174  04ED  0BAD               	decfsz	??_LCD_Initialize,f
  5175  04EE  2CEB               	goto	u1357
  5176  04EF                     l2791:
  5177                           
  5178                           ;lcd.c: 60:   LCDPutCmd(0x32);
  5179  04EF  3032               	movlw	50
  5180  04F0  3185  2504  3184   	fcall	_LCDPutCmd
  5181  04F3                     l2793:
  5182                           
  5183                           ;lcd.c: 63:   LCDPutCmd(0x28);
  5184  04F3  3028               	movlw	40
  5185  04F4  3185  2504  3184   	fcall	_LCDPutCmd
  5186  04F7                     l2795:
  5187                           
  5188                           ;lcd.c: 66:   LCDPutCmd(0x0C);
  5189  04F7  300C               	movlw	12
  5190  04F8  3185  2504  3184   	fcall	_LCDPutCmd
  5191  04FB                     l2797:
  5192                           
  5193                           ;lcd.c: 68:   LCDPutCmd(0x01);
  5194  04FB  3001               	movlw	1
  5195  04FC  3185  2504  3184   	fcall	_LCDPutCmd
  5196  04FF                     l2799:
  5197                           
  5198                           ;lcd.c: 71:   LCDPutCmd(0x06);
  5199  04FF  3006               	movlw	6
  5200  0500  3185  2504  3184   	fcall	_LCDPutCmd
  5201  0503                     l283:
  5202  0503  0008               	return
  5203  0504                     __end_of_LCD_Initialize:
  5204                           
  5205                           	psect	text21
  5206  0504                     __ptext21:	
  5207 ;; *************** function _LCDPutCmd *****************
  5208 ;; Defined at:
  5209 ;;		line 115 in file "lcd.c"
  5210 ;; Parameters:    Size  Location     Type
  5211 ;;  ch              1    wreg     unsigned char 
  5212 ;; Auto vars:     Size  Location     Type
  5213 ;;  ch              1   12[BANK0 ] unsigned char 
  5214 ;; Return value:  Size  Location     Type
  5215 ;;                  1    wreg      void 
  5216 ;; Registers used:
  5217 ;;		wreg, status,2, status,0, pclath, cstack
  5218 ;; Tracked objects:
  5219 ;;		On entry : 0/0
  5220 ;;		On exit  : 0/0
  5221 ;;		Unchanged: 0/0
  5222 ;; Data sizes:     COMMON   BANK0   BANK1   BANK2   BANK3   BANK4   BANK5   BANK6   BANK7   BANK8   BANK9  BANK10  BANK1
      +1  BANK12  BANK13  BANK14  BANK15  BANK16  BANK17  BANK18  BANK19  BANK20  BANK21  BANK22  BANK23  BANK24  BANK25
  5223 ;;      Params:         0       0       0       0       0       0       0       0       0       0       0       0       
      +0       0       0       0       0       0       0       0       0       0       0       0       0       0       0
  5224 ;;      Locals:         0       1       0       0       0       0       0       0       0       0       0       0       
      +0       0       0       0       0       0       0       0       0       0       0       0       0       0       0
  5225 ;;      Temps:          0       2       0       0       0       0       0       0       0       0       0       0       
      +0       0       0       0       0       0       0       0       0       0       0       0       0       0       0
  5226 ;;      Totals:         0       3       0       0       0       0       0       0       0       0       0       0       
      +0       0       0       0       0       0       0       0       0       0       0       0       0       0       0
  5227 ;;Total ram usage:        3 bytes
  5228 ;; Hardware stack levels used:    1
  5229 ;; Hardware stack levels required when called:   10
  5230 ;; This function calls:
  5231 ;;		_LCDWriteNibble
  5232 ;; This function is called by:
  5233 ;;		_LCD_Initialize
  5234 ;;		_LCDGoto
  5235 ;;		_createCustomCharacter
  5236 ;; This function uses a non-reentrant model
  5237 ;;
  5238                           
  5239                           
  5240                           ;psect for function _LCDPutCmd
  5241  0504                     _LCDPutCmd:
  5242                           
  5243                           ;incstack = 0
  5244                           ; Regs used in _LCDPutCmd: [wreg+status,2+status,0+pclath+cstack]
  5245                           ;LCDPutCmd@ch stored from wreg
  5246  0504  0020               	movlb	0	; select bank0
  5247  0505  00AC               	movwf	LCDPutCmd@ch
  5248  0506                     l2403:
  5249                           
  5250                           ;lcd.c: 115: void LCDPutCmd(uint8_t ch);lcd.c: 116: {;lcd.c: 117:   _delay((unsigned lon
      +                          g)((5)*(500000/4000.0)));
  5251  0506  30D0               	movlw	208
  5252  0507                     u1367:
  5253  0507  0B89               	decfsz	9,f
  5254  0508  2D07               	goto	u1367
  5255  0509  0000               	nop
  5256  050A                     l2405:
  5257                           
  5258                           ;lcd.c: 120:   LCDWriteNibble(ch, 0);
  5259  050A  0020               	movlb	0	; select bank0
  5260  050B  01A6               	clrf	LCDWriteNibble@rs
  5261  050C  082C               	movf	LCDPutCmd@ch,w
  5262  050D  3185  2547  3185   	fcall	_LCDWriteNibble
  5263  0510                     l2407:
  5264                           
  5265                           ;lcd.c: 123:   ch = (uint8_t)(ch << 4);
  5266  0510  0020               	movlb	0	; select bank0
  5267  0511  082C               	movf	LCDPutCmd@ch,w
  5268  0512  00AA               	movwf	??_LCDPutCmd
  5269  0513  3003               	movlw	3
  5270  0514                     u945:
  5271  0514  35AA               	lslf	??_LCDPutCmd,f
  5272  0515  3EFF               	addlw	-1
  5273  0516  1D03               	skipz
  5274  0517  2D14               	goto	u945
  5275  0518  352A               	lslf	??_LCDPutCmd,w
  5276  0519  00AB               	movwf	??_LCDPutCmd+1
  5277  051A  082B               	movf	??_LCDPutCmd+1,w
  5278  051B  00AC               	movwf	LCDPutCmd@ch
  5279  051C                     l2409:
  5280                           
  5281                           ;lcd.c: 125:   _delay((unsigned long)((1)*(500000/4000.0)));
  5282  051C  3029               	movlw	41
  5283  051D                     u1377:
  5284  051D  0B89               	decfsz	9,f
  5285  051E  2D1D               	goto	u1377
  5286  051F  3200               	nop2
  5287  0520                     l2411:
  5288                           
  5289                           ;lcd.c: 128:   LCDWriteNibble(ch, 0);
  5290  0520  0020               	movlb	0	; select bank0
  5291  0521  01A6               	clrf	LCDWriteNibble@rs
  5292  0522  082C               	movf	LCDPutCmd@ch,w
  5293  0523  3185  2547  3185   	fcall	_LCDWriteNibble
  5294  0526                     l292:
  5295  0526  0008               	return
  5296  0527                     __end_of_LCDPutCmd:
  5297                           
  5298                           	psect	text22
  5299  0547                     __ptext22:	
  5300 ;; *************** function _LCDWriteNibble *****************
  5301 ;; Defined at:
  5302 ;;		line 74 in file "lcd.c"
  5303 ;; Parameters:    Size  Location     Type
  5304 ;;  ch              1    wreg     unsigned char 
  5305 ;;  rs              1    6[BANK0 ] unsigned char 
  5306 ;; Auto vars:     Size  Location     Type
  5307 ;;  ch              1    9[BANK0 ] unsigned char 
  5308 ;; Return value:  Size  Location     Type
  5309 ;;                  1    wreg      void 
  5310 ;; Registers used:
  5311 ;;		wreg, status,2, status,0
  5312 ;; Tracked objects:
  5313 ;;		On entry : 0/0
  5314 ;;		On exit  : 0/0
  5315 ;;		Unchanged: 0/0
  5316 ;; Data sizes:     COMMON   BANK0   BANK1   BANK2   BANK3   BANK4   BANK5   BANK6   BANK7   BANK8   BANK9  BANK10  BANK1
      +1  BANK12  BANK13  BANK14  BANK15  BANK16  BANK17  BANK18  BANK19  BANK20  BANK21  BANK22  BANK23  BANK24  BANK25
  5317 ;;      Params:         0       1       0       0       0       0       0       0       0       0       0       0       
      +0       0       0       0       0       0       0       0       0       0       0       0       0       0       0
  5318 ;;      Locals:         0       1       0       0       0       0       0       0       0       0       0       0       
      +0       0       0       0       0       0       0       0       0       0       0       0       0       0       0
  5319 ;;      Temps:          0       2       0       0       0       0       0       0       0       0       0       0       
      +0       0       0       0       0       0       0       0       0       0       0       0       0       0       0
  5320 ;;      Totals:         0       4       0       0       0       0       0       0       0       0       0       0       
      +0       0       0       0       0       0       0       0       0       0       0       0       0       0       0
  5321 ;;Total ram usage:        4 bytes
  5322 ;; Hardware stack levels used:    1
  5323 ;; Hardware stack levels required when called:    9
  5324 ;; This function calls:
  5325 ;;		Nothing
  5326 ;; This function is called by:
  5327 ;;		_LCDPutChar
  5328 ;;		_LCDPutCmd
  5329 ;; This function uses a non-reentrant model
  5330 ;;
  5331                           
  5332                           
  5333                           ;psect for function _LCDWriteNibble
  5334  0547                     _LCDWriteNibble:
  5335                           
  5336                           ;incstack = 0
  5337                           ; Regs used in _LCDWriteNibble: [wreg+status,2+status,0]
  5338                           ;LCDWriteNibble@ch stored from wreg
  5339  0547  0020               	movlb	0	; select bank0
  5340  0548  00A9               	movwf	LCDWriteNibble@ch
  5341  0549                     l2355:
  5342                           
  5343                           ;lcd.c: 74: void LCDWriteNibble(uint8_t ch, uint8_t rs);lcd.c: 75: {;lcd.c: 77:   ch = (
      +                          ch >> 4);
  5344  0549  0829               	movf	LCDWriteNibble@ch,w
  5345  054A  00A7               	movwf	??_LCDWriteNibble
  5346  054B  3004               	movlw	4
  5347  054C                     u935:
  5348  054C  36A7               	lsrf	??_LCDWriteNibble,f
  5349  054D  0B89               	decfsz	9,f
  5350  054E  2D4C               	goto	u935
  5351  054F  0827               	movf	??_LCDWriteNibble,w
  5352  0550  00A8               	movwf	??_LCDWriteNibble+1
  5353  0551  0828               	movf	??_LCDWriteNibble+1,w
  5354  0552  00A9               	movwf	LCDWriteNibble@ch
  5355  0553                     l2357:
  5356                           
  5357                           ;lcd.c: 80:   ch = (ch & 0x0F);
  5358  0553  0829               	movf	LCDWriteNibble@ch,w
  5359  0554  390F               	andlw	15
  5360  0555  00A7               	movwf	??_LCDWriteNibble
  5361  0556  0827               	movf	??_LCDWriteNibble,w
  5362  0557  00A9               	movwf	LCDWriteNibble@ch
  5363  0558                     l2359:
  5364                           
  5365                           ;lcd.c: 83:   PORTB = (PORTB & 0xF0);
  5366  0558  080D               	movf	13,w	;volatile
  5367  0559  39F0               	andlw	240
  5368  055A  008D               	movwf	13	;volatile
  5369                           
  5370                           ;lcd.c: 86:   PORTB = (PORTB | ch);
  5371  055B  080D               	movf	13,w	;volatile
  5372  055C  0429               	iorwf	LCDWriteNibble@ch,w
  5373  055D  008D               	movwf	13	;volatile
  5374  055E                     l2361:
  5375                           
  5376                           ;lcd.c: 89:   PORTBbits.RB5 = rs;
  5377  055E  0C26               	rrf	LCDWriteNibble@rs,w
  5378  055F  1C03               	skipc
  5379  0560  128D               	bcf	13,5	;volatile
  5380  0561  1803               	skipnc
  5381  0562  168D               	bsf	13,5	;volatile
  5382  0563                     l2363:
  5383                           
  5384                           ;lcd.c: 92:   PORTBbits.RB6 = 0;
  5385  0563  130D               	bcf	13,6	;volatile
  5386  0564                     l2365:
  5387                           
  5388                           ;lcd.c: 95:   PORTBbits.RB4 = 1;
  5389  0564  160D               	bsf	13,4	;volatile
  5390  0565                     l2367:
  5391                           
  5392                           ;lcd.c: 98:   PORTBbits.RB4 = 0;
  5393  0565  120D               	bcf	13,4	;volatile
  5394  0566                     l286:
  5395  0566  0008               	return
  5396  0567                     __end_of_LCDWriteNibble:
  5397                           
  5398                           	psect	intentry
  5399  0004                     __pintentry:	
  5400 ;; *************** function _INTERRUPT_InterruptManager *****************
  5401 ;; Defined at:
  5402 ;;		line 52 in file "mcc_generated_files/interrupt_manager.c"
  5403 ;; Parameters:    Size  Location     Type
  5404 ;;		None
  5405 ;; Auto vars:     Size  Location     Type
  5406 ;;		None
  5407 ;; Return value:  Size  Location     Type
  5408 ;;                  1    wreg      void 
  5409 ;; Registers used:
  5410 ;;		wreg, fsr0l, fsr0h, status,2, status,0, pclath, cstack
  5411 ;; Tracked objects:
  5412 ;;		On entry : 0/0
  5413 ;;		On exit  : 0/0
  5414 ;;		Unchanged: 0/0
  5415 ;; Data sizes:     COMMON   BANK0   BANK1   BANK2   BANK3   BANK4   BANK5   BANK6   BANK7   BANK8   BANK9  BANK10  BANK1
      +1  BANK12  BANK13  BANK14  BANK15  BANK16  BANK17  BANK18  BANK19  BANK20  BANK21  BANK22  BANK23  BANK24  BANK25
  5416 ;;      Params:         0       0       0       0       0       0       0       0       0       0       0       0       
      +0       0       0       0       0       0       0       0       0       0       0       0       0       0       0
  5417 ;;      Locals:         0       0       0       0       0       0       0       0       0       0       0       0       
      +0       0       0       0       0       0       0       0       0       0       0       0       0       0       0
  5418 ;;      Temps:          1       0       0       0       0       0       0       0       0       0       0       0       
      +0       0       0       0       0       0       0       0       0       0       0       0       0       0       0
  5419 ;;      Totals:         1       0       0       0       0       0       0       0       0       0       0       0       
      +0       0       0       0       0       0       0       0       0       0       0       0       0       0       0
  5420 ;;Total ram usage:        1 bytes
  5421 ;; Hardware stack levels used:    1
  5422 ;; Hardware stack levels required when called:    8
  5423 ;; This function calls:
  5424 ;;		_PIN_MANAGER_IOC
  5425 ;; This function is called by:
  5426 ;;		Interrupt level 1
  5427 ;; This function uses a non-reentrant model
  5428 ;;
  5429                           
  5430  0004                     _INTERRUPT_InterruptManager:
  5431                           
  5432                           ;incstack = 0
  5433  0004  147E               	bsf	int$flags,0	;set compiler interrupt flag (level 1)
  5434                           
  5435                           ; Regs used in _INTERRUPT_InterruptManager: [wreg-fsr0h+status,2+status,0+pclath+cstack]
  5436  0005  3180               	pagesel	$
  5437  0006                     i1l2817:
  5438                           
  5439                           ;mcc_generated_files/interrupt_manager.c: 55:     if(INTCONbits.IOCIE == 1 && INTCONbits
      +                          .IOCIF == 1)
  5440  0006  1D8B               	btfss	11,3	;volatile
  5441  0007  2809               	goto	u123_21
  5442  0008  280A               	goto	u123_20
  5443  0009                     u123_21:
  5444  0009  2819               	goto	i1l270
  5445  000A                     u123_20:
  5446  000A                     i1l2819:
  5447  000A  1C0B               	btfss	11,0	;volatile
  5448  000B  280D               	goto	u124_21
  5449  000C  280E               	goto	u124_20
  5450  000D                     u124_21:
  5451  000D  2819               	goto	i1l270
  5452  000E                     u124_20:
  5453  000E                     i1l2821:
  5454                           
  5455                           ;mcc_generated_files/interrupt_manager.c: 56:     {;mcc_generated_files/interrupt_manage
      +                          r.c: 57:         _delay((unsigned long)((80)*(500000/4000.0)));
  5456  000E  300D               	movlw	13
  5457  000F  00FD               	movwf	??_INTERRUPT_InterruptManager
  5458  0010  30FC               	movlw	252
  5459  0011                     u138_27:
  5460  0011  0B89               	decfsz	9,f
  5461  0012  2811               	goto	u138_27
  5462  0013  0BFD               	decfsz	??_INTERRUPT_InterruptManager,f
  5463  0014  2811               	goto	u138_27
  5464  0015                     i1l2823:
  5465                           
  5466                           ;mcc_generated_files/interrupt_manager.c: 58:         PIN_MANAGER_IOC();
  5467  0015  3182  22BF  3180   	fcall	_PIN_MANAGER_IOC
  5468  0018                     i1l2825:
  5469                           
  5470                           ;mcc_generated_files/interrupt_manager.c: 60:         INTCONbits.IOCIF = 0;
  5471  0018  100B               	bcf	11,0	;volatile
  5472  0019                     i1l270:	
  5473                           ;mcc_generated_files/interrupt_manager.c: 61:     }
  5474                           
  5475  0019  107E               	bcf	int$flags,0	;clear compiler interrupt flag (level 1)
  5476  001A  0009               	retfie
  5477  001B                     __end_of_INTERRUPT_InterruptManager:
  5478                           
  5479                           	psect	text24
  5480  02BF                     __ptext24:	
  5481 ;; *************** function _PIN_MANAGER_IOC *****************
  5482 ;; Defined at:
  5483 ;;		line 176 in file "mcc_generated_files/pin_manager.c"
  5484 ;; Parameters:    Size  Location     Type
  5485 ;;		None
  5486 ;; Auto vars:     Size  Location     Type
  5487 ;;		None
  5488 ;; Return value:  Size  Location     Type
  5489 ;;                  1    wreg      void 
  5490 ;; Registers used:
  5491 ;;		wreg, fsr0l, fsr0h, status,2, status,0, pclath, cstack
  5492 ;; Tracked objects:
  5493 ;;		On entry : 0/0
  5494 ;;		On exit  : 0/0
  5495 ;;		Unchanged: 0/0
  5496 ;; Data sizes:     COMMON   BANK0   BANK1   BANK2   BANK3   BANK4   BANK5   BANK6   BANK7   BANK8   BANK9  BANK10  BANK1
      +1  BANK12  BANK13  BANK14  BANK15  BANK16  BANK17  BANK18  BANK19  BANK20  BANK21  BANK22  BANK23  BANK24  BANK25
  5497 ;;      Params:         0       0       0       0       0       0       0       0       0       0       0       0       
      +0       0       0       0       0       0       0       0       0       0       0       0       0       0       0
  5498 ;;      Locals:         0       0       0       0       0       0       0       0       0       0       0       0       
      +0       0       0       0       0       0       0       0       0       0       0       0       0       0       0
  5499 ;;      Temps:          0       0       0       0       0       0       0       0       0       0       0       0       
      +0       0       0       0       0       0       0       0       0       0       0       0       0       0       0
  5500 ;;      Totals:         0       0       0       0       0       0       0       0       0       0       0       0       
      +0       0       0       0       0       0       0       0       0       0       0       0       0       0       0
  5501 ;;Total ram usage:        0 bytes
  5502 ;; Hardware stack levels used:    1
  5503 ;; Hardware stack levels required when called:    7
  5504 ;; This function calls:
  5505 ;;		_IOCAF0_ISR
  5506 ;;		_IOCAF1_ISR
  5507 ;;		_IOCAF2_ISR
  5508 ;;		_IOCAF3_ISR
  5509 ;;		_IOCAF4_ISR
  5510 ;;		_IOCAF5_ISR
  5511 ;; This function is called by:
  5512 ;;		_INTERRUPT_InterruptManager
  5513 ;; This function uses a non-reentrant model
  5514 ;;
  5515                           
  5516                           
  5517                           ;psect for function _PIN_MANAGER_IOC
  5518  02BF                     _PIN_MANAGER_IOC:
  5519  02BF                     i1l2745:	
  5520                           ;incstack = 0
  5521                           ; Regs used in _PIN_MANAGER_IOC: [wreg-fsr0h+status,2+status,0+pclath+cstack]
  5522                           
  5523                           
  5524                           ;mcc_generated_files/pin_manager.c: 179:     if(IOCAFbits.IOCAF0 == 1)
  5525  02BF  0027               	movlb	7	; select bank7
  5526  02C0  1C13               	btfss	19,0	;volatile
  5527  02C1  2AC3               	goto	u113_21
  5528  02C2  2AC4               	goto	u113_20
  5529  02C3                     u113_21:
  5530  02C3  2AC7               	goto	i1l2749
  5531  02C4                     u113_20:
  5532  02C4                     i1l2747:
  5533                           
  5534                           ;mcc_generated_files/pin_manager.c: 180:     {;mcc_generated_files/pin_manager.c: 181:  
      +                                 IOCAF0_ISR();
  5535  02C4  3183  23A1  3182   	fcall	_IOCAF0_ISR
  5536  02C7                     i1l2749:
  5537                           
  5538                           ;mcc_generated_files/pin_manager.c: 184:     if(IOCAFbits.IOCAF1 == 1)
  5539  02C7  0027               	movlb	7	; select bank7
  5540  02C8  1C93               	btfss	19,1	;volatile
  5541  02C9  2ACB               	goto	u114_21
  5542  02CA  2ACC               	goto	u114_20
  5543  02CB                     u114_21:
  5544  02CB  2ACF               	goto	i1l2753
  5545  02CC                     u114_20:
  5546  02CC                     i1l2751:
  5547                           
  5548                           ;mcc_generated_files/pin_manager.c: 185:     {;mcc_generated_files/pin_manager.c: 186:  
      +                                 IOCAF1_ISR();
  5549  02CC  3183  231F  3182   	fcall	_IOCAF1_ISR
  5550  02CF                     i1l2753:
  5551                           
  5552                           ;mcc_generated_files/pin_manager.c: 189:     if(IOCAFbits.IOCAF2 == 1)
  5553  02CF  0027               	movlb	7	; select bank7
  5554  02D0  1D13               	btfss	19,2	;volatile
  5555  02D1  2AD3               	goto	u115_21
  5556  02D2  2AD4               	goto	u115_20
  5557  02D3                     u115_21:
  5558  02D3  2AD7               	goto	i1l2757
  5559  02D4                     u115_20:
  5560  02D4                     i1l2755:
  5561                           
  5562                           ;mcc_generated_files/pin_manager.c: 190:     {;mcc_generated_files/pin_manager.c: 191:  
      +                                 IOCAF2_ISR();
  5563  02D4  3182  223E  3182   	fcall	_IOCAF2_ISR
  5564  02D7                     i1l2757:
  5565                           
  5566                           ;mcc_generated_files/pin_manager.c: 194:     if(IOCAFbits.IOCAF3 == 1)
  5567  02D7  0027               	movlb	7	; select bank7
  5568  02D8  1D93               	btfss	19,3	;volatile
  5569  02D9  2ADB               	goto	u116_21
  5570  02DA  2ADC               	goto	u116_20
  5571  02DB                     u116_21:
  5572  02DB  2ADF               	goto	i1l2761
  5573  02DC                     u116_20:
  5574  02DC                     i1l2759:
  5575                           
  5576                           ;mcc_generated_files/pin_manager.c: 195:     {;mcc_generated_files/pin_manager.c: 196:  
      +                                 IOCAF3_ISR();
  5577  02DC  3183  2376  3182   	fcall	_IOCAF3_ISR
  5578  02DF                     i1l2761:
  5579                           
  5580                           ;mcc_generated_files/pin_manager.c: 199:     if(IOCAFbits.IOCAF4 == 1)
  5581  02DF  0027               	movlb	7	; select bank7
  5582  02E0  1E13               	btfss	19,4	;volatile
  5583  02E1  2AE3               	goto	u117_21
  5584  02E2  2AE4               	goto	u117_20
  5585  02E3                     u117_21:
  5586  02E3  2AE7               	goto	i1l2765
  5587  02E4                     u117_20:
  5588  02E4                     i1l2763:
  5589                           
  5590                           ;mcc_generated_files/pin_manager.c: 200:     {;mcc_generated_files/pin_manager.c: 201:  
      +                                 IOCAF4_ISR();
  5591  02E4  3183  234B  3182   	fcall	_IOCAF4_ISR
  5592  02E7                     i1l2765:
  5593                           
  5594                           ;mcc_generated_files/pin_manager.c: 204:     if(IOCAFbits.IOCAF5 == 1)
  5595  02E7  0027               	movlb	7	; select bank7
  5596  02E8  1E93               	btfss	19,5	;volatile
  5597  02E9  2AEB               	goto	u118_21
  5598  02EA  2AEC               	goto	u118_20
  5599  02EB                     u118_21:
  5600  02EB  2AEF               	goto	i1l134
  5601  02EC                     u118_20:
  5602  02EC                     i1l2767:
  5603                           
  5604                           ;mcc_generated_files/pin_manager.c: 205:     {;mcc_generated_files/pin_manager.c: 206:  
      +                                 IOCAF5_ISR();
  5605  02EC  3182  2281  3182   	fcall	_IOCAF5_ISR
  5606  02EF                     i1l134:
  5607  02EF  0008               	return
  5608  02F0                     __end_of_PIN_MANAGER_IOC:
  5609                           
  5610                           	psect	text25
  5611  0281                     __ptext25:	
  5612 ;; *************** function _IOCAF5_ISR *****************
  5613 ;; Defined at:
  5614 ;;		line 440 in file "mcc_generated_files/pin_manager.c"
  5615 ;; Parameters:    Size  Location     Type
  5616 ;;		None
  5617 ;; Auto vars:     Size  Location     Type
  5618 ;;		None
  5619 ;; Return value:  Size  Location     Type
  5620 ;;                  1    wreg      void 
  5621 ;; Registers used:
  5622 ;;		wreg, fsr0l, fsr0h, status,2, status,0, pclath, cstack
  5623 ;; Tracked objects:
  5624 ;;		On entry : 0/0
  5625 ;;		On exit  : 0/0
  5626 ;;		Unchanged: 0/0
  5627 ;; Data sizes:     COMMON   BANK0   BANK1   BANK2   BANK3   BANK4   BANK5   BANK6   BANK7   BANK8   BANK9  BANK10  BANK1
      +1  BANK12  BANK13  BANK14  BANK15  BANK16  BANK17  BANK18  BANK19  BANK20  BANK21  BANK22  BANK23  BANK24  BANK25
  5628 ;;      Params:         0       0       0       0       0       0       0       0       0       0       0       0       
      +0       0       0       0       0       0       0       0       0       0       0       0       0       0       0
  5629 ;;      Locals:         0       0       0       0       0       0       0       0       0       0       0       0       
      +0       0       0       0       0       0       0       0       0       0       0       0       0       0       0
  5630 ;;      Temps:          0       2       0       0       0       0       0       0       0       0       0       0       
      +0       0       0       0       0       0       0       0       0       0       0       0       0       0       0
  5631 ;;      Totals:         0       2       0       0       0       0       0       0       0       0       0       0       
      +0       0       0       0       0       0       0       0       0       0       0       0       0       0       0
  5632 ;;Total ram usage:        2 bytes
  5633 ;; Hardware stack levels used:    1
  5634 ;; Hardware stack levels required when called:    6
  5635 ;; This function calls:
  5636 ;;		Absolute function
  5637 ;;		_IOCAF5_DefaultInterruptHandler
  5638 ;;		_enableButton
  5639 ;;		_startFight
  5640 ;;		i1_disableButton
  5641 ;; This function is called by:
  5642 ;;		_PIN_MANAGER_IOC
  5643 ;; This function uses a non-reentrant model
  5644 ;;
  5645                           
  5646                           
  5647                           ;psect for function _IOCAF5_ISR
  5648  0281                     _IOCAF5_ISR:
  5649  0281                     i1l2663:	
  5650                           ;incstack = 0
  5651                           ; Regs used in _IOCAF5_ISR: [wreg-fsr0h+status,2+status,0+pclath+cstack]
  5652                           
  5653                           
  5654                           ;mcc_generated_files/pin_manager.c: 445:     if(IOCAF5_InterruptHandler)
  5655  0281  0020               	movlb	0	; select bank0
  5656  0282  0836               	movf	_IOCAF5_InterruptHandler,w
  5657  0283  0437               	iorwf	_IOCAF5_InterruptHandler+1,w
  5658  0284  1903               	btfsc	3,2
  5659  0285  2A87               	goto	u111_21
  5660  0286  2A88               	goto	u111_20
  5661  0287                     u111_21:
  5662  0287  2A8D               	goto	i1l2667
  5663  0288                     u111_20:
  5664  0288                     i1l2665:
  5665                           
  5666                           ;mcc_generated_files/pin_manager.c: 446:     {;mcc_generated_files/pin_manager.c: 447:  
      +                                 IOCAF5_InterruptHandler();
  5667  0288  0837               	movf	_IOCAF5_InterruptHandler+1,w
  5668  0289  008A               	movwf	10
  5669  028A  0836               	movf	_IOCAF5_InterruptHandler,w
  5670  028B  000A               	callw
  5671  028C  3182               	pagesel	$
  5672  028D                     i1l2667:
  5673                           
  5674                           ;mcc_generated_files/pin_manager.c: 449:     if (inGame){
  5675  028D  0020               	movlb	0	; select bank0
  5676  028E  0847               	movf	_inGame,w
  5677  028F  1903               	btfsc	3,2
  5678  0290  2A92               	goto	u112_21
  5679  0291  2A93               	goto	u112_20
  5680  0292                     u112_21:
  5681  0292  2AAC               	goto	i1l2685
  5682  0293                     u112_20:
  5683  0293  2ABC               	goto	i1l222
  5684  0294                     i1l2671:
  5685                           
  5686                           ;mcc_generated_files/pin_manager.c: 454:             ship2 = 0;
  5687  0294  01C4               	clrf	_ship2
  5688  0295                     i1l2673:
  5689                           
  5690                           ;mcc_generated_files/pin_manager.c: 455:             disableButton(1);
  5691  0295  3001               	movlw	1
  5692  0296  3186  26AE  3182   	fcall	i1_disableButton
  5693  0299                     i1l2675:
  5694                           
  5695                           ;mcc_generated_files/pin_manager.c: 456:             enableButton(0);
  5696  0299  3000               	movlw	0
  5697  029A  3186  26BE  3182   	fcall	_enableButton
  5698  029D                     i1l2677:
  5699                           
  5700                           ;mcc_generated_files/pin_manager.c: 457:             startFight();
  5701  029D  3184  2444  3182   	fcall	_startFight
  5702                           
  5703                           ;mcc_generated_files/pin_manager.c: 458:         break;
  5704  02A0  2ABC               	goto	i1l222
  5705  02A1                     i1l226:	
  5706                           ;mcc_generated_files/pin_manager.c: 459:         case 3:
  5707                           
  5708                           
  5709                           ;mcc_generated_files/pin_manager.c: 460:             ship2 = 1;
  5710  02A1  01C4               	clrf	_ship2
  5711  02A2  0AC4               	incf	_ship2,f
  5712  02A3                     i1l2679:
  5713                           
  5714                           ;mcc_generated_files/pin_manager.c: 461:             disableButton(1);
  5715  02A3  3001               	movlw	1
  5716  02A4  3186  26AE  3182   	fcall	i1_disableButton
  5717                           
  5718                           ;mcc_generated_files/pin_manager.c: 462:             enableButton(0);
  5719  02A7  3000               	movlw	0
  5720  02A8  3186  26BE  3182   	fcall	_enableButton
  5721  02AB  2A9D               	goto	i1l2677
  5722  02AC                     i1l2685:
  5723  02AC  0846               	movf	_mainState,w
  5724  02AD  00A4               	movwf	??_IOCAF5_ISR
  5725  02AE  01A5               	clrf	??_IOCAF5_ISR+1
  5726                           
  5727                           ; Switch on 2 bytes has been partitioned into a top level switch of size 1, and 1 sub-sw
      +                          itches
  5728                           ; Switch size 1, requested type "simple"
  5729                           ; Number of cases is 1, Range of values is 0 to 0
  5730                           ; switch strategies available:
  5731                           ; Name         Instructions Cycles
  5732                           ; simple_byte            4     3 (average)
  5733                           ; direct_byte            8     6 (fixed)
  5734                           ; jumptable            260     6 (fixed)
  5735                           ;	Chosen strategy is simple_byte
  5736  02AF  0825               	movf	??_IOCAF5_ISR+1,w
  5737  02B0  3A00               	xorlw	0	; case 0
  5738  02B1  1903               	skipnz
  5739  02B2  2AB4               	goto	i1l3053
  5740  02B3  2ABC               	goto	i1l222
  5741  02B4                     i1l3053:
  5742                           
  5743                           ; Switch size 1, requested type "simple"
  5744                           ; Number of cases is 2, Range of values is 2 to 3
  5745                           ; switch strategies available:
  5746                           ; Name         Instructions Cycles
  5747                           ; simple_byte            7     4 (average)
  5748                           ; direct_byte           13     9 (fixed)
  5749                           ; jumptable            263     9 (fixed)
  5750                           ;	Chosen strategy is simple_byte
  5751  02B4  0824               	movf	??_IOCAF5_ISR,w
  5752  02B5  3A02               	xorlw	2	; case 2
  5753  02B6  1903               	skipnz
  5754  02B7  2A94               	goto	i1l2671
  5755  02B8  3A01               	xorlw	1	; case 3
  5756  02B9  1903               	skipnz
  5757  02BA  2AA1               	goto	i1l226
  5758  02BB  2ABC               	goto	i1l222
  5759  02BC                     i1l222:	
  5760                           ;mcc_generated_files/pin_manager.c: 468:     }
  5761                           
  5762                           
  5763                           ;mcc_generated_files/pin_manager.c: 469:     IOCAFbits.IOCAF5 = 0;
  5764  02BC  0027               	movlb	7	; select bank7
  5765  02BD  1293               	bcf	19,5	;volatile
  5766  02BE                     i1l228:
  5767  02BE  0008               	return
  5768  02BF                     __end_of_IOCAF5_ISR:
  5769                           
  5770                           	psect	text26
  5771  0444                     __ptext26:	
  5772 ;; *************** function _startFight *****************
  5773 ;; Defined at:
  5774 ;;		line 111 in file "menu.c"
  5775 ;; Parameters:    Size  Location     Type
  5776 ;;		None
  5777 ;; Auto vars:     Size  Location     Type
  5778 ;;		None
  5779 ;; Return value:  Size  Location     Type
  5780 ;;                  1    wreg      void 
  5781 ;; Registers used:
  5782 ;;		wreg, fsr0l, fsr0h, status,2, status,0, pclath, cstack
  5783 ;; Tracked objects:
  5784 ;;		On entry : 0/0
  5785 ;;		On exit  : 0/0
  5786 ;;		Unchanged: 0/0
  5787 ;; Data sizes:     COMMON   BANK0   BANK1   BANK2   BANK3   BANK4   BANK5   BANK6   BANK7   BANK8   BANK9  BANK10  BANK1
      +1  BANK12  BANK13  BANK14  BANK15  BANK16  BANK17  BANK18  BANK19  BANK20  BANK21  BANK22  BANK23  BANK24  BANK25
  5788 ;;      Params:         0       0       0       0       0       0       0       0       0       0       0       0       
      +0       0       0       0       0       0       0       0       0       0       0       0       0       0       0
  5789 ;;      Locals:         0       0       0       0       0       0       0       0       0       0       0       0       
      +0       0       0       0       0       0       0       0       0       0       0       0       0       0       0
  5790 ;;      Temps:          0       2       0       0       0       0       0       0       0       0       0       0       
      +0       0       0       0       0       0       0       0       0       0       0       0       0       0       0
  5791 ;;      Totals:         0       2       0       0       0       0       0       0       0       0       0       0       
      +0       0       0       0       0       0       0       0       0       0       0       0       0       0       0
  5792 ;;Total ram usage:        2 bytes
  5793 ;; Hardware stack levels used:    1
  5794 ;; Hardware stack levels required when called:    5
  5795 ;; This function calls:
  5796 ;;		_printShip
  5797 ;;		i1_LCDGoto
  5798 ;;		i1_LCDPutStr
  5799 ;;		i1_cleanFullMenu
  5800 ;;		i1_printMenu
  5801 ;; This function is called by:
  5802 ;;		_IOCAF5_ISR
  5803 ;; This function uses a non-reentrant model
  5804 ;;
  5805                           
  5806                           
  5807                           ;psect for function _startFight
  5808  0444                     _startFight:
  5809  0444                     i1l2443:	
  5810                           ;incstack = 0
  5811                           ; Regs used in _startFight: [wreg-fsr0h+status,2+status,0+pclath+cstack]
  5812                           
  5813                           
  5814                           ;menu.c: 123:         cleanFullMenu();
  5815  0444  3186  2672  3184   	fcall	i1_cleanFullMenu
  5816                           
  5817                           ;menu.c: 124:         printShip();
  5818  0447  3184  246C  3184   	fcall	_printShip
  5819  044A                     i1l2445:
  5820                           
  5821                           ;menu.c: 125:         LCDGoto(lcdOffset, 0);
  5822  044A  01F7               	clrf	i1LCDGoto@ln
  5823  044B  0020               	movlb	0	; select bank0
  5824  044C  084A               	movf	_lcdOffset,w
  5825  044D  3184  2494  3184   	fcall	i1_LCDGoto
  5826  0450                     i1l2447:
  5827                           
  5828                           ;menu.c: 126:         LCDPutStr("Start Fight");
  5829  0450  3006               	movlw	low (STR_16| (0+32768))
  5830  0451  00F7               	movwf	i1LCDPutStr@str
  5831  0452  3087               	movlw	high (STR_16| (0+32768))
  5832  0453  00F8               	movwf	i1LCDPutStr@str+1
  5833  0454  3184  24BB  3184   	fcall	i1_LCDPutStr
  5834  0457                     i1l2449:
  5835                           
  5836                           ;menu.c: 127:         _delay((unsigned long)((2000)*(500000/4000.0)));
  5837  0457  3002               	movlw	2
  5838  0458  0020               	movlb	0	; select bank0
  5839  0459  00A3               	movwf	??_startFight+1
  5840  045A  3045               	movlw	69
  5841  045B  00A2               	movwf	??_startFight
  5842  045C  30A9               	movlw	169
  5843  045D                     u139_27:
  5844  045D  0B89               	decfsz	9,f
  5845  045E  2C5D               	goto	u139_27
  5846  045F  0BA2               	decfsz	??_startFight,f
  5847  0460  2C5D               	goto	u139_27
  5848  0461  0BA3               	decfsz	??_startFight+1,f
  5849  0462  2C5D               	goto	u139_27
  5850  0463  3200               	nop2
  5851  0464                     i1l2451:
  5852                           
  5853                           ;menu.c: 128:         mainState = 0;
  5854  0464  0020               	movlb	0	; select bank0
  5855  0465  01C6               	clrf	_mainState
  5856  0466                     i1l2453:
  5857                           
  5858                           ;menu.c: 129:         inGame = 1;
  5859  0466  01C7               	clrf	_inGame
  5860  0467  0AC7               	incf	_inGame,f
  5861  0468                     i1l2455:
  5862                           
  5863                           ;menu.c: 130:         printMenu();
  5864  0468  3186  2601  3184   	fcall	i1_printMenu
  5865  046B                     i1l429:
  5866  046B  0008               	return
  5867  046C                     __end_of_startFight:
  5868                           
  5869                           	psect	text27
  5870  046C                     __ptext27:	
  5871 ;; *************** function _printShip *****************
  5872 ;; Defined at:
  5873 ;;		line 35 in file "naves.c"
  5874 ;; Parameters:    Size  Location     Type
  5875 ;;		None
  5876 ;; Auto vars:     Size  Location     Type
  5877 ;;		None
  5878 ;; Return value:  Size  Location     Type
  5879 ;;                  1    wreg      void 
  5880 ;; Registers used:
  5881 ;;		wreg, fsr0l, fsr0h, status,2, status,0, pclath, cstack
  5882 ;; Tracked objects:
  5883 ;;		On entry : 0/0
  5884 ;;		On exit  : 0/0
  5885 ;;		Unchanged: 0/0
  5886 ;; Data sizes:     COMMON   BANK0   BANK1   BANK2   BANK3   BANK4   BANK5   BANK6   BANK7   BANK8   BANK9  BANK10  BANK1
      +1  BANK12  BANK13  BANK14  BANK15  BANK16  BANK17  BANK18  BANK19  BANK20  BANK21  BANK22  BANK23  BANK24  BANK25
  5887 ;;      Params:         0       0       0       0       0       0       0       0       0       0       0       0       
      +0       0       0       0       0       0       0       0       0       0       0       0       0       0       0
  5888 ;;      Locals:         0       0       0       0       0       0       0       0       0       0       0       0       
      +0       0       0       0       0       0       0       0       0       0       0       0       0       0       0
  5889 ;;      Temps:          0       0       0       0       0       0       0       0       0       0       0       0       
      +0       0       0       0       0       0       0       0       0       0       0       0       0       0       0
  5890 ;;      Totals:         0       0       0       0       0       0       0       0       0       0       0       0       
      +0       0       0       0       0       0       0       0       0       0       0       0       0       0       0
  5891 ;;Total ram usage:        0 bytes
  5892 ;; Hardware stack levels used:    1
  5893 ;; Hardware stack levels required when called:    4
  5894 ;; This function calls:
  5895 ;;		_LCDClear
  5896 ;;		i1_LCDGoto
  5897 ;;		i1_LCDPutChar
  5898 ;; This function is called by:
  5899 ;;		_startFight
  5900 ;; This function uses a non-reentrant model
  5901 ;;
  5902                           
  5903                           
  5904                           ;psect for function _printShip
  5905  046C                     _printShip:
  5906  046C                     i1l1705:	
  5907                           ;incstack = 0
  5908                           ; Regs used in _printShip: [wreg-fsr0h+status,2+status,0+pclath+cstack]
  5909                           
  5910                           
  5911                           ;naves.c: 37:     LCDClear();
  5912  046C  3186  2658  3184   	fcall	_LCDClear
  5913  046F                     i1l1707:
  5914                           
  5915                           ;naves.c: 38:     LCDGoto(0,0);
  5916  046F  01F7               	clrf	i1LCDGoto@ln
  5917  0470  3000               	movlw	0
  5918  0471  3184  2494  3184   	fcall	i1_LCDGoto
  5919  0474                     i1l1709:
  5920                           
  5921                           ;naves.c: 39:     LCDPutChar(ship1);
  5922  0474  0020               	movlb	0	; select bank0
  5923  0475  0845               	movf	_ship1,w
  5924  0476  3186  261F  3184   	fcall	i1_LCDPutChar
  5925  0479                     i1l1711:
  5926                           
  5927                           ;naves.c: 40:     if (ship2 == 1){
  5928  0479  0020               	movlb	0	; select bank0
  5929  047A  0344               	decf	_ship2,w
  5930  047B  1D03               	btfss	3,2
  5931  047C  2C7E               	goto	u53_21
  5932  047D  2C7F               	goto	u53_20
  5933  047E                     u53_21:
  5934  047E  2C89               	goto	i1l1715
  5935  047F                     u53_20:
  5936  047F                     i1l1713:
  5937                           
  5938                           ;naves.c: 41:         LCDGoto(15,0);
  5939  047F  01F7               	clrf	i1LCDGoto@ln
  5940  0480  300F               	movlw	15
  5941  0481  3184  2494  3184   	fcall	i1_LCDGoto
  5942                           
  5943                           ;naves.c: 42:         LCDPutChar(4);
  5944  0484  3004               	movlw	4
  5945  0485  3186  261F  3184   	fcall	i1_LCDPutChar
  5946                           
  5947                           ;naves.c: 43:     }else {
  5948  0488  2C93               	goto	i1l451
  5949  0489                     i1l1715:
  5950                           
  5951                           ;naves.c: 44:         LCDGoto(15,0);
  5952  0489  01F7               	clrf	i1LCDGoto@ln
  5953  048A  300F               	movlw	15
  5954  048B  3184  2494  3184   	fcall	i1_LCDGoto
  5955                           
  5956                           ;naves.c: 45:         LCDPutChar(ship2);
  5957  048E  0020               	movlb	0	; select bank0
  5958  048F  0844               	movf	_ship2,w
  5959  0490  3186  261F  3184   	fcall	i1_LCDPutChar
  5960  0493                     i1l451:
  5961  0493  0008               	return
  5962  0494                     __end_of_printShip:
  5963                           
  5964                           	psect	text28
  5965  0658                     __ptext28:	
  5966 ;; *************** function _LCDClear *****************
  5967 ;; Defined at:
  5968 ;;		line 159 in file "lcd.c"
  5969 ;; Parameters:    Size  Location     Type
  5970 ;;		None
  5971 ;; Auto vars:     Size  Location     Type
  5972 ;;		None
  5973 ;; Return value:  Size  Location     Type
  5974 ;;                  1    wreg      void 
  5975 ;; Registers used:
  5976 ;;		wreg, fsr0l, fsr0h, status,2, status,0, pclath, cstack
  5977 ;; Tracked objects:
  5978 ;;		On entry : 0/0
  5979 ;;		On exit  : 0/0
  5980 ;;		Unchanged: 0/0
  5981 ;; Data sizes:     COMMON   BANK0   BANK1   BANK2   BANK3   BANK4   BANK5   BANK6   BANK7   BANK8   BANK9  BANK10  BANK1
      +1  BANK12  BANK13  BANK14  BANK15  BANK16  BANK17  BANK18  BANK19  BANK20  BANK21  BANK22  BANK23  BANK24  BANK25
  5982 ;;      Params:         0       0       0       0       0       0       0       0       0       0       0       0       
      +0       0       0       0       0       0       0       0       0       0       0       0       0       0       0
  5983 ;;      Locals:         0       0       0       0       0       0       0       0       0       0       0       0       
      +0       0       0       0       0       0       0       0       0       0       0       0       0       0       0
  5984 ;;      Temps:          0       0       0       0       0       0       0       0       0       0       0       0       
      +0       0       0       0       0       0       0       0       0       0       0       0       0       0       0
  5985 ;;      Totals:         0       0       0       0       0       0       0       0       0       0       0       0       
      +0       0       0       0       0       0       0       0       0       0       0       0       0       0       0
  5986 ;;Total ram usage:        0 bytes
  5987 ;; Hardware stack levels used:    1
  5988 ;; Hardware stack levels required when called:    3
  5989 ;; This function calls:
  5990 ;;		i1_LCDGoto
  5991 ;;		i1_LCDPutStr
  5992 ;; This function is called by:
  5993 ;;		_printShip
  5994 ;;		_idleScreen
  5995 ;; This function uses a non-reentrant model
  5996 ;;
  5997                           
  5998                           
  5999                           ;psect for function _LCDClear
  6000  0658                     _LCDClear:
  6001  0658                     i1l1635:	
  6002                           ;incstack = 0
  6003                           ; Regs used in _LCDClear: [wreg-fsr0h+status,2+status,0+pclath+cstack]
  6004                           
  6005                           
  6006                           ;lcd.c: 161:   LCDGoto(0, 0);
  6007  0658  01F7               	clrf	i1LCDGoto@ln
  6008  0659  3000               	movlw	0
  6009  065A  3184  2494  3186   	fcall	i1_LCDGoto
  6010  065D                     i1l1637:
  6011                           
  6012                           ;lcd.c: 162:   LCDPutStr("                ");
  6013  065D  308C               	movlw	low (STR_1| (0+32768))
  6014  065E  00F7               	movwf	i1LCDPutStr@str
  6015  065F  3086               	movlw	high (STR_1| (0+32768))
  6016  0660  00F8               	movwf	i1LCDPutStr@str+1
  6017  0661  3184  24BB  3186   	fcall	i1_LCDPutStr
  6018  0664                     i1l1639:
  6019                           
  6020                           ;lcd.c: 163:   LCDGoto(0, 1);
  6021  0664  01F7               	clrf	i1LCDGoto@ln
  6022  0665  0AF7               	incf	i1LCDGoto@ln,f
  6023  0666  3000               	movlw	0
  6024  0667  3184  2494  3186   	fcall	i1_LCDGoto
  6025                           
  6026                           ;lcd.c: 164:   LCDPutStr("                ");
  6027  066A  308C               	movlw	low (STR_1| (0+32768))
  6028  066B  00F7               	movwf	i1LCDPutStr@str
  6029  066C  3086               	movlw	high (STR_1| (0+32768))
  6030  066D  00F8               	movwf	i1LCDPutStr@str+1
  6031  066E  3184  24BB  3186   	fcall	i1_LCDPutStr
  6032  0671                     i1l311:
  6033  0671  0008               	return
  6034  0672                     __end_of_LCDClear:
  6035                           
  6036                           	psect	text29
  6037  0768                     __ptext29:	
  6038 ;; *************** function _IOCAF5_DefaultInterruptHandler *****************
  6039 ;; Defined at:
  6040 ;;		line 482 in file "mcc_generated_files/pin_manager.c"
  6041 ;; Parameters:    Size  Location     Type
  6042 ;;		None
  6043 ;; Auto vars:     Size  Location     Type
  6044 ;;		None
  6045 ;; Return value:  Size  Location     Type
  6046 ;;                  1    wreg      void 
  6047 ;; Registers used:
  6048 ;;		None
  6049 ;; Tracked objects:
  6050 ;;		On entry : 0/0
  6051 ;;		On exit  : 0/0
  6052 ;;		Unchanged: 0/0
  6053 ;; Data sizes:     COMMON   BANK0   BANK1   BANK2   BANK3   BANK4   BANK5   BANK6   BANK7   BANK8   BANK9  BANK10  BANK1
      +1  BANK12  BANK13  BANK14  BANK15  BANK16  BANK17  BANK18  BANK19  BANK20  BANK21  BANK22  BANK23  BANK24  BANK25
  6054 ;;      Params:         0       0       0       0       0       0       0       0       0       0       0       0       
      +0       0       0       0       0       0       0       0       0       0       0       0       0       0       0
  6055 ;;      Locals:         0       0       0       0       0       0       0       0       0       0       0       0       
      +0       0       0       0       0       0       0       0       0       0       0       0       0       0       0
  6056 ;;      Temps:          0       0       0       0       0       0       0       0       0       0       0       0       
      +0       0       0       0       0       0       0       0       0       0       0       0       0       0       0
  6057 ;;      Totals:         0       0       0       0       0       0       0       0       0       0       0       0       
      +0       0       0       0       0       0       0       0       0       0       0       0       0       0       0
  6058 ;;Total ram usage:        0 bytes
  6059 ;; Hardware stack levels used:    1
  6060 ;; This function calls:
  6061 ;;		Nothing
  6062 ;; This function is called by:
  6063 ;;		_PIN_MANAGER_Initialize
  6064 ;;		_IOCAF5_ISR
  6065 ;; This function uses a non-reentrant model
  6066 ;;
  6067                           
  6068                           
  6069                           ;psect for function _IOCAF5_DefaultInterruptHandler
  6070  0768                     _IOCAF5_DefaultInterruptHandler:
  6071  0768                     i1l234:	
  6072                           ;incstack = 0
  6073                           ; Regs used in _IOCAF5_DefaultInterruptHandler: []
  6074                           
  6075  0768  0008               	return
  6076  0769                     __end_of_IOCAF5_DefaultInterruptHandler:
  6077                           
  6078                           	psect	text30
  6079  034B                     __ptext30:	
  6080 ;; *************** function _IOCAF4_ISR *****************
  6081 ;; Defined at:
  6082 ;;		line 398 in file "mcc_generated_files/pin_manager.c"
  6083 ;; Parameters:    Size  Location     Type
  6084 ;;		None
  6085 ;; Auto vars:     Size  Location     Type
  6086 ;;		None
  6087 ;; Return value:  Size  Location     Type
  6088 ;;                  1    wreg      void 
  6089 ;; Registers used:
  6090 ;;		wreg, fsr0l, fsr0h, status,2, status,0, pclath, cstack
  6091 ;; Tracked objects:
  6092 ;;		On entry : 0/0
  6093 ;;		On exit  : 0/0
  6094 ;;		Unchanged: 0/0
  6095 ;; Data sizes:     COMMON   BANK0   BANK1   BANK2   BANK3   BANK4   BANK5   BANK6   BANK7   BANK8   BANK9  BANK10  BANK1
      +1  BANK12  BANK13  BANK14  BANK15  BANK16  BANK17  BANK18  BANK19  BANK20  BANK21  BANK22  BANK23  BANK24  BANK25
  6096 ;;      Params:         0       0       0       0       0       0       0       0       0       0       0       0       
      +0       0       0       0       0       0       0       0       0       0       0       0       0       0       0
  6097 ;;      Locals:         0       0       0       0       0       0       0       0       0       0       0       0       
      +0       0       0       0       0       0       0       0       0       0       0       0       0       0       0
  6098 ;;      Temps:          0       2       0       0       0       0       0       0       0       0       0       0       
      +0       0       0       0       0       0       0       0       0       0       0       0       0       0       0
  6099 ;;      Totals:         0       2       0       0       0       0       0       0       0       0       0       0       
      +0       0       0       0       0       0       0       0       0       0       0       0       0       0       0
  6100 ;;Total ram usage:        2 bytes
  6101 ;; Hardware stack levels used:    1
  6102 ;; Hardware stack levels required when called:    5
  6103 ;; This function calls:
  6104 ;;		Absolute function
  6105 ;;		_IOCAF4_DefaultInterruptHandler
  6106 ;;		i1_printMenu
  6107 ;; This function is called by:
  6108 ;;		_PIN_MANAGER_IOC
  6109 ;; This function uses a non-reentrant model
  6110 ;;
  6111                           
  6112                           
  6113                           ;psect for function _IOCAF4_ISR
  6114  034B                     _IOCAF4_ISR:
  6115  034B                     i1l2643:	
  6116                           ;incstack = 0
  6117                           ; Regs used in _IOCAF4_ISR: [wreg-fsr0h+status,2+status,0+pclath+cstack]
  6118                           
  6119                           
  6120                           ;mcc_generated_files/pin_manager.c: 403:     if(IOCAF4_InterruptHandler)
  6121  034B  0020               	movlb	0	; select bank0
  6122  034C  0838               	movf	_IOCAF4_InterruptHandler,w
  6123  034D  0439               	iorwf	_IOCAF4_InterruptHandler+1,w
  6124  034E  1903               	btfsc	3,2
  6125  034F  2B51               	goto	u109_21
  6126  0350  2B52               	goto	u109_20
  6127  0351                     u109_21:
  6128  0351  2B57               	goto	i1l2647
  6129  0352                     u109_20:
  6130  0352                     i1l2645:
  6131                           
  6132                           ;mcc_generated_files/pin_manager.c: 404:     {;mcc_generated_files/pin_manager.c: 405:  
      +                                 IOCAF4_InterruptHandler();
  6133  0352  0839               	movf	_IOCAF4_InterruptHandler+1,w
  6134  0353  008A               	movwf	10
  6135  0354  0838               	movf	_IOCAF4_InterruptHandler,w
  6136  0355  000A               	callw
  6137  0356  3183               	pagesel	$
  6138  0357                     i1l2647:
  6139                           
  6140                           ;mcc_generated_files/pin_manager.c: 407:      if (inGame){
  6141  0357  0020               	movlb	0	; select bank0
  6142  0358  0847               	movf	_inGame,w
  6143  0359  1903               	btfsc	3,2
  6144  035A  2B5C               	goto	u110_21
  6145  035B  2B5D               	goto	u110_20
  6146  035C                     u110_21:
  6147  035C  2B66               	goto	i1l2657
  6148  035D                     u110_20:
  6149  035D  2B73               	goto	i1l206
  6150  035E                     i1l2651:
  6151                           
  6152                           ;mcc_generated_files/pin_manager.c: 412:             mainState = 3;
  6153  035E  3003               	movlw	3
  6154  035F  00A2               	movwf	??_IOCAF4_ISR
  6155  0360  0822               	movf	??_IOCAF4_ISR,w
  6156  0361  00C6               	movwf	_mainState
  6157  0362                     i1l2653:
  6158                           
  6159                           ;mcc_generated_files/pin_manager.c: 413:             printMenu();
  6160  0362  3186  2601  3183   	fcall	i1_printMenu
  6161                           
  6162                           ;mcc_generated_files/pin_manager.c: 414:         break;
  6163  0365  2B73               	goto	i1l206
  6164  0366                     i1l2657:
  6165  0366  0846               	movf	_mainState,w
  6166  0367  00A2               	movwf	??_IOCAF4_ISR
  6167  0368  01A3               	clrf	??_IOCAF4_ISR+1
  6168                           
  6169                           ; Switch on 2 bytes has been partitioned into a top level switch of size 1, and 1 sub-sw
      +                          itches
  6170                           ; Switch size 1, requested type "simple"
  6171                           ; Number of cases is 1, Range of values is 0 to 0
  6172                           ; switch strategies available:
  6173                           ; Name         Instructions Cycles
  6174                           ; simple_byte            4     3 (average)
  6175                           ; direct_byte            8     6 (fixed)
  6176                           ; jumptable            260     6 (fixed)
  6177                           ;	Chosen strategy is simple_byte
  6178  0369  0823               	movf	??_IOCAF4_ISR+1,w
  6179  036A  3A00               	xorlw	0	; case 0
  6180  036B  1903               	skipnz
  6181  036C  2B6E               	goto	i1l3055
  6182  036D  2B73               	goto	i1l206
  6183  036E                     i1l3055:
  6184                           
  6185                           ; Switch size 1, requested type "simple"
  6186                           ; Number of cases is 1, Range of values is 2 to 2
  6187                           ; switch strategies available:
  6188                           ; Name         Instructions Cycles
  6189                           ; simple_byte            4     3 (average)
  6190                           ; direct_byte           11     9 (fixed)
  6191                           ; jumptable            263     9 (fixed)
  6192                           ;	Chosen strategy is simple_byte
  6193  036E  0822               	movf	??_IOCAF4_ISR,w
  6194  036F  3A02               	xorlw	2	; case 2
  6195  0370  1903               	skipnz
  6196  0371  2B5E               	goto	i1l2651
  6197  0372  2B73               	goto	i1l206
  6198  0373                     i1l206:	
  6199                           ;mcc_generated_files/pin_manager.c: 418:     }
  6200                           
  6201                           
  6202                           ;mcc_generated_files/pin_manager.c: 419:     IOCAFbits.IOCAF4 = 0;
  6203  0373  0027               	movlb	7	; select bank7
  6204  0374  1213               	bcf	19,4	;volatile
  6205  0375                     i1l211:
  6206  0375  0008               	return
  6207  0376                     __end_of_IOCAF4_ISR:
  6208                           
  6209                           	psect	text31
  6210  0769                     __ptext31:	
  6211 ;; *************** function _IOCAF4_DefaultInterruptHandler *****************
  6212 ;; Defined at:
  6213 ;;		line 432 in file "mcc_generated_files/pin_manager.c"
  6214 ;; Parameters:    Size  Location     Type
  6215 ;;		None
  6216 ;; Auto vars:     Size  Location     Type
  6217 ;;		None
  6218 ;; Return value:  Size  Location     Type
  6219 ;;                  1    wreg      void 
  6220 ;; Registers used:
  6221 ;;		None
  6222 ;; Tracked objects:
  6223 ;;		On entry : 0/0
  6224 ;;		On exit  : 0/0
  6225 ;;		Unchanged: 0/0
  6226 ;; Data sizes:     COMMON   BANK0   BANK1   BANK2   BANK3   BANK4   BANK5   BANK6   BANK7   BANK8   BANK9  BANK10  BANK1
      +1  BANK12  BANK13  BANK14  BANK15  BANK16  BANK17  BANK18  BANK19  BANK20  BANK21  BANK22  BANK23  BANK24  BANK25
  6227 ;;      Params:         0       0       0       0       0       0       0       0       0       0       0       0       
      +0       0       0       0       0       0       0       0       0       0       0       0       0       0       0
  6228 ;;      Locals:         0       0       0       0       0       0       0       0       0       0       0       0       
      +0       0       0       0       0       0       0       0       0       0       0       0       0       0       0
  6229 ;;      Temps:          0       0       0       0       0       0       0       0       0       0       0       0       
      +0       0       0       0       0       0       0       0       0       0       0       0       0       0       0
  6230 ;;      Totals:         0       0       0       0       0       0       0       0       0       0       0       0       
      +0       0       0       0       0       0       0       0       0       0       0       0       0       0       0
  6231 ;;Total ram usage:        0 bytes
  6232 ;; Hardware stack levels used:    1
  6233 ;; This function calls:
  6234 ;;		Nothing
  6235 ;; This function is called by:
  6236 ;;		_PIN_MANAGER_Initialize
  6237 ;;		_IOCAF4_ISR
  6238 ;; This function uses a non-reentrant model
  6239 ;;
  6240                           
  6241                           
  6242                           ;psect for function _IOCAF4_DefaultInterruptHandler
  6243  0769                     _IOCAF4_DefaultInterruptHandler:
  6244  0769                     i1l217:	
  6245                           ;incstack = 0
  6246                           ; Regs used in _IOCAF4_DefaultInterruptHandler: []
  6247                           
  6248  0769  0008               	return
  6249  076A                     __end_of_IOCAF4_DefaultInterruptHandler:
  6250                           
  6251                           	psect	text32
  6252  0376                     __ptext32:	
  6253 ;; *************** function _IOCAF3_ISR *****************
  6254 ;; Defined at:
  6255 ;;		line 356 in file "mcc_generated_files/pin_manager.c"
  6256 ;; Parameters:    Size  Location     Type
  6257 ;;		None
  6258 ;; Auto vars:     Size  Location     Type
  6259 ;;		None
  6260 ;; Return value:  Size  Location     Type
  6261 ;;                  1    wreg      void 
  6262 ;; Registers used:
  6263 ;;		wreg, fsr0l, fsr0h, status,2, status,0, pclath, cstack
  6264 ;; Tracked objects:
  6265 ;;		On entry : 0/0
  6266 ;;		On exit  : 0/0
  6267 ;;		Unchanged: 0/0
  6268 ;; Data sizes:     COMMON   BANK0   BANK1   BANK2   BANK3   BANK4   BANK5   BANK6   BANK7   BANK8   BANK9  BANK10  BANK1
      +1  BANK12  BANK13  BANK14  BANK15  BANK16  BANK17  BANK18  BANK19  BANK20  BANK21  BANK22  BANK23  BANK24  BANK25
  6269 ;;      Params:         0       0       0       0       0       0       0       0       0       0       0       0       
      +0       0       0       0       0       0       0       0       0       0       0       0       0       0       0
  6270 ;;      Locals:         0       0       0       0       0       0       0       0       0       0       0       0       
      +0       0       0       0       0       0       0       0       0       0       0       0       0       0       0
  6271 ;;      Temps:          0       2       0       0       0       0       0       0       0       0       0       0       
      +0       0       0       0       0       0       0       0       0       0       0       0       0       0       0
  6272 ;;      Totals:         0       2       0       0       0       0       0       0       0       0       0       0       
      +0       0       0       0       0       0       0       0       0       0       0       0       0       0       0
  6273 ;;Total ram usage:        2 bytes
  6274 ;; Hardware stack levels used:    1
  6275 ;; Hardware stack levels required when called:    5
  6276 ;; This function calls:
  6277 ;;		Absolute function
  6278 ;;		_IOCAF3_DefaultInterruptHandler
  6279 ;;		i1_printMenu
  6280 ;; This function is called by:
  6281 ;;		_PIN_MANAGER_IOC
  6282 ;; This function uses a non-reentrant model
  6283 ;;
  6284                           
  6285                           
  6286                           ;psect for function _IOCAF3_ISR
  6287  0376                     _IOCAF3_ISR:
  6288  0376                     i1l2623:	
  6289                           ;incstack = 0
  6290                           ; Regs used in _IOCAF3_ISR: [wreg-fsr0h+status,2+status,0+pclath+cstack]
  6291                           
  6292                           
  6293                           ;mcc_generated_files/pin_manager.c: 361:     if(IOCAF3_InterruptHandler)
  6294  0376  0020               	movlb	0	; select bank0
  6295  0377  083A               	movf	_IOCAF3_InterruptHandler,w
  6296  0378  043B               	iorwf	_IOCAF3_InterruptHandler+1,w
  6297  0379  1903               	btfsc	3,2
  6298  037A  2B7C               	goto	u107_21
  6299  037B  2B7D               	goto	u107_20
  6300  037C                     u107_21:
  6301  037C  2B82               	goto	i1l2627
  6302  037D                     u107_20:
  6303  037D                     i1l2625:
  6304                           
  6305                           ;mcc_generated_files/pin_manager.c: 362:     {;mcc_generated_files/pin_manager.c: 363:  
      +                                 IOCAF3_InterruptHandler();
  6306  037D  083B               	movf	_IOCAF3_InterruptHandler+1,w
  6307  037E  008A               	movwf	10
  6308  037F  083A               	movf	_IOCAF3_InterruptHandler,w
  6309  0380  000A               	callw
  6310  0381  3183               	pagesel	$
  6311  0382                     i1l2627:
  6312                           
  6313                           ;mcc_generated_files/pin_manager.c: 365:      if (inGame){
  6314  0382  0020               	movlb	0	; select bank0
  6315  0383  0847               	movf	_inGame,w
  6316  0384  1903               	btfsc	3,2
  6317  0385  2B87               	goto	u108_21
  6318  0386  2B88               	goto	u108_20
  6319  0387                     u108_21:
  6320  0387  2B91               	goto	i1l2637
  6321  0388                     u108_20:
  6322  0388  2B9E               	goto	i1l190
  6323  0389                     i1l2631:
  6324                           
  6325                           ;mcc_generated_files/pin_manager.c: 370:             mainState = 2;
  6326  0389  3002               	movlw	2
  6327  038A  00A2               	movwf	??_IOCAF3_ISR
  6328  038B  0822               	movf	??_IOCAF3_ISR,w
  6329  038C  00C6               	movwf	_mainState
  6330  038D                     i1l2633:
  6331                           
  6332                           ;mcc_generated_files/pin_manager.c: 371:             printMenu();
  6333  038D  3186  2601  3183   	fcall	i1_printMenu
  6334                           
  6335                           ;mcc_generated_files/pin_manager.c: 372:         break;
  6336  0390  2B9E               	goto	i1l190
  6337  0391                     i1l2637:
  6338  0391  0846               	movf	_mainState,w
  6339  0392  00A2               	movwf	??_IOCAF3_ISR
  6340  0393  01A3               	clrf	??_IOCAF3_ISR+1
  6341                           
  6342                           ; Switch on 2 bytes has been partitioned into a top level switch of size 1, and 1 sub-sw
      +                          itches
  6343                           ; Switch size 1, requested type "simple"
  6344                           ; Number of cases is 1, Range of values is 0 to 0
  6345                           ; switch strategies available:
  6346                           ; Name         Instructions Cycles
  6347                           ; simple_byte            4     3 (average)
  6348                           ; direct_byte            8     6 (fixed)
  6349                           ; jumptable            260     6 (fixed)
  6350                           ;	Chosen strategy is simple_byte
  6351  0394  0823               	movf	??_IOCAF3_ISR+1,w
  6352  0395  3A00               	xorlw	0	; case 0
  6353  0396  1903               	skipnz
  6354  0397  2B99               	goto	i1l3057
  6355  0398  2B9E               	goto	i1l190
  6356  0399                     i1l3057:
  6357                           
  6358                           ; Switch size 1, requested type "simple"
  6359                           ; Number of cases is 1, Range of values is 3 to 3
  6360                           ; switch strategies available:
  6361                           ; Name         Instructions Cycles
  6362                           ; simple_byte            4     3 (average)
  6363                           ; direct_byte           11     9 (fixed)
  6364                           ; jumptable            263     9 (fixed)
  6365                           ;	Chosen strategy is simple_byte
  6366  0399  0822               	movf	??_IOCAF3_ISR,w
  6367  039A  3A03               	xorlw	3	; case 3
  6368  039B  1903               	skipnz
  6369  039C  2B89               	goto	i1l2631
  6370  039D  2B9E               	goto	i1l190
  6371  039E                     i1l190:	
  6372                           ;mcc_generated_files/pin_manager.c: 376:     }
  6373                           
  6374                           
  6375                           ;mcc_generated_files/pin_manager.c: 377:     IOCAFbits.IOCAF3 = 0;
  6376  039E  0027               	movlb	7	; select bank7
  6377  039F  1193               	bcf	19,3	;volatile
  6378  03A0                     i1l195:
  6379  03A0  0008               	return
  6380  03A1                     __end_of_IOCAF3_ISR:
  6381                           
  6382                           	psect	text33
  6383  076A                     __ptext33:	
  6384 ;; *************** function _IOCAF3_DefaultInterruptHandler *****************
  6385 ;; Defined at:
  6386 ;;		line 390 in file "mcc_generated_files/pin_manager.c"
  6387 ;; Parameters:    Size  Location     Type
  6388 ;;		None
  6389 ;; Auto vars:     Size  Location     Type
  6390 ;;		None
  6391 ;; Return value:  Size  Location     Type
  6392 ;;                  1    wreg      void 
  6393 ;; Registers used:
  6394 ;;		None
  6395 ;; Tracked objects:
  6396 ;;		On entry : 0/0
  6397 ;;		On exit  : 0/0
  6398 ;;		Unchanged: 0/0
  6399 ;; Data sizes:     COMMON   BANK0   BANK1   BANK2   BANK3   BANK4   BANK5   BANK6   BANK7   BANK8   BANK9  BANK10  BANK1
      +1  BANK12  BANK13  BANK14  BANK15  BANK16  BANK17  BANK18  BANK19  BANK20  BANK21  BANK22  BANK23  BANK24  BANK25
  6400 ;;      Params:         0       0       0       0       0       0       0       0       0       0       0       0       
      +0       0       0       0       0       0       0       0       0       0       0       0       0       0       0
  6401 ;;      Locals:         0       0       0       0       0       0       0       0       0       0       0       0       
      +0       0       0       0       0       0       0       0       0       0       0       0       0       0       0
  6402 ;;      Temps:          0       0       0       0       0       0       0       0       0       0       0       0       
      +0       0       0       0       0       0       0       0       0       0       0       0       0       0       0
  6403 ;;      Totals:         0       0       0       0       0       0       0       0       0       0       0       0       
      +0       0       0       0       0       0       0       0       0       0       0       0       0       0       0
  6404 ;;Total ram usage:        0 bytes
  6405 ;; Hardware stack levels used:    1
  6406 ;; This function calls:
  6407 ;;		Nothing
  6408 ;; This function is called by:
  6409 ;;		_PIN_MANAGER_Initialize
  6410 ;;		_IOCAF3_ISR
  6411 ;; This function uses a non-reentrant model
  6412 ;;
  6413                           
  6414                           
  6415                           ;psect for function _IOCAF3_DefaultInterruptHandler
  6416  076A                     _IOCAF3_DefaultInterruptHandler:
  6417  076A                     i1l201:	
  6418                           ;incstack = 0
  6419                           ; Regs used in _IOCAF3_DefaultInterruptHandler: []
  6420                           
  6421  076A  0008               	return
  6422  076B                     __end_of_IOCAF3_DefaultInterruptHandler:
  6423                           
  6424                           	psect	text34
  6425  023E                     __ptext34:	
  6426 ;; *************** function _IOCAF2_ISR *****************
  6427 ;; Defined at:
  6428 ;;		line 304 in file "mcc_generated_files/pin_manager.c"
  6429 ;; Parameters:    Size  Location     Type
  6430 ;;		None
  6431 ;; Auto vars:     Size  Location     Type
  6432 ;;		None
  6433 ;; Return value:  Size  Location     Type
  6434 ;;                  1    wreg      void 
  6435 ;; Registers used:
  6436 ;;		wreg, fsr0l, fsr0h, status,2, status,0, pclath, cstack
  6437 ;; Tracked objects:
  6438 ;;		On entry : 0/0
  6439 ;;		On exit  : 0/0
  6440 ;;		Unchanged: 0/0
  6441 ;; Data sizes:     COMMON   BANK0   BANK1   BANK2   BANK3   BANK4   BANK5   BANK6   BANK7   BANK8   BANK9  BANK10  BANK1
      +1  BANK12  BANK13  BANK14  BANK15  BANK16  BANK17  BANK18  BANK19  BANK20  BANK21  BANK22  BANK23  BANK24  BANK25
  6442 ;;      Params:         0       0       0       0       0       0       0       0       0       0       0       0       
      +0       0       0       0       0       0       0       0       0       0       0       0       0       0       0
  6443 ;;      Locals:         0       0       0       0       0       0       0       0       0       0       0       0       
      +0       0       0       0       0       0       0       0       0       0       0       0       0       0       0
  6444 ;;      Temps:          0       2       0       0       0       0       0       0       0       0       0       0       
      +0       0       0       0       0       0       0       0       0       0       0       0       0       0       0
  6445 ;;      Totals:         0       2       0       0       0       0       0       0       0       0       0       0       
      +0       0       0       0       0       0       0       0       0       0       0       0       0       0       0
  6446 ;;Total ram usage:        2 bytes
  6447 ;; Hardware stack levels used:    1
  6448 ;; Hardware stack levels required when called:    5
  6449 ;; This function calls:
  6450 ;;		Absolute function
  6451 ;;		_IOCAF2_DefaultInterruptHandler
  6452 ;;		_enableButton
  6453 ;;		i1_disableButton
  6454 ;;		i1_printMenu
  6455 ;; This function is called by:
  6456 ;;		_PIN_MANAGER_IOC
  6457 ;; This function uses a non-reentrant model
  6458 ;;
  6459                           
  6460                           
  6461                           ;psect for function _IOCAF2_ISR
  6462  023E                     _IOCAF2_ISR:
  6463  023E                     i1l2591:	
  6464                           ;incstack = 0
  6465                           ; Regs used in _IOCAF2_ISR: [wreg-fsr0h+status,2+status,0+pclath+cstack]
  6466                           
  6467                           
  6468                           ;mcc_generated_files/pin_manager.c: 309:     if(IOCAF2_InterruptHandler)
  6469  023E  0020               	movlb	0	; select bank0
  6470  023F  083C               	movf	_IOCAF2_InterruptHandler,w
  6471  0240  043D               	iorwf	_IOCAF2_InterruptHandler+1,w
  6472  0241  1903               	btfsc	3,2
  6473  0242  2A44               	goto	u105_21
  6474  0243  2A45               	goto	u105_20
  6475  0244                     u105_21:
  6476  0244  2A4A               	goto	i1l2595
  6477  0245                     u105_20:
  6478  0245                     i1l2593:
  6479                           
  6480                           ;mcc_generated_files/pin_manager.c: 310:     {;mcc_generated_files/pin_manager.c: 311:  
      +                                 IOCAF2_InterruptHandler();
  6481  0245  083D               	movf	_IOCAF2_InterruptHandler+1,w
  6482  0246  008A               	movwf	10
  6483  0247  083C               	movf	_IOCAF2_InterruptHandler,w
  6484  0248  000A               	callw
  6485  0249  3182               	pagesel	$
  6486  024A                     i1l2595:
  6487                           
  6488                           ;mcc_generated_files/pin_manager.c: 313:     if (inGame){
  6489  024A  0020               	movlb	0	; select bank0
  6490  024B  0847               	movf	_inGame,w
  6491  024C  1903               	btfsc	3,2
  6492  024D  2A4F               	goto	u106_21
  6493  024E  2A50               	goto	u106_20
  6494  024F                     u106_21:
  6495  024F  2A6E               	goto	i1l2617
  6496  0250                     u106_20:
  6497  0250  2A7E               	goto	i1l173
  6498  0251                     i1l2599:
  6499                           
  6500                           ;mcc_generated_files/pin_manager.c: 318:             ship1 = 0;
  6501  0251  01C5               	clrf	_ship1
  6502  0252                     i1l2601:
  6503                           
  6504                           ;mcc_generated_files/pin_manager.c: 319:             disableButton(0);
  6505  0252  3000               	movlw	0
  6506  0253  3186  26AE  3182   	fcall	i1_disableButton
  6507  0256                     i1l2603:
  6508                           
  6509                           ;mcc_generated_files/pin_manager.c: 320:             enableButton(1);
  6510  0256  3001               	movlw	1
  6511  0257  3186  26BE  3182   	fcall	_enableButton
  6512  025A                     i1l2605:
  6513                           
  6514                           ;mcc_generated_files/pin_manager.c: 321:             mainState = 2;
  6515  025A  3002               	movlw	2
  6516  025B  0020               	movlb	0	; select bank0
  6517  025C  00A2               	movwf	??_IOCAF2_ISR
  6518  025D  0822               	movf	??_IOCAF2_ISR,w
  6519  025E  00C6               	movwf	_mainState
  6520  025F                     i1l2607:
  6521                           
  6522                           ;mcc_generated_files/pin_manager.c: 322:             printMenu();
  6523  025F  3186  2601  3182   	fcall	i1_printMenu
  6524                           
  6525                           ;mcc_generated_files/pin_manager.c: 323:         break;
  6526  0262  2A7E               	goto	i1l173
  6527  0263                     i1l177:	
  6528                           ;mcc_generated_files/pin_manager.c: 324:         case 1:
  6529                           
  6530                           
  6531                           ;mcc_generated_files/pin_manager.c: 325:             ship1 = 1;
  6532  0263  01C5               	clrf	_ship1
  6533  0264  0AC5               	incf	_ship1,f
  6534  0265                     i1l2609:
  6535                           
  6536                           ;mcc_generated_files/pin_manager.c: 326:             disableButton(0);
  6537  0265  3000               	movlw	0
  6538  0266  3186  26AE  3182   	fcall	i1_disableButton
  6539                           
  6540                           ;mcc_generated_files/pin_manager.c: 327:             enableButton(1);
  6541  0269  3001               	movlw	1
  6542  026A  3186  26BE  3182   	fcall	_enableButton
  6543  026D  2A5A               	goto	i1l2605
  6544  026E                     i1l2617:
  6545  026E  0846               	movf	_mainState,w
  6546  026F  00A2               	movwf	??_IOCAF2_ISR
  6547  0270  01A3               	clrf	??_IOCAF2_ISR+1
  6548                           
  6549                           ; Switch on 2 bytes has been partitioned into a top level switch of size 1, and 1 sub-sw
      +                          itches
  6550                           ; Switch size 1, requested type "simple"
  6551                           ; Number of cases is 1, Range of values is 0 to 0
  6552                           ; switch strategies available:
  6553                           ; Name         Instructions Cycles
  6554                           ; simple_byte            4     3 (average)
  6555                           ; direct_byte            8     6 (fixed)
  6556                           ; jumptable            260     6 (fixed)
  6557                           ;	Chosen strategy is simple_byte
  6558  0271  0823               	movf	??_IOCAF2_ISR+1,w
  6559  0272  3A00               	xorlw	0	; case 0
  6560  0273  1903               	skipnz
  6561  0274  2A76               	goto	i1l3059
  6562  0275  2A7E               	goto	i1l173
  6563  0276                     i1l3059:
  6564                           
  6565                           ; Switch size 1, requested type "simple"
  6566                           ; Number of cases is 2, Range of values is 0 to 1
  6567                           ; switch strategies available:
  6568                           ; Name         Instructions Cycles
  6569                           ; simple_byte            7     4 (average)
  6570                           ; direct_byte           10     6 (fixed)
  6571                           ; jumptable            260     6 (fixed)
  6572                           ;	Chosen strategy is simple_byte
  6573  0276  0822               	movf	??_IOCAF2_ISR,w
  6574  0277  3A00               	xorlw	0	; case 0
  6575  0278  1903               	skipnz
  6576  0279  2A51               	goto	i1l2599
  6577  027A  3A01               	xorlw	1	; case 1
  6578  027B  1903               	skipnz
  6579  027C  2A63               	goto	i1l177
  6580  027D  2A7E               	goto	i1l173
  6581  027E                     i1l173:	
  6582                           ;mcc_generated_files/pin_manager.c: 334:     }
  6583                           
  6584                           
  6585                           ;mcc_generated_files/pin_manager.c: 335:     IOCAFbits.IOCAF2 = 0;
  6586  027E  0027               	movlb	7	; select bank7
  6587  027F  1113               	bcf	19,2	;volatile
  6588  0280                     i1l179:
  6589  0280  0008               	return
  6590  0281                     __end_of_IOCAF2_ISR:
  6591                           
  6592                           	psect	text35
  6593  06AE                     __ptext35:	
  6594 ;; *************** function i1_disableButton *****************
  6595 ;; Defined at:
  6596 ;;		line 124 in file "functions.c"
  6597 ;; Parameters:    Size  Location     Type
  6598 ;;  player          1    wreg     _Bool 
  6599 ;; Auto vars:     Size  Location     Type
  6600 ;;  player          1    0[COMMON] _Bool 
  6601 ;; Return value:  Size  Location     Type
  6602 ;;                  1    wreg      void 
  6603 ;; Registers used:
  6604 ;;		wreg, status,2, status,0
  6605 ;; Tracked objects:
  6606 ;;		On entry : 0/0
  6607 ;;		On exit  : 0/0
  6608 ;;		Unchanged: 0/0
  6609 ;; Data sizes:     COMMON   BANK0   BANK1   BANK2   BANK3   BANK4   BANK5   BANK6   BANK7   BANK8   BANK9  BANK10  BANK1
      +1  BANK12  BANK13  BANK14  BANK15  BANK16  BANK17  BANK18  BANK19  BANK20  BANK21  BANK22  BANK23  BANK24  BANK25
  6610 ;;      Params:         0       0       0       0       0       0       0       0       0       0       0       0       
      +0       0       0       0       0       0       0       0       0       0       0       0       0       0       0
  6611 ;;      Locals:         1       0       0       0       0       0       0       0       0       0       0       0       
      +0       0       0       0       0       0       0       0       0       0       0       0       0       0       0
  6612 ;;      Temps:          0       0       0       0       0       0       0       0       0       0       0       0       
      +0       0       0       0       0       0       0       0       0       0       0       0       0       0       0
  6613 ;;      Totals:         1       0       0       0       0       0       0       0       0       0       0       0       
      +0       0       0       0       0       0       0       0       0       0       0       0       0       0       0
  6614 ;;Total ram usage:        1 bytes
  6615 ;; Hardware stack levels used:    1
  6616 ;; This function calls:
  6617 ;;		Nothing
  6618 ;; This function is called by:
  6619 ;;		_IOCAF2_ISR
  6620 ;;		_IOCAF5_ISR
  6621 ;; This function uses a non-reentrant model
  6622 ;;
  6623                           
  6624                           
  6625                           ;psect for function i1_disableButton
  6626  06AE                     i1_disableButton:
  6627                           
  6628                           ;incstack = 0
  6629                           ; Regs used in i1_disableButton: [wreg+status,2+status,0]
  6630                           ;i1disableButton@player stored from wreg
  6631  06AE  00F0               	movwf	i1disableButton@player
  6632  06AF                     i1l1779:
  6633                           
  6634                           ;functions.c: 124: void disableButton (_Bool player);functions.c: 135:     {;functions.c
      +                          : 136:     if (player == 1)
  6635  06AF  0370               	decf	i1disableButton@player,w
  6636  06B0  1D03               	btfss	3,2
  6637  06B1  2EB3               	goto	u60_21
  6638  06B2  2EB4               	goto	u60_20
  6639  06B3                     u60_21:
  6640  06B3  2EB9               	goto	i1l349
  6641  06B4                     u60_20:
  6642  06B4                     i1l1781:
  6643                           
  6644                           ;functions.c: 138:         {;functions.c: 140:         IOCANbits.IOCAN3 = 0;
  6645  06B4  0027               	movlb	7	; select bank7
  6646  06B5  1192               	bcf	18,3	;volatile
  6647                           
  6648                           ;functions.c: 142:         IOCANbits.IOCAN4 = 0;
  6649  06B6  1212               	bcf	18,4	;volatile
  6650                           
  6651                           ;functions.c: 144:         IOCANbits.IOCAN5 = 0;
  6652  06B7  1292               	bcf	18,5	;volatile
  6653                           
  6654                           ;functions.c: 145:         }
  6655  06B8  2EBD               	goto	i1l351
  6656  06B9                     i1l349:	
  6657                           ;functions.c: 146:     else
  6658                           
  6659                           
  6660                           ;functions.c: 148:         {;functions.c: 150:         IOCANbits.IOCAN0 = 0;
  6661  06B9  0027               	movlb	7	; select bank7
  6662  06BA  1012               	bcf	18,0	;volatile
  6663                           
  6664                           ;functions.c: 152:         IOCANbits.IOCAN1 = 0;
  6665  06BB  1092               	bcf	18,1	;volatile
  6666                           
  6667                           ;functions.c: 154:         IOCANbits.IOCAN2 = 0;
  6668  06BC  1112               	bcf	18,2	;volatile
  6669  06BD                     i1l351:
  6670  06BD  0008               	return
  6671  06BE                     __end_ofi1_disableButton:
  6672                           
  6673                           	psect	text36
  6674  06BE                     __ptext36:	
  6675 ;; *************** function _enableButton *****************
  6676 ;; Defined at:
  6677 ;;		line 159 in file "functions.c"
  6678 ;; Parameters:    Size  Location     Type
  6679 ;;  player          1    wreg     _Bool 
  6680 ;; Auto vars:     Size  Location     Type
  6681 ;;  player          1    0[COMMON] _Bool 
  6682 ;; Return value:  Size  Location     Type
  6683 ;;                  1    wreg      void 
  6684 ;; Registers used:
  6685 ;;		wreg, status,2, status,0
  6686 ;; Tracked objects:
  6687 ;;		On entry : 0/0
  6688 ;;		On exit  : 0/0
  6689 ;;		Unchanged: 0/0
  6690 ;; Data sizes:     COMMON   BANK0   BANK1   BANK2   BANK3   BANK4   BANK5   BANK6   BANK7   BANK8   BANK9  BANK10  BANK1
      +1  BANK12  BANK13  BANK14  BANK15  BANK16  BANK17  BANK18  BANK19  BANK20  BANK21  BANK22  BANK23  BANK24  BANK25
  6691 ;;      Params:         0       0       0       0       0       0       0       0       0       0       0       0       
      +0       0       0       0       0       0       0       0       0       0       0       0       0       0       0
  6692 ;;      Locals:         1       0       0       0       0       0       0       0       0       0       0       0       
      +0       0       0       0       0       0       0       0       0       0       0       0       0       0       0
  6693 ;;      Temps:          0       0       0       0       0       0       0       0       0       0       0       0       
      +0       0       0       0       0       0       0       0       0       0       0       0       0       0       0
  6694 ;;      Totals:         1       0       0       0       0       0       0       0       0       0       0       0       
      +0       0       0       0       0       0       0       0       0       0       0       0       0       0       0
  6695 ;;Total ram usage:        1 bytes
  6696 ;; Hardware stack levels used:    1
  6697 ;; This function calls:
  6698 ;;		Nothing
  6699 ;; This function is called by:
  6700 ;;		_IOCAF2_ISR
  6701 ;;		_IOCAF5_ISR
  6702 ;; This function uses a non-reentrant model
  6703 ;;
  6704                           
  6705                           
  6706                           ;psect for function _enableButton
  6707  06BE                     _enableButton:
  6708                           
  6709                           ;incstack = 0
  6710                           ; Regs used in _enableButton: [wreg+status,2+status,0]
  6711                           ;enableButton@player stored from wreg
  6712  06BE  00F0               	movwf	enableButton@player
  6713  06BF                     i1l1739:
  6714                           
  6715                           ;functions.c: 159: void enableButton (_Bool player);functions.c: 170:     {;functions.c:
      +                           171:     if (player == 1)
  6716  06BF  0370               	decf	enableButton@player,w
  6717  06C0  1D03               	btfss	3,2
  6718  06C1  2EC3               	goto	u55_21
  6719  06C2  2EC4               	goto	u55_20
  6720  06C3                     u55_21:
  6721  06C3  2EC9               	goto	i1l354
  6722  06C4                     u55_20:
  6723  06C4                     i1l1741:
  6724                           
  6725                           ;functions.c: 173:         {;functions.c: 175:         IOCANbits.IOCAN3 = 1;
  6726  06C4  0027               	movlb	7	; select bank7
  6727  06C5  1592               	bsf	18,3	;volatile
  6728                           
  6729                           ;functions.c: 177:         IOCANbits.IOCAN4 = 1;
  6730  06C6  1612               	bsf	18,4	;volatile
  6731                           
  6732                           ;functions.c: 179:         IOCANbits.IOCAN5 = 1;
  6733  06C7  1692               	bsf	18,5	;volatile
  6734                           
  6735                           ;functions.c: 180:         }
  6736  06C8  2ECD               	goto	i1l356
  6737  06C9                     i1l354:	
  6738                           ;functions.c: 181:     else
  6739                           
  6740                           
  6741                           ;functions.c: 183:         {;functions.c: 185:         IOCANbits.IOCAN0 = 1;
  6742  06C9  0027               	movlb	7	; select bank7
  6743  06CA  1412               	bsf	18,0	;volatile
  6744                           
  6745                           ;functions.c: 187:         IOCANbits.IOCAN1 = 1;
  6746  06CB  1492               	bsf	18,1	;volatile
  6747                           
  6748                           ;functions.c: 189:         IOCANbits.IOCAN2 = 1;
  6749  06CC  1512               	bsf	18,2	;volatile
  6750  06CD                     i1l356:
  6751  06CD  0008               	return
  6752  06CE                     __end_of_enableButton:
  6753                           
  6754                           	psect	text37
  6755  076B                     __ptext37:	
  6756 ;; *************** function _IOCAF2_DefaultInterruptHandler *****************
  6757 ;; Defined at:
  6758 ;;		line 348 in file "mcc_generated_files/pin_manager.c"
  6759 ;; Parameters:    Size  Location     Type
  6760 ;;		None
  6761 ;; Auto vars:     Size  Location     Type
  6762 ;;		None
  6763 ;; Return value:  Size  Location     Type
  6764 ;;                  1    wreg      void 
  6765 ;; Registers used:
  6766 ;;		None
  6767 ;; Tracked objects:
  6768 ;;		On entry : 0/0
  6769 ;;		On exit  : 0/0
  6770 ;;		Unchanged: 0/0
  6771 ;; Data sizes:     COMMON   BANK0   BANK1   BANK2   BANK3   BANK4   BANK5   BANK6   BANK7   BANK8   BANK9  BANK10  BANK1
      +1  BANK12  BANK13  BANK14  BANK15  BANK16  BANK17  BANK18  BANK19  BANK20  BANK21  BANK22  BANK23  BANK24  BANK25
  6772 ;;      Params:         0       0       0       0       0       0       0       0       0       0       0       0       
      +0       0       0       0       0       0       0       0       0       0       0       0       0       0       0
  6773 ;;      Locals:         0       0       0       0       0       0       0       0       0       0       0       0       
      +0       0       0       0       0       0       0       0       0       0       0       0       0       0       0
  6774 ;;      Temps:          0       0       0       0       0       0       0       0       0       0       0       0       
      +0       0       0       0       0       0       0       0       0       0       0       0       0       0       0
  6775 ;;      Totals:         0       0       0       0       0       0       0       0       0       0       0       0       
      +0       0       0       0       0       0       0       0       0       0       0       0       0       0       0
  6776 ;;Total ram usage:        0 bytes
  6777 ;; Hardware stack levels used:    1
  6778 ;; This function calls:
  6779 ;;		Nothing
  6780 ;; This function is called by:
  6781 ;;		_PIN_MANAGER_Initialize
  6782 ;;		_IOCAF2_ISR
  6783 ;; This function uses a non-reentrant model
  6784 ;;
  6785                           
  6786                           
  6787                           ;psect for function _IOCAF2_DefaultInterruptHandler
  6788  076B                     _IOCAF2_DefaultInterruptHandler:
  6789  076B                     i1l185:	
  6790                           ;incstack = 0
  6791                           ; Regs used in _IOCAF2_DefaultInterruptHandler: []
  6792                           
  6793  076B  0008               	return
  6794  076C                     __end_of_IOCAF2_DefaultInterruptHandler:
  6795                           
  6796                           	psect	text38
  6797  031F                     __ptext38:	
  6798 ;; *************** function _IOCAF1_ISR *****************
  6799 ;; Defined at:
  6800 ;;		line 259 in file "mcc_generated_files/pin_manager.c"
  6801 ;; Parameters:    Size  Location     Type
  6802 ;;		None
  6803 ;; Auto vars:     Size  Location     Type
  6804 ;;		None
  6805 ;; Return value:  Size  Location     Type
  6806 ;;                  1    wreg      void 
  6807 ;; Registers used:
  6808 ;;		wreg, fsr0l, fsr0h, status,2, status,0, pclath, cstack
  6809 ;; Tracked objects:
  6810 ;;		On entry : 0/0
  6811 ;;		On exit  : 0/0
  6812 ;;		Unchanged: 0/0
  6813 ;; Data sizes:     COMMON   BANK0   BANK1   BANK2   BANK3   BANK4   BANK5   BANK6   BANK7   BANK8   BANK9  BANK10  BANK1
      +1  BANK12  BANK13  BANK14  BANK15  BANK16  BANK17  BANK18  BANK19  BANK20  BANK21  BANK22  BANK23  BANK24  BANK25
  6814 ;;      Params:         0       0       0       0       0       0       0       0       0       0       0       0       
      +0       0       0       0       0       0       0       0       0       0       0       0       0       0       0
  6815 ;;      Locals:         0       0       0       0       0       0       0       0       0       0       0       0       
      +0       0       0       0       0       0       0       0       0       0       0       0       0       0       0
  6816 ;;      Temps:          0       2       0       0       0       0       0       0       0       0       0       0       
      +0       0       0       0       0       0       0       0       0       0       0       0       0       0       0
  6817 ;;      Totals:         0       2       0       0       0       0       0       0       0       0       0       0       
      +0       0       0       0       0       0       0       0       0       0       0       0       0       0       0
  6818 ;;Total ram usage:        2 bytes
  6819 ;; Hardware stack levels used:    1
  6820 ;; Hardware stack levels required when called:    5
  6821 ;; This function calls:
  6822 ;;		Absolute function
  6823 ;;		_IOCAF1_DefaultInterruptHandler
  6824 ;;		i1_printMenu
  6825 ;; This function is called by:
  6826 ;;		_PIN_MANAGER_IOC
  6827 ;; This function uses a non-reentrant model
  6828 ;;
  6829                           
  6830                           
  6831                           ;psect for function _IOCAF1_ISR
  6832  031F                     _IOCAF1_ISR:
  6833  031F                     i1l2573:	
  6834                           ;incstack = 0
  6835                           ; Regs used in _IOCAF1_ISR: [wreg-fsr0h+status,2+status,0+pclath+cstack]
  6836                           
  6837                           
  6838                           ;mcc_generated_files/pin_manager.c: 264:     if(IOCAF1_InterruptHandler)
  6839  031F  0020               	movlb	0	; select bank0
  6840  0320  083E               	movf	_IOCAF1_InterruptHandler,w
  6841  0321  043F               	iorwf	_IOCAF1_InterruptHandler+1,w
  6842  0322  1903               	btfsc	3,2
  6843  0323  2B25               	goto	u103_21
  6844  0324  2B26               	goto	u103_20
  6845  0325                     u103_21:
  6846  0325  2B2B               	goto	i1l2577
  6847  0326                     u103_20:
  6848  0326                     i1l2575:
  6849                           
  6850                           ;mcc_generated_files/pin_manager.c: 265:     {;mcc_generated_files/pin_manager.c: 266:  
      +                                 IOCAF1_InterruptHandler();
  6851  0326  083F               	movf	_IOCAF1_InterruptHandler+1,w
  6852  0327  008A               	movwf	10
  6853  0328  083E               	movf	_IOCAF1_InterruptHandler,w
  6854  0329  000A               	callw
  6855  032A  3183               	pagesel	$
  6856  032B                     i1l2577:
  6857                           
  6858                           ;mcc_generated_files/pin_manager.c: 269:     if (inGame){
  6859  032B  0020               	movlb	0	; select bank0
  6860  032C  0847               	movf	_inGame,w
  6861  032D  1903               	btfsc	3,2
  6862  032E  2B30               	goto	u104_21
  6863  032F  2B31               	goto	u104_20
  6864  0330                     u104_21:
  6865  0330  2B38               	goto	i1l2585
  6866  0331                     u104_20:
  6867  0331  2B48               	goto	i1l156
  6868  0332                     i1l158:	
  6869                           ;mcc_generated_files/pin_manager.c: 273:         case 0:
  6870                           
  6871                           
  6872                           ;mcc_generated_files/pin_manager.c: 274:             mainState = 1;
  6873  0332  01C6               	clrf	_mainState
  6874  0333  0AC6               	incf	_mainState,f
  6875  0334                     i1l2581:
  6876                           
  6877                           ;mcc_generated_files/pin_manager.c: 275:             printMenu();
  6878  0334  3186  2601  3183   	fcall	i1_printMenu
  6879                           
  6880                           ;mcc_generated_files/pin_manager.c: 276:         break;
  6881  0337  2B48               	goto	i1l156
  6882  0338                     i1l2585:
  6883  0338  0846               	movf	_mainState,w
  6884  0339  00A2               	movwf	??_IOCAF1_ISR
  6885  033A  01A3               	clrf	??_IOCAF1_ISR+1
  6886                           
  6887                           ; Switch on 2 bytes has been partitioned into a top level switch of size 1, and 1 sub-sw
      +                          itches
  6888                           ; Switch size 1, requested type "simple"
  6889                           ; Number of cases is 1, Range of values is 0 to 0
  6890                           ; switch strategies available:
  6891                           ; Name         Instructions Cycles
  6892                           ; simple_byte            4     3 (average)
  6893                           ; direct_byte            8     6 (fixed)
  6894                           ; jumptable            260     6 (fixed)
  6895                           ;	Chosen strategy is simple_byte
  6896  033B  0823               	movf	??_IOCAF1_ISR+1,w
  6897  033C  3A00               	xorlw	0	; case 0
  6898  033D  1903               	skipnz
  6899  033E  2B40               	goto	i1l3061
  6900  033F  2B48               	goto	i1l156
  6901  0340                     i1l3061:
  6902                           
  6903                           ; Switch size 1, requested type "simple"
  6904                           ; Number of cases is 2, Range of values is 0 to 1
  6905                           ; switch strategies available:
  6906                           ; Name         Instructions Cycles
  6907                           ; simple_byte            7     4 (average)
  6908                           ; direct_byte           10     6 (fixed)
  6909                           ; jumptable            260     6 (fixed)
  6910                           ;	Chosen strategy is simple_byte
  6911  0340  0822               	movf	??_IOCAF1_ISR,w
  6912  0341  3A00               	xorlw	0	; case 0
  6913  0342  1903               	skipnz
  6914  0343  2B32               	goto	i1l158
  6915  0344  3A01               	xorlw	1	; case 1
  6916  0345  1903               	skipnz
  6917  0346  2B48               	goto	i1l156
  6918  0347  2B48               	goto	i1l156
  6919  0348                     i1l156:	
  6920                           ;mcc_generated_files/pin_manager.c: 282:     }
  6921                           
  6922                           
  6923                           ;mcc_generated_files/pin_manager.c: 283:     IOCAFbits.IOCAF1 = 0;
  6924  0348  0027               	movlb	7	; select bank7
  6925  0349  1093               	bcf	19,1	;volatile
  6926  034A                     i1l162:
  6927  034A  0008               	return
  6928  034B                     __end_of_IOCAF1_ISR:
  6929                           
  6930                           	psect	text39
  6931  076C                     __ptext39:	
  6932 ;; *************** function _IOCAF1_DefaultInterruptHandler *****************
  6933 ;; Defined at:
  6934 ;;		line 296 in file "mcc_generated_files/pin_manager.c"
  6935 ;; Parameters:    Size  Location     Type
  6936 ;;		None
  6937 ;; Auto vars:     Size  Location     Type
  6938 ;;		None
  6939 ;; Return value:  Size  Location     Type
  6940 ;;                  1    wreg      void 
  6941 ;; Registers used:
  6942 ;;		None
  6943 ;; Tracked objects:
  6944 ;;		On entry : 0/0
  6945 ;;		On exit  : 0/0
  6946 ;;		Unchanged: 0/0
  6947 ;; Data sizes:     COMMON   BANK0   BANK1   BANK2   BANK3   BANK4   BANK5   BANK6   BANK7   BANK8   BANK9  BANK10  BANK1
      +1  BANK12  BANK13  BANK14  BANK15  BANK16  BANK17  BANK18  BANK19  BANK20  BANK21  BANK22  BANK23  BANK24  BANK25
  6948 ;;      Params:         0       0       0       0       0       0       0       0       0       0       0       0       
      +0       0       0       0       0       0       0       0       0       0       0       0       0       0       0
  6949 ;;      Locals:         0       0       0       0       0       0       0       0       0       0       0       0       
      +0       0       0       0       0       0       0       0       0       0       0       0       0       0       0
  6950 ;;      Temps:          0       0       0       0       0       0       0       0       0       0       0       0       
      +0       0       0       0       0       0       0       0       0       0       0       0       0       0       0
  6951 ;;      Totals:         0       0       0       0       0       0       0       0       0       0       0       0       
      +0       0       0       0       0       0       0       0       0       0       0       0       0       0       0
  6952 ;;Total ram usage:        0 bytes
  6953 ;; Hardware stack levels used:    1
  6954 ;; This function calls:
  6955 ;;		Nothing
  6956 ;; This function is called by:
  6957 ;;		_PIN_MANAGER_Initialize
  6958 ;;		_IOCAF1_ISR
  6959 ;; This function uses a non-reentrant model
  6960 ;;
  6961                           
  6962                           
  6963                           ;psect for function _IOCAF1_DefaultInterruptHandler
  6964  076C                     _IOCAF1_DefaultInterruptHandler:
  6965  076C                     i1l168:	
  6966                           ;incstack = 0
  6967                           ; Regs used in _IOCAF1_DefaultInterruptHandler: []
  6968                           
  6969  076C  0008               	return
  6970  076D                     __end_of_IOCAF1_DefaultInterruptHandler:
  6971                           
  6972                           	psect	text40
  6973  03A1                     __ptext40:	
  6974 ;; *************** function _IOCAF0_ISR *****************
  6975 ;; Defined at:
  6976 ;;		line 213 in file "mcc_generated_files/pin_manager.c"
  6977 ;; Parameters:    Size  Location     Type
  6978 ;;		None
  6979 ;; Auto vars:     Size  Location     Type
  6980 ;;		None
  6981 ;; Return value:  Size  Location     Type
  6982 ;;                  1    wreg      void 
  6983 ;; Registers used:
  6984 ;;		wreg, fsr0l, fsr0h, status,2, status,0, pclath, cstack
  6985 ;; Tracked objects:
  6986 ;;		On entry : 0/0
  6987 ;;		On exit  : 0/0
  6988 ;;		Unchanged: 0/0
  6989 ;; Data sizes:     COMMON   BANK0   BANK1   BANK2   BANK3   BANK4   BANK5   BANK6   BANK7   BANK8   BANK9  BANK10  BANK1
      +1  BANK12  BANK13  BANK14  BANK15  BANK16  BANK17  BANK18  BANK19  BANK20  BANK21  BANK22  BANK23  BANK24  BANK25
  6990 ;;      Params:         0       0       0       0       0       0       0       0       0       0       0       0       
      +0       0       0       0       0       0       0       0       0       0       0       0       0       0       0
  6991 ;;      Locals:         0       0       0       0       0       0       0       0       0       0       0       0       
      +0       0       0       0       0       0       0       0       0       0       0       0       0       0       0
  6992 ;;      Temps:          0       2       0       0       0       0       0       0       0       0       0       0       
      +0       0       0       0       0       0       0       0       0       0       0       0       0       0       0
  6993 ;;      Totals:         0       2       0       0       0       0       0       0       0       0       0       0       
      +0       0       0       0       0       0       0       0       0       0       0       0       0       0       0
  6994 ;;Total ram usage:        2 bytes
  6995 ;; Hardware stack levels used:    1
  6996 ;; Hardware stack levels required when called:    5
  6997 ;; This function calls:
  6998 ;;		Absolute function
  6999 ;;		_IOCAF0_DefaultInterruptHandler
  7000 ;;		i1_printMenu
  7001 ;; This function is called by:
  7002 ;;		_PIN_MANAGER_IOC
  7003 ;; This function uses a non-reentrant model
  7004 ;;
  7005                           
  7006                           
  7007                           ;psect for function _IOCAF0_ISR
  7008  03A1                     _IOCAF0_ISR:
  7009  03A1                     i1l2553:	
  7010                           ;incstack = 0
  7011                           ; Regs used in _IOCAF0_ISR: [wreg-fsr0h+status,2+status,0+pclath+cstack]
  7012                           
  7013                           
  7014                           ;mcc_generated_files/pin_manager.c: 218:     if(IOCAF0_InterruptHandler)
  7015  03A1  0020               	movlb	0	; select bank0
  7016  03A2  0840               	movf	_IOCAF0_InterruptHandler,w
  7017  03A3  0441               	iorwf	_IOCAF0_InterruptHandler+1,w
  7018  03A4  1903               	btfsc	3,2
  7019  03A5  2BA7               	goto	u101_21
  7020  03A6  2BA8               	goto	u101_20
  7021  03A7                     u101_21:
  7022  03A7  2BAD               	goto	i1l2557
  7023  03A8                     u101_20:
  7024  03A8                     i1l2555:
  7025                           
  7026                           ;mcc_generated_files/pin_manager.c: 219:     {;mcc_generated_files/pin_manager.c: 220:  
      +                                 IOCAF0_InterruptHandler();
  7027  03A8  0841               	movf	_IOCAF0_InterruptHandler+1,w
  7028  03A9  008A               	movwf	10
  7029  03AA  0840               	movf	_IOCAF0_InterruptHandler,w
  7030  03AB  000A               	callw
  7031  03AC  3183               	pagesel	$
  7032  03AD                     i1l2557:
  7033                           
  7034                           ;mcc_generated_files/pin_manager.c: 222:     if (inGame){
  7035  03AD  0020               	movlb	0	; select bank0
  7036  03AE  0847               	movf	_inGame,w
  7037  03AF  1903               	btfsc	3,2
  7038  03B0  2BB2               	goto	u102_21
  7039  03B1  2BB3               	goto	u102_20
  7040  03B2                     u102_21:
  7041  03B2  2BB9               	goto	i1l2567
  7042  03B3                     u102_20:
  7043  03B3  2BC9               	goto	i1l139
  7044  03B4                     i1l2561:
  7045                           
  7046                           ;mcc_generated_files/pin_manager.c: 229:             mainState = 0;
  7047  03B4  01C6               	clrf	_mainState
  7048  03B5                     i1l2563:
  7049                           
  7050                           ;mcc_generated_files/pin_manager.c: 230:             printMenu();
  7051  03B5  3186  2601  3183   	fcall	i1_printMenu
  7052                           
  7053                           ;mcc_generated_files/pin_manager.c: 231:         break;
  7054  03B8  2BC9               	goto	i1l139
  7055  03B9                     i1l2567:
  7056  03B9  0846               	movf	_mainState,w
  7057  03BA  00A2               	movwf	??_IOCAF0_ISR
  7058  03BB  01A3               	clrf	??_IOCAF0_ISR+1
  7059                           
  7060                           ; Switch on 2 bytes has been partitioned into a top level switch of size 1, and 1 sub-sw
      +                          itches
  7061                           ; Switch size 1, requested type "simple"
  7062                           ; Number of cases is 1, Range of values is 0 to 0
  7063                           ; switch strategies available:
  7064                           ; Name         Instructions Cycles
  7065                           ; simple_byte            4     3 (average)
  7066                           ; direct_byte            8     6 (fixed)
  7067                           ; jumptable            260     6 (fixed)
  7068                           ;	Chosen strategy is simple_byte
  7069  03BC  0823               	movf	??_IOCAF0_ISR+1,w
  7070  03BD  3A00               	xorlw	0	; case 0
  7071  03BE  1903               	skipnz
  7072  03BF  2BC1               	goto	i1l3063
  7073  03C0  2BC9               	goto	i1l139
  7074  03C1                     i1l3063:
  7075                           
  7076                           ; Switch size 1, requested type "simple"
  7077                           ; Number of cases is 2, Range of values is 0 to 1
  7078                           ; switch strategies available:
  7079                           ; Name         Instructions Cycles
  7080                           ; simple_byte            7     4 (average)
  7081                           ; direct_byte           10     6 (fixed)
  7082                           ; jumptable            260     6 (fixed)
  7083                           ;	Chosen strategy is simple_byte
  7084  03C1  0822               	movf	??_IOCAF0_ISR,w
  7085  03C2  3A00               	xorlw	0	; case 0
  7086  03C3  1903               	skipnz
  7087  03C4  2BC9               	goto	i1l139
  7088  03C5  3A01               	xorlw	1	; case 1
  7089  03C6  1903               	skipnz
  7090  03C7  2BB4               	goto	i1l2561
  7091  03C8  2BC9               	goto	i1l139
  7092  03C9                     i1l139:	
  7093                           ;mcc_generated_files/pin_manager.c: 235:     }
  7094                           
  7095                           
  7096                           ;mcc_generated_files/pin_manager.c: 238:     IOCAFbits.IOCAF0 = 0;
  7097  03C9  0027               	movlb	7	; select bank7
  7098  03CA  1013               	bcf	19,0	;volatile
  7099  03CB                     i1l145:
  7100  03CB  0008               	return
  7101  03CC                     __end_of_IOCAF0_ISR:
  7102                           
  7103                           	psect	text41
  7104  0601                     __ptext41:	
  7105 ;; *************** function i1_printMenu *****************
  7106 ;; Defined at:
  7107 ;;		line 32 in file "menu.c"
  7108 ;; Parameters:    Size  Location     Type
  7109 ;;		None
  7110 ;; Auto vars:     Size  Location     Type
  7111 ;;		None
  7112 ;; Return value:  Size  Location     Type
  7113 ;;                  1    wreg      void 
  7114 ;; Registers used:
  7115 ;;		wreg, fsr0l, fsr0h, status,2, status,0, pclath, cstack
  7116 ;; Tracked objects:
  7117 ;;		On entry : 0/0
  7118 ;;		On exit  : 0/0
  7119 ;;		Unchanged: 0/0
  7120 ;; Data sizes:     COMMON   BANK0   BANK1   BANK2   BANK3   BANK4   BANK5   BANK6   BANK7   BANK8   BANK9  BANK10  BANK1
      +1  BANK12  BANK13  BANK14  BANK15  BANK16  BANK17  BANK18  BANK19  BANK20  BANK21  BANK22  BANK23  BANK24  BANK25
  7121 ;;      Params:         0       0       0       0       0       0       0       0       0       0       0       0       
      +0       0       0       0       0       0       0       0       0       0       0       0       0       0       0
  7122 ;;      Locals:         0       0       0       0       0       0       0       0       0       0       0       0       
      +0       0       0       0       0       0       0       0       0       0       0       0       0       0       0
  7123 ;;      Temps:          0       0       0       0       0       0       0       0       0       0       0       0       
      +0       0       0       0       0       0       0       0       0       0       0       0       0       0       0
  7124 ;;      Totals:         0       0       0       0       0       0       0       0       0       0       0       0       
      +0       0       0       0       0       0       0       0       0       0       0       0       0       0       0
  7125 ;;Total ram usage:        0 bytes
  7126 ;; Hardware stack levels used:    1
  7127 ;; Hardware stack levels required when called:    4
  7128 ;; This function calls:
  7129 ;;		i1_LCDGoto
  7130 ;;		i1_LCDPutStr
  7131 ;;		i1_cleanFullMenu
  7132 ;;		i1_cleanMenu
  7133 ;;		i1_mainMenu
  7134 ;; This function is called by:
  7135 ;;		_IOCAF0_ISR
  7136 ;;		_IOCAF1_ISR
  7137 ;;		_IOCAF2_ISR
  7138 ;;		_IOCAF3_ISR
  7139 ;;		_IOCAF4_ISR
  7140 ;;		_startFight
  7141 ;; This function uses a non-reentrant model
  7142 ;;
  7143                           
  7144                           
  7145                           ;psect for function i1_printMenu
  7146  0601                     i1_printMenu:
  7147  0601                     i1l2421:	
  7148                           ;incstack = 0
  7149                           ; Regs used in i1_printMenu: [wreg-fsr0h+status,2+status,0+pclath+cstack]
  7150                           
  7151                           
  7152                           ;menu.c: 43:     if(inGame){
  7153  0601  0020               	movlb	0	; select bank0
  7154  0602  0847               	movf	_inGame,w
  7155  0603  1903               	btfsc	3,2
  7156  0604  2E06               	goto	u96_21
  7157  0605  2E07               	goto	u96_20
  7158  0606                     u96_21:
  7159  0606  2E18               	goto	i1l2429
  7160  0607                     u96_20:
  7161  0607                     i1l2423:
  7162                           
  7163                           ;menu.c: 44:         cleanMenu();
  7164  0607  3186  263C  3186   	fcall	i1_cleanMenu
  7165  060A                     i1l2425:
  7166                           
  7167                           ;menu.c: 45:         LCDGoto(lcdOffset, 0);
  7168  060A  01F7               	clrf	i1LCDGoto@ln
  7169  060B  0020               	movlb	0	; select bank0
  7170  060C  084A               	movf	_lcdOffset,w
  7171  060D  3184  2494  3186   	fcall	i1_LCDGoto
  7172  0610                     i1l2427:
  7173                           
  7174                           ;menu.c: 46:         LCDPutStr("   Menu   ");
  7175  0610  3012               	movlw	low (STR_5| (0+32768))
  7176  0611  00F7               	movwf	i1LCDPutStr@str
  7177  0612  3087               	movlw	high (STR_5| (0+32768))
  7178  0613  00F8               	movwf	i1LCDPutStr@str+1
  7179  0614  3184  24BB  3186   	fcall	i1_LCDPutStr
  7180                           
  7181                           ;menu.c: 47:     }else {
  7182  0617  2E1E               	goto	i1l413
  7183  0618                     i1l2429:
  7184                           
  7185                           ;menu.c: 48:         cleanFullMenu();
  7186  0618  3186  2672  3186   	fcall	i1_cleanFullMenu
  7187                           
  7188                           ;menu.c: 49:         mainMenu();
  7189  061B  3180  20CC  3186   	fcall	i1_mainMenu
  7190  061E                     i1l413:
  7191  061E  0008               	return
  7192  061F                     __end_ofi1_printMenu:
  7193                           
  7194                           	psect	text42
  7195  00CC                     __ptext42:	
  7196 ;; *************** function i1_mainMenu *****************
  7197 ;; Defined at:
  7198 ;;		line 53 in file "menu.c"
  7199 ;; Parameters:    Size  Location     Type
  7200 ;;		None
  7201 ;; Auto vars:     Size  Location     Type
  7202 ;;		None
  7203 ;; Return value:  Size  Location     Type
  7204 ;;                  1    wreg      void 
  7205 ;; Registers used:
  7206 ;;		wreg, fsr0l, fsr0h, status,2, status,0, pclath, cstack
  7207 ;; Tracked objects:
  7208 ;;		On entry : 0/0
  7209 ;;		On exit  : 0/0
  7210 ;;		Unchanged: 0/0
  7211 ;; Data sizes:     COMMON   BANK0   BANK1   BANK2   BANK3   BANK4   BANK5   BANK6   BANK7   BANK8   BANK9  BANK10  BANK1
      +1  BANK12  BANK13  BANK14  BANK15  BANK16  BANK17  BANK18  BANK19  BANK20  BANK21  BANK22  BANK23  BANK24  BANK25
  7212 ;;      Params:         0       0       0       0       0       0       0       0       0       0       0       0       
      +0       0       0       0       0       0       0       0       0       0       0       0       0       0       0
  7213 ;;      Locals:         0       0       0       0       0       0       0       0       0       0       0       0       
      +0       0       0       0       0       0       0       0       0       0       0       0       0       0       0
  7214 ;;      Temps:          0       2       0       0       0       0       0       0       0       0       0       0       
      +0       0       0       0       0       0       0       0       0       0       0       0       0       0       0
  7215 ;;      Totals:         0       2       0       0       0       0       0       0       0       0       0       0       
      +0       0       0       0       0       0       0       0       0       0       0       0       0       0       0
  7216 ;;Total ram usage:        2 bytes
  7217 ;; Hardware stack levels used:    1
  7218 ;; Hardware stack levels required when called:    3
  7219 ;; This function calls:
  7220 ;;		i1_LCDGoto
  7221 ;;		i1_LCDPutStr
  7222 ;; This function is called by:
  7223 ;;		i1_printMenu
  7224 ;; This function uses a non-reentrant model
  7225 ;;
  7226                           
  7227                           
  7228                           ;psect for function i1_mainMenu
  7229  00CC                     i1_mainMenu:
  7230  00CC                     i1l2369:	
  7231                           ;incstack = 0
  7232                           ; Regs used in i1_mainMenu: [wreg-fsr0h+status,2+status,0+pclath+cstack]
  7233                           
  7234                           
  7235                           ;menu.c: 63:     switch (mainState){
  7236  00CC  2935               	goto	i1l2397
  7237  00CD                     i1l2371:
  7238                           
  7239                           ;menu.c: 65:             LCDGoto(0, 0);
  7240  00CD  01F7               	clrf	i1LCDGoto@ln
  7241  00CE  3000               	movlw	0
  7242  00CF  3184  2494  3180   	fcall	i1_LCDGoto
  7243  00D2                     i1l2373:
  7244                           
  7245                           ;menu.c: 66:             LCDPutStr("Select ship#1");
  7246  00D2  30CE               	movlw	low (STR_6| (0+32768))
  7247  00D3  00F7               	movwf	i1LCDPutStr@str
  7248  00D4  3086               	movlw	high (STR_6| (0+32768))
  7249  00D5  00F8               	movwf	i1LCDPutStr@str+1
  7250  00D6  3184  24BB  3180   	fcall	i1_LCDPutStr
  7251  00D9                     i1l2375:
  7252                           
  7253                           ;menu.c: 67:             LCDGoto(0, 1);
  7254  00D9  01F7               	clrf	i1LCDGoto@ln
  7255  00DA  0AF7               	incf	i1LCDGoto@ln,f
  7256  00DB  3000               	movlw	0
  7257  00DC  3184  2494  3180   	fcall	i1_LCDGoto
  7258                           
  7259                           ;menu.c: 68:             LCDPutStr("> Tie Fighter");
  7260  00DF  30F8               	movlw	low (STR_7| (0+32768))
  7261  00E0  00F7               	movwf	i1LCDPutStr@str
  7262  00E1  3086               	movlw	high (STR_7| (0+32768))
  7263  00E2  00F8               	movwf	i1LCDPutStr@str+1
  7264  00E3  3184  24BB  3180   	fcall	i1_LCDPutStr
  7265                           
  7266                           ;menu.c: 69:         break;
  7267  00E6  294C               	goto	i1l423
  7268  00E7                     i1l2377:
  7269                           
  7270                           ;menu.c: 71:             LCDGoto(0, 0);
  7271  00E7  01F7               	clrf	i1LCDGoto@ln
  7272  00E8  3000               	movlw	0
  7273  00E9  3184  2494  3180   	fcall	i1_LCDGoto
  7274  00EC                     i1l2379:
  7275                           
  7276                           ;menu.c: 72:             LCDPutStr("  Tie Fighter");
  7277  00EC  30EA               	movlw	low (STR_8| (0+32768))
  7278  00ED  00F7               	movwf	i1LCDPutStr@str
  7279  00EE  3086               	movlw	high (STR_8| (0+32768))
  7280  00EF  00F8               	movwf	i1LCDPutStr@str+1
  7281  00F0  3184  24BB  3180   	fcall	i1_LCDPutStr
  7282  00F3                     i1l2381:
  7283                           
  7284                           ;menu.c: 73:             LCDGoto(0, 1);
  7285  00F3  01F7               	clrf	i1LCDGoto@ln
  7286  00F4  0AF7               	incf	i1LCDGoto@ln,f
  7287  00F5  3000               	movlw	0
  7288  00F6  3184  2494  3180   	fcall	i1_LCDGoto
  7289                           
  7290                           ;menu.c: 74:             LCDPutStr("> X wing");
  7291  00F9  3027               	movlw	low (STR_9| (0+32768))
  7292  00FA  00F7               	movwf	i1LCDPutStr@str
  7293  00FB  3087               	movlw	high (STR_9| (0+32768))
  7294  00FC  00F8               	movwf	i1LCDPutStr@str+1
  7295  00FD  3184  24BB  3180   	fcall	i1_LCDPutStr
  7296                           
  7297                           ;menu.c: 75:         break;
  7298  0100  294C               	goto	i1l423
  7299  0101                     i1l2383:
  7300                           
  7301                           ;menu.c: 77:             LCDGoto(0, 0);
  7302  0101  01F7               	clrf	i1LCDGoto@ln
  7303  0102  3000               	movlw	0
  7304  0103  3184  2494  3180   	fcall	i1_LCDGoto
  7305  0106                     i1l2385:
  7306                           
  7307                           ;menu.c: 78:             LCDPutStr("Select ship#2");
  7308  0106  30DC               	movlw	low (STR_10| (0+32768))
  7309  0107  00F7               	movwf	i1LCDPutStr@str
  7310  0108  3086               	movlw	high (STR_10| (0+32768))
  7311  0109  00F8               	movwf	i1LCDPutStr@str+1
  7312  010A  3184  24BB  3180   	fcall	i1_LCDPutStr
  7313  010D                     i1l2387:
  7314                           
  7315                           ;menu.c: 79:             LCDGoto(0, 1);
  7316  010D  01F7               	clrf	i1LCDGoto@ln
  7317  010E  0AF7               	incf	i1LCDGoto@ln,f
  7318  010F  3000               	movlw	0
  7319  0110  3184  2494  3180   	fcall	i1_LCDGoto
  7320                           
  7321                           ;menu.c: 80:             LCDPutStr("> Tie Fighter");
  7322  0113  30F8               	movlw	low (STR_7| (0+32768))
  7323  0114  00F7               	movwf	i1LCDPutStr@str
  7324  0115  3086               	movlw	high (STR_7| (0+32768))
  7325  0116  00F8               	movwf	i1LCDPutStr@str+1
  7326  0117  3184  24BB  3180   	fcall	i1_LCDPutStr
  7327                           
  7328                           ;menu.c: 81:         break;
  7329  011A  294C               	goto	i1l423
  7330  011B                     i1l2389:
  7331                           
  7332                           ;menu.c: 83:             LCDGoto(0, 0);
  7333  011B  01F7               	clrf	i1LCDGoto@ln
  7334  011C  3000               	movlw	0
  7335  011D  3184  2494  3180   	fcall	i1_LCDGoto
  7336  0120                     i1l2391:
  7337                           
  7338                           ;menu.c: 84:             LCDPutStr("  Tie Fighter");
  7339  0120  30EA               	movlw	low (STR_8| (0+32768))
  7340  0121  00F7               	movwf	i1LCDPutStr@str
  7341  0122  3086               	movlw	high (STR_8| (0+32768))
  7342  0123  00F8               	movwf	i1LCDPutStr@str+1
  7343  0124  3184  24BB  3180   	fcall	i1_LCDPutStr
  7344  0127                     i1l2393:
  7345                           
  7346                           ;menu.c: 85:             LCDGoto(0, 1);
  7347  0127  01F7               	clrf	i1LCDGoto@ln
  7348  0128  0AF7               	incf	i1LCDGoto@ln,f
  7349  0129  3000               	movlw	0
  7350  012A  3184  2494  3180   	fcall	i1_LCDGoto
  7351                           
  7352                           ;menu.c: 86:             LCDPutStr("> X wing");
  7353  012D  3027               	movlw	low (STR_9| (0+32768))
  7354  012E  00F7               	movwf	i1LCDPutStr@str
  7355  012F  3087               	movlw	high (STR_9| (0+32768))
  7356  0130  00F8               	movwf	i1LCDPutStr@str+1
  7357  0131  3184  24BB  3180   	fcall	i1_LCDPutStr
  7358                           
  7359                           ;menu.c: 87:         break;
  7360  0134  294C               	goto	i1l423
  7361  0135                     i1l2397:
  7362  0135  0020               	movlb	0	; select bank0
  7363  0136  0846               	movf	_mainState,w
  7364  0137  00A0               	movwf	??i1_mainMenu
  7365  0138  01A1               	clrf	??i1_mainMenu+1
  7366                           
  7367                           ; Switch on 2 bytes has been partitioned into a top level switch of size 1, and 1 sub-sw
      +                          itches
  7368                           ; Switch size 1, requested type "simple"
  7369                           ; Number of cases is 1, Range of values is 0 to 0
  7370                           ; switch strategies available:
  7371                           ; Name         Instructions Cycles
  7372                           ; simple_byte            4     3 (average)
  7373                           ; direct_byte            8     6 (fixed)
  7374                           ; jumptable            260     6 (fixed)
  7375                           ;	Chosen strategy is simple_byte
  7376  0139  0821               	movf	??i1_mainMenu+1,w
  7377  013A  3A00               	xorlw	0	; case 0
  7378  013B  1903               	skipnz
  7379  013C  293E               	goto	i1l3065
  7380  013D  294C               	goto	i1l423
  7381  013E                     i1l3065:
  7382                           
  7383                           ; Switch size 1, requested type "simple"
  7384                           ; Number of cases is 4, Range of values is 0 to 3
  7385                           ; switch strategies available:
  7386                           ; Name         Instructions Cycles
  7387                           ; simple_byte           13     7 (average)
  7388                           ; direct_byte           14     6 (fixed)
  7389                           ; jumptable            260     6 (fixed)
  7390                           ;	Chosen strategy is simple_byte
  7391  013E  0820               	movf	??i1_mainMenu,w
  7392  013F  3A00               	xorlw	0	; case 0
  7393  0140  1903               	skipnz
  7394  0141  28CD               	goto	i1l2371
  7395  0142  3A01               	xorlw	1	; case 1
  7396  0143  1903               	skipnz
  7397  0144  28E7               	goto	i1l2377
  7398  0145  3A03               	xorlw	3	; case 2
  7399  0146  1903               	skipnz
  7400  0147  2901               	goto	i1l2383
  7401  0148  3A01               	xorlw	1	; case 3
  7402  0149  1903               	skipnz
  7403  014A  291B               	goto	i1l2389
  7404  014B  294C               	goto	i1l423
  7405  014C                     i1l423:
  7406  014C  0008               	return
  7407  014D                     __end_ofi1_mainMenu:
  7408                           
  7409                           	psect	text43
  7410  063C                     __ptext43:	
  7411 ;; *************** function i1_cleanMenu *****************
  7412 ;; Defined at:
  7413 ;;		line 93 in file "menu.c"
  7414 ;; Parameters:    Size  Location     Type
  7415 ;;		None
  7416 ;; Auto vars:     Size  Location     Type
  7417 ;;		None
  7418 ;; Return value:  Size  Location     Type
  7419 ;;                  1    wreg      void 
  7420 ;; Registers used:
  7421 ;;		wreg, fsr0l, fsr0h, status,2, status,0, pclath, cstack
  7422 ;; Tracked objects:
  7423 ;;		On entry : 0/0
  7424 ;;		On exit  : 0/0
  7425 ;;		Unchanged: 0/0
  7426 ;; Data sizes:     COMMON   BANK0   BANK1   BANK2   BANK3   BANK4   BANK5   BANK6   BANK7   BANK8   BANK9  BANK10  BANK1
      +1  BANK12  BANK13  BANK14  BANK15  BANK16  BANK17  BANK18  BANK19  BANK20  BANK21  BANK22  BANK23  BANK24  BANK25
  7427 ;;      Params:         0       0       0       0       0       0       0       0       0       0       0       0       
      +0       0       0       0       0       0       0       0       0       0       0       0       0       0       0
  7428 ;;      Locals:         0       0       0       0       0       0       0       0       0       0       0       0       
      +0       0       0       0       0       0       0       0       0       0       0       0       0       0       0
  7429 ;;      Temps:          0       0       0       0       0       0       0       0       0       0       0       0       
      +0       0       0       0       0       0       0       0       0       0       0       0       0       0       0
  7430 ;;      Totals:         0       0       0       0       0       0       0       0       0       0       0       0       
      +0       0       0       0       0       0       0       0       0       0       0       0       0       0       0
  7431 ;;Total ram usage:        0 bytes
  7432 ;; Hardware stack levels used:    1
  7433 ;; Hardware stack levels required when called:    3
  7434 ;; This function calls:
  7435 ;;		i1_LCDGoto
  7436 ;;		i1_LCDPutStr
  7437 ;; This function is called by:
  7438 ;;		i1_printMenu
  7439 ;; This function uses a non-reentrant model
  7440 ;;
  7441                           
  7442                           
  7443                           ;psect for function i1_cleanMenu
  7444  063C                     i1_cleanMenu:
  7445  063C                     i1l1675:	
  7446                           ;incstack = 0
  7447                           ; Regs used in i1_cleanMenu: [wreg-fsr0h+status,2+status,0+pclath+cstack]
  7448                           
  7449                           
  7450                           ;menu.c: 104:         LCDGoto(lcdOffset, 0);
  7451  063C  01F7               	clrf	i1LCDGoto@ln
  7452  063D  0020               	movlb	0	; select bank0
  7453  063E  084A               	movf	_lcdOffset,w
  7454  063F  3184  2494  3186   	fcall	i1_LCDGoto
  7455  0642                     i1l1677:
  7456                           
  7457                           ;menu.c: 105:         LCDPutStr("           ");
  7458  0642  3091               	movlw	low ((STR_1+5)| (0+32768))
  7459  0643  00F7               	movwf	i1LCDPutStr@str
  7460  0644  3086               	movlw	high ((STR_1+5)| (0+32768))
  7461  0645  00F8               	movwf	i1LCDPutStr@str+1
  7462  0646  3184  24BB  3186   	fcall	i1_LCDPutStr
  7463  0649                     i1l1679:
  7464                           
  7465                           ;menu.c: 106:         LCDGoto(lcdOffset, 1);
  7466  0649  01F7               	clrf	i1LCDGoto@ln
  7467  064A  0AF7               	incf	i1LCDGoto@ln,f
  7468  064B  0020               	movlb	0	; select bank0
  7469  064C  084A               	movf	_lcdOffset,w
  7470  064D  3184  2494  3186   	fcall	i1_LCDGoto
  7471                           
  7472                           ;menu.c: 107:         LCDPutStr("           ");
  7473  0650  3091               	movlw	low ((STR_1+5)| (0+32768))
  7474  0651  00F7               	movwf	i1LCDPutStr@str
  7475  0652  3086               	movlw	high ((STR_1+5)| (0+32768))
  7476  0653  00F8               	movwf	i1LCDPutStr@str+1
  7477  0654  3184  24BB  3186   	fcall	i1_LCDPutStr
  7478  0657                     i1l426:
  7479  0657  0008               	return
  7480  0658                     __end_ofi1_cleanMenu:
  7481                           
  7482                           	psect	text44
  7483  0672                     __ptext44:	
  7484 ;; *************** function i1_cleanFullMenu *****************
  7485 ;; Defined at:
  7486 ;;		line 134 in file "menu.c"
  7487 ;; Parameters:    Size  Location     Type
  7488 ;;		None
  7489 ;; Auto vars:     Size  Location     Type
  7490 ;;		None
  7491 ;; Return value:  Size  Location     Type
  7492 ;;                  1    wreg      void 
  7493 ;; Registers used:
  7494 ;;		wreg, fsr0l, fsr0h, status,2, status,0, pclath, cstack
  7495 ;; Tracked objects:
  7496 ;;		On entry : 0/0
  7497 ;;		On exit  : 0/0
  7498 ;;		Unchanged: 0/0
  7499 ;; Data sizes:     COMMON   BANK0   BANK1   BANK2   BANK3   BANK4   BANK5   BANK6   BANK7   BANK8   BANK9  BANK10  BANK1
      +1  BANK12  BANK13  BANK14  BANK15  BANK16  BANK17  BANK18  BANK19  BANK20  BANK21  BANK22  BANK23  BANK24  BANK25
  7500 ;;      Params:         0       0       0       0       0       0       0       0       0       0       0       0       
      +0       0       0       0       0       0       0       0       0       0       0       0       0       0       0
  7501 ;;      Locals:         0       0       0       0       0       0       0       0       0       0       0       0       
      +0       0       0       0       0       0       0       0       0       0       0       0       0       0       0
  7502 ;;      Temps:          0       0       0       0       0       0       0       0       0       0       0       0       
      +0       0       0       0       0       0       0       0       0       0       0       0       0       0       0
  7503 ;;      Totals:         0       0       0       0       0       0       0       0       0       0       0       0       
      +0       0       0       0       0       0       0       0       0       0       0       0       0       0       0
  7504 ;;Total ram usage:        0 bytes
  7505 ;; Hardware stack levels used:    1
  7506 ;; Hardware stack levels required when called:    3
  7507 ;; This function calls:
  7508 ;;		i1_LCDGoto
  7509 ;;		i1_LCDPutStr
  7510 ;; This function is called by:
  7511 ;;		_startFight
  7512 ;;		i1_printMenu
  7513 ;; This function uses a non-reentrant model
  7514 ;;
  7515                           
  7516                           
  7517                           ;psect for function i1_cleanFullMenu
  7518  0672                     i1_cleanFullMenu:
  7519  0672                     i1l1681:	
  7520                           ;incstack = 0
  7521                           ; Regs used in i1_cleanFullMenu: [wreg-fsr0h+status,2+status,0+pclath+cstack]
  7522                           
  7523                           
  7524                           ;menu.c: 144:         LCDGoto(0, 0);
  7525  0672  01F7               	clrf	i1LCDGoto@ln
  7526  0673  3000               	movlw	0
  7527  0674  3184  2494  3186   	fcall	i1_LCDGoto
  7528  0677                     i1l1683:
  7529                           
  7530                           ;menu.c: 145:         LCDPutStr("                ");
  7531  0677  308C               	movlw	low (STR_1| (0+32768))
  7532  0678  00F7               	movwf	i1LCDPutStr@str
  7533  0679  3086               	movlw	high (STR_1| (0+32768))
  7534  067A  00F8               	movwf	i1LCDPutStr@str+1
  7535  067B  3184  24BB  3186   	fcall	i1_LCDPutStr
  7536  067E                     i1l1685:
  7537                           
  7538                           ;menu.c: 146:         LCDGoto(0, 1);
  7539  067E  01F7               	clrf	i1LCDGoto@ln
  7540  067F  0AF7               	incf	i1LCDGoto@ln,f
  7541  0680  3000               	movlw	0
  7542  0681  3184  2494  3186   	fcall	i1_LCDGoto
  7543                           
  7544                           ;menu.c: 147:         LCDPutStr("                ");
  7545  0684  308C               	movlw	low (STR_1| (0+32768))
  7546  0685  00F7               	movwf	i1LCDPutStr@str
  7547  0686  3086               	movlw	high (STR_1| (0+32768))
  7548  0687  00F8               	movwf	i1LCDPutStr@str+1
  7549  0688  3184  24BB  3186   	fcall	i1_LCDPutStr
  7550  068B                     i1l432:
  7551  068B  0008               	return
  7552  068C                     __end_ofi1_cleanFullMenu:
  7553                           
  7554                           	psect	text45
  7555  04BB                     __ptext45:	
  7556 ;; *************** function i1_LCDPutStr *****************
  7557 ;; Defined at:
  7558 ;;		line 131 in file "lcd.c"
  7559 ;; Parameters:    Size  Location     Type
  7560 ;;  str             2    7[COMMON] PTR const unsigned char 
  7561 ;;		 -> STR_18(17), STR_17(17), STR_16(12), STR_15(12), 
  7562 ;;		 -> STR_14(12), STR_13(9), STR_12(14), STR_11(14), 
  7563 ;;		 -> STR_10(14), STR_9(9), STR_8(14), STR_7(14), 
  7564 ;;		 -> STR_6(14), STR_5(11), STR_4(2), STR_3(2), 
  7565 ;;		 -> STR_2(17), STR_1(17), 
  7566 ;; Auto vars:     Size  Location     Type
  7567 ;;  i               1   12[COMMON] unsigned char 
  7568 ;; Return value:  Size  Location     Type
  7569 ;;                  1    wreg      void 
  7570 ;; Registers used:
  7571 ;;		wreg, fsr0l, fsr0h, status,2, status,0, pclath, cstack
  7572 ;; Tracked objects:
  7573 ;;		On entry : 0/0
  7574 ;;		On exit  : 0/0
  7575 ;;		Unchanged: 0/0
  7576 ;; Data sizes:     COMMON   BANK0   BANK1   BANK2   BANK3   BANK4   BANK5   BANK6   BANK7   BANK8   BANK9  BANK10  BANK1
      +1  BANK12  BANK13  BANK14  BANK15  BANK16  BANK17  BANK18  BANK19  BANK20  BANK21  BANK22  BANK23  BANK24  BANK25
  7577 ;;      Params:         2       0       0       0       0       0       0       0       0       0       0       0       
      +0       0       0       0       0       0       0       0       0       0       0       0       0       0       0
  7578 ;;      Locals:         1       0       0       0       0       0       0       0       0       0       0       0       
      +0       0       0       0       0       0       0       0       0       0       0       0       0       0       0
  7579 ;;      Temps:          3       0       0       0       0       0       0       0       0       0       0       0       
      +0       0       0       0       0       0       0       0       0       0       0       0       0       0       0
  7580 ;;      Totals:         6       0       0       0       0       0       0       0       0       0       0       0       
      +0       0       0       0       0       0       0       0       0       0       0       0       0       0       0
  7581 ;;Total ram usage:        6 bytes
  7582 ;; Hardware stack levels used:    1
  7583 ;; Hardware stack levels required when called:    2
  7584 ;; This function calls:
  7585 ;;		i1_LCDPutChar
  7586 ;; This function is called by:
  7587 ;;		_LCDClear
  7588 ;;		_startFight
  7589 ;;		i1_printMenu
  7590 ;;		i1_mainMenu
  7591 ;;		i1_cleanMenu
  7592 ;;		i1_cleanFullMenu
  7593 ;; This function uses a non-reentrant model
  7594 ;;
  7595                           
  7596                           
  7597                           ;psect for function i1_LCDPutStr
  7598  04BB                     i1_LCDPutStr:
  7599  04BB                     i1l1599:	
  7600                           ;incstack = 0
  7601                           ; Regs used in i1_LCDPutStr: [wreg-fsr0h+status,2+status,0+pclath+cstack]
  7602                           
  7603                           
  7604                           ;lcd.c: 131: void LCDPutStr(const char *str);lcd.c: 132: {;lcd.c: 133:   uint8_t i = 0;
  7605  04BB  01FC               	clrf	i1LCDPutStr@i
  7606                           
  7607                           ;lcd.c: 136:   while (str[i])
  7608  04BC  2CD0               	goto	i1l1605
  7609  04BD                     i1l1601:
  7610                           
  7611                           ;lcd.c: 137:   {;lcd.c: 139:     LCDPutChar(str[i++]);
  7612  04BD  0878               	movf	i1LCDPutStr@str+1,w
  7613  04BE  00FA               	movwf	??i1_LCDPutStr+1
  7614  04BF  0877               	movf	i1LCDPutStr@str,w
  7615  04C0  00F9               	movwf	??i1_LCDPutStr
  7616  04C1  087C               	movf	i1LCDPutStr@i,w
  7617  04C2  0779               	addwf	??i1_LCDPutStr,w
  7618  04C3  0084               	movwf	4
  7619  04C4  087A               	movf	??i1_LCDPutStr+1,w
  7620  04C5  1803               	skipnc
  7621  04C6  0A7A               	incf	??i1_LCDPutStr+1,w
  7622  04C7  0085               	movwf	5
  7623  04C8  0800               	movf	0,w	;code access
  7624  04C9  3186  261F  3184   	fcall	i1_LCDPutChar
  7625  04CC                     i1l1603:
  7626  04CC  3001               	movlw	1
  7627  04CD  00F9               	movwf	??i1_LCDPutStr
  7628  04CE  0879               	movf	??i1_LCDPutStr,w
  7629  04CF  07FC               	addwf	i1LCDPutStr@i,f
  7630  04D0                     i1l1605:
  7631                           
  7632                           ;lcd.c: 136:   while (str[i])
  7633  04D0  0878               	movf	i1LCDPutStr@str+1,w
  7634  04D1  00FA               	movwf	??i1_LCDPutStr+1
  7635  04D2  0877               	movf	i1LCDPutStr@str,w
  7636  04D3  00F9               	movwf	??i1_LCDPutStr
  7637  04D4  087C               	movf	i1LCDPutStr@i,w
  7638  04D5  0779               	addwf	??i1_LCDPutStr,w
  7639  04D6  0084               	movwf	4
  7640  04D7  087A               	movf	??i1_LCDPutStr+1,w
  7641  04D8  1803               	skipnc
  7642  04D9  0A7A               	incf	??i1_LCDPutStr+1,w
  7643  04DA  0085               	movwf	5
  7644  04DB  0012               	moviw fsr0++
  7645  04DC  1D03               	btfss	3,2
  7646  04DD  2CDF               	goto	u46_21
  7647  04DE  2CE0               	goto	u46_20
  7648  04DF                     u46_21:
  7649  04DF  2CBD               	goto	i1l1601
  7650  04E0                     u46_20:
  7651  04E0                     i1l298:
  7652  04E0  0008               	return
  7653  04E1                     __end_ofi1_LCDPutStr:
  7654                           
  7655                           	psect	text46
  7656  061F                     __ptext46:	
  7657 ;; *************** function i1_LCDPutChar *****************
  7658 ;; Defined at:
  7659 ;;		line 101 in file "lcd.c"
  7660 ;; Parameters:    Size  Location     Type
  7661 ;;  ch              1    wreg     unsigned char 
  7662 ;; Auto vars:     Size  Location     Type
  7663 ;;  ch              1    6[COMMON] unsigned char 
  7664 ;; Return value:  Size  Location     Type
  7665 ;;                  1    wreg      void 
  7666 ;; Registers used:
  7667 ;;		wreg, status,2, status,0, pclath, cstack
  7668 ;; Tracked objects:
  7669 ;;		On entry : 0/0
  7670 ;;		On exit  : 0/0
  7671 ;;		Unchanged: 0/0
  7672 ;; Data sizes:     COMMON   BANK0   BANK1   BANK2   BANK3   BANK4   BANK5   BANK6   BANK7   BANK8   BANK9  BANK10  BANK1
      +1  BANK12  BANK13  BANK14  BANK15  BANK16  BANK17  BANK18  BANK19  BANK20  BANK21  BANK22  BANK23  BANK24  BANK25
  7673 ;;      Params:         0       0       0       0       0       0       0       0       0       0       0       0       
      +0       0       0       0       0       0       0       0       0       0       0       0       0       0       0
  7674 ;;      Locals:         1       0       0       0       0       0       0       0       0       0       0       0       
      +0       0       0       0       0       0       0       0       0       0       0       0       0       0       0
  7675 ;;      Temps:          2       0       0       0       0       0       0       0       0       0       0       0       
      +0       0       0       0       0       0       0       0       0       0       0       0       0       0       0
  7676 ;;      Totals:         3       0       0       0       0       0       0       0       0       0       0       0       
      +0       0       0       0       0       0       0       0       0       0       0       0       0       0       0
  7677 ;;Total ram usage:        3 bytes
  7678 ;; Hardware stack levels used:    1
  7679 ;; Hardware stack levels required when called:    1
  7680 ;; This function calls:
  7681 ;;		i1_LCDWriteNibble
  7682 ;; This function is called by:
  7683 ;;		_printShip
  7684 ;;		i1_LCDPutStr
  7685 ;; This function uses a non-reentrant model
  7686 ;;
  7687                           
  7688                           
  7689                           ;psect for function i1_LCDPutChar
  7690  061F                     i1_LCDPutChar:
  7691                           
  7692                           ;incstack = 0
  7693                           ; Regs used in i1_LCDPutChar: [wreg+status,2+status,0+pclath+cstack]
  7694                           ;i1LCDPutChar@ch stored from wreg
  7695  061F  00F6               	movwf	i1LCDPutChar@ch
  7696  0620                     i1l1581:
  7697                           
  7698                           ;lcd.c: 101: void LCDPutChar(uint8_t ch);lcd.c: 102: {;lcd.c: 103:   _delay((unsigned lo
      +                          ng)((5)*(500000/4000.0)));
  7699  0620  30D0               	movlw	208
  7700  0621                     u140_27:
  7701  0621  0B89               	decfsz	9,f
  7702  0622  2E21               	goto	u140_27
  7703  0623  0000               	nop
  7704  0624                     i1l1583:
  7705                           
  7706                           ;lcd.c: 106:   LCDWriteNibble(ch, 1);
  7707  0624  01F0               	clrf	i1LCDWriteNibble@rs
  7708  0625  0AF0               	incf	i1LCDWriteNibble@rs,f
  7709  0626  0876               	movf	i1LCDPutChar@ch,w
  7710  0627  3185  2567  3186   	fcall	i1_LCDWriteNibble
  7711  062A                     i1l1585:
  7712                           
  7713                           ;lcd.c: 109:   ch = (uint8_t)(ch << 4);
  7714  062A  0876               	movf	i1LCDPutChar@ch,w
  7715  062B  00F4               	movwf	??i1_LCDPutChar
  7716  062C  3003               	movlw	3
  7717  062D                     u44_25:
  7718  062D  35F4               	lslf	??i1_LCDPutChar,f
  7719  062E  3EFF               	addlw	-1
  7720  062F  1D03               	skipz
  7721  0630  2E2D               	goto	u44_25
  7722  0631  3574               	lslf	??i1_LCDPutChar,w
  7723  0632  00F5               	movwf	??i1_LCDPutChar+1
  7724  0633  0875               	movf	??i1_LCDPutChar+1,w
  7725  0634  00F6               	movwf	i1LCDPutChar@ch
  7726  0635                     i1l1587:
  7727                           
  7728                           ;lcd.c: 112:   LCDWriteNibble(ch, 1);
  7729  0635  01F0               	clrf	i1LCDWriteNibble@rs
  7730  0636  0AF0               	incf	i1LCDWriteNibble@rs,f
  7731  0637  0876               	movf	i1LCDPutChar@ch,w
  7732  0638  3185  2567  3186   	fcall	i1_LCDWriteNibble
  7733  063B                     i1l289:
  7734  063B  0008               	return
  7735  063C                     __end_ofi1_LCDPutChar:
  7736                           
  7737                           	psect	text47
  7738  0494                     __ptext47:	
  7739 ;; *************** function i1_LCDGoto *****************
  7740 ;; Defined at:
  7741 ;;		line 143 in file "lcd.c"
  7742 ;; Parameters:    Size  Location     Type
  7743 ;;  pos             1    wreg     unsigned char 
  7744 ;;  ln              1    7[COMMON] unsigned char 
  7745 ;; Auto vars:     Size  Location     Type
  7746 ;;  pos             1   10[COMMON] unsigned char 
  7747 ;; Return value:  Size  Location     Type
  7748 ;;                  1    wreg      void 
  7749 ;; Registers used:
  7750 ;;		wreg, status,2, status,0, pclath, cstack
  7751 ;; Tracked objects:
  7752 ;;		On entry : 0/0
  7753 ;;		On exit  : 0/0
  7754 ;;		Unchanged: 0/0
  7755 ;; Data sizes:     COMMON   BANK0   BANK1   BANK2   BANK3   BANK4   BANK5   BANK6   BANK7   BANK8   BANK9  BANK10  BANK1
      +1  BANK12  BANK13  BANK14  BANK15  BANK16  BANK17  BANK18  BANK19  BANK20  BANK21  BANK22  BANK23  BANK24  BANK25
  7756 ;;      Params:         1       0       0       0       0       0       0       0       0       0       0       0       
      +0       0       0       0       0       0       0       0       0       0       0       0       0       0       0
  7757 ;;      Locals:         3       0       0       0       0       0       0       0       0       0       0       0       
      +0       0       0       0       0       0       0       0       0       0       0       0       0       0       0
  7758 ;;      Temps:          0       0       0       0       0       0       0       0       0       0       0       0       
      +0       0       0       0       0       0       0       0       0       0       0       0       0       0       0
  7759 ;;      Totals:         4       0       0       0       0       0       0       0       0       0       0       0       
      +0       0       0       0       0       0       0       0       0       0       0       0       0       0       0
  7760 ;;Total ram usage:        4 bytes
  7761 ;; Hardware stack levels used:    1
  7762 ;; Hardware stack levels required when called:    2
  7763 ;; This function calls:
  7764 ;;		i1_LCDPutCmd
  7765 ;; This function is called by:
  7766 ;;		_LCDClear
  7767 ;;		_startFight
  7768 ;;		_printShip
  7769 ;;		i1_printMenu
  7770 ;;		i1_mainMenu
  7771 ;;		i1_cleanMenu
  7772 ;;		i1_cleanFullMenu
  7773 ;; This function uses a non-reentrant model
  7774 ;;
  7775                           
  7776                           
  7777                           ;psect for function i1_LCDGoto
  7778  0494                     i1_LCDGoto:
  7779                           
  7780                           ;incstack = 0
  7781                           ; Regs used in i1_LCDGoto: [wreg+status,2+status,0+pclath+cstack]
  7782                           ;i1LCDGoto@pos stored from wreg
  7783  0494  00FA               	movwf	i1LCDGoto@pos
  7784  0495                     i1l1607:
  7785                           
  7786                           ;lcd.c: 143: void LCDGoto(uint8_t pos, uint8_t ln);lcd.c: 144: {;lcd.c: 146:   if ((ln >
      +                           (2 - 1)) || (pos > (16 - 1)))
  7787  0495  3002               	movlw	2
  7788  0496  0277               	subwf	i1LCDGoto@ln,w
  7789  0497  1803               	skipnc
  7790  0498  2C9A               	goto	u47_21
  7791  0499  2C9B               	goto	u47_20
  7792  049A                     u47_21:
  7793  049A  2CBA               	goto	i1l304
  7794  049B                     u47_20:
  7795  049B                     i1l1609:
  7796  049B  3010               	movlw	16
  7797  049C  027A               	subwf	i1LCDGoto@pos,w
  7798  049D  1C03               	skipc
  7799  049E  2CA0               	goto	u48_21
  7800  049F  2CA1               	goto	u48_20
  7801  04A0                     u48_21:
  7802  04A0  2CA2               	goto	i1l1611
  7803  04A1                     u48_20:
  7804  04A1  2CBA               	goto	i1l304
  7805  04A2                     i1l1611:
  7806                           
  7807                           ;lcd.c: 153:   LCDPutCmd((ln == 1) ? (0xC0 | pos) : (0x80 | pos));
  7808  04A2  0377               	decf	i1LCDGoto@ln,w
  7809  04A3  1903               	btfsc	3,2
  7810  04A4  2CA6               	goto	u49_21
  7811  04A5  2CA7               	goto	u49_20
  7812  04A6                     u49_21:
  7813  04A6  2CAD               	goto	i1l1615
  7814  04A7                     u49_20:
  7815  04A7                     i1l1613:
  7816  04A7  3080               	movlw	128
  7817  04A8  047A               	iorwf	i1LCDGoto@pos,w
  7818  04A9  00F8               	movwf	i1_LCDGoto$485
  7819  04AA  3000               	movlw	0
  7820  04AB  00F9               	movwf	i1_LCDGoto$485+1
  7821  04AC  2CB2               	goto	i1l1617
  7822  04AD                     i1l1615:
  7823  04AD  30C0               	movlw	192
  7824  04AE  047A               	iorwf	i1LCDGoto@pos,w
  7825  04AF  00F8               	movwf	i1_LCDGoto$485
  7826  04B0  3000               	movlw	0
  7827  04B1  00F9               	movwf	i1_LCDGoto$485+1
  7828  04B2                     i1l1617:
  7829  04B2  0878               	movf	i1_LCDGoto$485,w
  7830  04B3  3185  25A6  3184   	fcall	i1_LCDPutCmd
  7831  04B6                     i1l1619:
  7832                           
  7833                           ;lcd.c: 156:   _delay((unsigned long)((5)*(500000/4000.0)));
  7834  04B6  30D0               	movlw	208
  7835  04B7                     u141_27:
  7836  04B7  0B89               	decfsz	9,f
  7837  04B8  2CB7               	goto	u141_27
  7838  04B9  0000               	nop
  7839  04BA                     i1l304:
  7840  04BA  0008               	return
  7841  04BB                     __end_ofi1_LCDGoto:
  7842                           
  7843                           	psect	text48
  7844  05A6                     __ptext48:	
  7845 ;; *************** function i1_LCDPutCmd *****************
  7846 ;; Defined at:
  7847 ;;		line 115 in file "lcd.c"
  7848 ;; Parameters:    Size  Location     Type
  7849 ;;  ch              1    wreg     unsigned char 
  7850 ;; Auto vars:     Size  Location     Type
  7851 ;;  ch              1    6[COMMON] unsigned char 
  7852 ;; Return value:  Size  Location     Type
  7853 ;;                  1    wreg      void 
  7854 ;; Registers used:
  7855 ;;		wreg, status,2, status,0, pclath, cstack
  7856 ;; Tracked objects:
  7857 ;;		On entry : 0/0
  7858 ;;		On exit  : 0/0
  7859 ;;		Unchanged: 0/0
  7860 ;; Data sizes:     COMMON   BANK0   BANK1   BANK2   BANK3   BANK4   BANK5   BANK6   BANK7   BANK8   BANK9  BANK10  BANK1
      +1  BANK12  BANK13  BANK14  BANK15  BANK16  BANK17  BANK18  BANK19  BANK20  BANK21  BANK22  BANK23  BANK24  BANK25
  7861 ;;      Params:         0       0       0       0       0       0       0       0       0       0       0       0       
      +0       0       0       0       0       0       0       0       0       0       0       0       0       0       0
  7862 ;;      Locals:         1       0       0       0       0       0       0       0       0       0       0       0       
      +0       0       0       0       0       0       0       0       0       0       0       0       0       0       0
  7863 ;;      Temps:          2       0       0       0       0       0       0       0       0       0       0       0       
      +0       0       0       0       0       0       0       0       0       0       0       0       0       0       0
  7864 ;;      Totals:         3       0       0       0       0       0       0       0       0       0       0       0       
      +0       0       0       0       0       0       0       0       0       0       0       0       0       0       0
  7865 ;;Total ram usage:        3 bytes
  7866 ;; Hardware stack levels used:    1
  7867 ;; Hardware stack levels required when called:    1
  7868 ;; This function calls:
  7869 ;;		i1_LCDWriteNibble
  7870 ;; This function is called by:
  7871 ;;		i1_LCDGoto
  7872 ;; This function uses a non-reentrant model
  7873 ;;
  7874                           
  7875                           
  7876                           ;psect for function i1_LCDPutCmd
  7877  05A6                     i1_LCDPutCmd:
  7878                           
  7879                           ;incstack = 0
  7880                           ; Regs used in i1_LCDPutCmd: [wreg+status,2+status,0+pclath+cstack]
  7881                           ;i1LCDPutCmd@ch stored from wreg
  7882  05A6  00F6               	movwf	i1LCDPutCmd@ch
  7883  05A7                     i1l1589:
  7884                           
  7885                           ;lcd.c: 115: void LCDPutCmd(uint8_t ch);lcd.c: 116: {;lcd.c: 117:   _delay((unsigned lon
      +                          g)((5)*(500000/4000.0)));
  7886  05A7  30D0               	movlw	208
  7887  05A8                     u142_27:
  7888  05A8  0B89               	decfsz	9,f
  7889  05A9  2DA8               	goto	u142_27
  7890  05AA  0000               	nop
  7891  05AB                     i1l1591:
  7892                           
  7893                           ;lcd.c: 120:   LCDWriteNibble(ch, 0);
  7894  05AB  01F0               	clrf	i1LCDWriteNibble@rs
  7895  05AC  0876               	movf	i1LCDPutCmd@ch,w
  7896  05AD  3185  2567  3185   	fcall	i1_LCDWriteNibble
  7897  05B0                     i1l1593:
  7898                           
  7899                           ;lcd.c: 123:   ch = (uint8_t)(ch << 4);
  7900  05B0  0876               	movf	i1LCDPutCmd@ch,w
  7901  05B1  00F4               	movwf	??i1_LCDPutCmd
  7902  05B2  3003               	movlw	3
  7903  05B3                     u45_25:
  7904  05B3  35F4               	lslf	??i1_LCDPutCmd,f
  7905  05B4  3EFF               	addlw	-1
  7906  05B5  1D03               	skipz
  7907  05B6  2DB3               	goto	u45_25
  7908  05B7  3574               	lslf	??i1_LCDPutCmd,w
  7909  05B8  00F5               	movwf	??i1_LCDPutCmd+1
  7910  05B9  0875               	movf	??i1_LCDPutCmd+1,w
  7911  05BA  00F6               	movwf	i1LCDPutCmd@ch
  7912  05BB                     i1l1595:
  7913                           
  7914                           ;lcd.c: 125:   _delay((unsigned long)((1)*(500000/4000.0)));
  7915  05BB  3029               	movlw	41
  7916  05BC                     u143_27:
  7917  05BC  0B89               	decfsz	9,f
  7918  05BD  2DBC               	goto	u143_27
  7919  05BE  3200               	nop2
  7920  05BF                     i1l1597:
  7921                           
  7922                           ;lcd.c: 128:   LCDWriteNibble(ch, 0);
  7923  05BF  01F0               	clrf	i1LCDWriteNibble@rs
  7924  05C0  0876               	movf	i1LCDPutCmd@ch,w
  7925  05C1  3185  2567  3185   	fcall	i1_LCDWriteNibble
  7926  05C4                     i1l292:
  7927  05C4  0008               	return
  7928  05C5                     __end_ofi1_LCDPutCmd:
  7929                           
  7930                           	psect	text49
  7931  0567                     __ptext49:	
  7932 ;; *************** function i1_LCDWriteNibble *****************
  7933 ;; Defined at:
  7934 ;;		line 74 in file "lcd.c"
  7935 ;; Parameters:    Size  Location     Type
  7936 ;;  ch              1    wreg     unsigned char 
  7937 ;;  rs              1    0[COMMON] unsigned char 
  7938 ;; Auto vars:     Size  Location     Type
  7939 ;;  ch              1    3[COMMON] unsigned char 
  7940 ;; Return value:  Size  Location     Type
  7941 ;;                  1    wreg      void 
  7942 ;; Registers used:
  7943 ;;		wreg, status,2, status,0
  7944 ;; Tracked objects:
  7945 ;;		On entry : 0/0
  7946 ;;		On exit  : 0/0
  7947 ;;		Unchanged: 0/0
  7948 ;; Data sizes:     COMMON   BANK0   BANK1   BANK2   BANK3   BANK4   BANK5   BANK6   BANK7   BANK8   BANK9  BANK10  BANK1
      +1  BANK12  BANK13  BANK14  BANK15  BANK16  BANK17  BANK18  BANK19  BANK20  BANK21  BANK22  BANK23  BANK24  BANK25
  7949 ;;      Params:         1       0       0       0       0       0       0       0       0       0       0       0       
      +0       0       0       0       0       0       0       0       0       0       0       0       0       0       0
  7950 ;;      Locals:         1       0       0       0       0       0       0       0       0       0       0       0       
      +0       0       0       0       0       0       0       0       0       0       0       0       0       0       0
  7951 ;;      Temps:          2       0       0       0       0       0       0       0       0       0       0       0       
      +0       0       0       0       0       0       0       0       0       0       0       0       0       0       0
  7952 ;;      Totals:         4       0       0       0       0       0       0       0       0       0       0       0       
      +0       0       0       0       0       0       0       0       0       0       0       0       0       0       0
  7953 ;;Total ram usage:        4 bytes
  7954 ;; Hardware stack levels used:    1
  7955 ;; This function calls:
  7956 ;;		Nothing
  7957 ;; This function is called by:
  7958 ;;		i1_LCDPutChar
  7959 ;;		i1_LCDPutCmd
  7960 ;; This function uses a non-reentrant model
  7961 ;;
  7962                           
  7963                           
  7964                           ;psect for function i1_LCDWriteNibble
  7965  0567                     i1_LCDWriteNibble:
  7966                           
  7967                           ;incstack = 0
  7968                           ; Regs used in i1_LCDWriteNibble: [wreg+status,2+status,0]
  7969                           ;i1LCDWriteNibble@ch stored from wreg
  7970  0567  00F3               	movwf	i1LCDWriteNibble@ch
  7971  0568                     i1l1567:
  7972                           
  7973                           ;lcd.c: 74: void LCDWriteNibble(uint8_t ch, uint8_t rs);lcd.c: 75: {;lcd.c: 77:   ch = (
      +                          ch >> 4);
  7974  0568  0873               	movf	i1LCDWriteNibble@ch,w
  7975  0569  00F1               	movwf	??i1_LCDWriteNibble
  7976  056A  3004               	movlw	4
  7977  056B                     u43_25:
  7978  056B  36F1               	lsrf	??i1_LCDWriteNibble,f
  7979  056C  0B89               	decfsz	9,f
  7980  056D  2D6B               	goto	u43_25
  7981  056E  0871               	movf	??i1_LCDWriteNibble,w
  7982  056F  00F2               	movwf	??i1_LCDWriteNibble+1
  7983  0570  0872               	movf	??i1_LCDWriteNibble+1,w
  7984  0571  00F3               	movwf	i1LCDWriteNibble@ch
  7985  0572                     i1l1569:
  7986                           
  7987                           ;lcd.c: 80:   ch = (ch & 0x0F);
  7988  0572  0873               	movf	i1LCDWriteNibble@ch,w
  7989  0573  390F               	andlw	15
  7990  0574  00F1               	movwf	??i1_LCDWriteNibble
  7991  0575  0871               	movf	??i1_LCDWriteNibble,w
  7992  0576  00F3               	movwf	i1LCDWriteNibble@ch
  7993  0577                     i1l1571:
  7994                           
  7995                           ;lcd.c: 83:   PORTB = (PORTB & 0xF0);
  7996  0577  0020               	movlb	0	; select bank0
  7997  0578  080D               	movf	13,w	;volatile
  7998  0579  39F0               	andlw	240
  7999  057A  008D               	movwf	13	;volatile
  8000                           
  8001                           ;lcd.c: 86:   PORTB = (PORTB | ch);
  8002  057B  080D               	movf	13,w	;volatile
  8003  057C  0473               	iorwf	i1LCDWriteNibble@ch,w
  8004  057D  008D               	movwf	13	;volatile
  8005  057E                     i1l1573:
  8006                           
  8007                           ;lcd.c: 89:   PORTBbits.RB5 = rs;
  8008  057E  0C70               	rrf	i1LCDWriteNibble@rs,w
  8009  057F  1C03               	skipc
  8010  0580  128D               	bcf	13,5	;volatile
  8011  0581  1803               	skipnc
  8012  0582  168D               	bsf	13,5	;volatile
  8013  0583                     i1l1575:
  8014                           
  8015                           ;lcd.c: 92:   PORTBbits.RB6 = 0;
  8016  0583  130D               	bcf	13,6	;volatile
  8017  0584                     i1l1577:
  8018                           
  8019                           ;lcd.c: 95:   PORTBbits.RB4 = 1;
  8020  0584  160D               	bsf	13,4	;volatile
  8021  0585                     i1l1579:
  8022                           
  8023                           ;lcd.c: 98:   PORTBbits.RB4 = 0;
  8024  0585  120D               	bcf	13,4	;volatile
  8025  0586                     i1l286:
  8026  0586  0008               	return
  8027  0587                     __end_ofi1_LCDWriteNibble:
  8028                           
  8029                           	psect	text50
  8030  076D                     __ptext50:	
  8031 ;; *************** function _IOCAF0_DefaultInterruptHandler *****************
  8032 ;; Defined at:
  8033 ;;		line 251 in file "mcc_generated_files/pin_manager.c"
  8034 ;; Parameters:    Size  Location     Type
  8035 ;;		None
  8036 ;; Auto vars:     Size  Location     Type
  8037 ;;		None
  8038 ;; Return value:  Size  Location     Type
  8039 ;;                  1    wreg      void 
  8040 ;; Registers used:
  8041 ;;		None
  8042 ;; Tracked objects:
  8043 ;;		On entry : 0/0
  8044 ;;		On exit  : 0/0
  8045 ;;		Unchanged: 0/0
  8046 ;; Data sizes:     COMMON   BANK0   BANK1   BANK2   BANK3   BANK4   BANK5   BANK6   BANK7   BANK8   BANK9  BANK10  BANK1
      +1  BANK12  BANK13  BANK14  BANK15  BANK16  BANK17  BANK18  BANK19  BANK20  BANK21  BANK22  BANK23  BANK24  BANK25
  8047 ;;      Params:         0       0       0       0       0       0       0       0       0       0       0       0       
      +0       0       0       0       0       0       0       0       0       0       0       0       0       0       0
  8048 ;;      Locals:         0       0       0       0       0       0       0       0       0       0       0       0       
      +0       0       0       0       0       0       0       0       0       0       0       0       0       0       0
  8049 ;;      Temps:          0       0       0       0       0       0       0       0       0       0       0       0       
      +0       0       0       0       0       0       0       0       0       0       0       0       0       0       0
  8050 ;;      Totals:         0       0       0       0       0       0       0       0       0       0       0       0       
      +0       0       0       0       0       0       0       0       0       0       0       0       0       0       0
  8051 ;;Total ram usage:        0 bytes
  8052 ;; Hardware stack levels used:    1
  8053 ;; This function calls:
  8054 ;;		Nothing
  8055 ;; This function is called by:
  8056 ;;		_PIN_MANAGER_Initialize
  8057 ;;		_IOCAF0_ISR
  8058 ;; This function uses a non-reentrant model
  8059 ;;
  8060                           
  8061                           
  8062                           ;psect for function _IOCAF0_DefaultInterruptHandler
  8063  076D                     _IOCAF0_DefaultInterruptHandler:
  8064  076D                     i1l151:	
  8065                           ;incstack = 0
  8066                           ; Regs used in _IOCAF0_DefaultInterruptHandler: []
  8067                           
  8068  076D  0008               	return
  8069  076E                     __end_of_IOCAF0_DefaultInterruptHandler:
  8070  007E                     btemp	set	126	;btemp
  8071  007E                     int$flags	set	126
  8072  007E                     wtemp0	set	126
  8073                           
  8074                           	psect	config
  8075                           
  8076                           ;Config register CONFIG1 @ 0x8007
  8077                           ;	Oscillator Selection Bits
  8078                           ;	FOSC = INTOSC, INTOSC oscillator: I/O function on CLKIN pin
  8079                           ;	Watchdog Timer Enable
  8080                           ;	WDTE = OFF, WDT disabled
  8081                           ;	Power-up Timer Enable
  8082                           ;	PWRTE = OFF, PWRT disabled
  8083                           ;	MCLR Pin Function Select
  8084                           ;	MCLRE = ON, MCLR/VPP pin function is MCLR
  8085                           ;	Flash Program Memory Code Protection
  8086                           ;	CP = OFF, Program memory code protection is disabled
  8087                           ;	Brown-out Reset Enable
  8088                           ;	BOREN = ON, Brown-out Reset enabled
  8089                           ;	Clock Out Enable
  8090                           ;	CLKOUTEN = OFF, CLKOUT function is disabled. I/O or oscillator function on the CLKOUT 
      +                          pin
  8091                           ;	Internal/External Switchover Mode
  8092                           ;	IESO = ON, Internal/External Switchover Mode is enabled
  8093                           ;	Fail-Safe Clock Monitor Enable
  8094                           ;	FCMEN = ON, Fail-Safe Clock Monitor is enabled
  8095  8007                     	org	32775
  8096  8007  3FE4               	dw	16356
  8097                           
  8098                           ;Config register CONFIG2 @ 0x8008
  8099                           ;	Flash Memory Self-Write Protection
  8100                           ;	WRT = OFF, Write protection off
  8101                           ;	Peripheral Pin Select one-way control
  8102                           ;	PPS1WAY = ON, The PPSLOCK bit cannot be cleared once it is set by software
  8103                           ;	Zero-cross detect disable
  8104                           ;	ZCDDIS = ON, Zero-cross detect circuit is disabled at POR and can be enabled with ZCDS
      +                          EN bit.
  8105                           ;	Phase Lock Loop enable
  8106                           ;	PLLEN = ON, 4x PLL is always enabled
  8107                           ;	Stack Overflow/Underflow Reset Enable
  8108                           ;	STVREN = ON, Stack Overflow or Underflow will cause a Reset
  8109                           ;	Brown-out Reset Voltage Selection
  8110                           ;	BORV = LO, Brown-out Reset Voltage (Vbor), low trip point selected.
  8111                           ;	Low-Power Brown Out Reset
  8112                           ;	LPBOR = OFF, Low-Power BOR is disabled
  8113                           ;	Low-Voltage Programming Enable
  8114                           ;	LVP = OFF, High-voltage on MCLR/VPP must be used for programming
  8115  8008                     	org	32776
  8116  8008  1FFF               	dw	8191

Data Sizes:
    Strings     105
    Constant    0
    Data        43
    BSS         6
    Persistent  44
    Stack       0

Auto Spaces:
    Space          Size  Autos    Used
    COMMON           14     14      14
    BANK0            80     22      43
    BANK1            80     40      80
    BANK2            80      0       0
    BANK3            80      0       0
    BANK4            80      0       0
    BANK5            80      0       0
    BANK6            80      0       0
    BANK7            80      0       0
    BANK8            80      0       0
    BANK9            80      0       0
    BANK10           80      0       0
    BANK11           80      0       0
    BANK12           80      0       0
    BANK13           80      0       0
    BANK14           80      0       0
    BANK15           80      0       0
    BANK16           80      0       0
    BANK17           80      0       0
    BANK18           80      0       0
    BANK19           80      0       0
    BANK20           80      0       0
    BANK21           80      0       0
    BANK22           80      0       0
    BANK23           80      0       0
    BANK24           80      0       0
    BANK25           32      0       0

Pointer List with Targets:

    createCustomCharacter@Pattern	PTR unsigned char  size(1) Largest target is 8
		 -> main@Pattern5(BANK1[8]), main@Pattern4(BANK1[8]), main@Pattern3(BANK1[8]), main@Pattern2(BANK1[8]), 
		 -> main@Pattern1(BANK1[8]), 

    LCDPutStr@str	PTR const unsigned char  size(2) Largest target is 17
		 -> STR_18(CODE[17]), STR_17(CODE[17]), STR_16(CODE[12]), STR_15(CODE[12]), 
		 -> STR_14(CODE[12]), STR_13(CODE[9]), STR_12(CODE[14]), STR_11(CODE[14]), 
		 -> STR_10(CODE[14]), STR_9(CODE[9]), STR_8(CODE[14]), STR_7(CODE[14]), 
		 -> STR_6(CODE[14]), STR_5(CODE[11]), STR_4(CODE[2]), STR_3(CODE[2]), 
		 -> STR_2(CODE[17]), STR_1(CODE[17]), 

    IOCAF5_SetInterruptHandler@InterruptHandler	PTR FTN()void  size(2) Largest target is 1
		 -> IOCAF5_DefaultInterruptHandler(), 

    IOCAF5_InterruptHandler	PTR FTN()void  size(2) Largest target is 1
		 -> Absolute function(), IOCAF5_DefaultInterruptHandler(), 

    IOCAF4_SetInterruptHandler@InterruptHandler	PTR FTN()void  size(2) Largest target is 1
		 -> IOCAF4_DefaultInterruptHandler(), 

    IOCAF4_InterruptHandler	PTR FTN()void  size(2) Largest target is 1
		 -> Absolute function(), IOCAF4_DefaultInterruptHandler(), 

    IOCAF3_SetInterruptHandler@InterruptHandler	PTR FTN()void  size(2) Largest target is 1
		 -> IOCAF3_DefaultInterruptHandler(), 

    IOCAF3_InterruptHandler	PTR FTN()void  size(2) Largest target is 1
		 -> Absolute function(), IOCAF3_DefaultInterruptHandler(), 

    IOCAF2_SetInterruptHandler@InterruptHandler	PTR FTN()void  size(2) Largest target is 1
		 -> IOCAF2_DefaultInterruptHandler(), 

    IOCAF2_InterruptHandler	PTR FTN()void  size(2) Largest target is 1
		 -> Absolute function(), IOCAF2_DefaultInterruptHandler(), 

    IOCAF1_SetInterruptHandler@InterruptHandler	PTR FTN()void  size(2) Largest target is 1
		 -> IOCAF1_DefaultInterruptHandler(), 

    IOCAF1_InterruptHandler	PTR FTN()void  size(2) Largest target is 1
		 -> Absolute function(), IOCAF1_DefaultInterruptHandler(), 

    IOCAF0_SetInterruptHandler@InterruptHandler	PTR FTN()void  size(2) Largest target is 1
		 -> IOCAF0_DefaultInterruptHandler(), 

    IOCAF0_InterruptHandler	PTR FTN()void  size(2) Largest target is 1
		 -> Absolute function(), IOCAF0_DefaultInterruptHandler(), 


Critical Paths under _main in COMMON

    None.

Critical Paths under _INTERRUPT_InterruptManager in COMMON

    _startFight->i1_LCDPutStr
    _LCDClear->i1_LCDPutStr
    i1_printMenu->i1_LCDPutStr
    i1_mainMenu->i1_LCDPutStr
    i1_cleanMenu->i1_LCDPutStr
    i1_cleanFullMenu->i1_LCDPutStr
    i1_LCDPutStr->i1_LCDPutChar
    i1_LCDPutChar->i1_LCDWriteNibble
    i1_LCDGoto->i1_LCDPutCmd
    i1_LCDPutCmd->i1_LCDWriteNibble

Critical Paths under _main in BANK0

    _printMenu->_mainMenu
    _mainMenu->_LCDPutStr
    _cleanMenu->_LCDPutStr
    _cleanFullMenu->_LCDPutStr
    _LCDPutStr->_LCDPutChar
    _LCDGoto->_LCDPutCmd
    _createCustomCharacter->_LCDPutChar
    _createCustomCharacter->_LCDPutCmd
    _LCDPutChar->_LCDWriteNibble
    _PIN_MANAGER_Initialize->_IOCAF0_SetInterruptHandler
    _PIN_MANAGER_Initialize->_IOCAF1_SetInterruptHandler
    _PIN_MANAGER_Initialize->_IOCAF2_SetInterruptHandler
    _PIN_MANAGER_Initialize->_IOCAF3_SetInterruptHandler
    _PIN_MANAGER_Initialize->_IOCAF4_SetInterruptHandler
    _PIN_MANAGER_Initialize->_IOCAF5_SetInterruptHandler
    _LCD_Initialize->_LCDPutCmd
    _LCDPutCmd->_LCDWriteNibble

Critical Paths under _INTERRUPT_InterruptManager in BANK0

    _PIN_MANAGER_IOC->_IOCAF5_ISR
    _IOCAF5_ISR->_startFight
    i1_printMenu->i1_mainMenu

Critical Paths under _main in BANK1

    None.

Critical Paths under _INTERRUPT_InterruptManager in BANK1

    None.

Critical Paths under _main in BANK2

    None.

Critical Paths under _INTERRUPT_InterruptManager in BANK2

    None.

Critical Paths under _main in BANK3

    None.

Critical Paths under _INTERRUPT_InterruptManager in BANK3

    None.

Critical Paths under _main in BANK4

    None.

Critical Paths under _INTERRUPT_InterruptManager in BANK4

    None.

Critical Paths under _main in BANK5

    None.

Critical Paths under _INTERRUPT_InterruptManager in BANK5

    None.

Critical Paths under _main in BANK6

    None.

Critical Paths under _INTERRUPT_InterruptManager in BANK6

    None.

Critical Paths under _main in BANK7

    None.

Critical Paths under _INTERRUPT_InterruptManager in BANK7

    None.

Critical Paths under _main in BANK8

    None.

Critical Paths under _INTERRUPT_InterruptManager in BANK8

    None.

Critical Paths under _main in BANK9

    None.

Critical Paths under _INTERRUPT_InterruptManager in BANK9

    None.

Critical Paths under _main in BANK10

    None.

Critical Paths under _INTERRUPT_InterruptManager in BANK10

    None.

Critical Paths under _main in BANK11

    None.

Critical Paths under _INTERRUPT_InterruptManager in BANK11

    None.

Critical Paths under _main in BANK12

    None.

Critical Paths under _INTERRUPT_InterruptManager in BANK12

    None.

Critical Paths under _main in BANK13

    None.

Critical Paths under _INTERRUPT_InterruptManager in BANK13

    None.

Critical Paths under _main in BANK14

    None.

Critical Paths under _INTERRUPT_InterruptManager in BANK14

    None.

Critical Paths under _main in BANK15

    None.

Critical Paths under _INTERRUPT_InterruptManager in BANK15

    None.

Critical Paths under _main in BANK16

    None.

Critical Paths under _INTERRUPT_InterruptManager in BANK16

    None.

Critical Paths under _main in BANK17

    None.

Critical Paths under _INTERRUPT_InterruptManager in BANK17

    None.

Critical Paths under _main in BANK18

    None.

Critical Paths under _INTERRUPT_InterruptManager in BANK18

    None.

Critical Paths under _main in BANK19

    None.

Critical Paths under _INTERRUPT_InterruptManager in BANK19

    None.

Critical Paths under _main in BANK20

    None.

Critical Paths under _INTERRUPT_InterruptManager in BANK20

    None.

Critical Paths under _main in BANK21

    None.

Critical Paths under _INTERRUPT_InterruptManager in BANK21

    None.

Critical Paths under _main in BANK22

    None.

Critical Paths under _INTERRUPT_InterruptManager in BANK22

    None.

Critical Paths under _main in BANK23

    None.

Critical Paths under _INTERRUPT_InterruptManager in BANK23

    None.

Critical Paths under _main in BANK24

    None.

Critical Paths under _INTERRUPT_InterruptManager in BANK24

    None.

Critical Paths under _main in BANK25

    None.

Critical Paths under _INTERRUPT_InterruptManager in BANK25

    None.

Call Graph Tables:

 ---------------------------------------------------------------------------------
 (Depth) Function   	        Calls       Base Space   Used Autos Params    Refs
 ---------------------------------------------------------------------------------
 (0) _main                                                41    41      0   23690
                                             21 BANK0      1     1      0
                                              0 BANK1     40    40      0
                     _LCD_Initialize
                  _SYSTEM_Initialize
              _createCustomCharacter
                      _disableButton
                          _printMenu
 ---------------------------------------------------------------------------------
 (1) _printMenu                                            0     0      0   20196
                            _LCDGoto
                          _LCDPutStr
                      _cleanFullMenu
                          _cleanMenu
                           _mainMenu
 ---------------------------------------------------------------------------------
 (2) _mainMenu                                             2     2      0    5049
                                             19 BANK0      2     2      0
                            _LCDGoto
                          _LCDPutStr
 ---------------------------------------------------------------------------------
 (2) _cleanMenu                                            0     0      0    5049
                            _LCDGoto
                          _LCDPutStr
 ---------------------------------------------------------------------------------
 (2) _cleanFullMenu                                        0     0      0    5049
                            _LCDGoto
                          _LCDPutStr
 ---------------------------------------------------------------------------------
 (3) _LCDPutStr                                            6     4      2    2231
                                             13 BANK0      6     4      2
                         _LCDPutChar
 ---------------------------------------------------------------------------------
 (3) _LCDGoto                                              4     3      1    2818
                                             13 BANK0      4     3      1
                          _LCDPutCmd
 ---------------------------------------------------------------------------------
 (1) _disableButton                                        1     1      0      31
                                              6 BANK0      1     1      0
 ---------------------------------------------------------------------------------
 (1) _createCustomCharacter                                5     4      1    1966
                                             13 BANK0      5     4      1
                         _LCDPutChar
                          _LCDPutCmd
 ---------------------------------------------------------------------------------
 (4) _LCDPutChar                                           3     3      0     586
                                             10 BANK0      3     3      0
                     _LCDWriteNibble
 ---------------------------------------------------------------------------------
 (1) _SYSTEM_Initialize                                    0     0      0     726
              _OSCILLATOR_Initialize
             _PIN_MANAGER_Initialize
                     _WDT_Initialize
 ---------------------------------------------------------------------------------
 (2) _WDT_Initialize                                       0     0      0       0
 ---------------------------------------------------------------------------------
 (2) _PIN_MANAGER_Initialize                               0     0      0     726
         _IOCAF0_SetInterruptHandler
         _IOCAF1_SetInterruptHandler
         _IOCAF2_SetInterruptHandler
         _IOCAF3_SetInterruptHandler
         _IOCAF4_SetInterruptHandler
         _IOCAF5_SetInterruptHandler
 ---------------------------------------------------------------------------------
 (3) _IOCAF5_SetInterruptHandler                           2     0      2     121
                                              6 BANK0      2     0      2
 ---------------------------------------------------------------------------------
 (3) _IOCAF4_SetInterruptHandler                           2     0      2     121
                                              6 BANK0      2     0      2
 ---------------------------------------------------------------------------------
 (3) _IOCAF3_SetInterruptHandler                           2     0      2     121
                                              6 BANK0      2     0      2
 ---------------------------------------------------------------------------------
 (3) _IOCAF2_SetInterruptHandler                           2     0      2     121
                                              6 BANK0      2     0      2
 ---------------------------------------------------------------------------------
 (3) _IOCAF1_SetInterruptHandler                           2     0      2     121
                                              6 BANK0      2     0      2
 ---------------------------------------------------------------------------------
 (3) _IOCAF0_SetInterruptHandler                           2     0      2     121
                                              6 BANK0      2     0      2
 ---------------------------------------------------------------------------------
 (2) _OSCILLATOR_Initialize                                0     0      0       0
 ---------------------------------------------------------------------------------
 (1) _LCD_Initialize                                       1     1      0     586
                                             13 BANK0      1     1      0
                          _LCDPutCmd
 ---------------------------------------------------------------------------------
 (4) _LCDPutCmd                                            3     3      0     586
                                             10 BANK0      3     3      0
                     _LCDWriteNibble
 ---------------------------------------------------------------------------------
 (5) _LCDWriteNibble                                       4     3      1     490
                                              6 BANK0      4     3      1
 ---------------------------------------------------------------------------------
 Estimated maximum stack depth 5
 ---------------------------------------------------------------------------------
 (Depth) Function   	        Calls       Base Space   Used Autos Params    Refs
 ---------------------------------------------------------------------------------
 (6) _INTERRUPT_InterruptManager                           1     1      0   45950
                                             13 COMMON     1     1      0
                    _PIN_MANAGER_IOC
 ---------------------------------------------------------------------------------
 (7) _PIN_MANAGER_IOC                                      0     0      0   45950
                         _IOCAF0_ISR
                         _IOCAF1_ISR
                         _IOCAF2_ISR
                         _IOCAF3_ISR
                         _IOCAF4_ISR
                         _IOCAF5_ISR
 ---------------------------------------------------------------------------------
 (8) _IOCAF5_ISR                                           2     2      0   12786
                                              4 BANK0      2     2      0
                   Absolute function *
     _IOCAF5_DefaultInterruptHandler *
                       _enableButton
                         _startFight
                    i1_disableButton
 ---------------------------------------------------------------------------------
 (9) _startFight                                           2     2      0   12742
                                              2 BANK0      2     2      0
                          _printShip
                          i1_LCDGoto
                        i1_LCDPutStr
                    i1_cleanFullMenu
                        i1_printMenu
 ---------------------------------------------------------------------------------
 (10) _printShip                                           0     0      0    2806
                           _LCDClear
                          i1_LCDGoto
                       i1_LCDPutChar
 ---------------------------------------------------------------------------------
 (11) _LCDClear                                            0     0      0    1656
                          i1_LCDGoto
                        i1_LCDPutStr
 ---------------------------------------------------------------------------------
 (9) _IOCAF5_DefaultInterruptHandler                       0     0      0       0
 ---------------------------------------------------------------------------------
 (8) _IOCAF4_ISR                                           2     2      0    6624
                                              2 BANK0      2     2      0
                   Absolute function *
     _IOCAF4_DefaultInterruptHandler *
                        i1_printMenu
 ---------------------------------------------------------------------------------
 (9) _IOCAF4_DefaultInterruptHandler                       0     0      0       0
 ---------------------------------------------------------------------------------
 (8) _IOCAF3_ISR                                           2     2      0    6624
                                              2 BANK0      2     2      0
                   Absolute function *
     _IOCAF3_DefaultInterruptHandler *
                        i1_printMenu
 ---------------------------------------------------------------------------------
 (9) _IOCAF3_DefaultInterruptHandler                       0     0      0       0
 ---------------------------------------------------------------------------------
 (8) _IOCAF2_ISR                                           2     2      0    6668
                                              2 BANK0      2     2      0
                   Absolute function *
     _IOCAF2_DefaultInterruptHandler *
                       _enableButton
                    i1_disableButton
                        i1_printMenu
 ---------------------------------------------------------------------------------
 (9) i1_disableButton                                      1     1      0      22
                                              0 COMMON     1     1      0
 ---------------------------------------------------------------------------------
 (9) _enableButton                                         1     1      0      22
                                              0 COMMON     1     1      0
 ---------------------------------------------------------------------------------
 (9) _IOCAF2_DefaultInterruptHandler                       0     0      0       0
 ---------------------------------------------------------------------------------
 (8) _IOCAF1_ISR                                           2     2      0    6624
                                              2 BANK0      2     2      0
                   Absolute function *
     _IOCAF1_DefaultInterruptHandler *
                        i1_printMenu
 ---------------------------------------------------------------------------------
 (9) _IOCAF1_DefaultInterruptHandler                       0     0      0       0
 ---------------------------------------------------------------------------------
 (8) _IOCAF0_ISR                                           2     2      0    6624
                                              2 BANK0      2     2      0
                   Absolute function *
     _IOCAF0_DefaultInterruptHandler *
                        i1_printMenu
 ---------------------------------------------------------------------------------
 (10) i1_printMenu                                         0     0      0    6624
                          i1_LCDGoto
                        i1_LCDPutStr
                    i1_cleanFullMenu
                        i1_cleanMenu
                         i1_mainMenu
 ---------------------------------------------------------------------------------
 (11) i1_mainMenu                                          2     2      0    1656
                                              0 BANK0      2     2      0
                          i1_LCDGoto
                        i1_LCDPutStr
 ---------------------------------------------------------------------------------
 (11) i1_cleanMenu                                         0     0      0    1656
                          i1_LCDGoto
                        i1_LCDPutStr
 ---------------------------------------------------------------------------------
 (11) i1_cleanFullMenu                                     0     0      0    1656
                          i1_LCDGoto
                        i1_LCDPutStr
 ---------------------------------------------------------------------------------
 (12) i1_LCDPutStr                                         6     4      2     767
                                              7 COMMON     6     4      2
                       i1_LCDPutChar
 ---------------------------------------------------------------------------------
 (13) i1_LCDPutChar                                        3     3      0     261
                                              4 COMMON     3     3      0
                   i1_LCDWriteNibble
 ---------------------------------------------------------------------------------
 (12) i1_LCDGoto                                           4     3      1     889
                                              7 COMMON     4     3      1
                        i1_LCDPutCmd
 ---------------------------------------------------------------------------------
 (13) i1_LCDPutCmd                                         3     3      0     261
                                              4 COMMON     3     3      0
                   i1_LCDWriteNibble
 ---------------------------------------------------------------------------------
 (14) i1_LCDWriteNibble                                    4     3      1     194
                                              0 COMMON     4     3      1
 ---------------------------------------------------------------------------------
 (9) _IOCAF0_DefaultInterruptHandler                       0     0      0       0
 ---------------------------------------------------------------------------------
 (9) Absolute function(Fake)                               0     0      0       0
 ---------------------------------------------------------------------------------
 Estimated maximum stack depth 14
 ---------------------------------------------------------------------------------

 Call Graph Graphs:

 _main (ROOT)
   _LCD_Initialize
     _LCDPutCmd
       _LCDWriteNibble
   _SYSTEM_Initialize
     _OSCILLATOR_Initialize
     _PIN_MANAGER_Initialize
       _IOCAF0_SetInterruptHandler
       _IOCAF1_SetInterruptHandler
       _IOCAF2_SetInterruptHandler
       _IOCAF3_SetInterruptHandler
       _IOCAF4_SetInterruptHandler
       _IOCAF5_SetInterruptHandler
     _WDT_Initialize
   _createCustomCharacter
     _LCDPutChar
       _LCDWriteNibble
     _LCDPutCmd
       _LCDWriteNibble
   _disableButton
   _printMenu
     _LCDGoto
       _LCDPutCmd
         _LCDWriteNibble
     _LCDPutStr
       _LCDPutChar
         _LCDWriteNibble
     _cleanFullMenu
       _LCDGoto
         _LCDPutCmd
           _LCDWriteNibble
       _LCDPutStr
         _LCDPutChar
           _LCDWriteNibble
     _cleanMenu
       _LCDGoto
         _LCDPutCmd
           _LCDWriteNibble
       _LCDPutStr
         _LCDPutChar
           _LCDWriteNibble
     _mainMenu
       _LCDGoto
         _LCDPutCmd
           _LCDWriteNibble
       _LCDPutStr
         _LCDPutChar
           _LCDWriteNibble

 _INTERRUPT_InterruptManager (ROOT)
   _PIN_MANAGER_IOC
     _IOCAF0_ISR
       Absolute function(Fake) *
       _IOCAF0_DefaultInterruptHandler *
       i1_printMenu *
         i1_LCDGoto
           i1_LCDPutCmd
             i1_LCDWriteNibble
         i1_LCDPutStr
           i1_LCDPutChar
             i1_LCDWriteNibble
         i1_cleanFullMenu
           i1_LCDGoto
             i1_LCDPutCmd
               i1_LCDWriteNibble
           i1_LCDPutStr
             i1_LCDPutChar
               i1_LCDWriteNibble
         i1_cleanMenu
           i1_LCDGoto
             i1_LCDPutCmd
               i1_LCDWriteNibble
           i1_LCDPutStr
             i1_LCDPutChar
               i1_LCDWriteNibble
         i1_mainMenu
           i1_LCDGoto
             i1_LCDPutCmd
               i1_LCDWriteNibble
           i1_LCDPutStr
             i1_LCDPutChar
               i1_LCDWriteNibble
     _IOCAF1_ISR
       Absolute function(Fake) *
       _IOCAF1_DefaultInterruptHandler *
       i1_printMenu *
         i1_LCDGoto
           i1_LCDPutCmd
             i1_LCDWriteNibble
         i1_LCDPutStr
           i1_LCDPutChar
             i1_LCDWriteNibble
         i1_cleanFullMenu
           i1_LCDGoto
             i1_LCDPutCmd
               i1_LCDWriteNibble
           i1_LCDPutStr
             i1_LCDPutChar
               i1_LCDWriteNibble
         i1_cleanMenu
           i1_LCDGoto
             i1_LCDPutCmd
               i1_LCDWriteNibble
           i1_LCDPutStr
             i1_LCDPutChar
               i1_LCDWriteNibble
         i1_mainMenu
           i1_LCDGoto
             i1_LCDPutCmd
               i1_LCDWriteNibble
           i1_LCDPutStr
             i1_LCDPutChar
               i1_LCDWriteNibble
     _IOCAF2_ISR
       Absolute function(Fake) *
       _IOCAF2_DefaultInterruptHandler *
       _enableButton *
       i1_disableButton *
       i1_printMenu *
         i1_LCDGoto
           i1_LCDPutCmd
             i1_LCDWriteNibble
         i1_LCDPutStr
           i1_LCDPutChar
             i1_LCDWriteNibble
         i1_cleanFullMenu
           i1_LCDGoto
             i1_LCDPutCmd
               i1_LCDWriteNibble
           i1_LCDPutStr
             i1_LCDPutChar
               i1_LCDWriteNibble
         i1_cleanMenu
           i1_LCDGoto
             i1_LCDPutCmd
               i1_LCDWriteNibble
           i1_LCDPutStr
             i1_LCDPutChar
               i1_LCDWriteNibble
         i1_mainMenu
           i1_LCDGoto
             i1_LCDPutCmd
               i1_LCDWriteNibble
           i1_LCDPutStr
             i1_LCDPutChar
               i1_LCDWriteNibble
     _IOCAF3_ISR
       Absolute function(Fake) *
       _IOCAF3_DefaultInterruptHandler *
       i1_printMenu *
         i1_LCDGoto
           i1_LCDPutCmd
             i1_LCDWriteNibble
         i1_LCDPutStr
           i1_LCDPutChar
             i1_LCDWriteNibble
         i1_cleanFullMenu
           i1_LCDGoto
             i1_LCDPutCmd
               i1_LCDWriteNibble
           i1_LCDPutStr
             i1_LCDPutChar
               i1_LCDWriteNibble
         i1_cleanMenu
           i1_LCDGoto
             i1_LCDPutCmd
               i1_LCDWriteNibble
           i1_LCDPutStr
             i1_LCDPutChar
               i1_LCDWriteNibble
         i1_mainMenu
           i1_LCDGoto
             i1_LCDPutCmd
               i1_LCDWriteNibble
           i1_LCDPutStr
             i1_LCDPutChar
               i1_LCDWriteNibble
     _IOCAF4_ISR
       Absolute function(Fake) *
       _IOCAF4_DefaultInterruptHandler *
       i1_printMenu *
         i1_LCDGoto
           i1_LCDPutCmd
             i1_LCDWriteNibble
         i1_LCDPutStr
           i1_LCDPutChar
             i1_LCDWriteNibble
         i1_cleanFullMenu
           i1_LCDGoto
             i1_LCDPutCmd
               i1_LCDWriteNibble
           i1_LCDPutStr
             i1_LCDPutChar
               i1_LCDWriteNibble
         i1_cleanMenu
           i1_LCDGoto
             i1_LCDPutCmd
               i1_LCDWriteNibble
           i1_LCDPutStr
             i1_LCDPutChar
               i1_LCDWriteNibble
         i1_mainMenu
           i1_LCDGoto
             i1_LCDPutCmd
               i1_LCDWriteNibble
           i1_LCDPutStr
             i1_LCDPutChar
               i1_LCDWriteNibble
     _IOCAF5_ISR
       Absolute function(Fake) *
       _IOCAF5_DefaultInterruptHandler *
       _enableButton *
       _startFight *
         _printShip
           _LCDClear
             i1_LCDGoto
               i1_LCDPutCmd
                 i1_LCDWriteNibble
             i1_LCDPutStr
               i1_LCDPutChar
                 i1_LCDWriteNibble
           i1_LCDGoto
             i1_LCDPutCmd
               i1_LCDWriteNibble
           i1_LCDPutChar
             i1_LCDWriteNibble
         i1_LCDGoto
           i1_LCDPutCmd
             i1_LCDWriteNibble
         i1_LCDPutStr
           i1_LCDPutChar
             i1_LCDWriteNibble
         i1_cleanFullMenu
           i1_LCDGoto
             i1_LCDPutCmd
               i1_LCDWriteNibble
           i1_LCDPutStr
             i1_LCDPutChar
               i1_LCDWriteNibble
         i1_printMenu
           i1_LCDGoto
             i1_LCDPutCmd
               i1_LCDWriteNibble
           i1_LCDPutStr
             i1_LCDPutChar
               i1_LCDWriteNibble
           i1_cleanFullMenu
             i1_LCDGoto
               i1_LCDPutCmd
                 i1_LCDWriteNibble
             i1_LCDPutStr
               i1_LCDPutChar
                 i1_LCDWriteNibble
           i1_cleanMenu
             i1_LCDGoto
               i1_LCDPutCmd
                 i1_LCDWriteNibble
             i1_LCDPutStr
               i1_LCDPutChar
                 i1_LCDWriteNibble
           i1_mainMenu
             i1_LCDGoto
               i1_LCDPutCmd
                 i1_LCDWriteNibble
             i1_LCDPutStr
               i1_LCDPutChar
                 i1_LCDWriteNibble
       i1_disableButton *

 Address spaces:
Name               Size   Autos  Total    Cost      Usage
BIGRAM             7F0      0       0       0        0.0%
NULL                 0      0       0       0        0.0%
CODE                 0      0       0       0        0.0%
BITCOMMON            E      0       0       1        0.0%
BITSFR0              0      0       0       1        0.0%
SFR0                 0      0       0       1        0.0%
COMMON               E      E       E       2      100.0%
BITSFR1              0      0       0       2        0.0%
SFR1                 0      0       0       2        0.0%
BITSFR2              0      0       0       3        0.0%
SFR2                 0      0       0       3        0.0%
STACK                0      0       0       3        0.0%
BITBANK0            50      0       0       4        0.0%
BITSFR3              0      0       0       4        0.0%
SFR3                 0      0       0       4        0.0%
BANK0               50     16      2B       5       53.8%
BITSFR4              0      0       0       5        0.0%
SFR4                 0      0       0       5        0.0%
BITBANK1            50      0       0       6        0.0%
BITSFR5              0      0       0       6        0.0%
SFR5                 0      0       0       6        0.0%
BANK1               50     28      50       7      100.0%
BITSFR6              0      0       0       7        0.0%
SFR6                 0      0       0       7        0.0%
BITBANK2            50      0       0       8        0.0%
BITSFR7              0      0       0       8        0.0%
SFR7                 0      0       0       8        0.0%
BANK2               50      0       0       9        0.0%
BITSFR8              0      0       0       9        0.0%
SFR8                 0      0       0       9        0.0%
BITBANK3            50      0       0      10        0.0%
BITSFR9              0      0       0      10        0.0%
SFR9                 0      0       0      10        0.0%
BANK3               50      0       0      11        0.0%
BITSFR10             0      0       0      11        0.0%
SFR10                0      0       0      11        0.0%
BITBANK4            50      0       0      12        0.0%
BITSFR11             0      0       0      12        0.0%
SFR11                0      0       0      12        0.0%
BANK4               50      0       0      13        0.0%
BITSFR12             0      0       0      13        0.0%
SFR12                0      0       0      13        0.0%
BITSFR13             0      0       0      14        0.0%
SFR13                0      0       0      14        0.0%
ABS                  0      0      89      14        0.0%
BITBANK5            50      0       0      15        0.0%
BITSFR14             0      0       0      15        0.0%
SFR14                0      0       0      15        0.0%
BANK5               50      0       0      16        0.0%
BITSFR15             0      0       0      16        0.0%
SFR15                0      0       0      16        0.0%
BITBANK6            50      0       0      17        0.0%
BITSFR16             0      0       0      17        0.0%
SFR16                0      0       0      17        0.0%
BANK6               50      0       0      18        0.0%
BITSFR17             0      0       0      18        0.0%
SFR17                0      0       0      18        0.0%
BITBANK7            50      0       0      19        0.0%
BITSFR18             0      0       0      19        0.0%
SFR18                0      0       0      19        0.0%
BANK7               50      0       0      20        0.0%
BITSFR19             0      0       0      20        0.0%
SFR19                0      0       0      20        0.0%
BITBANK8            50      0       0      21        0.0%
BITSFR20             0      0       0      21        0.0%
SFR20                0      0       0      21        0.0%
BANK8               50      0       0      22        0.0%
BITSFR21             0      0       0      22        0.0%
SFR21                0      0       0      22        0.0%
BITBANK9            50      0       0      23        0.0%
BITSFR22             0      0       0      23        0.0%
SFR22                0      0       0      23        0.0%
BANK9               50      0       0      24        0.0%
BITSFR23             0      0       0      24        0.0%
SFR23                0      0       0      24        0.0%
BITBANK10           50      0       0      25        0.0%
BITSFR24             0      0       0      25        0.0%
SFR24                0      0       0      25        0.0%
BANK10              50      0       0      26        0.0%
BITSFR25             0      0       0      26        0.0%
SFR25                0      0       0      26        0.0%
BITBANK11           50      0       0      27        0.0%
BITSFR26             0      0       0      27        0.0%
SFR26                0      0       0      27        0.0%
BITSFR27             0      0       0      28        0.0%
SFR27                0      0       0      28        0.0%
DATA                 0      0      89      28        0.0%
BANK11              50      0       0      29        0.0%
BITSFR28             0      0       0      29        0.0%
SFR28                0      0       0      29        0.0%
BITBANK12           50      0       0      30        0.0%
BITSFR29             0      0       0      30        0.0%
SFR29                0      0       0      30        0.0%
BANK12              50      0       0      31        0.0%
BITSFR30             0      0       0      31        0.0%
SFR30                0      0       0      31        0.0%
BITBANK13           50      0       0      32        0.0%
BITSFR31             0      0       0      32        0.0%
SFR31                0      0       0      32        0.0%
BANK13              50      0       0      33        0.0%
BITBANK14           50      0       0      34        0.0%
BANK14              50      0       0      35        0.0%
BITBANK15           50      0       0      36        0.0%
BANK15              50      0       0      37        0.0%
BITBANK16           50      0       0      38        0.0%
BANK16              50      0       0      39        0.0%
BITBANK17           50      0       0      40        0.0%
BANK17              50      0       0      41        0.0%
BITBANK18           50      0       0      42        0.0%
BANK18              50      0       0      43        0.0%
BITBANK19           50      0       0      44        0.0%
BANK19              50      0       0      45        0.0%
BITBANK20           50      0       0      46        0.0%
BANK20              50      0       0      47        0.0%
BITBANK21           50      0       0      48        0.0%
BANK21              50      0       0      49        0.0%
BITBANK22           50      0       0      50        0.0%
BANK22              50      0       0      51        0.0%
BITBANK23           50      0       0      52        0.0%
BANK23              50      0       0      53        0.0%
BITBANK24           50      0       0      54        0.0%
BANK24              50      0       0      55        0.0%
BITBANK25           20      0       0      56        0.0%
BANK25              20      0       0      57        0.0%


Microchip Technology PIC Macro Assembler V2.31 build 20201012212115 
Symbol Table                                                                                   Tue Jul 20 11:24:09 2021

                          ?i1_cleanFullMenu 0070                              _LCD_Initialize 04E1  
                       __end_ofi1_printMenu 061F                                 ?_LCDPutChar 0070  
                                       l125 023D                                         l214 0748  
                                       l231 0742                                         l304 0443  
                                       l251 0726                                         l148 0760  
                                       l332 031E                                         l165 075A  
                                       l413 05A5                                         l254 0736  
                                       l182 0754                                         l351 06AD  
                                       l423 00CB                                         l432 0600  
                                       l257 0764                                         l426 05E2  
                                       l283 0503                                         l292 0526  
                                       l349 06A9                                         l286 0566  
                                       l198 074E                                         l383 01C9  
                                       l384 01C9                                         l289 0546  
                                       l298 041B                                         u935 054C  
                                       u945 0514                                         u970 041B  
                                       u955 0538                                         u971 041A  
                                       u980 0424                                         u981 0423  
                                       u990 042A                                         u991 0429  
                                       wreg 0009          __end_of_IOCAF2_SetInterruptHandler 0755  
                _IOCAF2_SetInterruptHandler 074F          __end_of_IOCAF5_SetInterruptHandler 0743  
                _IOCAF5_SetInterruptHandler 073D                                main@Pattern1 00C8  
                              main@Pattern2 00D0                                main@Pattern3 00D8  
                              main@Pattern4 00E0                                main@Pattern5 00E8  
                                i1_mainMenu 00CC                             __end_of_LCDGoto 0444  
                                      l2411 0520                                        l2403 0506  
                                      l3051 00BD                                        l2405 050A  
                                      l2501 01E9                                        l2413 0529  
                                      l2407 0510                                        l2431 075B  
                                      l2511 01FE                                        l2503 01FA  
                                      l2415 052D                                        l2361 055E  
                                      l2409 051C                                        l2433 0755  
                                      l2441 073D                                        l2521 0203  
                                      l2513 01FF                                        l2505 01FB  
                                      l2417 0534                                        l2363 0563  
                                      l2355 0549                                        l2435 074F  
                                      l2531 0208                                        l2523 0204  
                                      l2515 0200                                        l2507 01FC  
                                      l2419 0540                                        l2365 0564  
                                      l2357 0553                                        l2437 0749  
                                      l2541 0214                                        l2533 0209  
                                      l2525 0205                                        l2517 0201  
                                      l2509 01FD                                        l2461 0406  
                                      l2701 05CB                                        l2367 0565  
                                      l2359 0558                                        l2439 0743  
                                      l2551 023C                                        l2543 021C  
                                      l2535 020A                                        l2527 0206  
                                      l2519 0202                                        l2471 0430  
                                      l2463 040B                                        l2703 05D3  
                                      l2711 003F                                        l2545 0224  
                                      l2537 020B                                        l2529 0207  
                                      l2481 01D0                                        l2801 02F2  
                                      l2473 0436                                        l2465 041E  
                                      l2457 03F4                                        l2705 05E3  
                                      l2721 0062                                        l2713 0040  
                                      l2547 022C                                        l2539 020C  
                                      l2491 01E0                                        l2483 01D3  
                                      l2811 0301                                        l2803 02F2  
                                      l2475 043B                                        l2467 0424  
                                      l2459 03F7                                        l2707 05E9  
                                      l2731 0097                                        l2723 006A  
                                      l2715 0045                                        l2549 0234  
                                      l2493 01E3                                        l2485 01D6  
                                      l2813 030C                                        l2805 02FE  
                                      l2477 043F                                        l2469 042B  
                                      l2709 05F1                                        l2733 009C  
                                      l2725 007A                                        l2717 004D  
                                      l2495 01E4                                        l2487 01D8  
                                      l2479 01CC                                        l2815 0311  
                                      l2735 00A4                                        l2727 007F  
                                      l2719 005D                                        l2497 01E6  
                                      l2489 01DD                                        l2729 0087  
                                      l2691 0730                                        l2499 01E8  
                                      l2739 00B4                                        l2771 058D  
                                      l2693 0733                                        l2781 06A4  
                                      l2773 0590                                        l2791 04EF  
                                      l2695 0734                                        l2783 071D  
                                      l2775 0596                                        l2871 017E  
                                      l2863 014D                                        l2793 04F3  
                                      l2785 04E1                                        l2697 0761  
                                      l2777 059F                                        l2769 0587  
                                      l2881 01AF                                        l2873 018C  
                                      l2865 0153                                        l2795 04F7  
                                      l2787 04E5                                        l2779 069F  
                                      l2699 05C5                                        l2883 01B8  
                                      l2875 019A                                        l2867 0162  
                                      l2797 04FB                                        l2789 04E7  
                                      l2885 01C1                                        l2877 01A0  
                                      l2869 0170                                        l2799 04FF  
                                      l2887 01C4                                        l2879 01A6  
                                      l2889 01C5                                        STR_1 068C  
                                      STR_2 068C                                        STR_5 0712  
                                      STR_6 06CE                                        STR_7 06F8  
                                      STR_8 06EA                                        STR_9 0727  
                                      u1000 0430                                        u1001 042F  
                                      u1200 06A4                                        u1201 06A3  
                                      u1220 031E                                        u1300 017A  
                                      u1221 031D                                        u1310 0188  
                                      u1215 02F5                                        u1320 0196  
                                      u1225 031A                                        _LATA 010C  
                                      u1190 058D                                        _LATB 010D  
                                      u1191 058C                                        _LATC 010E  
                                      u1280 015E                                        u1337 0440  
                                      u1290 016C                                        u1347 052A  
                                      u1357 04EB                                        u1367 0507  
                                      u1377 051D                                 i1_cleanMenu 063C  
                                      _WPUA 020C                                        _WPUB 020D  
                                      _WPUC 020E                                        _WPUE 0210  
                                      _main 014D                                        fsr0h 0005  
                                      fsr1h 0007                                        indf0 0000  
                                      fsr0l 0004                                        indf1 0001  
                                      fsr1l 0006                                        btemp 007E  
                        __size_of_LCDPutCmd 0023                                        start 001B  
                        __size_of_LCDPutStr 0028                      __end_of_LCD_Initialize 0504  
                   __end_ofi1_disableButton 06BE                          __size_ofi1_LCDGoto 0027  
                          __end_of_LCDClear 0672                                 LCDPutCmd@ch 002C  
                       __size_of_IOCAF0_ISR 002B                         __size_of_IOCAF1_ISR 002C  
            __size_of_OSCILLATOR_Initialize 0007                         __size_of_IOCAF2_ISR 0043  
                       __size_of_IOCAF3_ISR 002B                         __size_of_IOCAF4_ISR 002B  
                       __size_of_IOCAF5_ISR 003E               __end_of_OSCILLATOR_Initialize 0737  
                                     ?_main 0070                                       STR_10 06DC  
                                     STR_11 06F8                                       STR_12 06EA  
                                     STR_13 0727                                       STR_14 0691  
                                     STR_15 0691                                       STR_16 0706  
                                     STR_17 068C                                       STR_18 068C  
                              ?i1_LCDPutCmd 0070                                       i1l201 076A  
                                     i1l211 0375                                       i1l206 0373  
                                     i1l222 02BC                                       i1l134 02EF  
                                     i1l151 076D                                       i1l311 0671  
                                     i1l304 04BA                                       i1l145 03CB  
                                     i1l217 0769                                       i1l162 034A  
                                     i1l234 0768                                       i1l226 02A1  
                                     i1l139 03C9                                       i1l156 0348  
                                     i1l228 02BE                                       i1l413 061E  
                                     i1l173 027E                                       i1l158 0332  
                                     i1l190 039E                                       i1l270 0019  
                                     i1l423 014C                                       i1l351 06BD  
                                     i1l432 068B                                       i1l168 076C  
                                     i1l185 076B                                       i1l177 0263  
                                     i1l426 0657                                       i1l354 06C9  
                                     i1l179 0280                                       i1l195 03A0  
                                     i1l451 0493                                       i1l292 05C4  
                                     i1l356 06CD                                       i1l349 06B9  
                                     i1l429 046B                                       i1l286 0586  
                                     i1l289 063B                                       i1l298 04E0  
                              ?i1_LCDPutStr 0077                                       _PORTB 000D  
                                     u43_25 056B                                       u60_20 06B4  
                                     u60_21 06B3                                       u44_25 062D  
                                     u53_20 047F                                       u53_21 047E  
                                     u45_25 05B3                                       u46_20 04E0  
                                     u46_21 04DF                                       u47_20 049B  
                                     u55_20 06C4                                       u47_21 049A  
                                     u55_21 06C3                                       u48_20 04A1  
                                     u48_21 04A0                                       u49_20 04A7  
                                     u49_21 04A6                                       _TRISA 008C  
                                     _TRISB 008D                                       _TRISC 008E  
                                     _TRISE 0090                                       u96_20 0607  
                                     u96_21 0606                      ?_createCustomCharacter 002D  
                   __end_of_PIN_MANAGER_IOC 02F0                              _WDT_Initialize 0761  
                                     _ship1 0045                                       _ship2 0044  
                                     pclath 000A                         __size_of_LCDPutChar 0020  
                                     status 0003                                       wtemp0 007E  
                               i1_printMenu 0601                       __end_of_cleanFullMenu 0601  
                           ?_LCD_Initialize 0070                             __initialization 001D  
                              __end_of_main 01CC                        __end_of_enableButton 06CE  
               ?_INTERRUPT_InterruptManager 0070                      createCustomCharacter@i 0030  
                                    ??_main 0035                                   ??_LCDGoto 002E  
                         __end_of_LCDPutCmd 0527                                LCDPutChar@ch 002C  
                   _IOCAF4_InterruptHandler 0038                           __end_of_LCDPutStr 041C  
                    __end_of_WDT_Initialize 0765                ??_IOCAF0_SetInterruptHandler 0028  
                               ?i1_mainMenu 0070                ??_IOCAF3_SetInterruptHandler 0028  
                         __end_ofi1_LCDGoto 04BB                                      _ANSELA 018C  
                                    _ANSELB 018D                                      _ANSELC 018E  
                                    _BORCON 0116                               ?i1_LCDPutChar 0070  
                                    u101_20 03A8                                      u101_21 03A7  
                                    u102_20 03B3                                      u110_20 035D  
                                    u102_21 03B2                                      u110_21 035C  
                                    u103_20 0326                                      u111_20 0288  
                                    u103_21 0325                                      u111_21 0287  
                                    u104_20 0331                                      u112_20 0293  
                                    i1l1601 04BD                                      u104_21 0330  
                                    u112_21 0292                                      _ODCONA 028C  
                                    _ODCONB 028D                                      i1l1611 04A2  
                                    i1l1603 04CC                                      _ODCONC 028E  
                                    i1l1613 04A7                                      i1l1605 04D0  
                                    i1l2421 0601                                      i1l3061 0340  
                                    i1l3053 02B4                                      i1l1615 04AD  
                                    i1l1607 0495                                      i1l2423 0607  
                                    i1l3063 03C1                                      i1l3055 036E  
                                    i1l1711 0479                                      u105_20 0245  
                                    u113_20 02C4                                      i1l1617 04B2  
                                    i1l1609 049B                                      i1l3065 013E  
                                    i1l2425 060A                                      i1l2601 0252  
                                    u105_21 0244                                      i1l3057 0399  
                                    i1l1713 047F                                      i1l1705 046C  
                                    u113_21 02C3                                      i1l1571 0577  
                                    i1l1619 04B6                                      i1l2371 00CD  
                                    i1l2427 0610                                      i1l3059 0276  
                                    i1l2603 0256                                      i1l1635 0658  
                                    i1l1715 0489                                      i1l1707 046F  
                                    i1l2451 0464                                      i1l2443 0444  
                                    i1l1573 057E                                      i1l1581 0620  
                                    i1l2381 00F3                                      i1l2373 00D2  
                                    i1l2429 0618                                      i1l1741 06C4  
                                    i1l2605 025A                                      i1l1637 065D  
                                    i1l1709 0474                                      i1l2453 0466  
                                    i1l2445 044A                                      i1l1575 0583  
                                    i1l1567 0568                                      i1l1591 05AB  
                                    i1l1583 0624                                      i1l2391 0120  
                                    i1l2383 0101                                      i1l2375 00D9  
                                    i1l2607 025F                                      i1l2631 0389  
                                    i1l2623 0376                                      i1l1639 0664  
                                    i1l2455 0468                                      i1l2447 0450  
                                    u106_20 0250                                      u114_20 02CC  
                                    i1l1577 0584                                      i1l1569 0572  
                                    i1l1593 05B0                                      i1l1585 062A  
                                    i1l1681 0672                                      i1l2393 0127  
                                    i1l2385 0106                                      i1l2377 00E7  
                                    i1l2369 00CC                                      i1l2561 03B4  
                                    i1l2553 03A1                                      i1l2609 0265  
                                    i1l2617 026E                                      u106_21 024F  
                                    i1l2633 038D                                      i1l2625 037D  
                                    i1l2449 0457                                      u114_21 02CB  
                                    i1l1579 0585                                      i1l1595 05BB  
                                    i1l1587 0635                                      i1l1683 0677  
                                    i1l1675 063C                                      i1l2387 010D  
                                    i1l2379 00EC                                      i1l2563 03B5  
                                    i1l2555 03A8                                      i1l1739 06BF  
                                    i1l2627 0382                                      i1l2651 035E  
                                    i1l2643 034B                                      i1l1597 05BF  
                                    i1l1589 05A7                                      i1l1685 067E  
                                    i1l1677 0642                                      i1l2389 011B  
                                    i1l2397 0135                                      i1l2557 03AD  
                                    i1l2581 0334                                      i1l2573 031F  
                                    i1l1781 06B4                                      i1l2637 0391  
                                    i1l2653 0362                                      i1l2645 0352  
                                    i1l2821 000E                                      i1l1599 04BB  
                                    i1l1679 0649                                      i1l2567 03B9  
                                    i1l2575 0326                                      i1l2591 023E  
                                    i1l2647 0357                                      i1l2671 0294  
                                    i1l2663 0281                                      i1l2751 02CC  
                                    i1l2823 0015                                      u107_20 037D  
                                    u115_20 02D4                                      u123_20 000A  
                                    i1l2585 0338                                      i1l2577 032B  
                                    i1l2593 0245                                      u107_21 037C  
                                    i1l2657 0366                                      i1l2673 0295  
                                    i1l2665 0288                                      i1l2761 02DF  
                                    u115_21 02D3                                      i1l2753 02CF  
                                    i1l2745 02BF                                      i1l2825 0018  
                                    u123_21 0009                                      i1l2817 0006  
                                    i1l1779 06AF                                      i1l2595 024A  
                                    i1l2675 0299                                      i1l2667 028D  
                                    i1l2763 02E4                                      i1l2755 02D4  
                                    i1l2747 02C4                                      i1l2819 000A  
                                    i1l2677 029D                                      i1l2685 02AC  
                                    i1l2765 02E7                                      i1l2757 02D7  
                                    i1l2749 02C7                                      i1l2599 0251  
                                    i1l2679 02A3                                      i1l2767 02EC  
                                    i1l2759 02DC                                      u108_20 0388  
                                    u116_20 02DC                                      u124_20 000E  
                                    u108_21 0387                                      u116_21 02DB  
                                    u124_21 000D                                      u140_27 0621  
                                    u109_20 0352                                      u117_20 02E4  
                                    u109_21 0351                                      u117_21 02E3  
                                    u141_27 04B7                                      u118_20 02EC  
                                    u118_21 02EB                                      u142_27 05A8  
                                    u143_27 05BC                                      _INLVLA 038C  
                                    _INLVLB 038D                                      _INLVLC 038E  
                                    _INLVLE 0390                                      u138_27 0011  
                                    u139_27 045D                                      _OSCCON 0099  
                                    _WDTCON 0097                                LCDPutStr@str 002D  
                            _LCDWriteNibble 0547                            __end_of_mainMenu 00CC  
                          ?i1_disableButton 0070                                      _inGame 0047  
       __size_of_IOCAF0_SetInterruptHandler 0006                                      _player 0043  
       __size_of_IOCAF3_SetInterruptHandler 0006                             ?_WDT_Initialize 0070  
                            i1LCDPutChar@ch 0076  IOCAF5_SetInterruptHandler@InterruptHandler 0026  
IOCAF4_SetInterruptHandler@InterruptHandler 0026  IOCAF3_SetInterruptHandler@InterruptHandler 0026  
IOCAF2_SetInterruptHandler@InterruptHandler 0026  IOCAF1_SetInterruptHandler@InterruptHandler 0026  
IOCAF0_SetInterruptHandler@InterruptHandler 0026                            ?_PIN_MANAGER_IOC 0070  
                       disableButton@player 0026                              ??i1_LCDPutChar 0074  
                              ??_IOCAF0_ISR 0022                                ??_IOCAF1_ISR 0022  
                              ??_IOCAF2_ISR 0022                                ??_IOCAF3_ISR 0022  
                              ??_IOCAF4_ISR 0022                                ??_IOCAF5_ISR 0024  
                                 ?_LCDClear 0070                           _SYSTEM_Initialize 071D  
                    __end_of_LCDWriteNibble 0567                     __end_of__initialization 003B  
    __end_of_IOCAF1_DefaultInterruptHandler 076D     __size_of_IOCAF1_DefaultInterruptHandler 0001  
            _IOCAF1_DefaultInterruptHandler 076C                          ?_SYSTEM_Initialize 0070  
                            i1LCDPutStr@str 0077                                   LCDGoto@ln 002D  
                             i1_LCDGoto$485 0078                              __pcstackCOMMON 0070  
                              __pidataBANK0 0765                                __pidataBANK1 03CC  
                       ??_SYSTEM_Initialize 0028                         __size_ofi1_mainMenu 0081  
                              ??_LCDPutChar 002A      __end_of_IOCAF4_DefaultInterruptHandler 076A  
   __size_of_IOCAF4_DefaultInterruptHandler 0001              _IOCAF4_DefaultInterruptHandler 0769  
                        __size_of_cleanMenu 001E                          __end_of_IOCAF0_ISR 03CC  
                        __end_of_IOCAF1_ISR 034B                          __end_of_IOCAF2_ISR 0281  
                        __end_of_IOCAF3_ISR 03A1                          __end_of_IOCAF4_ISR 0376  
                        __end_of_IOCAF5_ISR 02BF                   __size_ofi1_LCDWriteNibble 0020  
                              i1LCDGoto@pos 007A                              _OPTION_REGbits 0095  
                      __size_ofi1_LCDPutCmd 001F                 ?_IOCAF2_SetInterruptHandler 0026  
          ??_IOCAF2_DefaultInterruptHandler 0070             ?_IOCAF2_DefaultInterruptHandler 0070  
                      __size_ofi1_LCDPutStr 0026                 ?_IOCAF5_SetInterruptHandler 0026  
                 __end_of_SYSTEM_Initialize 0727                                  __pbssBANK0 0042  
                              ?i1_cleanMenu 0070                                i1LCDPutStr@i 007C  
                                ??_LCDClear 007D                             ?_LCDWriteNibble 0026  
                        __end_of_LCDPutChar 0547            ??_IOCAF5_DefaultInterruptHandler 0070  
           ?_IOCAF5_DefaultInterruptHandler 0070                     _IOCAF5_InterruptHandler 0036  
                     __size_of_enableButton 0010                                  __pmaintext 014D  
                     __end_of_disableButton 06AE                                  __pintentry 0004  
                   ??_createCustomCharacter 002E                    __size_ofi1_cleanFullMenu 001A  
                                   _LCDGoto 041C                          __size_of_printMenu 001F  
                        __size_of_printShip 0028          __end_of_IOCAF0_SetInterruptHandler 0761  
                _IOCAF0_SetInterruptHandler 075B          __end_of_IOCAF3_SetInterruptHandler 074F  
                _IOCAF3_SetInterruptHandler 0749                                     _OSCTUNE 0098  
                                   _SLRCONA 030C                                     _SLRCONB 030D  
                                   _SLRCONC 030E                                   ?_mainMenu 0070  
                        enableButton@player 0070                                _enableButton 06BE  
                         __end_of_cleanMenu 05E3                            ??_LCD_Initialize 002D  
                              ?i1_printMenu 0070                        __end_ofi1_LCDPutChar 063C  
                                   __ptext1 0587                                     __ptext2 003F  
                                   __ptext3 05C5                                     __ptext4 05E3  
                                   __ptext5 03F4                                     __ptext6 041C  
                                   __ptext7 069D                                     __ptext8 02F0  
                                   __ptext9 0527                                     _corazon 0049  
                                   _escucdo 0048                       _OSCILLATOR_Initialize 0730  
                  ??_PIN_MANAGER_Initialize 0028                                   _IOCAFbits 0393  
                                 _IOCANbits 0392                                   _IOCAPbits 0391  
                              ??i1_mainMenu 0020                                   _LCDPutCmd 0504  
                __size_of_SYSTEM_Initialize 000A                                   _LCDPutStr 03F4  
                      end_of_initialization 003B                                  ??_mainMenu 0033  
                                   init_ram 0737                                     initloop 0738  
                                 i1_LCDGoto 0494                                  _playerTurn 0042  
                         __end_of_printMenu 05A6                           __end_of_printShip 0494  
                        __end_ofi1_mainMenu 014D                            ??_WDT_Initialize 0026  
                                 _PORTBbits 000D                            i1_LCDWriteNibble 0567  
                   _IOCAF0_InterruptHandler 0040                ??_IOCAF1_SetInterruptHandler 0028  
                    __size_of_cleanFullMenu 001E                ??_IOCAF4_SetInterruptHandler 0028  
                                ?_LCDPutCmd 0070                                  _startFight 0444  
                         ??i1_cleanFullMenu 007D                                  ?_LCDPutStr 002D  
                                ?i1_LCDGoto 0077                        __size_ofi1_cleanMenu 001C  
                                LCDGoto@pos 0030                           __size_of_LCDClear 001A  
                                LCDPutStr@i 0032         __size_of_IOCAF1_SetInterruptHandler 0006  
       __size_of_IOCAF4_SetInterruptHandler 0006                      ?_OSCILLATOR_Initialize 0070  
                  __size_ofi1_disableButton 0010                         start_initialization 001D  
           __size_of_PIN_MANAGER_Initialize 0072                            ??_LCDWriteNibble 0027  
              createCustomCharacter@Pattern 002F                    __size_of_PIN_MANAGER_IOC 0031  
    __end_of_IOCAF2_DefaultInterruptHandler 076C     __size_of_IOCAF2_DefaultInterruptHandler 0001  
            _IOCAF2_DefaultInterruptHandler 076B                       __size_ofi1_LCDPutChar 001D  
                             _cleanFullMenu 05E3                        __size_ofi1_printMenu 001E  
                               __pdataBANK0 0048                                 __pdataBANK1 00A0  
                             i1LCDPutCmd@ch 0076            ??_IOCAF0_DefaultInterruptHandler 0070  
           ?_IOCAF0_DefaultInterruptHandler 0070      __end_of_IOCAF5_DefaultInterruptHandler 0769  
   __size_of_IOCAF5_DefaultInterruptHandler 0001              _IOCAF5_DefaultInterruptHandler 0768  
                             ??i1_LCDPutCmd 0074                               ??i1_LCDPutStr 0079  
            __size_of_createCustomCharacter 002F               __end_of_createCustomCharacter 031F  
                                  ?_LCDGoto 002D                                   ___latbits 0003  
               ?_IOCAF0_SetInterruptHandler 0026                               __pcstackBANK0 0020  
                             __pcstackBANK1 00C8                 ?_IOCAF3_SetInterruptHandler 0026  
                               ??_LCDPutCmd 002A                                 ?_startFight 0070  
                               ??_LCDPutStr 002F            ??_IOCAF3_DefaultInterruptHandler 0070  
           ?_IOCAF3_DefaultInterruptHandler 0070                                 i1LCDGoto@ln 0077  
                              i1_LCDPutChar 061F                           __size_of_mainMenu 008D  
                               ??i1_LCDGoto 0078                                   __pnvBANK0 0036  
                   _IOCAF1_InterruptHandler 003E                                   _cleanMenu 05C5  
                    _PIN_MANAGER_Initialize 01CC                              ?_cleanFullMenu 0070  
                                 _lcdOffset 004A                            LCDWriteNibble@ch 0029  
                          LCDWriteNibble@rs 0026                ??_INTERRUPT_InterruptManager 007D  
                                 _mainState 0046          __end_of_IOCAF1_SetInterruptHandler 075B  
                _IOCAF1_SetInterruptHandler 0755          __end_of_IOCAF4_SetInterruptHandler 0749  
                _IOCAF4_SetInterruptHandler 0743                       i1disableButton@player 0070  
                    __size_of_disableButton 0011                         __end_ofi1_LCDPutCmd 05C5  
                       __end_ofi1_LCDPutStr 04E1                           ??i1_disableButton 0070  
                                  _LCDClear 0658                    __end_ofi1_LCDWriteNibble 0587  
                               _LCDGoto$485 002E                                  ?_cleanMenu 0070  
       __size_of_INTERRUPT_InterruptManager 0017               createCustomCharacter@Location 002D  
                                 main@F5661 00C0                                   main@F5663 00B8  
                                 main@F5665 00B0                                   main@F5667 00A8  
                                 main@F5669 00A0                                   _printMenu 0587  
                       __size_of_startFight 0028                           ??_PIN_MANAGER_IOC 007D  
                                 _printShip 046C                             i1_cleanFullMenu 0672  
                          __size_of_LCDGoto 0028                             ??_cleanFullMenu 0033  
                             _disableButton 069D                     ??_OSCILLATOR_Initialize 0026  
                   __size_of_LCD_Initialize 0023                                  ?_printMenu 0070  
                                ?_printShip 0070                                 i1_LCDPutCmd 05A6  
                               i1_LCDPutStr 04BB                     _IOCAF2_InterruptHandler 003C  
              ??_IOCAF2_SetInterruptHandler 0028                                    __ptext10 071D  
                                  __ptext11 0761                                    __ptext20 04E1  
                                  __ptext12 01CC                                    __ptext21 0504  
                                  __ptext13 073D                                    __ptext30 034B  
                                  __ptext22 0547                                    __ptext14 0743  
                                  __ptext31 0769                                    __ptext15 0749  
                                  __ptext40 03A1                                    __ptext32 0376  
                                  __ptext24 02BF                                    __ptext16 074F  
                                  __ptext41 0601                                    __ptext33 076A  
                                  __ptext25 0281                                    __ptext17 0755  
                                  __ptext50 076D                                    __ptext42 00CC  
                                  __ptext34 023E                                    __ptext26 0444  
                                  __ptext18 075B                                    __ptext43 063C  
                                  __ptext35 06AE                                    __ptext27 046C  
                                  __ptext19 0730                                    __ptext44 0672  
                                  __ptext36 06BE                                    __ptext28 0658  
                                  __ptext45 04BB                                    __ptext37 076B  
                                  __ptext29 0768                                    __ptext46 061F  
                                  __ptext38 031F                                    __ptext47 0494  
                                  __ptext39 076C                                    __ptext48 05A6  
                                  __ptext49 0567                ??_IOCAF5_SetInterruptHandler 0028  
                                _IOCAF0_ISR 03A1                                  _IOCAF1_ISR 031F  
                                  _mainMenu 003F                                  _IOCAF2_ISR 023E  
                             ??i1_cleanMenu 007D                                  _IOCAF3_ISR 0376  
                                _IOCAF4_ISR 034B                                  _IOCAF5_ISR 0281  
                             __size_of_main 007F                                 ??_cleanMenu 0033  
                        i1LCDWriteNibble@ch 0073                          i1LCDWriteNibble@rs 0070  
                   __end_ofi1_cleanFullMenu 068C                              ?_disableButton 0070  
                                  int$flags 007E          __end_of_INTERRUPT_InterruptManager 001B  
                _INTERRUPT_InterruptManager 0004                                  _LCDPutChar 0527  
       __size_of_IOCAF2_SetInterruptHandler 0006         __size_of_IOCAF5_SetInterruptHandler 0006  
                                _INTCONbits 000B                                ??_startFight 0022  
                   __size_of_WDT_Initialize 0004                                    intlevel1 0000  
    __end_of_IOCAF0_DefaultInterruptHandler 076E     __size_of_IOCAF0_DefaultInterruptHandler 0001  
            _IOCAF0_DefaultInterruptHandler 076D                               ?_enableButton 0070  
                   ?_PIN_MANAGER_Initialize 0070                               ??i1_printMenu 007D  
                       __end_ofi1_cleanMenu 0658      __end_of_IOCAF3_DefaultInterruptHandler 076B  
   __size_of_IOCAF3_DefaultInterruptHandler 0001              _IOCAF3_DefaultInterruptHandler 076A  
                               ??_printMenu 0035                                 ??_printShip 007D  
                        __end_of_startFight 046C                               __pstringtext1 068C  
                             __pstringtext2 06CE                               __pstringtext3 06DC  
                             __pstringtext4 06EA                               __pstringtext5 06F8  
                             __pstringtext6 0706                               __pstringtext7 0712  
                             __pstringtext8 0727                               __pstringtext9 0000  
                           i1_disableButton 06AE            ??_IOCAF1_DefaultInterruptHandler 0070  
           ?_IOCAF1_DefaultInterruptHandler 0070                 ?_IOCAF1_SetInterruptHandler 0026  
                     _createCustomCharacter 02F0                 ?_IOCAF4_SetInterruptHandler 0026  
                            ??_enableButton 0070                                 ?_IOCAF0_ISR 0070  
                               ?_IOCAF1_ISR 0070                                 ?_IOCAF2_ISR 0070  
                               ?_IOCAF3_ISR 0070                                 ?_IOCAF4_ISR 0070  
                               ?_IOCAF5_ISR 0070              __end_of_PIN_MANAGER_Initialize 023E  
          ??_IOCAF4_DefaultInterruptHandler 0070             ?_IOCAF4_DefaultInterruptHandler 0070  
                           _PIN_MANAGER_IOC 02BF                           ?i1_LCDWriteNibble 0070  
                   __size_of_LCDWriteNibble 0020                             ??_disableButton 0026  
                   _IOCAF3_InterruptHandler 003A                          ??i1_LCDWriteNibble 0071  
