

Microchip MPLAB XC8 Assembler V2.31 build 20201012212115 
                                                                                               Mon Jul 19 20:57:56 2021

Microchip MPLAB XC8 C Compiler v2.31 (Free license) build 20201012212115 Og1 
     1                           	processor	16LF1718
     2                           	pagewidth 120
     3                           	opt	flic
     4                           	psect	idataBANK0,global,class=CODE,delta=2,noexec
     5                           	psect	idataBANK1,global,class=CODE,delta=2,noexec
     6                           	psect	nvBANK0,global,class=BANK0,space=1,delta=1,noexec
     7                           	psect	stringtext1,global,class=STRCODE,delta=2,noexec
     8                           	psect	stringtext2,global,class=STRCODE,delta=2,noexec
     9                           	psect	stringtext3,global,class=STRCODE,delta=2,noexec
    10                           	psect	stringtext4,global,class=STRCODE,delta=2,noexec
    11                           	psect	stringtext5,global,class=STRCODE,delta=2,noexec
    12                           	psect	stringtext6,global,class=STRCODE,delta=2,noexec
    13                           	psect	stringtext7,global,class=STRCODE,delta=2,noexec
    14                           	psect	cinit,global,class=CODE,merge=1,delta=2
    15                           	psect	bssBANK0,global,class=BANK0,space=1,delta=1,noexec
    16                           	psect	dataBANK0,global,class=BANK0,space=1,delta=1,noexec
    17                           	psect	dataBANK1,global,class=BANK1,space=1,delta=1,noexec
    18                           	psect	inittext,global,class=CODE,delta=2
    19                           	psect	cstackBANK1,global,class=BANK1,space=1,delta=1,noexec
    20                           	psect	cstackCOMMON,global,class=COMMON,space=1,delta=1,noexec
    21                           	psect	cstackBANK0,global,class=BANK0,space=1,delta=1,noexec
    22                           	psect	maintext,global,class=CODE,merge=1,split=1,delta=2
    23                           	psect	text1,local,class=CODE,merge=1,delta=2
    24                           	psect	text2,local,class=CODE,merge=1,delta=2
    25                           	psect	text3,local,class=CODE,merge=1,delta=2
    26                           	psect	text4,local,class=CODE,merge=1,delta=2
    27                           	psect	text5,local,class=CODE,merge=1,delta=2
    28                           	psect	text6,local,class=CODE,merge=1,delta=2
    29                           	psect	text7,local,class=CODE,merge=1,delta=2
    30                           	psect	text8,local,class=CODE,merge=1,delta=2
    31                           	psect	text9,local,class=CODE,merge=1,delta=2
    32                           	psect	text10,local,class=CODE,merge=1,delta=2
    33                           	psect	text11,local,class=CODE,merge=1,delta=2
    34                           	psect	text12,local,class=CODE,merge=1,delta=2
    35                           	psect	text13,local,class=CODE,merge=1,delta=2
    36                           	psect	text14,local,class=CODE,merge=1,delta=2
    37                           	psect	text15,local,class=CODE,merge=1,delta=2
    38                           	psect	text16,local,class=CODE,merge=1,delta=2
    39                           	psect	text17,local,class=CODE,merge=1,delta=2
    40                           	psect	text18,local,class=CODE,merge=1,delta=2
    41                           	psect	text19,local,class=CODE,merge=1,delta=2
    42                           	psect	text20,local,class=CODE,merge=1,delta=2
    43                           	psect	text21,local,class=CODE,merge=1,delta=2
    44                           	psect	text22,local,class=CODE,merge=1,delta=2
    45                           	psect	text23,local,class=CODE,merge=1,delta=2
    46                           	psect	intentry,global,class=CODE,delta=2
    47                           	psect	text25,local,class=CODE,merge=1,delta=2
    48                           	psect	text26,local,class=CODE,merge=1,delta=2
    49                           	psect	text27,local,class=CODE,merge=1,delta=2
    50                           	psect	text28,local,class=CODE,merge=1,delta=2
    51                           	psect	text29,local,class=CODE,merge=1,delta=2
    52                           	psect	text30,local,class=CODE,merge=1,delta=2
    53                           	psect	text31,local,class=CODE,merge=1,delta=2
    54                           	psect	text32,local,class=CODE,merge=1,delta=2
    55                           	psect	text33,local,class=CODE,merge=1,delta=2
    56                           	psect	text34,local,class=CODE,merge=1,delta=2
    57                           	psect	text35,local,class=CODE,merge=1,delta=2
    58                           	psect	text36,local,class=CODE,merge=1,delta=2
    59                           	psect	text37,local,class=CODE,merge=1,delta=2
    60                           	psect	text38,local,class=CODE,merge=1,delta=2
    61                           	psect	text39,local,class=CODE,merge=1,delta=2
    62                           	psect	text40,local,class=CODE,merge=1,delta=2
    63                           	psect	text41,local,class=CODE,merge=1,delta=2
    64                           	psect	text42,local,class=CODE,merge=1,delta=2
    65                           	psect	text43,local,class=CODE,merge=1,delta=2
    66                           	psect	text44,local,class=CODE,merge=1,delta=2
    67                           	psect	text45,local,class=CODE,merge=1,delta=2
    68                           	psect	text46,local,class=CODE,merge=1,delta=2
    69                           	psect	config,global,abs,ovrld,class=CONFIG,space=4,delta=2,noexec
    70                           	dabs	1,0x7E,2
    71  0000                     
    72                           ; Version 2.20
    73                           ; Generated 12/02/2020 GMT
    74                           ; 
    75                           ; Copyright © 2020, Microchip Technology Inc. and its subsidiaries ("Microchip")
    76                           ; All rights reserved.
    77                           ; 
    78                           ; This software is developed by Microchip Technology Inc. and its subsidiaries ("Microch
      +                          ip").
    79                           ; 
    80                           ; Redistribution and use in source and binary forms, with or without modification, are
    81                           ; permitted provided that the following conditions are met:
    82                           ; 
    83                           ;     1. Redistributions of source code must retain the above copyright notice, this lis
      +                          t of
    84                           ;        conditions and the following disclaimer.
    85                           ; 
    86                           ;     2. Redistributions in binary form must reproduce the above copyright notice, this 
      +                          list
    87                           ;        of conditions and the following disclaimer in the documentation and/or other
    88                           ;        materials provided with the distribution.
    89                           ; 
    90                           ;     3. Microchip's name may not be used to endorse or promote products derived from th
      +                          is
    91                           ;        software without specific prior written permission.
    92                           ; 
    93                           ; THIS SOFTWARE IS PROVIDED BY MICROCHIP "AS IS" AND ANY EXPRESS OR IMPLIED WARRANTIES,
    94                           ; INCLUDING, BUT NOT LIMITED TO, THE IMPLIED WARRANTIES OF MERCHANTABILITY AND FITNESS F
      +                          OR
    95                           ; PURPOSE ARE DISCLAIMED.  IN NO EVENT SHALL MICROCHIP BE LIABLE FOR ANY DIRECT, INDIREC
      +                          T,
    96                           ; INCIDENTAL, SPECIAL, EXEMPLARY, OR CONSEQUENTIAL DAMAGES (INCLUDING BUT NOT LIMITED TO
    97                           ; PROCUREMENT OF SUBSTITUTE GOODS OR SERVICES; LOSS OF USE, DATA OR PROFITS; OR BUSINESS
    98                           ; INTERRUPTION) HOWSOEVER CAUSED AND ON ANY THEORY OF LIABILITY, WHETHER IN CONTRACT, ST
      +                          RICT
    99                           ; LIABILITY, OR TORT (INCLUDING NEGLIGENCE OR OTHERWISE) ARISING IN ANY WAY OUT OF THE U
      +                          SE OF
   100                           ; THIS SOFTWARE, EVEN IF ADVISED OF THE POSSIBILITY OF SUCH DAMAGE.
   101                           ; 
   102                           ; 
   103                           ; Code-generator required, PIC16LF1718 Definitions
   104                           ; 
   105                           ; SFR Addresses
   106  0000                     	;# 
   107  0001                     	;# 
   108  0002                     	;# 
   109  0003                     	;# 
   110  0004                     	;# 
   111  0005                     	;# 
   112  0006                     	;# 
   113  0007                     	;# 
   114  0008                     	;# 
   115  0009                     	;# 
   116  000A                     	;# 
   117  000B                     	;# 
   118  000C                     	;# 
   119  000D                     	;# 
   120  000E                     	;# 
   121  0010                     	;# 
   122  0011                     	;# 
   123  0012                     	;# 
   124  0013                     	;# 
   125  0015                     	;# 
   126  0016                     	;# 
   127  0016                     	;# 
   128  0017                     	;# 
   129  0018                     	;# 
   130  0019                     	;# 
   131  001A                     	;# 
   132  001B                     	;# 
   133  001C                     	;# 
   134  008C                     	;# 
   135  008D                     	;# 
   136  008E                     	;# 
   137  0090                     	;# 
   138  0091                     	;# 
   139  0092                     	;# 
   140  0093                     	;# 
   141  0095                     	;# 
   142  0096                     	;# 
   143  0097                     	;# 
   144  0098                     	;# 
   145  0099                     	;# 
   146  009A                     	;# 
   147  009B                     	;# 
   148  009B                     	;# 
   149  009C                     	;# 
   150  009D                     	;# 
   151  009E                     	;# 
   152  009F                     	;# 
   153  010C                     	;# 
   154  010D                     	;# 
   155  010E                     	;# 
   156  0111                     	;# 
   157  0112                     	;# 
   158  0113                     	;# 
   159  0114                     	;# 
   160  0115                     	;# 
   161  0116                     	;# 
   162  0117                     	;# 
   163  0118                     	;# 
   164  0119                     	;# 
   165  011A                     	;# 
   166  011B                     	;# 
   167  011B                     	;# 
   168  011C                     	;# 
   169  018C                     	;# 
   170  018D                     	;# 
   171  018E                     	;# 
   172  0191                     	;# 
   173  0191                     	;# 
   174  0192                     	;# 
   175  0193                     	;# 
   176  0193                     	;# 
   177  0194                     	;# 
   178  0195                     	;# 
   179  0196                     	;# 
   180  0199                     	;# 
   181  0199                     	;# 
   182  0199                     	;# 
   183  019A                     	;# 
   184  019A                     	;# 
   185  019A                     	;# 
   186  019B                     	;# 
   187  019B                     	;# 
   188  019B                     	;# 
   189  019B                     	;# 
   190  019B                     	;# 
   191  019C                     	;# 
   192  019C                     	;# 
   193  019C                     	;# 
   194  019D                     	;# 
   195  019D                     	;# 
   196  019D                     	;# 
   197  019E                     	;# 
   198  019E                     	;# 
   199  019E                     	;# 
   200  019F                     	;# 
   201  019F                     	;# 
   202  019F                     	;# 
   203  019F                     	;# 
   204  019F                     	;# 
   205  020C                     	;# 
   206  020D                     	;# 
   207  020E                     	;# 
   208  0210                     	;# 
   209  0211                     	;# 
   210  0211                     	;# 
   211  0212                     	;# 
   212  0212                     	;# 
   213  0213                     	;# 
   214  0213                     	;# 
   215  0214                     	;# 
   216  0214                     	;# 
   217  0215                     	;# 
   218  0215                     	;# 
   219  0215                     	;# 
   220  0215                     	;# 
   221  0216                     	;# 
   222  0216                     	;# 
   223  0217                     	;# 
   224  0217                     	;# 
   225  028C                     	;# 
   226  028D                     	;# 
   227  028E                     	;# 
   228  0291                     	;# 
   229  0291                     	;# 
   230  0292                     	;# 
   231  0293                     	;# 
   232  0293                     	;# 
   233  0298                     	;# 
   234  0298                     	;# 
   235  0299                     	;# 
   236  029A                     	;# 
   237  029A                     	;# 
   238  029E                     	;# 
   239  030C                     	;# 
   240  030D                     	;# 
   241  030E                     	;# 
   242  038C                     	;# 
   243  038D                     	;# 
   244  038E                     	;# 
   245  0390                     	;# 
   246  0391                     	;# 
   247  0392                     	;# 
   248  0393                     	;# 
   249  0394                     	;# 
   250  0395                     	;# 
   251  0396                     	;# 
   252  0397                     	;# 
   253  0398                     	;# 
   254  0399                     	;# 
   255  039D                     	;# 
   256  039E                     	;# 
   257  039F                     	;# 
   258  0415                     	;# 
   259  0416                     	;# 
   260  0417                     	;# 
   261  041C                     	;# 
   262  041D                     	;# 
   263  041E                     	;# 
   264  0498                     	;# 
   265  0498                     	;# 
   266  0499                     	;# 
   267  049A                     	;# 
   268  049B                     	;# 
   269  049B                     	;# 
   270  049C                     	;# 
   271  049D                     	;# 
   272  049E                     	;# 
   273  049F                     	;# 
   274  0511                     	;# 
   275  0515                     	;# 
   276  0617                     	;# 
   277  0618                     	;# 
   278  0619                     	;# 
   279  0619                     	;# 
   280  061A                     	;# 
   281  061B                     	;# 
   282  061C                     	;# 
   283  061C                     	;# 
   284  0691                     	;# 
   285  0692                     	;# 
   286  0693                     	;# 
   287  0694                     	;# 
   288  0695                     	;# 
   289  0696                     	;# 
   290  0697                     	;# 
   291  0698                     	;# 
   292  0699                     	;# 
   293  069A                     	;# 
   294  069B                     	;# 
   295  069C                     	;# 
   296  069D                     	;# 
   297  069E                     	;# 
   298  069F                     	;# 
   299  0E0F                     	;# 
   300  0E10                     	;# 
   301  0E11                     	;# 
   302  0E12                     	;# 
   303  0E13                     	;# 
   304  0E14                     	;# 
   305  0E15                     	;# 
   306  0E17                     	;# 
   307  0E20                     	;# 
   308  0E21                     	;# 
   309  0E22                     	;# 
   310  0E24                     	;# 
   311  0E25                     	;# 
   312  0E28                     	;# 
   313  0E29                     	;# 
   314  0E2A                     	;# 
   315  0E2B                     	;# 
   316  0E90                     	;# 
   317  0E91                     	;# 
   318  0E92                     	;# 
   319  0E93                     	;# 
   320  0E94                     	;# 
   321  0E95                     	;# 
   322  0E96                     	;# 
   323  0E97                     	;# 
   324  0E98                     	;# 
   325  0E99                     	;# 
   326  0E9A                     	;# 
   327  0E9B                     	;# 
   328  0E9C                     	;# 
   329  0E9D                     	;# 
   330  0E9E                     	;# 
   331  0E9F                     	;# 
   332  0EA0                     	;# 
   333  0EA1                     	;# 
   334  0EA2                     	;# 
   335  0EA3                     	;# 
   336  0EA4                     	;# 
   337  0EA5                     	;# 
   338  0EA6                     	;# 
   339  0EA7                     	;# 
   340  0F0F                     	;# 
   341  0F10                     	;# 
   342  0F11                     	;# 
   343  0F12                     	;# 
   344  0F13                     	;# 
   345  0F14                     	;# 
   346  0F15                     	;# 
   347  0F16                     	;# 
   348  0F17                     	;# 
   349  0F18                     	;# 
   350  0F19                     	;# 
   351  0F1A                     	;# 
   352  0F1B                     	;# 
   353  0F1C                     	;# 
   354  0F1D                     	;# 
   355  0F1E                     	;# 
   356  0F1F                     	;# 
   357  0F20                     	;# 
   358  0F21                     	;# 
   359  0F22                     	;# 
   360  0F23                     	;# 
   361  0F24                     	;# 
   362  0F25                     	;# 
   363  0F26                     	;# 
   364  0F27                     	;# 
   365  0F28                     	;# 
   366  0F29                     	;# 
   367  0F2A                     	;# 
   368  0F2B                     	;# 
   369  0F2C                     	;# 
   370  0F2D                     	;# 
   371  0F2E                     	;# 
   372  0F2F                     	;# 
   373  0F30                     	;# 
   374  0F31                     	;# 
   375  0F32                     	;# 
   376  0F33                     	;# 
   377  0F34                     	;# 
   378  0F35                     	;# 
   379  0F36                     	;# 
   380  0F37                     	;# 
   381  0FE4                     	;# 
   382  0FE5                     	;# 
   383  0FE6                     	;# 
   384  0FE7                     	;# 
   385  0FE8                     	;# 
   386  0FE9                     	;# 
   387  0FEA                     	;# 
   388  0FEB                     	;# 
   389  0FED                     	;# 
   390  0FEE                     	;# 
   391  0FEF                     	;# 
   392  0000                     	;# 
   393  0001                     	;# 
   394  0002                     	;# 
   395  0003                     	;# 
   396  0004                     	;# 
   397  0005                     	;# 
   398  0006                     	;# 
   399  0007                     	;# 
   400  0008                     	;# 
   401  0009                     	;# 
   402  000A                     	;# 
   403  000B                     	;# 
   404  000C                     	;# 
   405  000D                     	;# 
   406  000E                     	;# 
   407  0010                     	;# 
   408  0011                     	;# 
   409  0012                     	;# 
   410  0013                     	;# 
   411  0015                     	;# 
   412  0016                     	;# 
   413  0016                     	;# 
   414  0017                     	;# 
   415  0018                     	;# 
   416  0019                     	;# 
   417  001A                     	;# 
   418  001B                     	;# 
   419  001C                     	;# 
   420  008C                     	;# 
   421  008D                     	;# 
   422  008E                     	;# 
   423  0090                     	;# 
   424  0091                     	;# 
   425  0092                     	;# 
   426  0093                     	;# 
   427  0095                     	;# 
   428  0096                     	;# 
   429  0097                     	;# 
   430  0098                     	;# 
   431  0099                     	;# 
   432  009A                     	;# 
   433  009B                     	;# 
   434  009B                     	;# 
   435  009C                     	;# 
   436  009D                     	;# 
   437  009E                     	;# 
   438  009F                     	;# 
   439  010C                     	;# 
   440  010D                     	;# 
   441  010E                     	;# 
   442  0111                     	;# 
   443  0112                     	;# 
   444  0113                     	;# 
   445  0114                     	;# 
   446  0115                     	;# 
   447  0116                     	;# 
   448  0117                     	;# 
   449  0118                     	;# 
   450  0119                     	;# 
   451  011A                     	;# 
   452  011B                     	;# 
   453  011B                     	;# 
   454  011C                     	;# 
   455  018C                     	;# 
   456  018D                     	;# 
   457  018E                     	;# 
   458  0191                     	;# 
   459  0191                     	;# 
   460  0192                     	;# 
   461  0193                     	;# 
   462  0193                     	;# 
   463  0194                     	;# 
   464  0195                     	;# 
   465  0196                     	;# 
   466  0199                     	;# 
   467  0199                     	;# 
   468  0199                     	;# 
   469  019A                     	;# 
   470  019A                     	;# 
   471  019A                     	;# 
   472  019B                     	;# 
   473  019B                     	;# 
   474  019B                     	;# 
   475  019B                     	;# 
   476  019B                     	;# 
   477  019C                     	;# 
   478  019C                     	;# 
   479  019C                     	;# 
   480  019D                     	;# 
   481  019D                     	;# 
   482  019D                     	;# 
   483  019E                     	;# 
   484  019E                     	;# 
   485  019E                     	;# 
   486  019F                     	;# 
   487  019F                     	;# 
   488  019F                     	;# 
   489  019F                     	;# 
   490  019F                     	;# 
   491  020C                     	;# 
   492  020D                     	;# 
   493  020E                     	;# 
   494  0210                     	;# 
   495  0211                     	;# 
   496  0211                     	;# 
   497  0212                     	;# 
   498  0212                     	;# 
   499  0213                     	;# 
   500  0213                     	;# 
   501  0214                     	;# 
   502  0214                     	;# 
   503  0215                     	;# 
   504  0215                     	;# 
   505  0215                     	;# 
   506  0215                     	;# 
   507  0216                     	;# 
   508  0216                     	;# 
   509  0217                     	;# 
   510  0217                     	;# 
   511  028C                     	;# 
   512  028D                     	;# 
   513  028E                     	;# 
   514  0291                     	;# 
   515  0291                     	;# 
   516  0292                     	;# 
   517  0293                     	;# 
   518  0293                     	;# 
   519  0298                     	;# 
   520  0298                     	;# 
   521  0299                     	;# 
   522  029A                     	;# 
   523  029A                     	;# 
   524  029E                     	;# 
   525  030C                     	;# 
   526  030D                     	;# 
   527  030E                     	;# 
   528  038C                     	;# 
   529  038D                     	;# 
   530  038E                     	;# 
   531  0390                     	;# 
   532  0391                     	;# 
   533  0392                     	;# 
   534  0393                     	;# 
   535  0394                     	;# 
   536  0395                     	;# 
   537  0396                     	;# 
   538  0397                     	;# 
   539  0398                     	;# 
   540  0399                     	;# 
   541  039D                     	;# 
   542  039E                     	;# 
   543  039F                     	;# 
   544  0415                     	;# 
   545  0416                     	;# 
   546  0417                     	;# 
   547  041C                     	;# 
   548  041D                     	;# 
   549  041E                     	;# 
   550  0498                     	;# 
   551  0498                     	;# 
   552  0499                     	;# 
   553  049A                     	;# 
   554  049B                     	;# 
   555  049B                     	;# 
   556  049C                     	;# 
   557  049D                     	;# 
   558  049E                     	;# 
   559  049F                     	;# 
   560  0511                     	;# 
   561  0515                     	;# 
   562  0617                     	;# 
   563  0618                     	;# 
   564  0619                     	;# 
   565  0619                     	;# 
   566  061A                     	;# 
   567  061B                     	;# 
   568  061C                     	;# 
   569  061C                     	;# 
   570  0691                     	;# 
   571  0692                     	;# 
   572  0693                     	;# 
   573  0694                     	;# 
   574  0695                     	;# 
   575  0696                     	;# 
   576  0697                     	;# 
   577  0698                     	;# 
   578  0699                     	;# 
   579  069A                     	;# 
   580  069B                     	;# 
   581  069C                     	;# 
   582  069D                     	;# 
   583  069E                     	;# 
   584  069F                     	;# 
   585  0E0F                     	;# 
   586  0E10                     	;# 
   587  0E11                     	;# 
   588  0E12                     	;# 
   589  0E13                     	;# 
   590  0E14                     	;# 
   591  0E15                     	;# 
   592  0E17                     	;# 
   593  0E20                     	;# 
   594  0E21                     	;# 
   595  0E22                     	;# 
   596  0E24                     	;# 
   597  0E25                     	;# 
   598  0E28                     	;# 
   599  0E29                     	;# 
   600  0E2A                     	;# 
   601  0E2B                     	;# 
   602  0E90                     	;# 
   603  0E91                     	;# 
   604  0E92                     	;# 
   605  0E93                     	;# 
   606  0E94                     	;# 
   607  0E95                     	;# 
   608  0E96                     	;# 
   609  0E97                     	;# 
   610  0E98                     	;# 
   611  0E99                     	;# 
   612  0E9A                     	;# 
   613  0E9B                     	;# 
   614  0E9C                     	;# 
   615  0E9D                     	;# 
   616  0E9E                     	;# 
   617  0E9F                     	;# 
   618  0EA0                     	;# 
   619  0EA1                     	;# 
   620  0EA2                     	;# 
   621  0EA3                     	;# 
   622  0EA4                     	;# 
   623  0EA5                     	;# 
   624  0EA6                     	;# 
   625  0EA7                     	;# 
   626  0F0F                     	;# 
   627  0F10                     	;# 
   628  0F11                     	;# 
   629  0F12                     	;# 
   630  0F13                     	;# 
   631  0F14                     	;# 
   632  0F15                     	;# 
   633  0F16                     	;# 
   634  0F17                     	;# 
   635  0F18                     	;# 
   636  0F19                     	;# 
   637  0F1A                     	;# 
   638  0F1B                     	;# 
   639  0F1C                     	;# 
   640  0F1D                     	;# 
   641  0F1E                     	;# 
   642  0F1F                     	;# 
   643  0F20                     	;# 
   644  0F21                     	;# 
   645  0F22                     	;# 
   646  0F23                     	;# 
   647  0F24                     	;# 
   648  0F25                     	;# 
   649  0F26                     	;# 
   650  0F27                     	;# 
   651  0F28                     	;# 
   652  0F29                     	;# 
   653  0F2A                     	;# 
   654  0F2B                     	;# 
   655  0F2C                     	;# 
   656  0F2D                     	;# 
   657  0F2E                     	;# 
   658  0F2F                     	;# 
   659  0F30                     	;# 
   660  0F31                     	;# 
   661  0F32                     	;# 
   662  0F33                     	;# 
   663  0F34                     	;# 
   664  0F35                     	;# 
   665  0F36                     	;# 
   666  0F37                     	;# 
   667  0FE4                     	;# 
   668  0FE5                     	;# 
   669  0FE6                     	;# 
   670  0FE7                     	;# 
   671  0FE8                     	;# 
   672  0FE9                     	;# 
   673  0FEA                     	;# 
   674  0FEB                     	;# 
   675  0FED                     	;# 
   676  0FEE                     	;# 
   677  0FEF                     	;# 
   678  0000                     	;# 
   679  0001                     	;# 
   680  0002                     	;# 
   681  0003                     	;# 
   682  0004                     	;# 
   683  0005                     	;# 
   684  0006                     	;# 
   685  0007                     	;# 
   686  0008                     	;# 
   687  0009                     	;# 
   688  000A                     	;# 
   689  000B                     	;# 
   690  000C                     	;# 
   691  000D                     	;# 
   692  000E                     	;# 
   693  0010                     	;# 
   694  0011                     	;# 
   695  0012                     	;# 
   696  0013                     	;# 
   697  0015                     	;# 
   698  0016                     	;# 
   699  0016                     	;# 
   700  0017                     	;# 
   701  0018                     	;# 
   702  0019                     	;# 
   703  001A                     	;# 
   704  001B                     	;# 
   705  001C                     	;# 
   706  008C                     	;# 
   707  008D                     	;# 
   708  008E                     	;# 
   709  0090                     	;# 
   710  0091                     	;# 
   711  0092                     	;# 
   712  0093                     	;# 
   713  0095                     	;# 
   714  0096                     	;# 
   715  0097                     	;# 
   716  0098                     	;# 
   717  0099                     	;# 
   718  009A                     	;# 
   719  009B                     	;# 
   720  009B                     	;# 
   721  009C                     	;# 
   722  009D                     	;# 
   723  009E                     	;# 
   724  009F                     	;# 
   725  010C                     	;# 
   726  010D                     	;# 
   727  010E                     	;# 
   728  0111                     	;# 
   729  0112                     	;# 
   730  0113                     	;# 
   731  0114                     	;# 
   732  0115                     	;# 
   733  0116                     	;# 
   734  0117                     	;# 
   735  0118                     	;# 
   736  0119                     	;# 
   737  011A                     	;# 
   738  011B                     	;# 
   739  011B                     	;# 
   740  011C                     	;# 
   741  018C                     	;# 
   742  018D                     	;# 
   743  018E                     	;# 
   744  0191                     	;# 
   745  0191                     	;# 
   746  0192                     	;# 
   747  0193                     	;# 
   748  0193                     	;# 
   749  0194                     	;# 
   750  0195                     	;# 
   751  0196                     	;# 
   752  0199                     	;# 
   753  0199                     	;# 
   754  0199                     	;# 
   755  019A                     	;# 
   756  019A                     	;# 
   757  019A                     	;# 
   758  019B                     	;# 
   759  019B                     	;# 
   760  019B                     	;# 
   761  019B                     	;# 
   762  019B                     	;# 
   763  019C                     	;# 
   764  019C                     	;# 
   765  019C                     	;# 
   766  019D                     	;# 
   767  019D                     	;# 
   768  019D                     	;# 
   769  019E                     	;# 
   770  019E                     	;# 
   771  019E                     	;# 
   772  019F                     	;# 
   773  019F                     	;# 
   774  019F                     	;# 
   775  019F                     	;# 
   776  019F                     	;# 
   777  020C                     	;# 
   778  020D                     	;# 
   779  020E                     	;# 
   780  0210                     	;# 
   781  0211                     	;# 
   782  0211                     	;# 
   783  0212                     	;# 
   784  0212                     	;# 
   785  0213                     	;# 
   786  0213                     	;# 
   787  0214                     	;# 
   788  0214                     	;# 
   789  0215                     	;# 
   790  0215                     	;# 
   791  0215                     	;# 
   792  0215                     	;# 
   793  0216                     	;# 
   794  0216                     	;# 
   795  0217                     	;# 
   796  0217                     	;# 
   797  028C                     	;# 
   798  028D                     	;# 
   799  028E                     	;# 
   800  0291                     	;# 
   801  0291                     	;# 
   802  0292                     	;# 
   803  0293                     	;# 
   804  0293                     	;# 
   805  0298                     	;# 
   806  0298                     	;# 
   807  0299                     	;# 
   808  029A                     	;# 
   809  029A                     	;# 
   810  029E                     	;# 
   811  030C                     	;# 
   812  030D                     	;# 
   813  030E                     	;# 
   814  038C                     	;# 
   815  038D                     	;# 
   816  038E                     	;# 
   817  0390                     	;# 
   818  0391                     	;# 
   819  0392                     	;# 
   820  0393                     	;# 
   821  0394                     	;# 
   822  0395                     	;# 
   823  0396                     	;# 
   824  0397                     	;# 
   825  0398                     	;# 
   826  0399                     	;# 
   827  039D                     	;# 
   828  039E                     	;# 
   829  039F                     	;# 
   830  0415                     	;# 
   831  0416                     	;# 
   832  0417                     	;# 
   833  041C                     	;# 
   834  041D                     	;# 
   835  041E                     	;# 
   836  0498                     	;# 
   837  0498                     	;# 
   838  0499                     	;# 
   839  049A                     	;# 
   840  049B                     	;# 
   841  049B                     	;# 
   842  049C                     	;# 
   843  049D                     	;# 
   844  049E                     	;# 
   845  049F                     	;# 
   846  0511                     	;# 
   847  0515                     	;# 
   848  0617                     	;# 
   849  0618                     	;# 
   850  0619                     	;# 
   851  0619                     	;# 
   852  061A                     	;# 
   853  061B                     	;# 
   854  061C                     	;# 
   855  061C                     	;# 
   856  0691                     	;# 
   857  0692                     	;# 
   858  0693                     	;# 
   859  0694                     	;# 
   860  0695                     	;# 
   861  0696                     	;# 
   862  0697                     	;# 
   863  0698                     	;# 
   864  0699                     	;# 
   865  069A                     	;# 
   866  069B                     	;# 
   867  069C                     	;# 
   868  069D                     	;# 
   869  069E                     	;# 
   870  069F                     	;# 
   871  0E0F                     	;# 
   872  0E10                     	;# 
   873  0E11                     	;# 
   874  0E12                     	;# 
   875  0E13                     	;# 
   876  0E14                     	;# 
   877  0E15                     	;# 
   878  0E17                     	;# 
   879  0E20                     	;# 
   880  0E21                     	;# 
   881  0E22                     	;# 
   882  0E24                     	;# 
   883  0E25                     	;# 
   884  0E28                     	;# 
   885  0E29                     	;# 
   886  0E2A                     	;# 
   887  0E2B                     	;# 
   888  0E90                     	;# 
   889  0E91                     	;# 
   890  0E92                     	;# 
   891  0E93                     	;# 
   892  0E94                     	;# 
   893  0E95                     	;# 
   894  0E96                     	;# 
   895  0E97                     	;# 
   896  0E98                     	;# 
   897  0E99                     	;# 
   898  0E9A                     	;# 
   899  0E9B                     	;# 
   900  0E9C                     	;# 
   901  0E9D                     	;# 
   902  0E9E                     	;# 
   903  0E9F                     	;# 
   904  0EA0                     	;# 
   905  0EA1                     	;# 
   906  0EA2                     	;# 
   907  0EA3                     	;# 
   908  0EA4                     	;# 
   909  0EA5                     	;# 
   910  0EA6                     	;# 
   911  0EA7                     	;# 
   912  0F0F                     	;# 
   913  0F10                     	;# 
   914  0F11                     	;# 
   915  0F12                     	;# 
   916  0F13                     	;# 
   917  0F14                     	;# 
   918  0F15                     	;# 
   919  0F16                     	;# 
   920  0F17                     	;# 
   921  0F18                     	;# 
   922  0F19                     	;# 
   923  0F1A                     	;# 
   924  0F1B                     	;# 
   925  0F1C                     	;# 
   926  0F1D                     	;# 
   927  0F1E                     	;# 
   928  0F1F                     	;# 
   929  0F20                     	;# 
   930  0F21                     	;# 
   931  0F22                     	;# 
   932  0F23                     	;# 
   933  0F24                     	;# 
   934  0F25                     	;# 
   935  0F26                     	;# 
   936  0F27                     	;# 
   937  0F28                     	;# 
   938  0F29                     	;# 
   939  0F2A                     	;# 
   940  0F2B                     	;# 
   941  0F2C                     	;# 
   942  0F2D                     	;# 
   943  0F2E                     	;# 
   944  0F2F                     	;# 
   945  0F30                     	;# 
   946  0F31                     	;# 
   947  0F32                     	;# 
   948  0F33                     	;# 
   949  0F34                     	;# 
   950  0F35                     	;# 
   951  0F36                     	;# 
   952  0F37                     	;# 
   953  0FE4                     	;# 
   954  0FE5                     	;# 
   955  0FE6                     	;# 
   956  0FE7                     	;# 
   957  0FE8                     	;# 
   958  0FE9                     	;# 
   959  0FEA                     	;# 
   960  0FEB                     	;# 
   961  0FED                     	;# 
   962  0FEE                     	;# 
   963  0FEF                     	;# 
   964  0000                     	;# 
   965  0001                     	;# 
   966  0002                     	;# 
   967  0003                     	;# 
   968  0004                     	;# 
   969  0005                     	;# 
   970  0006                     	;# 
   971  0007                     	;# 
   972  0008                     	;# 
   973  0009                     	;# 
   974  000A                     	;# 
   975  000B                     	;# 
   976  000C                     	;# 
   977  000D                     	;# 
   978  000E                     	;# 
   979  0010                     	;# 
   980  0011                     	;# 
   981  0012                     	;# 
   982  0013                     	;# 
   983  0015                     	;# 
   984  0016                     	;# 
   985  0016                     	;# 
   986  0017                     	;# 
   987  0018                     	;# 
   988  0019                     	;# 
   989  001A                     	;# 
   990  001B                     	;# 
   991  001C                     	;# 
   992  008C                     	;# 
   993  008D                     	;# 
   994  008E                     	;# 
   995  0090                     	;# 
   996  0091                     	;# 
   997  0092                     	;# 
   998  0093                     	;# 
   999  0095                     	;# 
  1000  0096                     	;# 
  1001  0097                     	;# 
  1002  0098                     	;# 
  1003  0099                     	;# 
  1004  009A                     	;# 
  1005  009B                     	;# 
  1006  009B                     	;# 
  1007  009C                     	;# 
  1008  009D                     	;# 
  1009  009E                     	;# 
  1010  009F                     	;# 
  1011  010C                     	;# 
  1012  010D                     	;# 
  1013  010E                     	;# 
  1014  0111                     	;# 
  1015  0112                     	;# 
  1016  0113                     	;# 
  1017  0114                     	;# 
  1018  0115                     	;# 
  1019  0116                     	;# 
  1020  0117                     	;# 
  1021  0118                     	;# 
  1022  0119                     	;# 
  1023  011A                     	;# 
  1024  011B                     	;# 
  1025  011B                     	;# 
  1026  011C                     	;# 
  1027  018C                     	;# 
  1028  018D                     	;# 
  1029  018E                     	;# 
  1030  0191                     	;# 
  1031  0191                     	;# 
  1032  0192                     	;# 
  1033  0193                     	;# 
  1034  0193                     	;# 
  1035  0194                     	;# 
  1036  0195                     	;# 
  1037  0196                     	;# 
  1038  0199                     	;# 
  1039  0199                     	;# 
  1040  0199                     	;# 
  1041  019A                     	;# 
  1042  019A                     	;# 
  1043  019A                     	;# 
  1044  019B                     	;# 
  1045  019B                     	;# 
  1046  019B                     	;# 
  1047  019B                     	;# 
  1048  019B                     	;# 
  1049  019C                     	;# 
  1050  019C                     	;# 
  1051  019C                     	;# 
  1052  019D                     	;# 
  1053  019D                     	;# 
  1054  019D                     	;# 
  1055  019E                     	;# 
  1056  019E                     	;# 
  1057  019E                     	;# 
  1058  019F                     	;# 
  1059  019F                     	;# 
  1060  019F                     	;# 
  1061  019F                     	;# 
  1062  019F                     	;# 
  1063  020C                     	;# 
  1064  020D                     	;# 
  1065  020E                     	;# 
  1066  0210                     	;# 
  1067  0211                     	;# 
  1068  0211                     	;# 
  1069  0212                     	;# 
  1070  0212                     	;# 
  1071  0213                     	;# 
  1072  0213                     	;# 
  1073  0214                     	;# 
  1074  0214                     	;# 
  1075  0215                     	;# 
  1076  0215                     	;# 
  1077  0215                     	;# 
  1078  0215                     	;# 
  1079  0216                     	;# 
  1080  0216                     	;# 
  1081  0217                     	;# 
  1082  0217                     	;# 
  1083  028C                     	;# 
  1084  028D                     	;# 
  1085  028E                     	;# 
  1086  0291                     	;# 
  1087  0291                     	;# 
  1088  0292                     	;# 
  1089  0293                     	;# 
  1090  0293                     	;# 
  1091  0298                     	;# 
  1092  0298                     	;# 
  1093  0299                     	;# 
  1094  029A                     	;# 
  1095  029A                     	;# 
  1096  029E                     	;# 
  1097  030C                     	;# 
  1098  030D                     	;# 
  1099  030E                     	;# 
  1100  038C                     	;# 
  1101  038D                     	;# 
  1102  038E                     	;# 
  1103  0390                     	;# 
  1104  0391                     	;# 
  1105  0392                     	;# 
  1106  0393                     	;# 
  1107  0394                     	;# 
  1108  0395                     	;# 
  1109  0396                     	;# 
  1110  0397                     	;# 
  1111  0398                     	;# 
  1112  0399                     	;# 
  1113  039D                     	;# 
  1114  039E                     	;# 
  1115  039F                     	;# 
  1116  0415                     	;# 
  1117  0416                     	;# 
  1118  0417                     	;# 
  1119  041C                     	;# 
  1120  041D                     	;# 
  1121  041E                     	;# 
  1122  0498                     	;# 
  1123  0498                     	;# 
  1124  0499                     	;# 
  1125  049A                     	;# 
  1126  049B                     	;# 
  1127  049B                     	;# 
  1128  049C                     	;# 
  1129  049D                     	;# 
  1130  049E                     	;# 
  1131  049F                     	;# 
  1132  0511                     	;# 
  1133  0515                     	;# 
  1134  0617                     	;# 
  1135  0618                     	;# 
  1136  0619                     	;# 
  1137  0619                     	;# 
  1138  061A                     	;# 
  1139  061B                     	;# 
  1140  061C                     	;# 
  1141  061C                     	;# 
  1142  0691                     	;# 
  1143  0692                     	;# 
  1144  0693                     	;# 
  1145  0694                     	;# 
  1146  0695                     	;# 
  1147  0696                     	;# 
  1148  0697                     	;# 
  1149  0698                     	;# 
  1150  0699                     	;# 
  1151  069A                     	;# 
  1152  069B                     	;# 
  1153  069C                     	;# 
  1154  069D                     	;# 
  1155  069E                     	;# 
  1156  069F                     	;# 
  1157  0E0F                     	;# 
  1158  0E10                     	;# 
  1159  0E11                     	;# 
  1160  0E12                     	;# 
  1161  0E13                     	;# 
  1162  0E14                     	;# 
  1163  0E15                     	;# 
  1164  0E17                     	;# 
  1165  0E20                     	;# 
  1166  0E21                     	;# 
  1167  0E22                     	;# 
  1168  0E24                     	;# 
  1169  0E25                     	;# 
  1170  0E28                     	;# 
  1171  0E29                     	;# 
  1172  0E2A                     	;# 
  1173  0E2B                     	;# 
  1174  0E90                     	;# 
  1175  0E91                     	;# 
  1176  0E92                     	;# 
  1177  0E93                     	;# 
  1178  0E94                     	;# 
  1179  0E95                     	;# 
  1180  0E96                     	;# 
  1181  0E97                     	;# 
  1182  0E98                     	;# 
  1183  0E99                     	;# 
  1184  0E9A                     	;# 
  1185  0E9B                     	;# 
  1186  0E9C                     	;# 
  1187  0E9D                     	;# 
  1188  0E9E                     	;# 
  1189  0E9F                     	;# 
  1190  0EA0                     	;# 
  1191  0EA1                     	;# 
  1192  0EA2                     	;# 
  1193  0EA3                     	;# 
  1194  0EA4                     	;# 
  1195  0EA5                     	;# 
  1196  0EA6                     	;# 
  1197  0EA7                     	;# 
  1198  0F0F                     	;# 
  1199  0F10                     	;# 
  1200  0F11                     	;# 
  1201  0F12                     	;# 
  1202  0F13                     	;# 
  1203  0F14                     	;# 
  1204  0F15                     	;# 
  1205  0F16                     	;# 
  1206  0F17                     	;# 
  1207  0F18                     	;# 
  1208  0F19                     	;# 
  1209  0F1A                     	;# 
  1210  0F1B                     	;# 
  1211  0F1C                     	;# 
  1212  0F1D                     	;# 
  1213  0F1E                     	;# 
  1214  0F1F                     	;# 
  1215  0F20                     	;# 
  1216  0F21                     	;# 
  1217  0F22                     	;# 
  1218  0F23                     	;# 
  1219  0F24                     	;# 
  1220  0F25                     	;# 
  1221  0F26                     	;# 
  1222  0F27                     	;# 
  1223  0F28                     	;# 
  1224  0F29                     	;# 
  1225  0F2A                     	;# 
  1226  0F2B                     	;# 
  1227  0F2C                     	;# 
  1228  0F2D                     	;# 
  1229  0F2E                     	;# 
  1230  0F2F                     	;# 
  1231  0F30                     	;# 
  1232  0F31                     	;# 
  1233  0F32                     	;# 
  1234  0F33                     	;# 
  1235  0F34                     	;# 
  1236  0F35                     	;# 
  1237  0F36                     	;# 
  1238  0F37                     	;# 
  1239  0FE4                     	;# 
  1240  0FE5                     	;# 
  1241  0FE6                     	;# 
  1242  0FE7                     	;# 
  1243  0FE8                     	;# 
  1244  0FE9                     	;# 
  1245  0FEA                     	;# 
  1246  0FEB                     	;# 
  1247  0FED                     	;# 
  1248  0FEE                     	;# 
  1249  0FEF                     	;# 
  1250  0000                     	;# 
  1251  0001                     	;# 
  1252  0002                     	;# 
  1253  0003                     	;# 
  1254  0004                     	;# 
  1255  0005                     	;# 
  1256  0006                     	;# 
  1257  0007                     	;# 
  1258  0008                     	;# 
  1259  0009                     	;# 
  1260  000A                     	;# 
  1261  000B                     	;# 
  1262  000C                     	;# 
  1263  000D                     	;# 
  1264  000E                     	;# 
  1265  0010                     	;# 
  1266  0011                     	;# 
  1267  0012                     	;# 
  1268  0013                     	;# 
  1269  0015                     	;# 
  1270  0016                     	;# 
  1271  0016                     	;# 
  1272  0017                     	;# 
  1273  0018                     	;# 
  1274  0019                     	;# 
  1275  001A                     	;# 
  1276  001B                     	;# 
  1277  001C                     	;# 
  1278  008C                     	;# 
  1279  008D                     	;# 
  1280  008E                     	;# 
  1281  0090                     	;# 
  1282  0091                     	;# 
  1283  0092                     	;# 
  1284  0093                     	;# 
  1285  0095                     	;# 
  1286  0096                     	;# 
  1287  0097                     	;# 
  1288  0098                     	;# 
  1289  0099                     	;# 
  1290  009A                     	;# 
  1291  009B                     	;# 
  1292  009B                     	;# 
  1293  009C                     	;# 
  1294  009D                     	;# 
  1295  009E                     	;# 
  1296  009F                     	;# 
  1297  010C                     	;# 
  1298  010D                     	;# 
  1299  010E                     	;# 
  1300  0111                     	;# 
  1301  0112                     	;# 
  1302  0113                     	;# 
  1303  0114                     	;# 
  1304  0115                     	;# 
  1305  0116                     	;# 
  1306  0117                     	;# 
  1307  0118                     	;# 
  1308  0119                     	;# 
  1309  011A                     	;# 
  1310  011B                     	;# 
  1311  011B                     	;# 
  1312  011C                     	;# 
  1313  018C                     	;# 
  1314  018D                     	;# 
  1315  018E                     	;# 
  1316  0191                     	;# 
  1317  0191                     	;# 
  1318  0192                     	;# 
  1319  0193                     	;# 
  1320  0193                     	;# 
  1321  0194                     	;# 
  1322  0195                     	;# 
  1323  0196                     	;# 
  1324  0199                     	;# 
  1325  0199                     	;# 
  1326  0199                     	;# 
  1327  019A                     	;# 
  1328  019A                     	;# 
  1329  019A                     	;# 
  1330  019B                     	;# 
  1331  019B                     	;# 
  1332  019B                     	;# 
  1333  019B                     	;# 
  1334  019B                     	;# 
  1335  019C                     	;# 
  1336  019C                     	;# 
  1337  019C                     	;# 
  1338  019D                     	;# 
  1339  019D                     	;# 
  1340  019D                     	;# 
  1341  019E                     	;# 
  1342  019E                     	;# 
  1343  019E                     	;# 
  1344  019F                     	;# 
  1345  019F                     	;# 
  1346  019F                     	;# 
  1347  019F                     	;# 
  1348  019F                     	;# 
  1349  020C                     	;# 
  1350  020D                     	;# 
  1351  020E                     	;# 
  1352  0210                     	;# 
  1353  0211                     	;# 
  1354  0211                     	;# 
  1355  0212                     	;# 
  1356  0212                     	;# 
  1357  0213                     	;# 
  1358  0213                     	;# 
  1359  0214                     	;# 
  1360  0214                     	;# 
  1361  0215                     	;# 
  1362  0215                     	;# 
  1363  0215                     	;# 
  1364  0215                     	;# 
  1365  0216                     	;# 
  1366  0216                     	;# 
  1367  0217                     	;# 
  1368  0217                     	;# 
  1369  028C                     	;# 
  1370  028D                     	;# 
  1371  028E                     	;# 
  1372  0291                     	;# 
  1373  0291                     	;# 
  1374  0292                     	;# 
  1375  0293                     	;# 
  1376  0293                     	;# 
  1377  0298                     	;# 
  1378  0298                     	;# 
  1379  0299                     	;# 
  1380  029A                     	;# 
  1381  029A                     	;# 
  1382  029E                     	;# 
  1383  030C                     	;# 
  1384  030D                     	;# 
  1385  030E                     	;# 
  1386  038C                     	;# 
  1387  038D                     	;# 
  1388  038E                     	;# 
  1389  0390                     	;# 
  1390  0391                     	;# 
  1391  0392                     	;# 
  1392  0393                     	;# 
  1393  0394                     	;# 
  1394  0395                     	;# 
  1395  0396                     	;# 
  1396  0397                     	;# 
  1397  0398                     	;# 
  1398  0399                     	;# 
  1399  039D                     	;# 
  1400  039E                     	;# 
  1401  039F                     	;# 
  1402  0415                     	;# 
  1403  0416                     	;# 
  1404  0417                     	;# 
  1405  041C                     	;# 
  1406  041D                     	;# 
  1407  041E                     	;# 
  1408  0498                     	;# 
  1409  0498                     	;# 
  1410  0499                     	;# 
  1411  049A                     	;# 
  1412  049B                     	;# 
  1413  049B                     	;# 
  1414  049C                     	;# 
  1415  049D                     	;# 
  1416  049E                     	;# 
  1417  049F                     	;# 
  1418  0511                     	;# 
  1419  0515                     	;# 
  1420  0617                     	;# 
  1421  0618                     	;# 
  1422  0619                     	;# 
  1423  0619                     	;# 
  1424  061A                     	;# 
  1425  061B                     	;# 
  1426  061C                     	;# 
  1427  061C                     	;# 
  1428  0691                     	;# 
  1429  0692                     	;# 
  1430  0693                     	;# 
  1431  0694                     	;# 
  1432  0695                     	;# 
  1433  0696                     	;# 
  1434  0697                     	;# 
  1435  0698                     	;# 
  1436  0699                     	;# 
  1437  069A                     	;# 
  1438  069B                     	;# 
  1439  069C                     	;# 
  1440  069D                     	;# 
  1441  069E                     	;# 
  1442  069F                     	;# 
  1443  0E0F                     	;# 
  1444  0E10                     	;# 
  1445  0E11                     	;# 
  1446  0E12                     	;# 
  1447  0E13                     	;# 
  1448  0E14                     	;# 
  1449  0E15                     	;# 
  1450  0E17                     	;# 
  1451  0E20                     	;# 
  1452  0E21                     	;# 
  1453  0E22                     	;# 
  1454  0E24                     	;# 
  1455  0E25                     	;# 
  1456  0E28                     	;# 
  1457  0E29                     	;# 
  1458  0E2A                     	;# 
  1459  0E2B                     	;# 
  1460  0E90                     	;# 
  1461  0E91                     	;# 
  1462  0E92                     	;# 
  1463  0E93                     	;# 
  1464  0E94                     	;# 
  1465  0E95                     	;# 
  1466  0E96                     	;# 
  1467  0E97                     	;# 
  1468  0E98                     	;# 
  1469  0E99                     	;# 
  1470  0E9A                     	;# 
  1471  0E9B                     	;# 
  1472  0E9C                     	;# 
  1473  0E9D                     	;# 
  1474  0E9E                     	;# 
  1475  0E9F                     	;# 
  1476  0EA0                     	;# 
  1477  0EA1                     	;# 
  1478  0EA2                     	;# 
  1479  0EA3                     	;# 
  1480  0EA4                     	;# 
  1481  0EA5                     	;# 
  1482  0EA6                     	;# 
  1483  0EA7                     	;# 
  1484  0F0F                     	;# 
  1485  0F10                     	;# 
  1486  0F11                     	;# 
  1487  0F12                     	;# 
  1488  0F13                     	;# 
  1489  0F14                     	;# 
  1490  0F15                     	;# 
  1491  0F16                     	;# 
  1492  0F17                     	;# 
  1493  0F18                     	;# 
  1494  0F19                     	;# 
  1495  0F1A                     	;# 
  1496  0F1B                     	;# 
  1497  0F1C                     	;# 
  1498  0F1D                     	;# 
  1499  0F1E                     	;# 
  1500  0F1F                     	;# 
  1501  0F20                     	;# 
  1502  0F21                     	;# 
  1503  0F22                     	;# 
  1504  0F23                     	;# 
  1505  0F24                     	;# 
  1506  0F25                     	;# 
  1507  0F26                     	;# 
  1508  0F27                     	;# 
  1509  0F28                     	;# 
  1510  0F29                     	;# 
  1511  0F2A                     	;# 
  1512  0F2B                     	;# 
  1513  0F2C                     	;# 
  1514  0F2D                     	;# 
  1515  0F2E                     	;# 
  1516  0F2F                     	;# 
  1517  0F30                     	;# 
  1518  0F31                     	;# 
  1519  0F32                     	;# 
  1520  0F33                     	;# 
  1521  0F34                     	;# 
  1522  0F35                     	;# 
  1523  0F36                     	;# 
  1524  0F37                     	;# 
  1525  0FE4                     	;# 
  1526  0FE5                     	;# 
  1527  0FE6                     	;# 
  1528  0FE7                     	;# 
  1529  0FE8                     	;# 
  1530  0FE9                     	;# 
  1531  0FEA                     	;# 
  1532  0FEB                     	;# 
  1533  0FED                     	;# 
  1534  0FEE                     	;# 
  1535  0FEF                     	;# 
  1536  0000                     	;# 
  1537  0001                     	;# 
  1538  0002                     	;# 
  1539  0003                     	;# 
  1540  0004                     	;# 
  1541  0005                     	;# 
  1542  0006                     	;# 
  1543  0007                     	;# 
  1544  0008                     	;# 
  1545  0009                     	;# 
  1546  000A                     	;# 
  1547  000B                     	;# 
  1548  000C                     	;# 
  1549  000D                     	;# 
  1550  000E                     	;# 
  1551  0010                     	;# 
  1552  0011                     	;# 
  1553  0012                     	;# 
  1554  0013                     	;# 
  1555  0015                     	;# 
  1556  0016                     	;# 
  1557  0016                     	;# 
  1558  0017                     	;# 
  1559  0018                     	;# 
  1560  0019                     	;# 
  1561  001A                     	;# 
  1562  001B                     	;# 
  1563  001C                     	;# 
  1564  008C                     	;# 
  1565  008D                     	;# 
  1566  008E                     	;# 
  1567  0090                     	;# 
  1568  0091                     	;# 
  1569  0092                     	;# 
  1570  0093                     	;# 
  1571  0095                     	;# 
  1572  0096                     	;# 
  1573  0097                     	;# 
  1574  0098                     	;# 
  1575  0099                     	;# 
  1576  009A                     	;# 
  1577  009B                     	;# 
  1578  009B                     	;# 
  1579  009C                     	;# 
  1580  009D                     	;# 
  1581  009E                     	;# 
  1582  009F                     	;# 
  1583  010C                     	;# 
  1584  010D                     	;# 
  1585  010E                     	;# 
  1586  0111                     	;# 
  1587  0112                     	;# 
  1588  0113                     	;# 
  1589  0114                     	;# 
  1590  0115                     	;# 
  1591  0116                     	;# 
  1592  0117                     	;# 
  1593  0118                     	;# 
  1594  0119                     	;# 
  1595  011A                     	;# 
  1596  011B                     	;# 
  1597  011B                     	;# 
  1598  011C                     	;# 
  1599  018C                     	;# 
  1600  018D                     	;# 
  1601  018E                     	;# 
  1602  0191                     	;# 
  1603  0191                     	;# 
  1604  0192                     	;# 
  1605  0193                     	;# 
  1606  0193                     	;# 
  1607  0194                     	;# 
  1608  0195                     	;# 
  1609  0196                     	;# 
  1610  0199                     	;# 
  1611  0199                     	;# 
  1612  0199                     	;# 
  1613  019A                     	;# 
  1614  019A                     	;# 
  1615  019A                     	;# 
  1616  019B                     	;# 
  1617  019B                     	;# 
  1618  019B                     	;# 
  1619  019B                     	;# 
  1620  019B                     	;# 
  1621  019C                     	;# 
  1622  019C                     	;# 
  1623  019C                     	;# 
  1624  019D                     	;# 
  1625  019D                     	;# 
  1626  019D                     	;# 
  1627  019E                     	;# 
  1628  019E                     	;# 
  1629  019E                     	;# 
  1630  019F                     	;# 
  1631  019F                     	;# 
  1632  019F                     	;# 
  1633  019F                     	;# 
  1634  019F                     	;# 
  1635  020C                     	;# 
  1636  020D                     	;# 
  1637  020E                     	;# 
  1638  0210                     	;# 
  1639  0211                     	;# 
  1640  0211                     	;# 
  1641  0212                     	;# 
  1642  0212                     	;# 
  1643  0213                     	;# 
  1644  0213                     	;# 
  1645  0214                     	;# 
  1646  0214                     	;# 
  1647  0215                     	;# 
  1648  0215                     	;# 
  1649  0215                     	;# 
  1650  0215                     	;# 
  1651  0216                     	;# 
  1652  0216                     	;# 
  1653  0217                     	;# 
  1654  0217                     	;# 
  1655  028C                     	;# 
  1656  028D                     	;# 
  1657  028E                     	;# 
  1658  0291                     	;# 
  1659  0291                     	;# 
  1660  0292                     	;# 
  1661  0293                     	;# 
  1662  0293                     	;# 
  1663  0298                     	;# 
  1664  0298                     	;# 
  1665  0299                     	;# 
  1666  029A                     	;# 
  1667  029A                     	;# 
  1668  029E                     	;# 
  1669  030C                     	;# 
  1670  030D                     	;# 
  1671  030E                     	;# 
  1672  038C                     	;# 
  1673  038D                     	;# 
  1674  038E                     	;# 
  1675  0390                     	;# 
  1676  0391                     	;# 
  1677  0392                     	;# 
  1678  0393                     	;# 
  1679  0394                     	;# 
  1680  0395                     	;# 
  1681  0396                     	;# 
  1682  0397                     	;# 
  1683  0398                     	;# 
  1684  0399                     	;# 
  1685  039D                     	;# 
  1686  039E                     	;# 
  1687  039F                     	;# 
  1688  0415                     	;# 
  1689  0416                     	;# 
  1690  0417                     	;# 
  1691  041C                     	;# 
  1692  041D                     	;# 
  1693  041E                     	;# 
  1694  0498                     	;# 
  1695  0498                     	;# 
  1696  0499                     	;# 
  1697  049A                     	;# 
  1698  049B                     	;# 
  1699  049B                     	;# 
  1700  049C                     	;# 
  1701  049D                     	;# 
  1702  049E                     	;# 
  1703  049F                     	;# 
  1704  0511                     	;# 
  1705  0515                     	;# 
  1706  0617                     	;# 
  1707  0618                     	;# 
  1708  0619                     	;# 
  1709  0619                     	;# 
  1710  061A                     	;# 
  1711  061B                     	;# 
  1712  061C                     	;# 
  1713  061C                     	;# 
  1714  0691                     	;# 
  1715  0692                     	;# 
  1716  0693                     	;# 
  1717  0694                     	;# 
  1718  0695                     	;# 
  1719  0696                     	;# 
  1720  0697                     	;# 
  1721  0698                     	;# 
  1722  0699                     	;# 
  1723  069A                     	;# 
  1724  069B                     	;# 
  1725  069C                     	;# 
  1726  069D                     	;# 
  1727  069E                     	;# 
  1728  069F                     	;# 
  1729  0E0F                     	;# 
  1730  0E10                     	;# 
  1731  0E11                     	;# 
  1732  0E12                     	;# 
  1733  0E13                     	;# 
  1734  0E14                     	;# 
  1735  0E15                     	;# 
  1736  0E17                     	;# 
  1737  0E20                     	;# 
  1738  0E21                     	;# 
  1739  0E22                     	;# 
  1740  0E24                     	;# 
  1741  0E25                     	;# 
  1742  0E28                     	;# 
  1743  0E29                     	;# 
  1744  0E2A                     	;# 
  1745  0E2B                     	;# 
  1746  0E90                     	;# 
  1747  0E91                     	;# 
  1748  0E92                     	;# 
  1749  0E93                     	;# 
  1750  0E94                     	;# 
  1751  0E95                     	;# 
  1752  0E96                     	;# 
  1753  0E97                     	;# 
  1754  0E98                     	;# 
  1755  0E99                     	;# 
  1756  0E9A                     	;# 
  1757  0E9B                     	;# 
  1758  0E9C                     	;# 
  1759  0E9D                     	;# 
  1760  0E9E                     	;# 
  1761  0E9F                     	;# 
  1762  0EA0                     	;# 
  1763  0EA1                     	;# 
  1764  0EA2                     	;# 
  1765  0EA3                     	;# 
  1766  0EA4                     	;# 
  1767  0EA5                     	;# 
  1768  0EA6                     	;# 
  1769  0EA7                     	;# 
  1770  0F0F                     	;# 
  1771  0F10                     	;# 
  1772  0F11                     	;# 
  1773  0F12                     	;# 
  1774  0F13                     	;# 
  1775  0F14                     	;# 
  1776  0F15                     	;# 
  1777  0F16                     	;# 
  1778  0F17                     	;# 
  1779  0F18                     	;# 
  1780  0F19                     	;# 
  1781  0F1A                     	;# 
  1782  0F1B                     	;# 
  1783  0F1C                     	;# 
  1784  0F1D                     	;# 
  1785  0F1E                     	;# 
  1786  0F1F                     	;# 
  1787  0F20                     	;# 
  1788  0F21                     	;# 
  1789  0F22                     	;# 
  1790  0F23                     	;# 
  1791  0F24                     	;# 
  1792  0F25                     	;# 
  1793  0F26                     	;# 
  1794  0F27                     	;# 
  1795  0F28                     	;# 
  1796  0F29                     	;# 
  1797  0F2A                     	;# 
  1798  0F2B                     	;# 
  1799  0F2C                     	;# 
  1800  0F2D                     	;# 
  1801  0F2E                     	;# 
  1802  0F2F                     	;# 
  1803  0F30                     	;# 
  1804  0F31                     	;# 
  1805  0F32                     	;# 
  1806  0F33                     	;# 
  1807  0F34                     	;# 
  1808  0F35                     	;# 
  1809  0F36                     	;# 
  1810  0F37                     	;# 
  1811  0FE4                     	;# 
  1812  0FE5                     	;# 
  1813  0FE6                     	;# 
  1814  0FE7                     	;# 
  1815  0FE8                     	;# 
  1816  0FE9                     	;# 
  1817  0FEA                     	;# 
  1818  0FEB                     	;# 
  1819  0FED                     	;# 
  1820  0FEE                     	;# 
  1821  0FEF                     	;# 
  1822  0000                     	;# 
  1823  0001                     	;# 
  1824  0002                     	;# 
  1825  0003                     	;# 
  1826  0004                     	;# 
  1827  0005                     	;# 
  1828  0006                     	;# 
  1829  0007                     	;# 
  1830  0008                     	;# 
  1831  0009                     	;# 
  1832  000A                     	;# 
  1833  000B                     	;# 
  1834  000C                     	;# 
  1835  000D                     	;# 
  1836  000E                     	;# 
  1837  0010                     	;# 
  1838  0011                     	;# 
  1839  0012                     	;# 
  1840  0013                     	;# 
  1841  0015                     	;# 
  1842  0016                     	;# 
  1843  0016                     	;# 
  1844  0017                     	;# 
  1845  0018                     	;# 
  1846  0019                     	;# 
  1847  001A                     	;# 
  1848  001B                     	;# 
  1849  001C                     	;# 
  1850  008C                     	;# 
  1851  008D                     	;# 
  1852  008E                     	;# 
  1853  0090                     	;# 
  1854  0091                     	;# 
  1855  0092                     	;# 
  1856  0093                     	;# 
  1857  0095                     	;# 
  1858  0096                     	;# 
  1859  0097                     	;# 
  1860  0098                     	;# 
  1861  0099                     	;# 
  1862  009A                     	;# 
  1863  009B                     	;# 
  1864  009B                     	;# 
  1865  009C                     	;# 
  1866  009D                     	;# 
  1867  009E                     	;# 
  1868  009F                     	;# 
  1869  010C                     	;# 
  1870  010D                     	;# 
  1871  010E                     	;# 
  1872  0111                     	;# 
  1873  0112                     	;# 
  1874  0113                     	;# 
  1875  0114                     	;# 
  1876  0115                     	;# 
  1877  0116                     	;# 
  1878  0117                     	;# 
  1879  0118                     	;# 
  1880  0119                     	;# 
  1881  011A                     	;# 
  1882  011B                     	;# 
  1883  011B                     	;# 
  1884  011C                     	;# 
  1885  018C                     	;# 
  1886  018D                     	;# 
  1887  018E                     	;# 
  1888  0191                     	;# 
  1889  0191                     	;# 
  1890  0192                     	;# 
  1891  0193                     	;# 
  1892  0193                     	;# 
  1893  0194                     	;# 
  1894  0195                     	;# 
  1895  0196                     	;# 
  1896  0199                     	;# 
  1897  0199                     	;# 
  1898  0199                     	;# 
  1899  019A                     	;# 
  1900  019A                     	;# 
  1901  019A                     	;# 
  1902  019B                     	;# 
  1903  019B                     	;# 
  1904  019B                     	;# 
  1905  019B                     	;# 
  1906  019B                     	;# 
  1907  019C                     	;# 
  1908  019C                     	;# 
  1909  019C                     	;# 
  1910  019D                     	;# 
  1911  019D                     	;# 
  1912  019D                     	;# 
  1913  019E                     	;# 
  1914  019E                     	;# 
  1915  019E                     	;# 
  1916  019F                     	;# 
  1917  019F                     	;# 
  1918  019F                     	;# 
  1919  019F                     	;# 
  1920  019F                     	;# 
  1921  020C                     	;# 
  1922  020D                     	;# 
  1923  020E                     	;# 
  1924  0210                     	;# 
  1925  0211                     	;# 
  1926  0211                     	;# 
  1927  0212                     	;# 
  1928  0212                     	;# 
  1929  0213                     	;# 
  1930  0213                     	;# 
  1931  0214                     	;# 
  1932  0214                     	;# 
  1933  0215                     	;# 
  1934  0215                     	;# 
  1935  0215                     	;# 
  1936  0215                     	;# 
  1937  0216                     	;# 
  1938  0216                     	;# 
  1939  0217                     	;# 
  1940  0217                     	;# 
  1941  028C                     	;# 
  1942  028D                     	;# 
  1943  028E                     	;# 
  1944  0291                     	;# 
  1945  0291                     	;# 
  1946  0292                     	;# 
  1947  0293                     	;# 
  1948  0293                     	;# 
  1949  0298                     	;# 
  1950  0298                     	;# 
  1951  0299                     	;# 
  1952  029A                     	;# 
  1953  029A                     	;# 
  1954  029E                     	;# 
  1955  030C                     	;# 
  1956  030D                     	;# 
  1957  030E                     	;# 
  1958  038C                     	;# 
  1959  038D                     	;# 
  1960  038E                     	;# 
  1961  0390                     	;# 
  1962  0391                     	;# 
  1963  0392                     	;# 
  1964  0393                     	;# 
  1965  0394                     	;# 
  1966  0395                     	;# 
  1967  0396                     	;# 
  1968  0397                     	;# 
  1969  0398                     	;# 
  1970  0399                     	;# 
  1971  039D                     	;# 
  1972  039E                     	;# 
  1973  039F                     	;# 
  1974  0415                     	;# 
  1975  0416                     	;# 
  1976  0417                     	;# 
  1977  041C                     	;# 
  1978  041D                     	;# 
  1979  041E                     	;# 
  1980  0498                     	;# 
  1981  0498                     	;# 
  1982  0499                     	;# 
  1983  049A                     	;# 
  1984  049B                     	;# 
  1985  049B                     	;# 
  1986  049C                     	;# 
  1987  049D                     	;# 
  1988  049E                     	;# 
  1989  049F                     	;# 
  1990  0511                     	;# 
  1991  0515                     	;# 
  1992  0617                     	;# 
  1993  0618                     	;# 
  1994  0619                     	;# 
  1995  0619                     	;# 
  1996  061A                     	;# 
  1997  061B                     	;# 
  1998  061C                     	;# 
  1999  061C                     	;# 
  2000  0691                     	;# 
  2001  0692                     	;# 
  2002  0693                     	;# 
  2003  0694                     	;# 
  2004  0695                     	;# 
  2005  0696                     	;# 
  2006  0697                     	;# 
  2007  0698                     	;# 
  2008  0699                     	;# 
  2009  069A                     	;# 
  2010  069B                     	;# 
  2011  069C                     	;# 
  2012  069D                     	;# 
  2013  069E                     	;# 
  2014  069F                     	;# 
  2015  0E0F                     	;# 
  2016  0E10                     	;# 
  2017  0E11                     	;# 
  2018  0E12                     	;# 
  2019  0E13                     	;# 
  2020  0E14                     	;# 
  2021  0E15                     	;# 
  2022  0E17                     	;# 
  2023  0E20                     	;# 
  2024  0E21                     	;# 
  2025  0E22                     	;# 
  2026  0E24                     	;# 
  2027  0E25                     	;# 
  2028  0E28                     	;# 
  2029  0E29                     	;# 
  2030  0E2A                     	;# 
  2031  0E2B                     	;# 
  2032  0E90                     	;# 
  2033  0E91                     	;# 
  2034  0E92                     	;# 
  2035  0E93                     	;# 
  2036  0E94                     	;# 
  2037  0E95                     	;# 
  2038  0E96                     	;# 
  2039  0E97                     	;# 
  2040  0E98                     	;# 
  2041  0E99                     	;# 
  2042  0E9A                     	;# 
  2043  0E9B                     	;# 
  2044  0E9C                     	;# 
  2045  0E9D                     	;# 
  2046  0E9E                     	;# 
  2047  0E9F                     	;# 
  2048  0EA0                     	;# 
  2049  0EA1                     	;# 
  2050  0EA2                     	;# 
  2051  0EA3                     	;# 
  2052  0EA4                     	;# 
  2053  0EA5                     	;# 
  2054  0EA6                     	;# 
  2055  0EA7                     	;# 
  2056  0F0F                     	;# 
  2057  0F10                     	;# 
  2058  0F11                     	;# 
  2059  0F12                     	;# 
  2060  0F13                     	;# 
  2061  0F14                     	;# 
  2062  0F15                     	;# 
  2063  0F16                     	;# 
  2064  0F17                     	;# 
  2065  0F18                     	;# 
  2066  0F19                     	;# 
  2067  0F1A                     	;# 
  2068  0F1B                     	;# 
  2069  0F1C                     	;# 
  2070  0F1D                     	;# 
  2071  0F1E                     	;# 
  2072  0F1F                     	;# 
  2073  0F20                     	;# 
  2074  0F21                     	;# 
  2075  0F22                     	;# 
  2076  0F23                     	;# 
  2077  0F24                     	;# 
  2078  0F25                     	;# 
  2079  0F26                     	;# 
  2080  0F27                     	;# 
  2081  0F28                     	;# 
  2082  0F29                     	;# 
  2083  0F2A                     	;# 
  2084  0F2B                     	;# 
  2085  0F2C                     	;# 
  2086  0F2D                     	;# 
  2087  0F2E                     	;# 
  2088  0F2F                     	;# 
  2089  0F30                     	;# 
  2090  0F31                     	;# 
  2091  0F32                     	;# 
  2092  0F33                     	;# 
  2093  0F34                     	;# 
  2094  0F35                     	;# 
  2095  0F36                     	;# 
  2096  0F37                     	;# 
  2097  0FE4                     	;# 
  2098  0FE5                     	;# 
  2099  0FE6                     	;# 
  2100  0FE7                     	;# 
  2101  0FE8                     	;# 
  2102  0FE9                     	;# 
  2103  0FEA                     	;# 
  2104  0FEB                     	;# 
  2105  0FED                     	;# 
  2106  0FEE                     	;# 
  2107  0FEF                     	;# 
  2108                           
  2109                           	psect	idataBANK0
  2110  04A4                     __pidataBANK0:
  2111                           
  2112                           ;initializer for main@F5662
  2113  04A4  3400               	retlw	0
  2114  04A5  340A               	retlw	10
  2115  04A6  3411               	retlw	17
  2116  04A7  3415               	retlw	21
  2117  04A8  3415               	retlw	21
  2118  04A9  3411               	retlw	17
  2119  04AA  340A               	retlw	10
  2120  04AB  3400               	retlw	0
  2121                           
  2122                           ;initializer for main@F5660
  2123  04AC  3418               	retlw	24
  2124  04AD  3410               	retlw	16
  2125  04AE  341F               	retlw	31
  2126  04AF  341F               	retlw	31
  2127  04B0  341F               	retlw	31
  2128  04B1  3410               	retlw	16
  2129  04B2  3418               	retlw	24
  2130  04B3  3400               	retlw	0
  2131                           
  2132                           ;initializer for _lcdOffset
  2133  04B4  3403               	retlw	3
  2134                           
  2135                           ;initializer for _mainState
  2136  04B5  3401               	retlw	1
  2137                           
  2138                           	psect	idataBANK1
  2139  04E9                     __pidataBANK1:
  2140                           
  2141                           ;initializer for main@F5666
  2142  04E9  3400               	retlw	0
  2143  04EA  3400               	retlw	0
  2144  04EB  340A               	retlw	10
  2145  04EC  341F               	retlw	31
  2146  04ED  341F               	retlw	31
  2147  04EE  340E               	retlw	14
  2148  04EF  3404               	retlw	4
  2149  04F0  3400               	retlw	0
  2150                           
  2151                           ;initializer for main@F5664
  2152  04F1  3400               	retlw	0
  2153  04F2  3400               	retlw	0
  2154  04F3  340E               	retlw	14
  2155  04F4  341F               	retlw	31
  2156  04F5  340E               	retlw	14
  2157  04F6  3400               	retlw	0
  2158  04F7  3400               	retlw	0
  2159  04F8  3400               	retlw	0
  2160                           
  2161                           	psect	nvBANK0
  2162  0046                     __pnvBANK0:
  2163  0046                     _IOCAF5_InterruptHandler:
  2164  0046                     	ds	2
  2165  0048                     _IOCAF4_InterruptHandler:
  2166  0048                     	ds	2
  2167  004A                     _IOCAF3_InterruptHandler:
  2168  004A                     	ds	2
  2169  004C                     _IOCAF2_InterruptHandler:
  2170  004C                     	ds	2
  2171  004E                     _IOCAF1_InterruptHandler:
  2172  004E                     	ds	2
  2173  0050                     _IOCAF0_InterruptHandler:
  2174  0050                     	ds	2
  2175  000D                     _PORTBbits	set	13
  2176  000D                     _PORTB	set	13
  2177  000B                     _INTCONbits	set	11
  2178  0097                     _WDTCON	set	151
  2179  0098                     _OSCTUNE	set	152
  2180  0099                     _OSCCON	set	153
  2181  0095                     _OPTION_REGbits	set	149
  2182  008E                     _TRISC	set	142
  2183  008D                     _TRISB	set	141
  2184  008C                     _TRISA	set	140
  2185  0090                     _TRISE	set	144
  2186  0116                     _BORCON	set	278
  2187  010E                     _LATC	set	270
  2188  010D                     _LATB	set	269
  2189  010C                     _LATA	set	268
  2190  018C                     _ANSELA	set	396
  2191  018D                     _ANSELB	set	397
  2192  018E                     _ANSELC	set	398
  2193  020E                     _WPUC	set	526
  2194  020C                     _WPUA	set	524
  2195  020D                     _WPUB	set	525
  2196  0210                     _WPUE	set	528
  2197  028E                     _ODCONC	set	654
  2198  028D                     _ODCONB	set	653
  2199  028C                     _ODCONA	set	652
  2200  030E                     _SLRCONC	set	782
  2201  030D                     _SLRCONB	set	781
  2202  030C                     _SLRCONA	set	780
  2203  0391                     _IOCAPbits	set	913
  2204  0392                     _IOCANbits	set	914
  2205  0393                     _IOCAFbits	set	915
  2206  0390                     _INLVLE	set	912
  2207  038E                     _INLVLC	set	910
  2208  038D                     _INLVLB	set	909
  2209  038C                     _INLVLA	set	908
  2210                           
  2211                           	psect	stringtext1
  2212  04B6                     __pstringtext1:
  2213  04B6                     STR_1:
  2214  04B6  3420               	retlw	32	;' '
  2215  04B7  3420               	retlw	32	;' '
  2216  04B8  3420               	retlw	32	;' '
  2217  04B9  3420               	retlw	32	;' '
  2218  04BA  3420               	retlw	32	;' '
  2219  04BB  3420               	retlw	32	;' '
  2220  04BC  3420               	retlw	32	;' '
  2221  04BD  3420               	retlw	32	;' '
  2222  04BE  3420               	retlw	32	;' '
  2223  04BF  3420               	retlw	32	;' '
  2224  04C0  3420               	retlw	32	;' '
  2225  04C1  3420               	retlw	32	;' '
  2226  04C2  3420               	retlw	32	;' '
  2227  04C3  3420               	retlw	32	;' '
  2228  04C4  3420               	retlw	32	;' '
  2229  04C5  3420               	retlw	32	;' '
  2230  04C6  3400               	retlw	0
  2231                           
  2232                           	psect	stringtext2
  2233  0535                     __pstringtext2:
  2234  0535                     STR_6:
  2235  0535  3453               	retlw	83	;'S'
  2236  0536  3465               	retlw	101	;'e'
  2237  0537  346C               	retlw	108	;'l'
  2238  0538  3465               	retlw	101	;'e'
  2239  0539  3463               	retlw	99	;'c'
  2240  053A  3474               	retlw	116	;'t'
  2241  053B  3420               	retlw	32	;' '
  2242  053C  3473               	retlw	115	;'s'
  2243  053D  3468               	retlw	104	;'h'
  2244  053E  3469               	retlw	105	;'i'
  2245  053F  3470               	retlw	112	;'p'
  2246  0540  3423               	retlw	35	;'#'
  2247  0541  3431               	retlw	49	;'1'
  2248  0542  3400               	retlw	0
  2249                           
  2250                           	psect	stringtext3
  2251  0543                     __pstringtext3:
  2252  0543                     STR_8:
  2253  0543  3420               	retlw	32	;' '
  2254  0544  3420               	retlw	32	;' '
  2255  0545  3454               	retlw	84	;'T'
  2256  0546  3469               	retlw	105	;'i'
  2257  0547  3465               	retlw	101	;'e'
  2258  0548  3420               	retlw	32	;' '
  2259  0549  3446               	retlw	70	;'F'
  2260  054A  3469               	retlw	105	;'i'
  2261  054B  3467               	retlw	103	;'g'
  2262  054C  3468               	retlw	104	;'h'
  2263  054D  3474               	retlw	116	;'t'
  2264  054E  3465               	retlw	101	;'e'
  2265  054F  3472               	retlw	114	;'r'
  2266  0550  3400               	retlw	0
  2267                           
  2268                           	psect	stringtext4
  2269  0551                     __pstringtext4:
  2270  0551                     STR_7:
  2271  0551  343E               	retlw	62	;'>'
  2272  0552  3420               	retlw	32	;' '
  2273  0553  3454               	retlw	84	;'T'
  2274  0554  3469               	retlw	105	;'i'
  2275  0555  3465               	retlw	101	;'e'
  2276  0556  3420               	retlw	32	;' '
  2277  0557  3446               	retlw	70	;'F'
  2278  0558  3469               	retlw	105	;'i'
  2279  0559  3467               	retlw	103	;'g'
  2280  055A  3468               	retlw	104	;'h'
  2281  055B  3474               	retlw	116	;'t'
  2282  055C  3465               	retlw	101	;'e'
  2283  055D  3472               	retlw	114	;'r'
  2284  055E  3400               	retlw	0
  2285                           
  2286                           	psect	stringtext5
  2287  055F                     __pstringtext5:
  2288  055F                     STR_5:
  2289  055F  3420               	retlw	32	;' '
  2290  0560  3420               	retlw	32	;' '
  2291  0561  3420               	retlw	32	;' '
  2292  0562  344D               	retlw	77	;'M'
  2293  0563  3465               	retlw	101	;'e'
  2294  0564  346E               	retlw	110	;'n'
  2295  0565  3475               	retlw	117	;'u'
  2296  0566  3420               	retlw	32	;' '
  2297  0567  3420               	retlw	32	;' '
  2298  0568  3420               	retlw	32	;' '
  2299  0569  3400               	retlw	0
  2300                           
  2301                           	psect	stringtext6
  2302  0574                     __pstringtext6:
  2303  0574                     STR_9:
  2304  0574  343E               	retlw	62	;'>'
  2305  0575  3420               	retlw	32	;' '
  2306  0576  3458               	retlw	88	;'X'
  2307  0577  3420               	retlw	32	;' '
  2308  0578  3477               	retlw	119	;'w'
  2309  0579  3469               	retlw	105	;'i'
  2310  057A  346E               	retlw	110	;'n'
  2311  057B  3467               	retlw	103	;'g'
  2312  057C  3400               	retlw	0
  2313                           
  2314                           	psect	stringtext7
  2315  0000                     __pstringtext7:
  2316  04C5                     
  2317                           	psect	cinit
  2318  001D                     start_initialization:	
  2319                           ; #config settings
  2320                           
  2321  001D                     __initialization:
  2322                           
  2323                           ; Initialize objects allocated to BANK0
  2324  001D  30A4               	movlw	low __pidataBANK0
  2325  001E  0084               	movwf	4
  2326  001F  3084               	movlw	(high __pidataBANK0)| (0+128)
  2327  0020  0085               	movwf	5
  2328  0021  3034               	movlw	low __pdataBANK0
  2329  0022  0086               	movwf	6
  2330  0023  3000               	movlw	high __pdataBANK0
  2331  0024  0087               	movwf	7
  2332  0025  3012               	movlw	18
  2333  0026  3185  2584  3180   	fcall	init_ram
  2334                           
  2335                           ; Initialize objects allocated to BANK1
  2336  0029  30E9               	movlw	low __pidataBANK1
  2337  002A  0084               	movwf	4
  2338  002B  3084               	movlw	(high __pidataBANK1)| (0+128)
  2339  002C  0085               	movwf	5
  2340  002D  30C0               	movlw	low __pdataBANK1
  2341  002E  0086               	movwf	6
  2342  002F  3000               	movlw	high __pdataBANK1
  2343  0030  0087               	movwf	7
  2344  0031  3010               	movlw	16
  2345  0032  3185  2584  3180   	fcall	init_ram
  2346                           
  2347                           ; Clear objects allocated to BANK0
  2348  0035  01D2               	clrf	__pbssBANK0& (0+127)
  2349  0036  01D3               	clrf	(__pbssBANK0+1)& (0+127)
  2350  0037  01D4               	clrf	(__pbssBANK0+2)& (0+127)
  2351  0038                     end_of_initialization:	
  2352                           ;End of C runtime variable initialization code
  2353                           
  2354  0038                     __end_of__initialization:
  2355  0038  107E               	bcf	int$flags,0	;clear compiler interrupt flag (level 1)
  2356  0039  0020               	movlb	0
  2357  003A  3180  283C         	ljmp	_main	;jump to C main() function
  2358                           
  2359                           	psect	bssBANK0
  2360  0052                     __pbssBANK0:
  2361  0052                     _playerTurn:
  2362  0052                     	ds	1
  2363  0053                     _player:
  2364  0053                     	ds	1
  2365  0054                     _inGame:
  2366  0054                     	ds	1
  2367                           
  2368                           	psect	dataBANK0
  2369  0034                     __pdataBANK0:
  2370  0034                     main@F5662:
  2371  0034                     	ds	8
  2372  003C                     main@F5660:
  2373  003C                     	ds	8
  2374  0044                     _lcdOffset:
  2375  0044                     	ds	1
  2376  0045                     _mainState:
  2377  0045                     	ds	1
  2378                           
  2379                           	psect	dataBANK1
  2380  00C0                     __pdataBANK1:
  2381  00C0                     main@F5666:
  2382  00C0                     	ds	8
  2383  00C8                     main@F5664:
  2384  00C8                     	ds	8
  2385                           
  2386                           	psect	inittext
  2387  0584                     init_ram:
  2388  0584  00FE               	movwf	btemp
  2389  0585                     initloop:
  2390  0585  0012               	moviw fsr0++
  2391  0586  001E               	movwi fsr1++
  2392  0587  0BFE               	decfsz	btemp,f
  2393  0588  2D85               	goto	initloop
  2394  0589  3400               	retlw	0
  2395                           
  2396                           	psect	cstackBANK1
  2397  00A0                     __pcstackBANK1:
  2398  00A0                     main@Pattern1:
  2399                           
  2400                           ; 8 bytes @ 0x0
  2401  00A0                     	ds	8
  2402  00A8                     main@Pattern2:
  2403                           
  2404                           ; 8 bytes @ 0x8
  2405  00A8                     	ds	8
  2406  00B0                     main@Pattern3:
  2407                           
  2408                           ; 8 bytes @ 0x10
  2409  00B0                     	ds	8
  2410  00B8                     main@Pattern4:
  2411                           
  2412                           ; 8 bytes @ 0x18
  2413  00B8                     	ds	8
  2414                           
  2415                           	psect	cstackCOMMON
  2416  0070                     __pcstackCOMMON:
  2417  0070                     ?_IOCAF0_DefaultInterruptHandler:
  2418  0070                     ??_IOCAF0_DefaultInterruptHandler:	
  2419                           ; 1 bytes @ 0x0
  2420                           
  2421  0070                     ?_IOCAF1_DefaultInterruptHandler:	
  2422                           ; 1 bytes @ 0x0
  2423                           
  2424  0070                     ??_IOCAF1_DefaultInterruptHandler:	
  2425                           ; 1 bytes @ 0x0
  2426                           
  2427  0070                     ?_IOCAF2_DefaultInterruptHandler:	
  2428                           ; 1 bytes @ 0x0
  2429                           
  2430  0070                     ??_IOCAF2_DefaultInterruptHandler:	
  2431                           ; 1 bytes @ 0x0
  2432                           
  2433  0070                     ?_IOCAF3_DefaultInterruptHandler:	
  2434                           ; 1 bytes @ 0x0
  2435                           
  2436  0070                     ??_IOCAF3_DefaultInterruptHandler:	
  2437                           ; 1 bytes @ 0x0
  2438                           
  2439  0070                     ?_IOCAF4_DefaultInterruptHandler:	
  2440                           ; 1 bytes @ 0x0
  2441                           
  2442  0070                     ??_IOCAF4_DefaultInterruptHandler:	
  2443                           ; 1 bytes @ 0x0
  2444                           
  2445  0070                     ?_IOCAF5_DefaultInterruptHandler:	
  2446                           ; 1 bytes @ 0x0
  2447                           
  2448  0070                     ??_IOCAF5_DefaultInterruptHandler:	
  2449                           ; 1 bytes @ 0x0
  2450                           
  2451  0070                     ?_IOCAF0_ISR:	
  2452                           ; 1 bytes @ 0x0
  2453                           
  2454  0070                     ?_IOCAF1_ISR:	
  2455                           ; 1 bytes @ 0x0
  2456                           
  2457  0070                     ?_IOCAF2_ISR:	
  2458                           ; 1 bytes @ 0x0
  2459                           
  2460  0070                     ??_IOCAF2_ISR:	
  2461                           ; 1 bytes @ 0x0
  2462                           
  2463  0070                     ?_IOCAF3_ISR:	
  2464                           ; 1 bytes @ 0x0
  2465                           
  2466  0070                     ??_IOCAF3_ISR:	
  2467                           ; 1 bytes @ 0x0
  2468                           
  2469  0070                     ?_IOCAF4_ISR:	
  2470                           ; 1 bytes @ 0x0
  2471                           
  2472  0070                     ??_IOCAF4_ISR:	
  2473                           ; 1 bytes @ 0x0
  2474                           
  2475  0070                     ?_IOCAF5_ISR:	
  2476                           ; 1 bytes @ 0x0
  2477                           
  2478  0070                     ??_IOCAF5_ISR:	
  2479                           ; 1 bytes @ 0x0
  2480                           
  2481  0070                     ?_printMenu:	
  2482                           ; 1 bytes @ 0x0
  2483                           
  2484  0070                     ?_OSCILLATOR_Initialize:	
  2485                           ; 1 bytes @ 0x0
  2486                           
  2487  0070                     ?_WDT_Initialize:	
  2488                           ; 1 bytes @ 0x0
  2489                           
  2490  0070                     ?_LCDPutCmd:	
  2491                           ; 1 bytes @ 0x0
  2492                           
  2493  0070                     ?_cleanMenu:	
  2494                           ; 1 bytes @ 0x0
  2495                           
  2496  0070                     ?_cleanFullMenu:	
  2497                           ; 1 bytes @ 0x0
  2498                           
  2499  0070                     ?_mainMenu:	
  2500                           ; 1 bytes @ 0x0
  2501                           
  2502  0070                     ?_PIN_MANAGER_Initialize:	
  2503                           ; 1 bytes @ 0x0
  2504                           
  2505  0070                     ?_PIN_MANAGER_IOC:	
  2506                           ; 1 bytes @ 0x0
  2507                           
  2508  0070                     ?_SYSTEM_Initialize:	
  2509                           ; 1 bytes @ 0x0
  2510                           
  2511  0070                     ?_INTERRUPT_InterruptManager:	
  2512                           ; 1 bytes @ 0x0
  2513                           
  2514  0070                     ?_LCD_Initialize:	
  2515                           ; 1 bytes @ 0x0
  2516                           
  2517  0070                     ?_LCDPutChar:	
  2518                           ; 1 bytes @ 0x0
  2519                           
  2520  0070                     ?_disableButton:	
  2521                           ; 1 bytes @ 0x0
  2522                           
  2523  0070                     ?_enableButton:	
  2524                           ; 1 bytes @ 0x0
  2525                           
  2526  0070                     ?_main:	
  2527                           ; 1 bytes @ 0x0
  2528                           
  2529  0070                     ?i1_LCDWriteNibble:	
  2530                           ; 1 bytes @ 0x0
  2531                           
  2532  0070                     ?i1_LCDPutChar:	
  2533                           ; 1 bytes @ 0x0
  2534                           
  2535  0070                     ?i1_LCDPutCmd:	
  2536                           ; 1 bytes @ 0x0
  2537                           
  2538  0070                     ?i1_printMenu:	
  2539                           ; 1 bytes @ 0x0
  2540                           
  2541  0070                     ?i1_mainMenu:	
  2542                           ; 1 bytes @ 0x0
  2543                           
  2544  0070                     ?i1_cleanMenu:	
  2545                           ; 1 bytes @ 0x0
  2546                           
  2547  0070                     ?i1_cleanFullMenu:	
  2548                           ; 1 bytes @ 0x0
  2549                           
  2550  0070                     i1LCDWriteNibble@rs:	
  2551                           ; 1 bytes @ 0x0
  2552                           
  2553                           
  2554                           ; 1 bytes @ 0x0
  2555  0070                     	ds	1
  2556  0071                     ??i1_LCDWriteNibble:
  2557                           
  2558                           ; 1 bytes @ 0x1
  2559  0071                     	ds	2
  2560  0073                     i1LCDWriteNibble@ch:
  2561                           
  2562                           ; 1 bytes @ 0x3
  2563  0073                     	ds	1
  2564  0074                     ??i1_LCDPutChar:
  2565  0074                     ??i1_LCDPutCmd:	
  2566                           ; 1 bytes @ 0x4
  2567                           
  2568                           
  2569                           ; 1 bytes @ 0x4
  2570  0074                     	ds	2
  2571  0076                     i1LCDPutChar@ch:
  2572  0076                     i1LCDPutCmd@ch:	
  2573                           ; 1 bytes @ 0x6
  2574                           
  2575                           
  2576                           ; 1 bytes @ 0x6
  2577  0076                     	ds	1
  2578  0077                     ?i1_LCDPutStr:
  2579  0077                     ?i1_LCDGoto:	
  2580                           ; 1 bytes @ 0x7
  2581                           
  2582  0077                     i1LCDGoto@ln:	
  2583                           ; 1 bytes @ 0x7
  2584                           
  2585  0077                     i1LCDPutStr@str:	
  2586                           ; 1 bytes @ 0x7
  2587                           
  2588                           
  2589                           ; 2 bytes @ 0x7
  2590  0077                     	ds	1
  2591  0078                     ??i1_LCDGoto:
  2592  0078                     i1_LCDGoto$469:	
  2593                           ; 1 bytes @ 0x8
  2594                           
  2595                           
  2596                           ; 2 bytes @ 0x8
  2597  0078                     	ds	1
  2598  0079                     ??i1_LCDPutStr:
  2599                           
  2600                           ; 1 bytes @ 0x9
  2601  0079                     	ds	1
  2602  007A                     i1LCDGoto@pos:
  2603                           
  2604                           ; 1 bytes @ 0xA
  2605  007A                     	ds	2
  2606  007C                     i1LCDPutStr@i:
  2607                           
  2608                           ; 1 bytes @ 0xC
  2609  007C                     	ds	1
  2610  007D                     ??_PIN_MANAGER_IOC:
  2611  007D                     ??_INTERRUPT_InterruptManager:	
  2612                           ; 1 bytes @ 0xD
  2613                           
  2614  007D                     ??i1_printMenu:	
  2615                           ; 1 bytes @ 0xD
  2616                           
  2617  007D                     ??i1_cleanMenu:	
  2618                           ; 1 bytes @ 0xD
  2619                           
  2620  007D                     ??i1_cleanFullMenu:	
  2621                           ; 1 bytes @ 0xD
  2622                           
  2623                           
  2624                           ; 1 bytes @ 0xD
  2625  007D                     	ds	1
  2626                           
  2627                           	psect	cstackBANK0
  2628  0020                     __pcstackBANK0:
  2629  0020                     ??i1_mainMenu:
  2630                           
  2631                           ; 1 bytes @ 0x0
  2632  0020                     	ds	2
  2633  0022                     ??_IOCAF0_ISR:
  2634  0022                     ??_IOCAF1_ISR:	
  2635                           ; 1 bytes @ 0x2
  2636                           
  2637                           
  2638                           ; 1 bytes @ 0x2
  2639  0022                     	ds	2
  2640  0024                     ?_IOCAF0_SetInterruptHandler:
  2641  0024                     ?_IOCAF1_SetInterruptHandler:	
  2642                           ; 1 bytes @ 0x4
  2643                           
  2644  0024                     ?_IOCAF2_SetInterruptHandler:	
  2645                           ; 1 bytes @ 0x4
  2646                           
  2647  0024                     ?_IOCAF3_SetInterruptHandler:	
  2648                           ; 1 bytes @ 0x4
  2649                           
  2650  0024                     ?_IOCAF4_SetInterruptHandler:	
  2651                           ; 1 bytes @ 0x4
  2652                           
  2653  0024                     ?_IOCAF5_SetInterruptHandler:	
  2654                           ; 1 bytes @ 0x4
  2655                           
  2656  0024                     ??_OSCILLATOR_Initialize:	
  2657                           ; 1 bytes @ 0x4
  2658                           
  2659  0024                     ??_WDT_Initialize:	
  2660                           ; 1 bytes @ 0x4
  2661                           
  2662  0024                     ?_LCDWriteNibble:	
  2663                           ; 1 bytes @ 0x4
  2664                           
  2665  0024                     ??_disableButton:	
  2666                           ; 1 bytes @ 0x4
  2667                           
  2668  0024                     ??_enableButton:	
  2669                           ; 1 bytes @ 0x4
  2670                           
  2671  0024                     LCDWriteNibble@rs:	
  2672                           ; 1 bytes @ 0x4
  2673                           
  2674  0024                     disableButton@player:	
  2675                           ; 1 bytes @ 0x4
  2676                           
  2677  0024                     enableButton@player:	
  2678                           ; 1 bytes @ 0x4
  2679                           
  2680  0024                     IOCAF0_SetInterruptHandler@InterruptHandler:	
  2681                           ; 1 bytes @ 0x4
  2682                           
  2683  0024                     IOCAF1_SetInterruptHandler@InterruptHandler:	
  2684                           ; 2 bytes @ 0x4
  2685                           
  2686  0024                     IOCAF2_SetInterruptHandler@InterruptHandler:	
  2687                           ; 2 bytes @ 0x4
  2688                           
  2689  0024                     IOCAF3_SetInterruptHandler@InterruptHandler:	
  2690                           ; 2 bytes @ 0x4
  2691                           
  2692  0024                     IOCAF4_SetInterruptHandler@InterruptHandler:	
  2693                           ; 2 bytes @ 0x4
  2694                           
  2695  0024                     IOCAF5_SetInterruptHandler@InterruptHandler:	
  2696                           ; 2 bytes @ 0x4
  2697                           
  2698                           
  2699                           ; 2 bytes @ 0x4
  2700  0024                     	ds	1
  2701  0025                     ??_LCDWriteNibble:
  2702                           
  2703                           ; 1 bytes @ 0x5
  2704  0025                     	ds	1
  2705  0026                     ??_IOCAF0_SetInterruptHandler:
  2706  0026                     ??_IOCAF1_SetInterruptHandler:	
  2707                           ; 1 bytes @ 0x6
  2708                           
  2709  0026                     ??_IOCAF2_SetInterruptHandler:	
  2710                           ; 1 bytes @ 0x6
  2711                           
  2712  0026                     ??_IOCAF3_SetInterruptHandler:	
  2713                           ; 1 bytes @ 0x6
  2714                           
  2715  0026                     ??_IOCAF4_SetInterruptHandler:	
  2716                           ; 1 bytes @ 0x6
  2717                           
  2718  0026                     ??_IOCAF5_SetInterruptHandler:	
  2719                           ; 1 bytes @ 0x6
  2720                           
  2721  0026                     ??_PIN_MANAGER_Initialize:	
  2722                           ; 1 bytes @ 0x6
  2723                           
  2724  0026                     ??_SYSTEM_Initialize:	
  2725                           ; 1 bytes @ 0x6
  2726                           
  2727                           
  2728                           ; 1 bytes @ 0x6
  2729  0026                     	ds	1
  2730  0027                     LCDWriteNibble@ch:
  2731                           
  2732                           ; 1 bytes @ 0x7
  2733  0027                     	ds	1
  2734  0028                     ??_LCDPutCmd:
  2735  0028                     ??_LCDPutChar:	
  2736                           ; 1 bytes @ 0x8
  2737                           
  2738                           
  2739                           ; 1 bytes @ 0x8
  2740  0028                     	ds	2
  2741  002A                     LCDPutChar@ch:
  2742  002A                     LCDPutCmd@ch:	
  2743                           ; 1 bytes @ 0xA
  2744                           
  2745                           
  2746                           ; 1 bytes @ 0xA
  2747  002A                     	ds	1
  2748  002B                     ??_LCD_Initialize:
  2749  002B                     ?_LCDPutStr:	
  2750                           ; 1 bytes @ 0xB
  2751                           
  2752  002B                     ?_LCDGoto:	
  2753                           ; 1 bytes @ 0xB
  2754                           
  2755  002B                     ?_createCustomCharacter:	
  2756                           ; 1 bytes @ 0xB
  2757                           
  2758  002B                     LCDGoto@ln:	
  2759                           ; 1 bytes @ 0xB
  2760                           
  2761  002B                     createCustomCharacter@Location:	
  2762                           ; 1 bytes @ 0xB
  2763                           
  2764  002B                     LCDPutStr@str:	
  2765                           ; 1 bytes @ 0xB
  2766                           
  2767                           
  2768                           ; 2 bytes @ 0xB
  2769  002B                     	ds	1
  2770  002C                     ??_LCDGoto:
  2771  002C                     ??_createCustomCharacter:	
  2772                           ; 1 bytes @ 0xC
  2773                           
  2774  002C                     _LCDGoto$469:	
  2775                           ; 1 bytes @ 0xC
  2776                           
  2777                           
  2778                           ; 2 bytes @ 0xC
  2779  002C                     	ds	1
  2780  002D                     ??_LCDPutStr:
  2781  002D                     createCustomCharacter@Pattern:	
  2782                           ; 1 bytes @ 0xD
  2783                           
  2784                           
  2785                           ; 1 bytes @ 0xD
  2786  002D                     	ds	1
  2787  002E                     LCDGoto@pos:
  2788  002E                     createCustomCharacter@i:	
  2789                           ; 1 bytes @ 0xE
  2790                           
  2791                           
  2792                           ; 2 bytes @ 0xE
  2793  002E                     	ds	2
  2794  0030                     LCDPutStr@i:
  2795                           
  2796                           ; 1 bytes @ 0x10
  2797  0030                     	ds	1
  2798  0031                     ??_cleanMenu:
  2799  0031                     ??_cleanFullMenu:	
  2800                           ; 1 bytes @ 0x11
  2801                           
  2802  0031                     ??_mainMenu:	
  2803                           ; 1 bytes @ 0x11
  2804                           
  2805                           
  2806                           ; 1 bytes @ 0x11
  2807  0031                     	ds	2
  2808  0033                     ??_printMenu:
  2809  0033                     ??_main:	
  2810                           ; 1 bytes @ 0x13
  2811                           
  2812                           
  2813                           ; 1 bytes @ 0x13
  2814  0033                     	ds	1
  2815                           
  2816                           	psect	maintext
  2817  003C                     __pmaintext:	
  2818 ;;
  2819 ;;Main: autosize = 0, tempsize = 1, incstack = 0, save=0
  2820 ;;
  2821 ;; *************** function _main *****************
  2822 ;; Defined at:
  2823 ;;		line 29 in file "main.c"
  2824 ;; Parameters:    Size  Location     Type
  2825 ;;		None
  2826 ;; Auto vars:     Size  Location     Type
  2827 ;;  Pattern4        8   24[BANK1 ] unsigned char [8]
  2828 ;;  Pattern3        8   16[BANK1 ] unsigned char [8]
  2829 ;;  Pattern2        8    8[BANK1 ] unsigned char [8]
  2830 ;;  Pattern1        8    0[BANK1 ] unsigned char [8]
  2831 ;; Return value:  Size  Location     Type
  2832 ;;                  1    wreg      void 
  2833 ;; Registers used:
  2834 ;;		wreg, fsr0l, fsr0h, fsr1l, fsr1h, status,2, status,0, pclath, cstack
  2835 ;; Tracked objects:
  2836 ;;		On entry : B1F/0
  2837 ;;		On exit  : 0/0
  2838 ;;		Unchanged: 0/0
  2839 ;; Data sizes:     COMMON   BANK0   BANK1   BANK2   BANK3   BANK4   BANK5   BANK6   BANK7   BANK8   BANK9  BANK10  BANK1
      +1  BANK12  BANK13  BANK14  BANK15  BANK16  BANK17  BANK18  BANK19  BANK20  BANK21  BANK22  BANK23  BANK24  BANK25
  2840 ;;      Params:         0       0       0       0       0       0       0       0       0       0       0       0       
      +0       0       0       0       0       0       0       0       0       0       0       0       0       0       0
  2841 ;;      Locals:         0       0      32       0       0       0       0       0       0       0       0       0       
      +0       0       0       0       0       0       0       0       0       0       0       0       0       0       0
  2842 ;;      Temps:          0       1       0       0       0       0       0       0       0       0       0       0       
      +0       0       0       0       0       0       0       0       0       0       0       0       0       0       0
  2843 ;;      Totals:         0       1      32       0       0       0       0       0       0       0       0       0       
      +0       0       0       0       0       0       0       0       0       0       0       0       0       0       0
  2844 ;;Total ram usage:       33 bytes
  2845 ;; Hardware stack levels required when called:   13
  2846 ;; This function calls:
  2847 ;;		_LCD_Initialize
  2848 ;;		_SYSTEM_Initialize
  2849 ;;		_createCustomCharacter
  2850 ;;		_disableButton
  2851 ;;		_enableButton
  2852 ;;		_printMenu
  2853 ;; This function is called by:
  2854 ;;		Startup code after reset
  2855 ;; This function uses a non-reentrant model
  2856 ;;
  2857                           
  2858                           
  2859                           ;psect for function _main
  2860  003C                     _main:
  2861  003C                     l2349:	
  2862                           ;incstack = 0
  2863                           ; Regs used in _main: [wreg-fsr1h+status,2+status,0+pclath+cstack]
  2864                           
  2865                           
  2866                           ;main.c: 35:     SYSTEM_Initialize();
  2867  003C  3185  256A  3180   	fcall	_SYSTEM_Initialize
  2868                           
  2869                           ;main.c: 36:     LCD_Initialize();
  2870  003F  3183  2314  3180   	fcall	_LCD_Initialize
  2871  0042                     l2351:
  2872                           
  2873                           ;main.c: 40:     unsigned char Pattern1 [ ] = {0x18,0x10,0x1F,0x1F,0x1F,0x10,0x18,0x00};
  2874  0042  303C               	movlw	low main@F5660
  2875  0043  0086               	movwf	6
  2876  0044  3000               	movlw	high main@F5660
  2877  0045  0087               	movwf	7
  2878  0046  30A0               	movlw	low main@Pattern1
  2879  0047  0084               	movwf	4
  2880  0048  3000               	movlw	high main@Pattern1
  2881  0049  0085               	movwf	5
  2882  004A  3008               	movlw	8
  2883  004B  0020               	movlb	0	; select bank0
  2884  004C  00B3               	movwf	??_main
  2885  004D                     u1110:
  2886  004D  0016               	moviw fsr1++
  2887  004E  001A               	movwi fsr0++
  2888  004F  0BB3               	decfsz	??_main,f
  2889  0050  284D               	goto	u1110
  2890  0051                     l2353:
  2891                           
  2892                           ;main.c: 42:     unsigned char Pattern2 [ ] = {0x00,0x0A,0x11,0x15,0x15,0x11,0x0A,0x00};
  2893  0051  3034               	movlw	low main@F5662
  2894  0052  0086               	movwf	6
  2895  0053  3000               	movlw	high main@F5662
  2896  0054  0087               	movwf	7
  2897  0055  30A8               	movlw	low main@Pattern2
  2898  0056  0084               	movwf	4
  2899  0057  3000               	movlw	high main@Pattern2
  2900  0058  0085               	movwf	5
  2901  0059  3008               	movlw	8
  2902  005A  00B3               	movwf	??_main
  2903  005B                     u1120:
  2904  005B  0016               	moviw fsr1++
  2905  005C  001A               	movwi fsr0++
  2906  005D  0BB3               	decfsz	??_main,f
  2907  005E  285B               	goto	u1120
  2908  005F                     l2355:
  2909                           
  2910                           ;main.c: 44:     unsigned char Pattern3 [ ] = {0x00,0x00,0x0E,0x1F,0x0E,0x00,0x00,0x00} 
      +                          ;
  2911  005F  30C8               	movlw	low main@F5664
  2912  0060  0086               	movwf	6
  2913  0061  3000               	movlw	high main@F5664
  2914  0062  0087               	movwf	7
  2915  0063  30B0               	movlw	low main@Pattern3
  2916  0064  0084               	movwf	4
  2917  0065  3000               	movlw	high main@Pattern3
  2918  0066  0085               	movwf	5
  2919  0067  3008               	movlw	8
  2920  0068  00B3               	movwf	??_main
  2921  0069                     u1130:
  2922  0069  0016               	moviw fsr1++
  2923  006A  001A               	movwi fsr0++
  2924  006B  0BB3               	decfsz	??_main,f
  2925  006C  2869               	goto	u1130
  2926  006D                     l2357:
  2927                           
  2928                           ;main.c: 46:     unsigned char Pattern4 [ ] = {0x00,0x00,0x0A,0x1F,0x1F,0x0E,0x04,0x00} 
      +                          ;
  2929  006D  30C0               	movlw	low main@F5666
  2930  006E  0086               	movwf	6
  2931  006F  3000               	movlw	high main@F5666
  2932  0070  0087               	movwf	7
  2933  0071  30B8               	movlw	low main@Pattern4
  2934  0072  0084               	movwf	4
  2935  0073  3000               	movlw	high main@Pattern4
  2936  0074  0085               	movwf	5
  2937  0075  3008               	movlw	8
  2938  0076  00B3               	movwf	??_main
  2939  0077                     u1140:
  2940  0077  0016               	moviw fsr1++
  2941  0078  001A               	movwi fsr0++
  2942  0079  0BB3               	decfsz	??_main,f
  2943  007A  2877               	goto	u1140
  2944  007B                     l2359:
  2945                           
  2946                           ;main.c: 50:     createCustomCharacter(Pattern1,1);
  2947  007B  01AB               	clrf	createCustomCharacter@Location
  2948  007C  0AAB               	incf	createCustomCharacter@Location,f
  2949  007D  30A0               	movlw	(low (main@Pattern1| 0))& (0+255)
  2950  007E  3181  21F1  3180   	fcall	_createCustomCharacter
  2951  0081                     l2361:
  2952                           
  2953                           ;main.c: 51:     createCustomCharacter(Pattern2,0);
  2954  0081  0020               	movlb	0	; select bank0
  2955  0082  01AB               	clrf	createCustomCharacter@Location
  2956  0083  30A8               	movlw	(low (main@Pattern2| 0))& (0+255)
  2957  0084  3181  21F1  3180   	fcall	_createCustomCharacter
  2958  0087                     l2363:
  2959                           
  2960                           ;main.c: 52:     createCustomCharacter(Pattern3,2);
  2961  0087  3002               	movlw	2
  2962  0088  0020               	movlb	0	; select bank0
  2963  0089  00B3               	movwf	??_main
  2964  008A  0833               	movf	??_main,w
  2965  008B  00AB               	movwf	createCustomCharacter@Location
  2966  008C  30B0               	movlw	(low (main@Pattern3| 0))& (0+255)
  2967  008D  3181  21F1  3180   	fcall	_createCustomCharacter
  2968  0090                     l2365:
  2969                           
  2970                           ;main.c: 53:     createCustomCharacter(Pattern4,3);
  2971  0090  3003               	movlw	3
  2972  0091  0020               	movlb	0	; select bank0
  2973  0092  00B3               	movwf	??_main
  2974  0093  0833               	movf	??_main,w
  2975  0094  00AB               	movwf	createCustomCharacter@Location
  2976  0095  30B8               	movlw	(low (main@Pattern4| 0))& (0+255)
  2977  0096  3181  21F1  3180   	fcall	_createCustomCharacter
  2978  0099                     l2367:
  2979                           
  2980                           ;main.c: 58:     printMenu();
  2981  0099  3183  23BA  3180   	fcall	_printMenu
  2982  009C                     l2369:
  2983                           
  2984                           ;main.c: 61:     (INTCONbits.GIE = 1);
  2985  009C  178B               	bsf	11,7	;volatile
  2986  009D                     l2371:
  2987                           
  2988                           ;main.c: 64:     {;main.c: 65:         disableButton(0);
  2989  009D  3000               	movlw	0
  2990  009E  3184  24D8  3180   	fcall	_disableButton
  2991  00A1                     l2373:
  2992                           
  2993                           ;main.c: 66:         _delay((unsigned long)((500)*(500000/4000.0)));
  2994  00A1  3052               	movlw	82
  2995  00A2  0020               	movlb	0	; select bank0
  2996  00A3  00B3               	movwf	??_main
  2997  00A4  3029               	movlw	41
  2998  00A5                     u1157:
  2999  00A5  0B89               	decfsz	9,f
  3000  00A6  28A5               	goto	u1157
  3001  00A7  0BB3               	decfsz	??_main,f
  3002  00A8  28A5               	goto	u1157
  3003  00A9  3200               	nop2
  3004  00AA                     l2375:
  3005                           
  3006                           ;main.c: 67:         enableButton(0);
  3007  00AA  3000               	movlw	0
  3008  00AB  3184  24C7  3180   	fcall	_enableButton
  3009  00AE                     l2377:
  3010                           
  3011                           ;main.c: 68:         _delay((unsigned long)((500)*(500000/4000.0)));
  3012  00AE  3052               	movlw	82
  3013  00AF  0020               	movlb	0	; select bank0
  3014  00B0  00B3               	movwf	??_main
  3015  00B1  3029               	movlw	41
  3016  00B2                     u1167:
  3017  00B2  0B89               	decfsz	9,f
  3018  00B3  28B2               	goto	u1167
  3019  00B4  0BB3               	decfsz	??_main,f
  3020  00B5  28B2               	goto	u1167
  3021  00B6  3200               	nop2
  3022  00B7  289D               	goto	l2371
  3023  00B8  3180  281B         	ljmp	start
  3024  00BA                     __end_of_main:
  3025                           
  3026                           	psect	text1
  3027  03BA                     __ptext1:	
  3028 ;; *************** function _printMenu *****************
  3029 ;; Defined at:
  3030 ;;		line 26 in file "menu.c"
  3031 ;; Parameters:    Size  Location     Type
  3032 ;;		None
  3033 ;; Auto vars:     Size  Location     Type
  3034 ;;		None
  3035 ;; Return value:  Size  Location     Type
  3036 ;;                  1    wreg      void 
  3037 ;; Registers used:
  3038 ;;		wreg, fsr0l, fsr0h, status,2, status,0, pclath, cstack
  3039 ;; Tracked objects:
  3040 ;;		On entry : 0/0
  3041 ;;		On exit  : 0/0
  3042 ;;		Unchanged: 0/0
  3043 ;; Data sizes:     COMMON   BANK0   BANK1   BANK2   BANK3   BANK4   BANK5   BANK6   BANK7   BANK8   BANK9  BANK10  BANK1
      +1  BANK12  BANK13  BANK14  BANK15  BANK16  BANK17  BANK18  BANK19  BANK20  BANK21  BANK22  BANK23  BANK24  BANK25
  3044 ;;      Params:         0       0       0       0       0       0       0       0       0       0       0       0       
      +0       0       0       0       0       0       0       0       0       0       0       0       0       0       0
  3045 ;;      Locals:         0       0       0       0       0       0       0       0       0       0       0       0       
      +0       0       0       0       0       0       0       0       0       0       0       0       0       0       0
  3046 ;;      Temps:          0       0       0       0       0       0       0       0       0       0       0       0       
      +0       0       0       0       0       0       0       0       0       0       0       0       0       0       0
  3047 ;;      Totals:         0       0       0       0       0       0       0       0       0       0       0       0       
      +0       0       0       0       0       0       0       0       0       0       0       0       0       0       0
  3048 ;;Total ram usage:        0 bytes
  3049 ;; Hardware stack levels used:    1
  3050 ;; Hardware stack levels required when called:   12
  3051 ;; This function calls:
  3052 ;;		_LCDGoto
  3053 ;;		_LCDPutStr
  3054 ;;		_cleanFullMenu
  3055 ;;		_cleanMenu
  3056 ;;		_mainMenu
  3057 ;; This function is called by:
  3058 ;;		_main
  3059 ;; This function uses a non-reentrant model
  3060 ;;
  3061                           
  3062                           
  3063                           ;psect for function _printMenu
  3064  03BA                     _printMenu:
  3065  03BA                     l2245:	
  3066                           ;incstack = 0
  3067                           ; Regs used in _printMenu: [wreg-fsr0h+status,2+status,0+pclath+cstack]
  3068                           
  3069                           
  3070                           ;menu.c: 29:     if(inGame){
  3071  03BA  0020               	movlb	0	; select bank0
  3072  03BB  0854               	movf	_inGame,w
  3073  03BC  1903               	btfsc	3,2
  3074  03BD  2BBF               	goto	u1011
  3075  03BE  2BC0               	goto	u1010
  3076  03BF                     u1011:
  3077  03BF  2BD2               	goto	l2253
  3078  03C0                     u1010:
  3079  03C0                     l2247:
  3080                           
  3081                           ;menu.c: 30:         cleanMenu();
  3082  03C0  3183  23F8  3183   	fcall	_cleanMenu
  3083  03C3                     l2249:
  3084                           
  3085                           ;menu.c: 31:         LCDGoto(0, 0);
  3086  03C3  0020               	movlb	0	; select bank0
  3087  03C4  01AB               	clrf	LCDGoto@ln
  3088  03C5  3000               	movlw	0
  3089  03C6  3182  229F  3183   	fcall	_LCDGoto
  3090  03C9                     l2251:
  3091                           
  3092                           ;menu.c: 32:         LCDPutStr("   Menu   ");
  3093  03C9  305F               	movlw	low (STR_5| (0+32768))
  3094  03CA  0020               	movlb	0	; select bank0
  3095  03CB  00AB               	movwf	LCDPutStr@str
  3096  03CC  3085               	movlw	high (STR_5| (0+32768))
  3097  03CD  00AC               	movwf	LCDPutStr@str+1
  3098  03CE  3182  2277  3183   	fcall	_LCDPutStr
  3099                           
  3100                           ;menu.c: 33:     }else {
  3101  03D1  2BD8               	goto	l375
  3102  03D2                     l2253:
  3103                           
  3104                           ;menu.c: 34:         cleanFullMenu();
  3105  03D2  3184  2416  3183   	fcall	_cleanFullMenu
  3106                           
  3107                           ;menu.c: 35:         mainMenu();
  3108  03D5  3181  212C  3183   	fcall	_mainMenu
  3109  03D8                     l375:
  3110  03D8  0008               	return
  3111  03D9                     __end_of_printMenu:
  3112                           
  3113                           	psect	text2
  3114  012C                     __ptext2:	
  3115 ;; *************** function _mainMenu *****************
  3116 ;; Defined at:
  3117 ;;		line 39 in file "menu.c"
  3118 ;; Parameters:    Size  Location     Type
  3119 ;;		None
  3120 ;; Auto vars:     Size  Location     Type
  3121 ;;		None
  3122 ;; Return value:  Size  Location     Type
  3123 ;;                  1    wreg      void 
  3124 ;; Registers used:
  3125 ;;		wreg, fsr0l, fsr0h, status,2, status,0, pclath, cstack
  3126 ;; Tracked objects:
  3127 ;;		On entry : 0/0
  3128 ;;		On exit  : 0/0
  3129 ;;		Unchanged: 0/0
  3130 ;; Data sizes:     COMMON   BANK0   BANK1   BANK2   BANK3   BANK4   BANK5   BANK6   BANK7   BANK8   BANK9  BANK10  BANK1
      +1  BANK12  BANK13  BANK14  BANK15  BANK16  BANK17  BANK18  BANK19  BANK20  BANK21  BANK22  BANK23  BANK24  BANK25
  3131 ;;      Params:         0       0       0       0       0       0       0       0       0       0       0       0       
      +0       0       0       0       0       0       0       0       0       0       0       0       0       0       0
  3132 ;;      Locals:         0       0       0       0       0       0       0       0       0       0       0       0       
      +0       0       0       0       0       0       0       0       0       0       0       0       0       0       0
  3133 ;;      Temps:          0       2       0       0       0       0       0       0       0       0       0       0       
      +0       0       0       0       0       0       0       0       0       0       0       0       0       0       0
  3134 ;;      Totals:         0       2       0       0       0       0       0       0       0       0       0       0       
      +0       0       0       0       0       0       0       0       0       0       0       0       0       0       0
  3135 ;;Total ram usage:        2 bytes
  3136 ;; Hardware stack levels used:    1
  3137 ;; Hardware stack levels required when called:   11
  3138 ;; This function calls:
  3139 ;;		_LCDGoto
  3140 ;;		_LCDPutStr
  3141 ;; This function is called by:
  3142 ;;		_printMenu
  3143 ;; This function uses a non-reentrant model
  3144 ;;
  3145                           
  3146                           
  3147                           ;psect for function _mainMenu
  3148  012C                     _mainMenu:
  3149  012C                     l2199:	
  3150                           ;incstack = 0
  3151                           ; Regs used in _mainMenu: [wreg-fsr0h+status,2+status,0+pclath+cstack]
  3152                           
  3153                           
  3154                           ;menu.c: 40:     switch (mainState){
  3155  012C  2967               	goto	l2215
  3156  012D                     l2201:
  3157                           
  3158                           ;menu.c: 42:             LCDGoto(0, 0);
  3159  012D  01AB               	clrf	LCDGoto@ln
  3160  012E  3000               	movlw	0
  3161  012F  3182  229F  3181   	fcall	_LCDGoto
  3162  0132                     l2203:
  3163                           
  3164                           ;menu.c: 43:             LCDPutStr("Select ship#1");
  3165  0132  3035               	movlw	low (STR_6| (0+32768))
  3166  0133  0020               	movlb	0	; select bank0
  3167  0134  00AB               	movwf	LCDPutStr@str
  3168  0135  3085               	movlw	high (STR_6| (0+32768))
  3169  0136  00AC               	movwf	LCDPutStr@str+1
  3170  0137  3182  2277  3181   	fcall	_LCDPutStr
  3171  013A                     l2205:
  3172                           
  3173                           ;menu.c: 44:             LCDGoto(0, 1);
  3174  013A  0020               	movlb	0	; select bank0
  3175  013B  01AB               	clrf	LCDGoto@ln
  3176  013C  0AAB               	incf	LCDGoto@ln,f
  3177  013D  3000               	movlw	0
  3178  013E  3182  229F  3181   	fcall	_LCDGoto
  3179                           
  3180                           ;menu.c: 45:             LCDPutStr("> Tie Fighter");
  3181  0141  3051               	movlw	low (STR_7| (0+32768))
  3182  0142  0020               	movlb	0	; select bank0
  3183  0143  00AB               	movwf	LCDPutStr@str
  3184  0144  3085               	movlw	high (STR_7| (0+32768))
  3185  0145  00AC               	movwf	LCDPutStr@str+1
  3186  0146  3182  2277  3181   	fcall	_LCDPutStr
  3187                           
  3188                           ;menu.c: 46:         break;
  3189  0149  2978               	goto	l383
  3190  014A                     l2207:
  3191                           
  3192                           ;menu.c: 48:           LCDGoto(0, 0);
  3193  014A  01AB               	clrf	LCDGoto@ln
  3194  014B  3000               	movlw	0
  3195  014C  3182  229F  3181   	fcall	_LCDGoto
  3196  014F                     l2209:
  3197                           
  3198                           ;menu.c: 49:             LCDPutStr("  Tie Fighter");
  3199  014F  3043               	movlw	low (STR_8| (0+32768))
  3200  0150  0020               	movlb	0	; select bank0
  3201  0151  00AB               	movwf	LCDPutStr@str
  3202  0152  3085               	movlw	high (STR_8| (0+32768))
  3203  0153  00AC               	movwf	LCDPutStr@str+1
  3204  0154  3182  2277  3181   	fcall	_LCDPutStr
  3205  0157                     l2211:
  3206                           
  3207                           ;menu.c: 50:             LCDGoto(0, 1);
  3208  0157  0020               	movlb	0	; select bank0
  3209  0158  01AB               	clrf	LCDGoto@ln
  3210  0159  0AAB               	incf	LCDGoto@ln,f
  3211  015A  3000               	movlw	0
  3212  015B  3182  229F  3181   	fcall	_LCDGoto
  3213                           
  3214                           ;menu.c: 51:             LCDPutStr("> X wing");
  3215  015E  3074               	movlw	low (STR_9| (0+32768))
  3216  015F  0020               	movlb	0	; select bank0
  3217  0160  00AB               	movwf	LCDPutStr@str
  3218  0161  3085               	movlw	high (STR_9| (0+32768))
  3219  0162  00AC               	movwf	LCDPutStr@str+1
  3220  0163  3182  2277  3181   	fcall	_LCDPutStr
  3221                           
  3222                           ;menu.c: 52:         break;
  3223  0166  2978               	goto	l383
  3224  0167                     l2215:
  3225  0167  0020               	movlb	0	; select bank0
  3226  0168  0845               	movf	_mainState,w
  3227  0169  00B1               	movwf	??_mainMenu
  3228  016A  01B2               	clrf	??_mainMenu+1
  3229                           
  3230                           ; Switch on 2 bytes has been partitioned into a top level switch of size 1, and 1 sub-sw
      +                          itches
  3231                           ; Switch size 1, requested type "simple"
  3232                           ; Number of cases is 1, Range of values is 0 to 0
  3233                           ; switch strategies available:
  3234                           ; Name         Instructions Cycles
  3235                           ; simple_byte            4     3 (average)
  3236                           ; direct_byte            8     6 (fixed)
  3237                           ; jumptable            260     6 (fixed)
  3238                           ;	Chosen strategy is simple_byte
  3239  016B  0832               	movf	??_mainMenu+1,w
  3240  016C  3A00               	xorlw	0	; case 0
  3241  016D  1903               	skipnz
  3242  016E  2970               	goto	l2459
  3243  016F  2978               	goto	l383
  3244  0170                     l2459:
  3245                           
  3246                           ; Switch size 1, requested type "simple"
  3247                           ; Number of cases is 2, Range of values is 0 to 1
  3248                           ; switch strategies available:
  3249                           ; Name         Instructions Cycles
  3250                           ; simple_byte            7     4 (average)
  3251                           ; direct_byte           10     6 (fixed)
  3252                           ; jumptable            260     6 (fixed)
  3253                           ;	Chosen strategy is simple_byte
  3254  0170  0831               	movf	??_mainMenu,w
  3255  0171  3A00               	xorlw	0	; case 0
  3256  0172  1903               	skipnz
  3257  0173  292D               	goto	l2201
  3258  0174  3A01               	xorlw	1	; case 1
  3259  0175  1903               	skipnz
  3260  0176  294A               	goto	l2207
  3261  0177  2978               	goto	l383
  3262  0178                     l383:
  3263  0178  0008               	return
  3264  0179                     __end_of_mainMenu:
  3265                           
  3266                           	psect	text3
  3267  03F8                     __ptext3:	
  3268 ;; *************** function _cleanMenu *****************
  3269 ;; Defined at:
  3270 ;;		line 58 in file "menu.c"
  3271 ;; Parameters:    Size  Location     Type
  3272 ;;		None
  3273 ;; Auto vars:     Size  Location     Type
  3274 ;;		None
  3275 ;; Return value:  Size  Location     Type
  3276 ;;                  1    wreg      void 
  3277 ;; Registers used:
  3278 ;;		wreg, fsr0l, fsr0h, status,2, status,0, pclath, cstack
  3279 ;; Tracked objects:
  3280 ;;		On entry : 0/0
  3281 ;;		On exit  : 0/0
  3282 ;;		Unchanged: 0/0
  3283 ;; Data sizes:     COMMON   BANK0   BANK1   BANK2   BANK3   BANK4   BANK5   BANK6   BANK7   BANK8   BANK9  BANK10  BANK1
      +1  BANK12  BANK13  BANK14  BANK15  BANK16  BANK17  BANK18  BANK19  BANK20  BANK21  BANK22  BANK23  BANK24  BANK25
  3284 ;;      Params:         0       0       0       0       0       0       0       0       0       0       0       0       
      +0       0       0       0       0       0       0       0       0       0       0       0       0       0       0
  3285 ;;      Locals:         0       0       0       0       0       0       0       0       0       0       0       0       
      +0       0       0       0       0       0       0       0       0       0       0       0       0       0       0
  3286 ;;      Temps:          0       0       0       0       0       0       0       0       0       0       0       0       
      +0       0       0       0       0       0       0       0       0       0       0       0       0       0       0
  3287 ;;      Totals:         0       0       0       0       0       0       0       0       0       0       0       0       
      +0       0       0       0       0       0       0       0       0       0       0       0       0       0       0
  3288 ;;Total ram usage:        0 bytes
  3289 ;; Hardware stack levels used:    1
  3290 ;; Hardware stack levels required when called:   11
  3291 ;; This function calls:
  3292 ;;		_LCDGoto
  3293 ;;		_LCDPutStr
  3294 ;; This function is called by:
  3295 ;;		_printMenu
  3296 ;; This function uses a non-reentrant model
  3297 ;;
  3298                           
  3299                           
  3300                           ;psect for function _cleanMenu
  3301  03F8                     _cleanMenu:
  3302  03F8                     l2187:	
  3303                           ;incstack = 0
  3304                           ; Regs used in _cleanMenu: [wreg-fsr0h+status,2+status,0+pclath+cstack]
  3305                           
  3306                           
  3307                           ;menu.c: 61:     LCDGoto(lcdOffset, 0);
  3308  03F8  0020               	movlb	0	; select bank0
  3309  03F9  01AB               	clrf	LCDGoto@ln
  3310  03FA  0844               	movf	_lcdOffset,w
  3311  03FB  3182  229F  3183   	fcall	_LCDGoto
  3312  03FE                     l2189:
  3313                           
  3314                           ;menu.c: 62:     LCDPutStr("          ");
  3315  03FE  30BC               	movlw	low ((STR_1+6)| (0+32768))
  3316  03FF  0020               	movlb	0	; select bank0
  3317  0400  00AB               	movwf	LCDPutStr@str
  3318  0401  3084               	movlw	high ((STR_1+6)| (0+32768))
  3319  0402  00AC               	movwf	LCDPutStr@str+1
  3320  0403  3182  2277  3183   	fcall	_LCDPutStr
  3321  0406                     l2191:
  3322                           
  3323                           ;menu.c: 63:     LCDGoto(lcdOffset, 1);
  3324  0406  0020               	movlb	0	; select bank0
  3325  0407  01AB               	clrf	LCDGoto@ln
  3326  0408  0AAB               	incf	LCDGoto@ln,f
  3327  0409  0844               	movf	_lcdOffset,w
  3328  040A  3182  229F  3183   	fcall	_LCDGoto
  3329                           
  3330                           ;menu.c: 64:     LCDPutStr("          ");
  3331  040D  30BC               	movlw	low ((STR_1+6)| (0+32768))
  3332  040E  0020               	movlb	0	; select bank0
  3333  040F  00AB               	movwf	LCDPutStr@str
  3334  0410  3084               	movlw	high ((STR_1+6)| (0+32768))
  3335  0411  00AC               	movwf	LCDPutStr@str+1
  3336  0412  3182  2277  3183   	fcall	_LCDPutStr
  3337  0415                     l386:
  3338  0415  0008               	return
  3339  0416                     __end_of_cleanMenu:
  3340                           
  3341                           	psect	text4
  3342  0416                     __ptext4:	
  3343 ;; *************** function _cleanFullMenu *****************
  3344 ;; Defined at:
  3345 ;;		line 68 in file "menu.c"
  3346 ;; Parameters:    Size  Location     Type
  3347 ;;		None
  3348 ;; Auto vars:     Size  Location     Type
  3349 ;;		None
  3350 ;; Return value:  Size  Location     Type
  3351 ;;                  1    wreg      void 
  3352 ;; Registers used:
  3353 ;;		wreg, fsr0l, fsr0h, status,2, status,0, pclath, cstack
  3354 ;; Tracked objects:
  3355 ;;		On entry : 0/0
  3356 ;;		On exit  : 0/0
  3357 ;;		Unchanged: 0/0
  3358 ;; Data sizes:     COMMON   BANK0   BANK1   BANK2   BANK3   BANK4   BANK5   BANK6   BANK7   BANK8   BANK9  BANK10  BANK1
      +1  BANK12  BANK13  BANK14  BANK15  BANK16  BANK17  BANK18  BANK19  BANK20  BANK21  BANK22  BANK23  BANK24  BANK25
  3359 ;;      Params:         0       0       0       0       0       0       0       0       0       0       0       0       
      +0       0       0       0       0       0       0       0       0       0       0       0       0       0       0
  3360 ;;      Locals:         0       0       0       0       0       0       0       0       0       0       0       0       
      +0       0       0       0       0       0       0       0       0       0       0       0       0       0       0
  3361 ;;      Temps:          0       0       0       0       0       0       0       0       0       0       0       0       
      +0       0       0       0       0       0       0       0       0       0       0       0       0       0       0
  3362 ;;      Totals:         0       0       0       0       0       0       0       0       0       0       0       0       
      +0       0       0       0       0       0       0       0       0       0       0       0       0       0       0
  3363 ;;Total ram usage:        0 bytes
  3364 ;; Hardware stack levels used:    1
  3365 ;; Hardware stack levels required when called:   11
  3366 ;; This function calls:
  3367 ;;		_LCDGoto
  3368 ;;		_LCDPutStr
  3369 ;; This function is called by:
  3370 ;;		_printMenu
  3371 ;; This function uses a non-reentrant model
  3372 ;;
  3373                           
  3374                           
  3375                           ;psect for function _cleanFullMenu
  3376  0416                     _cleanFullMenu:
  3377  0416                     l2193:	
  3378                           ;incstack = 0
  3379                           ; Regs used in _cleanFullMenu: [wreg-fsr0h+status,2+status,0+pclath+cstack]
  3380                           
  3381                           
  3382                           ;menu.c: 71:     LCDGoto(0, 0);
  3383  0416  0020               	movlb	0	; select bank0
  3384  0417  01AB               	clrf	LCDGoto@ln
  3385  0418  3000               	movlw	0
  3386  0419  3182  229F  3184   	fcall	_LCDGoto
  3387  041C                     l2195:
  3388                           
  3389                           ;menu.c: 72:     LCDPutStr("                ");
  3390  041C  30B6               	movlw	low (STR_1| (0+32768))
  3391  041D  0020               	movlb	0	; select bank0
  3392  041E  00AB               	movwf	LCDPutStr@str
  3393  041F  3084               	movlw	high (STR_1| (0+32768))
  3394  0420  00AC               	movwf	LCDPutStr@str+1
  3395  0421  3182  2277  3184   	fcall	_LCDPutStr
  3396  0424                     l2197:
  3397                           
  3398                           ;menu.c: 73:     LCDGoto(0, 1);
  3399  0424  0020               	movlb	0	; select bank0
  3400  0425  01AB               	clrf	LCDGoto@ln
  3401  0426  0AAB               	incf	LCDGoto@ln,f
  3402  0427  3000               	movlw	0
  3403  0428  3182  229F  3184   	fcall	_LCDGoto
  3404                           
  3405                           ;menu.c: 74:     LCDPutStr("                ");
  3406  042B  30B6               	movlw	low (STR_1| (0+32768))
  3407  042C  0020               	movlb	0	; select bank0
  3408  042D  00AB               	movwf	LCDPutStr@str
  3409  042E  3084               	movlw	high (STR_1| (0+32768))
  3410  042F  00AC               	movwf	LCDPutStr@str+1
  3411  0430  3182  2277  3184   	fcall	_LCDPutStr
  3412  0433                     l389:
  3413  0433  0008               	return
  3414  0434                     __end_of_cleanFullMenu:
  3415                           
  3416                           	psect	text5
  3417  0277                     __ptext5:	
  3418 ;; *************** function _LCDPutStr *****************
  3419 ;; Defined at:
  3420 ;;		line 131 in file "lcd.c"
  3421 ;; Parameters:    Size  Location     Type
  3422 ;;  str             2   11[BANK0 ] PTR const unsigned char 
  3423 ;;		 -> STR_13(17), STR_12(17), STR_11(11), STR_10(11), 
  3424 ;;		 -> STR_9(9), STR_8(14), STR_7(14), STR_6(14), 
  3425 ;;		 -> STR_5(11), STR_4(2), STR_3(2), STR_2(17), 
  3426 ;;		 -> STR_1(17), 
  3427 ;; Auto vars:     Size  Location     Type
  3428 ;;  i               1   16[BANK0 ] unsigned char 
  3429 ;; Return value:  Size  Location     Type
  3430 ;;                  1    wreg      void 
  3431 ;; Registers used:
  3432 ;;		wreg, fsr0l, fsr0h, status,2, status,0, pclath, cstack
  3433 ;; Tracked objects:
  3434 ;;		On entry : 0/0
  3435 ;;		On exit  : 0/0
  3436 ;;		Unchanged: 0/0
  3437 ;; Data sizes:     COMMON   BANK0   BANK1   BANK2   BANK3   BANK4   BANK5   BANK6   BANK7   BANK8   BANK9  BANK10  BANK1
      +1  BANK12  BANK13  BANK14  BANK15  BANK16  BANK17  BANK18  BANK19  BANK20  BANK21  BANK22  BANK23  BANK24  BANK25
  3438 ;;      Params:         0       2       0       0       0       0       0       0       0       0       0       0       
      +0       0       0       0       0       0       0       0       0       0       0       0       0       0       0
  3439 ;;      Locals:         0       1       0       0       0       0       0       0       0       0       0       0       
      +0       0       0       0       0       0       0       0       0       0       0       0       0       0       0
  3440 ;;      Temps:          0       3       0       0       0       0       0       0       0       0       0       0       
      +0       0       0       0       0       0       0       0       0       0       0       0       0       0       0
  3441 ;;      Totals:         0       6       0       0       0       0       0       0       0       0       0       0       
      +0       0       0       0       0       0       0       0       0       0       0       0       0       0       0
  3442 ;;Total ram usage:        6 bytes
  3443 ;; Hardware stack levels used:    1
  3444 ;; Hardware stack levels required when called:   10
  3445 ;; This function calls:
  3446 ;;		_LCDPutChar
  3447 ;; This function is called by:
  3448 ;;		_printMenu
  3449 ;;		_mainMenu
  3450 ;;		_cleanMenu
  3451 ;;		_cleanFullMenu
  3452 ;;		_LCDClear
  3453 ;;		_basicShoot
  3454 ;; This function uses a non-reentrant model
  3455 ;;
  3456                           
  3457                           
  3458                           ;psect for function _LCDPutStr
  3459  0277                     _LCDPutStr:
  3460  0277                     l2035:	
  3461                           ;incstack = 0
  3462                           ; Regs used in _LCDPutStr: [wreg-fsr0h+status,2+status,0+pclath+cstack]
  3463                           
  3464                           
  3465                           ;lcd.c: 131: void LCDPutStr(const char *str);lcd.c: 132: {;lcd.c: 133:   uint8_t i = 0;
  3466  0277  0020               	movlb	0	; select bank0
  3467  0278  01B0               	clrf	LCDPutStr@i
  3468                           
  3469                           ;lcd.c: 136:   while (str[i])
  3470  0279  2A8E               	goto	l2041
  3471  027A                     l2037:
  3472                           
  3473                           ;lcd.c: 137:   {;lcd.c: 139:     LCDPutChar(str[i++]);
  3474  027A  082C               	movf	LCDPutStr@str+1,w
  3475  027B  00AE               	movwf	??_LCDPutStr+1
  3476  027C  082B               	movf	LCDPutStr@str,w
  3477  027D  00AD               	movwf	??_LCDPutStr
  3478  027E  0830               	movf	LCDPutStr@i,w
  3479  027F  072D               	addwf	??_LCDPutStr,w
  3480  0280  0084               	movwf	4
  3481  0281  082E               	movf	??_LCDPutStr+1,w
  3482  0282  1803               	skipnc
  3483  0283  0A2E               	incf	??_LCDPutStr+1,w
  3484  0284  0085               	movwf	5
  3485  0285  0800               	movf	0,w	;code access
  3486  0286  3183  235A  3182   	fcall	_LCDPutChar
  3487  0289                     l2039:
  3488  0289  3001               	movlw	1
  3489  028A  0020               	movlb	0	; select bank0
  3490  028B  00AD               	movwf	??_LCDPutStr
  3491  028C  082D               	movf	??_LCDPutStr,w
  3492  028D  07B0               	addwf	LCDPutStr@i,f
  3493  028E                     l2041:
  3494                           
  3495                           ;lcd.c: 136:   while (str[i])
  3496  028E  082C               	movf	LCDPutStr@str+1,w
  3497  028F  00AE               	movwf	??_LCDPutStr+1
  3498  0290  082B               	movf	LCDPutStr@str,w
  3499  0291  00AD               	movwf	??_LCDPutStr
  3500  0292  0830               	movf	LCDPutStr@i,w
  3501  0293  072D               	addwf	??_LCDPutStr,w
  3502  0294  0084               	movwf	4
  3503  0295  082E               	movf	??_LCDPutStr+1,w
  3504  0296  1803               	skipnc
  3505  0297  0A2E               	incf	??_LCDPutStr+1,w
  3506  0298  0085               	movwf	5
  3507  0299  0012               	moviw fsr0++
  3508  029A  1D03               	btfss	3,2
  3509  029B  2A9D               	goto	u861
  3510  029C  2A9E               	goto	u860
  3511  029D                     u861:
  3512  029D  2A7A               	goto	l2037
  3513  029E                     u860:
  3514  029E                     l262:
  3515  029E  0008               	return
  3516  029F                     __end_of_LCDPutStr:
  3517                           
  3518                           	psect	text6
  3519  029F                     __ptext6:	
  3520 ;; *************** function _LCDGoto *****************
  3521 ;; Defined at:
  3522 ;;		line 143 in file "lcd.c"
  3523 ;; Parameters:    Size  Location     Type
  3524 ;;  pos             1    wreg     unsigned char 
  3525 ;;  ln              1   11[BANK0 ] unsigned char 
  3526 ;; Auto vars:     Size  Location     Type
  3527 ;;  pos             1   14[BANK0 ] unsigned char 
  3528 ;; Return value:  Size  Location     Type
  3529 ;;                  1    wreg      void 
  3530 ;; Registers used:
  3531 ;;		wreg, status,2, status,0, pclath, cstack
  3532 ;; Tracked objects:
  3533 ;;		On entry : 0/0
  3534 ;;		On exit  : 0/0
  3535 ;;		Unchanged: 0/0
  3536 ;; Data sizes:     COMMON   BANK0   BANK1   BANK2   BANK3   BANK4   BANK5   BANK6   BANK7   BANK8   BANK9  BANK10  BANK1
      +1  BANK12  BANK13  BANK14  BANK15  BANK16  BANK17  BANK18  BANK19  BANK20  BANK21  BANK22  BANK23  BANK24  BANK25
  3537 ;;      Params:         0       1       0       0       0       0       0       0       0       0       0       0       
      +0       0       0       0       0       0       0       0       0       0       0       0       0       0       0
  3538 ;;      Locals:         0       3       0       0       0       0       0       0       0       0       0       0       
      +0       0       0       0       0       0       0       0       0       0       0       0       0       0       0
  3539 ;;      Temps:          0       0       0       0       0       0       0       0       0       0       0       0       
      +0       0       0       0       0       0       0       0       0       0       0       0       0       0       0
  3540 ;;      Totals:         0       4       0       0       0       0       0       0       0       0       0       0       
      +0       0       0       0       0       0       0       0       0       0       0       0       0       0       0
  3541 ;;Total ram usage:        4 bytes
  3542 ;; Hardware stack levels used:    1
  3543 ;; Hardware stack levels required when called:   10
  3544 ;; This function calls:
  3545 ;;		_LCDPutCmd
  3546 ;; This function is called by:
  3547 ;;		_printMenu
  3548 ;;		_mainMenu
  3549 ;;		_cleanMenu
  3550 ;;		_cleanFullMenu
  3551 ;;		_LCDClear
  3552 ;;		_idleScreen
  3553 ;;		_basicShoot
  3554 ;; This function uses a non-reentrant model
  3555 ;;
  3556                           
  3557                           
  3558                           ;psect for function _LCDGoto
  3559  029F                     _LCDGoto:
  3560                           
  3561                           ;incstack = 0
  3562                           ; Regs used in _LCDGoto: [wreg+status,2+status,0+pclath+cstack]
  3563                           ;LCDGoto@pos stored from wreg
  3564  029F  0020               	movlb	0	; select bank0
  3565  02A0  00AE               	movwf	LCDGoto@pos
  3566  02A1                     l2043:
  3567                           
  3568                           ;lcd.c: 143: void LCDGoto(uint8_t pos, uint8_t ln);lcd.c: 144: {;lcd.c: 146:   if ((ln >
      +                           (2 - 1)) || (pos > (16 - 1)))
  3569  02A1  3002               	movlw	2
  3570  02A2  022B               	subwf	LCDGoto@ln,w
  3571  02A3  1803               	skipnc
  3572  02A4  2AA6               	goto	u871
  3573  02A5  2AA7               	goto	u870
  3574  02A6                     u871:
  3575  02A6  2AC6               	goto	l268
  3576  02A7                     u870:
  3577  02A7                     l2045:
  3578  02A7  3010               	movlw	16
  3579  02A8  022E               	subwf	LCDGoto@pos,w
  3580  02A9  1C03               	skipc
  3581  02AA  2AAC               	goto	u881
  3582  02AB  2AAD               	goto	u880
  3583  02AC                     u881:
  3584  02AC  2AAE               	goto	l2047
  3585  02AD                     u880:
  3586  02AD  2AC6               	goto	l268
  3587  02AE                     l2047:
  3588                           
  3589                           ;lcd.c: 153:   LCDPutCmd((ln == 1) ? (0xC0 | pos) : (0x80 | pos));
  3590  02AE  032B               	decf	LCDGoto@ln,w
  3591  02AF  1903               	btfsc	3,2
  3592  02B0  2AB2               	goto	u891
  3593  02B1  2AB3               	goto	u890
  3594  02B2                     u891:
  3595  02B2  2AB9               	goto	l2051
  3596  02B3                     u890:
  3597  02B3                     l2049:
  3598  02B3  3080               	movlw	128
  3599  02B4  042E               	iorwf	LCDGoto@pos,w
  3600  02B5  00AC               	movwf	_LCDGoto$469
  3601  02B6  3000               	movlw	0
  3602  02B7  00AD               	movwf	_LCDGoto$469+1
  3603  02B8  2ABE               	goto	l2053
  3604  02B9                     l2051:
  3605  02B9  30C0               	movlw	192
  3606  02BA  042E               	iorwf	LCDGoto@pos,w
  3607  02BB  00AC               	movwf	_LCDGoto$469
  3608  02BC  3000               	movlw	0
  3609  02BD  00AD               	movwf	_LCDGoto$469+1
  3610  02BE                     l2053:
  3611  02BE  082C               	movf	_LCDGoto$469,w
  3612  02BF  3183  2337  3182   	fcall	_LCDPutCmd
  3613  02C2                     l2055:
  3614                           
  3615                           ;lcd.c: 156:   _delay((unsigned long)((5)*(500000/4000.0)));
  3616  02C2  30D0               	movlw	208
  3617  02C3                     u1177:
  3618  02C3  0B89               	decfsz	9,f
  3619  02C4  2AC3               	goto	u1177
  3620  02C5  0000               	nop
  3621  02C6                     l268:
  3622  02C6  0008               	return
  3623  02C7                     __end_of_LCDGoto:
  3624                           
  3625                           	psect	text7
  3626  04C7                     __ptext7:	
  3627 ;; *************** function _enableButton *****************
  3628 ;; Defined at:
  3629 ;;		line 159 in file "functions.c"
  3630 ;; Parameters:    Size  Location     Type
  3631 ;;  player          1    wreg     _Bool 
  3632 ;; Auto vars:     Size  Location     Type
  3633 ;;  player          1    4[BANK0 ] _Bool 
  3634 ;; Return value:  Size  Location     Type
  3635 ;;                  1    wreg      void 
  3636 ;; Registers used:
  3637 ;;		wreg, status,2, status,0
  3638 ;; Tracked objects:
  3639 ;;		On entry : 0/0
  3640 ;;		On exit  : 0/0
  3641 ;;		Unchanged: 0/0
  3642 ;; Data sizes:     COMMON   BANK0   BANK1   BANK2   BANK3   BANK4   BANK5   BANK6   BANK7   BANK8   BANK9  BANK10  BANK1
      +1  BANK12  BANK13  BANK14  BANK15  BANK16  BANK17  BANK18  BANK19  BANK20  BANK21  BANK22  BANK23  BANK24  BANK25
  3643 ;;      Params:         0       0       0       0       0       0       0       0       0       0       0       0       
      +0       0       0       0       0       0       0       0       0       0       0       0       0       0       0
  3644 ;;      Locals:         0       1       0       0       0       0       0       0       0       0       0       0       
      +0       0       0       0       0       0       0       0       0       0       0       0       0       0       0
  3645 ;;      Temps:          0       0       0       0       0       0       0       0       0       0       0       0       
      +0       0       0       0       0       0       0       0       0       0       0       0       0       0       0
  3646 ;;      Totals:         0       1       0       0       0       0       0       0       0       0       0       0       
      +0       0       0       0       0       0       0       0       0       0       0       0       0       0       0
  3647 ;;Total ram usage:        1 bytes
  3648 ;; Hardware stack levels used:    1
  3649 ;; Hardware stack levels required when called:    8
  3650 ;; This function calls:
  3651 ;;		Nothing
  3652 ;; This function is called by:
  3653 ;;		_main
  3654 ;; This function uses a non-reentrant model
  3655 ;;
  3656                           
  3657                           
  3658                           ;psect for function _enableButton
  3659  04C7                     _enableButton:
  3660                           
  3661                           ;incstack = 0
  3662                           ; Regs used in _enableButton: [wreg+status,2+status,0]
  3663                           ;enableButton@player stored from wreg
  3664  04C7  0020               	movlb	0	; select bank0
  3665  04C8  00A4               	movwf	enableButton@player
  3666  04C9                     l2299:
  3667                           
  3668                           ;functions.c: 159: void enableButton (_Bool player);functions.c: 170:     {;functions.c:
      +                           171:     if (player == 1)
  3669  04C9  0324               	decf	enableButton@player,w
  3670  04CA  1D03               	btfss	3,2
  3671  04CB  2CCD               	goto	u1051
  3672  04CC  2CCE               	goto	u1050
  3673  04CD                     u1051:
  3674  04CD  2CD3               	goto	l318
  3675  04CE                     u1050:
  3676  04CE                     l2301:
  3677                           
  3678                           ;functions.c: 173:         {;functions.c: 175:         IOCANbits.IOCAN3 = 1;
  3679  04CE  0027               	movlb	7	; select bank7
  3680  04CF  1592               	bsf	18,3	;volatile
  3681                           
  3682                           ;functions.c: 177:         IOCANbits.IOCAN4 = 1;
  3683  04D0  1612               	bsf	18,4	;volatile
  3684                           
  3685                           ;functions.c: 179:         IOCANbits.IOCAN5 = 1;
  3686  04D1  1692               	bsf	18,5	;volatile
  3687                           
  3688                           ;functions.c: 180:         }
  3689  04D2  2CD7               	goto	l320
  3690  04D3                     l318:	
  3691                           ;functions.c: 181:     else
  3692                           
  3693                           
  3694                           ;functions.c: 183:         {;functions.c: 185:         IOCANbits.IOCAN0 = 1;
  3695  04D3  0027               	movlb	7	; select bank7
  3696  04D4  1412               	bsf	18,0	;volatile
  3697                           
  3698                           ;functions.c: 187:         IOCANbits.IOCAN1 = 1;
  3699  04D5  1492               	bsf	18,1	;volatile
  3700                           
  3701                           ;functions.c: 189:         IOCANbits.IOCAN2 = 1;
  3702  04D6  1512               	bsf	18,2	;volatile
  3703  04D7                     l320:
  3704  04D7  0008               	return
  3705  04D8                     __end_of_enableButton:
  3706                           
  3707                           	psect	text8
  3708  04D8                     __ptext8:	
  3709 ;; *************** function _disableButton *****************
  3710 ;; Defined at:
  3711 ;;		line 124 in file "functions.c"
  3712 ;; Parameters:    Size  Location     Type
  3713 ;;  player          1    wreg     _Bool 
  3714 ;; Auto vars:     Size  Location     Type
  3715 ;;  player          1    4[BANK0 ] _Bool 
  3716 ;; Return value:  Size  Location     Type
  3717 ;;                  1    wreg      void 
  3718 ;; Registers used:
  3719 ;;		wreg, status,2, status,0
  3720 ;; Tracked objects:
  3721 ;;		On entry : 0/0
  3722 ;;		On exit  : 0/0
  3723 ;;		Unchanged: 0/0
  3724 ;; Data sizes:     COMMON   BANK0   BANK1   BANK2   BANK3   BANK4   BANK5   BANK6   BANK7   BANK8   BANK9  BANK10  BANK1
      +1  BANK12  BANK13  BANK14  BANK15  BANK16  BANK17  BANK18  BANK19  BANK20  BANK21  BANK22  BANK23  BANK24  BANK25
  3725 ;;      Params:         0       0       0       0       0       0       0       0       0       0       0       0       
      +0       0       0       0       0       0       0       0       0       0       0       0       0       0       0
  3726 ;;      Locals:         0       1       0       0       0       0       0       0       0       0       0       0       
      +0       0       0       0       0       0       0       0       0       0       0       0       0       0       0
  3727 ;;      Temps:          0       0       0       0       0       0       0       0       0       0       0       0       
      +0       0       0       0       0       0       0       0       0       0       0       0       0       0       0
  3728 ;;      Totals:         0       1       0       0       0       0       0       0       0       0       0       0       
      +0       0       0       0       0       0       0       0       0       0       0       0       0       0       0
  3729 ;;Total ram usage:        1 bytes
  3730 ;; Hardware stack levels used:    1
  3731 ;; Hardware stack levels required when called:    8
  3732 ;; This function calls:
  3733 ;;		Nothing
  3734 ;; This function is called by:
  3735 ;;		_main
  3736 ;; This function uses a non-reentrant model
  3737 ;;
  3738                           
  3739                           
  3740                           ;psect for function _disableButton
  3741  04D8                     _disableButton:
  3742                           
  3743                           ;incstack = 0
  3744                           ; Regs used in _disableButton: [wreg+status,2+status,0]
  3745                           ;disableButton@player stored from wreg
  3746  04D8  0020               	movlb	0	; select bank0
  3747  04D9  00A4               	movwf	disableButton@player
  3748  04DA                     l2295:
  3749                           
  3750                           ;functions.c: 124: void disableButton (_Bool player);functions.c: 135:     {;functions.c
      +                          : 136:     if (player == 1)
  3751  04DA  0324               	decf	disableButton@player,w
  3752  04DB  1D03               	btfss	3,2
  3753  04DC  2CDE               	goto	u1041
  3754  04DD  2CDF               	goto	u1040
  3755  04DE                     u1041:
  3756  04DE  2CE4               	goto	l313
  3757  04DF                     u1040:
  3758  04DF                     l2297:
  3759                           
  3760                           ;functions.c: 138:         {;functions.c: 140:         IOCANbits.IOCAN3 = 0;
  3761  04DF  0027               	movlb	7	; select bank7
  3762  04E0  1192               	bcf	18,3	;volatile
  3763                           
  3764                           ;functions.c: 142:         IOCANbits.IOCAN4 = 0;
  3765  04E1  1212               	bcf	18,4	;volatile
  3766                           
  3767                           ;functions.c: 144:         IOCANbits.IOCAN5 = 0;
  3768  04E2  1292               	bcf	18,5	;volatile
  3769                           
  3770                           ;functions.c: 145:         }
  3771  04E3  2CE8               	goto	l315
  3772  04E4                     l313:	
  3773                           ;functions.c: 146:     else
  3774                           
  3775                           
  3776                           ;functions.c: 148:         {;functions.c: 150:         IOCANbits.IOCAN0 = 0;
  3777  04E4  0027               	movlb	7	; select bank7
  3778  04E5  1012               	bcf	18,0	;volatile
  3779                           
  3780                           ;functions.c: 152:         IOCANbits.IOCAN1 = 0;
  3781  04E6  1092               	bcf	18,1	;volatile
  3782                           
  3783                           ;functions.c: 154:         IOCANbits.IOCAN2 = 0;
  3784  04E7  1112               	bcf	18,2	;volatile
  3785  04E8                     l315:
  3786  04E8  0008               	return
  3787  04E9                     __end_of_disableButton:
  3788                           
  3789                           	psect	text9
  3790  01F1                     __ptext9:	
  3791 ;; *************** function _createCustomCharacter *****************
  3792 ;; Defined at:
  3793 ;;		line 29 in file "functions.c"
  3794 ;; Parameters:    Size  Location     Type
  3795 ;;  Pattern         1    wreg     PTR unsigned char 
  3796 ;;		 -> main@Pattern4(8), main@Pattern3(8), main@Pattern2(8), main@Pattern1(8), 
  3797 ;;  Location        1   11[BANK0 ] const unsigned char 
  3798 ;; Auto vars:     Size  Location     Type
  3799 ;;  Pattern         1   13[BANK0 ] PTR unsigned char 
  3800 ;;		 -> main@Pattern4(8), main@Pattern3(8), main@Pattern2(8), main@Pattern1(8), 
  3801 ;;  i               2   14[BANK0 ] int 
  3802 ;; Return value:  Size  Location     Type
  3803 ;;                  1    wreg      void 
  3804 ;; Registers used:
  3805 ;;		wreg, fsr1l, fsr1h, status,2, status,0, pclath, cstack
  3806 ;; Tracked objects:
  3807 ;;		On entry : 0/0
  3808 ;;		On exit  : 0/0
  3809 ;;		Unchanged: 0/0
  3810 ;; Data sizes:     COMMON   BANK0   BANK1   BANK2   BANK3   BANK4   BANK5   BANK6   BANK7   BANK8   BANK9  BANK10  BANK1
      +1  BANK12  BANK13  BANK14  BANK15  BANK16  BANK17  BANK18  BANK19  BANK20  BANK21  BANK22  BANK23  BANK24  BANK25
  3811 ;;      Params:         0       1       0       0       0       0       0       0       0       0       0       0       
      +0       0       0       0       0       0       0       0       0       0       0       0       0       0       0
  3812 ;;      Locals:         0       3       0       0       0       0       0       0       0       0       0       0       
      +0       0       0       0       0       0       0       0       0       0       0       0       0       0       0
  3813 ;;      Temps:          0       1       0       0       0       0       0       0       0       0       0       0       
      +0       0       0       0       0       0       0       0       0       0       0       0       0       0       0
  3814 ;;      Totals:         0       5       0       0       0       0       0       0       0       0       0       0       
      +0       0       0       0       0       0       0       0       0       0       0       0       0       0       0
  3815 ;;Total ram usage:        5 bytes
  3816 ;; Hardware stack levels used:    1
  3817 ;; Hardware stack levels required when called:   10
  3818 ;; This function calls:
  3819 ;;		_LCDPutChar
  3820 ;;		_LCDPutCmd
  3821 ;; This function is called by:
  3822 ;;		_main
  3823 ;; This function uses a non-reentrant model
  3824 ;;
  3825                           
  3826                           
  3827                           ;psect for function _createCustomCharacter
  3828  01F1                     _createCustomCharacter:
  3829                           
  3830                           ;incstack = 0
  3831                           ; Regs used in _createCustomCharacter: [wreg+fsr1l+fsr1h+status,2+status,0+pclath+cstack
      +                          ]
  3832                           ;createCustomCharacter@Pattern stored from wreg
  3833  01F1  0020               	movlb	0	; select bank0
  3834  01F2  00AD               	movwf	createCustomCharacter@Pattern
  3835  01F3                     l2279:
  3836  01F3                     l2281:
  3837                           
  3838                           ;functions.c: 46:     LCDPutCmd (0x40+(Location*8));
  3839  01F3  082B               	movf	createCustomCharacter@Location,w
  3840  01F4  00AC               	movwf	??_createCustomCharacter
  3841  01F5  3002               	movlw	2
  3842  01F6                     u1025:
  3843  01F6  35AC               	lslf	??_createCustomCharacter,f
  3844  01F7  3EFF               	addlw	-1
  3845  01F8  1D03               	skipz
  3846  01F9  29F6               	goto	u1025
  3847  01FA  352C               	lslf	??_createCustomCharacter,w
  3848  01FB  3E40               	addlw	64
  3849  01FC  3183  2337  3181   	fcall	_LCDPutCmd
  3850  01FF                     l2283:
  3851                           
  3852                           ;functions.c: 48:     for (i=0; i<8; i++)
  3853  01FF  0020               	movlb	0	; select bank0
  3854  0200  01AE               	clrf	createCustomCharacter@i
  3855  0201  01AF               	clrf	createCustomCharacter@i+1
  3856  0202                     l2289:
  3857                           
  3858                           ;functions.c: 50:         LCDPutChar (Pattern [ i ] );
  3859  0202  0020               	movlb	0	; select bank0
  3860  0203  082E               	movf	createCustomCharacter@i,w
  3861  0204  072D               	addwf	createCustomCharacter@Pattern,w
  3862  0205  00AC               	movwf	??_createCustomCharacter
  3863  0206  082C               	movf	??_createCustomCharacter,w
  3864  0207  0086               	movwf	6
  3865  0208  0187               	clrf	7
  3866  0209  0801               	movf	1,w
  3867  020A  3183  235A  3181   	fcall	_LCDPutChar
  3868  020D                     l2291:
  3869  020D  3001               	movlw	1
  3870  020E  0020               	movlb	0	; select bank0
  3871  020F  07AE               	addwf	createCustomCharacter@i,f
  3872  0210  3000               	movlw	0
  3873  0211  3DAF               	addwfc	createCustomCharacter@i+1,f
  3874  0212                     l2293:
  3875  0212  082F               	movf	createCustomCharacter@i+1,w
  3876  0213  3A80               	xorlw	128
  3877  0214  00AC               	movwf	??_createCustomCharacter
  3878  0215  3080               	movlw	128
  3879  0216  022C               	subwf	??_createCustomCharacter,w
  3880  0217  1D03               	skipz
  3881  0218  2A1B               	goto	u1035
  3882  0219  3008               	movlw	8
  3883  021A  022E               	subwf	createCustomCharacter@i,w
  3884  021B                     u1035:
  3885  021B  1C03               	skipc
  3886  021C  2A1E               	goto	u1031
  3887  021D  2A1F               	goto	u1030
  3888  021E                     u1031:
  3889  021E  2A02               	goto	l2289
  3890  021F                     u1030:
  3891  021F                     l296:
  3892  021F  0008               	return
  3893  0220                     __end_of_createCustomCharacter:
  3894                           
  3895                           	psect	text10
  3896  035A                     __ptext10:	
  3897 ;; *************** function _LCDPutChar *****************
  3898 ;; Defined at:
  3899 ;;		line 101 in file "lcd.c"
  3900 ;; Parameters:    Size  Location     Type
  3901 ;;  ch              1    wreg     unsigned char 
  3902 ;; Auto vars:     Size  Location     Type
  3903 ;;  ch              1   10[BANK0 ] unsigned char 
  3904 ;; Return value:  Size  Location     Type
  3905 ;;                  1    wreg      void 
  3906 ;; Registers used:
  3907 ;;		wreg, status,2, status,0, pclath, cstack
  3908 ;; Tracked objects:
  3909 ;;		On entry : 0/0
  3910 ;;		On exit  : 0/0
  3911 ;;		Unchanged: 0/0
  3912 ;; Data sizes:     COMMON   BANK0   BANK1   BANK2   BANK3   BANK4   BANK5   BANK6   BANK7   BANK8   BANK9  BANK10  BANK1
      +1  BANK12  BANK13  BANK14  BANK15  BANK16  BANK17  BANK18  BANK19  BANK20  BANK21  BANK22  BANK23  BANK24  BANK25
  3913 ;;      Params:         0       0       0       0       0       0       0       0       0       0       0       0       
      +0       0       0       0       0       0       0       0       0       0       0       0       0       0       0
  3914 ;;      Locals:         0       1       0       0       0       0       0       0       0       0       0       0       
      +0       0       0       0       0       0       0       0       0       0       0       0       0       0       0
  3915 ;;      Temps:          0       2       0       0       0       0       0       0       0       0       0       0       
      +0       0       0       0       0       0       0       0       0       0       0       0       0       0       0
  3916 ;;      Totals:         0       3       0       0       0       0       0       0       0       0       0       0       
      +0       0       0       0       0       0       0       0       0       0       0       0       0       0       0
  3917 ;;Total ram usage:        3 bytes
  3918 ;; Hardware stack levels used:    1
  3919 ;; Hardware stack levels required when called:    9
  3920 ;; This function calls:
  3921 ;;		_LCDWriteNibble
  3922 ;; This function is called by:
  3923 ;;		_LCDPutStr
  3924 ;;		_createCustomCharacter
  3925 ;;		_idleScreen
  3926 ;;		_basicShoot
  3927 ;; This function uses a non-reentrant model
  3928 ;;
  3929                           
  3930                           
  3931                           ;psect for function _LCDPutChar
  3932  035A                     _LCDPutChar:
  3933                           
  3934                           ;incstack = 0
  3935                           ; Regs used in _LCDPutChar: [wreg+status,2+status,0+pclath+cstack]
  3936                           ;LCDPutChar@ch stored from wreg
  3937  035A  0020               	movlb	0	; select bank0
  3938  035B  00AA               	movwf	LCDPutChar@ch
  3939  035C                     l1993:
  3940                           
  3941                           ;lcd.c: 101: void LCDPutChar(uint8_t ch);lcd.c: 102: {;lcd.c: 103:   _delay((unsigned lo
      +                          ng)((5)*(500000/4000.0)));
  3942  035C  30D0               	movlw	208
  3943  035D                     u1187:
  3944  035D  0B89               	decfsz	9,f
  3945  035E  2B5D               	goto	u1187
  3946  035F  0000               	nop
  3947  0360                     l1995:
  3948                           
  3949                           ;lcd.c: 106:   LCDWriteNibble(ch, 1);
  3950  0360  0020               	movlb	0	; select bank0
  3951  0361  01A4               	clrf	LCDWriteNibble@rs
  3952  0362  0AA4               	incf	LCDWriteNibble@rs,f
  3953  0363  082A               	movf	LCDPutChar@ch,w
  3954  0364  3183  237A  3183   	fcall	_LCDWriteNibble
  3955  0367                     l1997:
  3956                           
  3957                           ;lcd.c: 109:   ch = (uint8_t)(ch << 4);
  3958  0367  0020               	movlb	0	; select bank0
  3959  0368  082A               	movf	LCDPutChar@ch,w
  3960  0369  00A8               	movwf	??_LCDPutChar
  3961  036A  3003               	movlw	3
  3962  036B                     u855:
  3963  036B  35A8               	lslf	??_LCDPutChar,f
  3964  036C  3EFF               	addlw	-1
  3965  036D  1D03               	skipz
  3966  036E  2B6B               	goto	u855
  3967  036F  3528               	lslf	??_LCDPutChar,w
  3968  0370  00A9               	movwf	??_LCDPutChar+1
  3969  0371  0829               	movf	??_LCDPutChar+1,w
  3970  0372  00AA               	movwf	LCDPutChar@ch
  3971  0373                     l1999:
  3972                           
  3973                           ;lcd.c: 112:   LCDWriteNibble(ch, 1);
  3974  0373  01A4               	clrf	LCDWriteNibble@rs
  3975  0374  0AA4               	incf	LCDWriteNibble@rs,f
  3976  0375  082A               	movf	LCDPutChar@ch,w
  3977  0376  3183  237A  3183   	fcall	_LCDWriteNibble
  3978  0379                     l253:
  3979  0379  0008               	return
  3980  037A                     __end_of_LCDPutChar:
  3981                           
  3982                           	psect	text11
  3983  056A                     __ptext11:	
  3984 ;; *************** function _SYSTEM_Initialize *****************
  3985 ;; Defined at:
  3986 ;;		line 50 in file "mcc_generated_files/mcc.c"
  3987 ;; Parameters:    Size  Location     Type
  3988 ;;		None
  3989 ;; Auto vars:     Size  Location     Type
  3990 ;;		None
  3991 ;; Return value:  Size  Location     Type
  3992 ;;                  1    wreg      void 
  3993 ;; Registers used:
  3994 ;;		wreg, status,2, status,0, pclath, cstack
  3995 ;; Tracked objects:
  3996 ;;		On entry : 0/0
  3997 ;;		On exit  : 0/0
  3998 ;;		Unchanged: 0/0
  3999 ;; Data sizes:     COMMON   BANK0   BANK1   BANK2   BANK3   BANK4   BANK5   BANK6   BANK7   BANK8   BANK9  BANK10  BANK1
      +1  BANK12  BANK13  BANK14  BANK15  BANK16  BANK17  BANK18  BANK19  BANK20  BANK21  BANK22  BANK23  BANK24  BANK25
  4000 ;;      Params:         0       0       0       0       0       0       0       0       0       0       0       0       
      +0       0       0       0       0       0       0       0       0       0       0       0       0       0       0
  4001 ;;      Locals:         0       0       0       0       0       0       0       0       0       0       0       0       
      +0       0       0       0       0       0       0       0       0       0       0       0       0       0       0
  4002 ;;      Temps:          0       0       0       0       0       0       0       0       0       0       0       0       
      +0       0       0       0       0       0       0       0       0       0       0       0       0       0       0
  4003 ;;      Totals:         0       0       0       0       0       0       0       0       0       0       0       0       
      +0       0       0       0       0       0       0       0       0       0       0       0       0       0       0
  4004 ;;Total ram usage:        0 bytes
  4005 ;; Hardware stack levels used:    1
  4006 ;; Hardware stack levels required when called:   10
  4007 ;; This function calls:
  4008 ;;		_OSCILLATOR_Initialize
  4009 ;;		_PIN_MANAGER_Initialize
  4010 ;;		_WDT_Initialize
  4011 ;; This function is called by:
  4012 ;;		_main
  4013 ;; This function uses a non-reentrant model
  4014 ;;
  4015                           
  4016                           
  4017                           ;psect for function _SYSTEM_Initialize
  4018  056A                     _SYSTEM_Initialize:
  4019  056A                     l2255:	
  4020                           ;incstack = 0
  4021                           ; Regs used in _SYSTEM_Initialize: [wreg+status,2+status,0+pclath+cstack]
  4022                           
  4023                           
  4024                           ;mcc_generated_files/mcc.c: 53:     PIN_MANAGER_Initialize();
  4025  056A  3180  20BA  3185   	fcall	_PIN_MANAGER_Initialize
  4026                           
  4027                           ;mcc_generated_files/mcc.c: 54:     OSCILLATOR_Initialize();
  4028  056D  3185  257D  3185   	fcall	_OSCILLATOR_Initialize
  4029                           
  4030                           ;mcc_generated_files/mcc.c: 55:     WDT_Initialize();
  4031  0570  3185  25AE  3185   	fcall	_WDT_Initialize
  4032  0573                     l215:
  4033  0573  0008               	return
  4034  0574                     __end_of_SYSTEM_Initialize:
  4035                           
  4036                           	psect	text12
  4037  05AE                     __ptext12:	
  4038 ;; *************** function _WDT_Initialize *****************
  4039 ;; Defined at:
  4040 ;;		line 68 in file "mcc_generated_files/mcc.c"
  4041 ;; Parameters:    Size  Location     Type
  4042 ;;		None
  4043 ;; Auto vars:     Size  Location     Type
  4044 ;;		None
  4045 ;; Return value:  Size  Location     Type
  4046 ;;                  1    wreg      void 
  4047 ;; Registers used:
  4048 ;;		wreg
  4049 ;; Tracked objects:
  4050 ;;		On entry : 0/0
  4051 ;;		On exit  : 0/0
  4052 ;;		Unchanged: 0/0
  4053 ;; Data sizes:     COMMON   BANK0   BANK1   BANK2   BANK3   BANK4   BANK5   BANK6   BANK7   BANK8   BANK9  BANK10  BANK1
      +1  BANK12  BANK13  BANK14  BANK15  BANK16  BANK17  BANK18  BANK19  BANK20  BANK21  BANK22  BANK23  BANK24  BANK25
  4054 ;;      Params:         0       0       0       0       0       0       0       0       0       0       0       0       
      +0       0       0       0       0       0       0       0       0       0       0       0       0       0       0
  4055 ;;      Locals:         0       0       0       0       0       0       0       0       0       0       0       0       
      +0       0       0       0       0       0       0       0       0       0       0       0       0       0       0
  4056 ;;      Temps:          0       0       0       0       0       0       0       0       0       0       0       0       
      +0       0       0       0       0       0       0       0       0       0       0       0       0       0       0
  4057 ;;      Totals:         0       0       0       0       0       0       0       0       0       0       0       0       
      +0       0       0       0       0       0       0       0       0       0       0       0       0       0       0
  4058 ;;Total ram usage:        0 bytes
  4059 ;; Hardware stack levels used:    1
  4060 ;; Hardware stack levels required when called:    8
  4061 ;; This function calls:
  4062 ;;		Nothing
  4063 ;; This function is called by:
  4064 ;;		_SYSTEM_Initialize
  4065 ;; This function uses a non-reentrant model
  4066 ;;
  4067                           
  4068                           
  4069                           ;psect for function _WDT_Initialize
  4070  05AE                     _WDT_Initialize:
  4071  05AE                     l2185:	
  4072                           ;incstack = 0
  4073                           ; Regs used in _WDT_Initialize: [wreg]
  4074                           
  4075                           
  4076                           ;mcc_generated_files/mcc.c: 71:     WDTCON = 0x16;
  4077  05AE  3016               	movlw	22
  4078  05AF  0021               	movlb	1	; select bank1
  4079  05B0  0097               	movwf	23	;volatile
  4080  05B1                     l221:
  4081  05B1  0008               	return
  4082  05B2                     __end_of_WDT_Initialize:
  4083                           
  4084                           	psect	text13
  4085  00BA                     __ptext13:	
  4086 ;; *************** function _PIN_MANAGER_Initialize *****************
  4087 ;; Defined at:
  4088 ;;		line 64 in file "mcc_generated_files/pin_manager.c"
  4089 ;; Parameters:    Size  Location     Type
  4090 ;;		None
  4091 ;; Auto vars:     Size  Location     Type
  4092 ;;		None
  4093 ;; Return value:  Size  Location     Type
  4094 ;;                  1    wreg      void 
  4095 ;; Registers used:
  4096 ;;		wreg, status,2, status,0, pclath, cstack
  4097 ;; Tracked objects:
  4098 ;;		On entry : 0/0
  4099 ;;		On exit  : 0/0
  4100 ;;		Unchanged: 0/0
  4101 ;; Data sizes:     COMMON   BANK0   BANK1   BANK2   BANK3   BANK4   BANK5   BANK6   BANK7   BANK8   BANK9  BANK10  BANK1
      +1  BANK12  BANK13  BANK14  BANK15  BANK16  BANK17  BANK18  BANK19  BANK20  BANK21  BANK22  BANK23  BANK24  BANK25
  4102 ;;      Params:         0       0       0       0       0       0       0       0       0       0       0       0       
      +0       0       0       0       0       0       0       0       0       0       0       0       0       0       0
  4103 ;;      Locals:         0       0       0       0       0       0       0       0       0       0       0       0       
      +0       0       0       0       0       0       0       0       0       0       0       0       0       0       0
  4104 ;;      Temps:          0       0       0       0       0       0       0       0       0       0       0       0       
      +0       0       0       0       0       0       0       0       0       0       0       0       0       0       0
  4105 ;;      Totals:         0       0       0       0       0       0       0       0       0       0       0       0       
      +0       0       0       0       0       0       0       0       0       0       0       0       0       0       0
  4106 ;;Total ram usage:        0 bytes
  4107 ;; Hardware stack levels used:    1
  4108 ;; Hardware stack levels required when called:    9
  4109 ;; This function calls:
  4110 ;;		_IOCAF0_SetInterruptHandler
  4111 ;;		_IOCAF1_SetInterruptHandler
  4112 ;;		_IOCAF2_SetInterruptHandler
  4113 ;;		_IOCAF3_SetInterruptHandler
  4114 ;;		_IOCAF4_SetInterruptHandler
  4115 ;;		_IOCAF5_SetInterruptHandler
  4116 ;; This function is called by:
  4117 ;;		_SYSTEM_Initialize
  4118 ;; This function uses a non-reentrant model
  4119 ;;
  4120                           
  4121                           
  4122                           ;psect for function _PIN_MANAGER_Initialize
  4123  00BA                     _PIN_MANAGER_Initialize:
  4124  00BA                     l2067:	
  4125                           ;incstack = 0
  4126                           ; Regs used in _PIN_MANAGER_Initialize: [wreg+status,2+status,0+pclath+cstack]
  4127                           
  4128                           
  4129                           ;mcc_generated_files/pin_manager.c: 69:     LATA = 0x00;
  4130  00BA  0022               	movlb	2	; select bank2
  4131  00BB  018C               	clrf	12	;volatile
  4132                           
  4133                           ;mcc_generated_files/pin_manager.c: 70:     LATB = 0x00;
  4134  00BC  018D               	clrf	13	;volatile
  4135                           
  4136                           ;mcc_generated_files/pin_manager.c: 71:     LATC = 0x00;
  4137  00BD  018E               	clrf	14	;volatile
  4138  00BE                     l2069:
  4139                           
  4140                           ;mcc_generated_files/pin_manager.c: 76:     TRISE = 0x08;
  4141  00BE  3008               	movlw	8
  4142  00BF  0021               	movlb	1	; select bank1
  4143  00C0  0090               	movwf	16	;volatile
  4144  00C1                     l2071:
  4145                           
  4146                           ;mcc_generated_files/pin_manager.c: 77:     TRISA = 0xFF;
  4147  00C1  30FF               	movlw	255
  4148  00C2  008C               	movwf	12	;volatile
  4149                           
  4150                           ;mcc_generated_files/pin_manager.c: 78:     TRISB = 0x00;
  4151  00C3  018D               	clrf	13	;volatile
  4152  00C4                     l2073:
  4153                           
  4154                           ;mcc_generated_files/pin_manager.c: 79:     TRISC = 0xFF;
  4155  00C4  30FF               	movlw	255
  4156  00C5  008E               	movwf	14	;volatile
  4157  00C6                     l2075:
  4158                           
  4159                           ;mcc_generated_files/pin_manager.c: 84:     ANSELC = 0xFC;
  4160  00C6  30FC               	movlw	252
  4161  00C7  0023               	movlb	3	; select bank3
  4162  00C8  008E               	movwf	14	;volatile
  4163                           
  4164                           ;mcc_generated_files/pin_manager.c: 85:     ANSELB = 0x00;
  4165  00C9  018D               	clrf	13	;volatile
  4166                           
  4167                           ;mcc_generated_files/pin_manager.c: 86:     ANSELA = 0x00;
  4168  00CA  018C               	clrf	12	;volatile
  4169  00CB                     l2077:
  4170                           
  4171                           ;mcc_generated_files/pin_manager.c: 91:     WPUE = 0x08;
  4172  00CB  3008               	movlw	8
  4173  00CC  0024               	movlb	4	; select bank4
  4174  00CD  0090               	movwf	16	;volatile
  4175  00CE                     l2079:
  4176                           
  4177                           ;mcc_generated_files/pin_manager.c: 92:     WPUB = 0x00;
  4178  00CE  018D               	clrf	13	;volatile
  4179                           
  4180                           ;mcc_generated_files/pin_manager.c: 93:     WPUA = 0x3F;
  4181  00CF  303F               	movlw	63
  4182  00D0  008C               	movwf	12	;volatile
  4183  00D1                     l2081:
  4184                           
  4185                           ;mcc_generated_files/pin_manager.c: 94:     WPUC = 0x00;
  4186  00D1  018E               	clrf	14	;volatile
  4187  00D2                     l2083:
  4188                           
  4189                           ;mcc_generated_files/pin_manager.c: 95:     OPTION_REGbits.nWPUEN = 0;
  4190  00D2  0021               	movlb	1	; select bank1
  4191  00D3  1395               	bcf	21,7	;volatile
  4192  00D4                     l2085:
  4193                           
  4194                           ;mcc_generated_files/pin_manager.c: 100:     ODCONA = 0x00;
  4195  00D4  0025               	movlb	5	; select bank5
  4196  00D5  018C               	clrf	12	;volatile
  4197  00D6                     l2087:
  4198                           
  4199                           ;mcc_generated_files/pin_manager.c: 101:     ODCONB = 0x00;
  4200  00D6  018D               	clrf	13	;volatile
  4201  00D7                     l2089:
  4202                           
  4203                           ;mcc_generated_files/pin_manager.c: 102:     ODCONC = 0x00;
  4204  00D7  018E               	clrf	14	;volatile
  4205                           
  4206                           ;mcc_generated_files/pin_manager.c: 107:     SLRCONA = 0xFF;
  4207  00D8  30FF               	movlw	255
  4208  00D9  0026               	movlb	6	; select bank6
  4209  00DA  008C               	movwf	12	;volatile
  4210                           
  4211                           ;mcc_generated_files/pin_manager.c: 108:     SLRCONB = 0xFF;
  4212  00DB  30FF               	movlw	255
  4213  00DC  008D               	movwf	13	;volatile
  4214                           
  4215                           ;mcc_generated_files/pin_manager.c: 109:     SLRCONC = 0xFF;
  4216  00DD  30FF               	movlw	255
  4217  00DE  008E               	movwf	14	;volatile
  4218                           
  4219                           ;mcc_generated_files/pin_manager.c: 114:     INLVLA = 0xFF;
  4220  00DF  30FF               	movlw	255
  4221  00E0  0027               	movlb	7	; select bank7
  4222  00E1  008C               	movwf	12	;volatile
  4223                           
  4224                           ;mcc_generated_files/pin_manager.c: 115:     INLVLB = 0xFF;
  4225  00E2  30FF               	movlw	255
  4226  00E3  008D               	movwf	13	;volatile
  4227                           
  4228                           ;mcc_generated_files/pin_manager.c: 116:     INLVLC = 0xFF;
  4229  00E4  30FF               	movlw	255
  4230  00E5  008E               	movwf	14	;volatile
  4231                           
  4232                           ;mcc_generated_files/pin_manager.c: 117:     INLVLE = 0x08;
  4233  00E6  3008               	movlw	8
  4234  00E7  0090               	movwf	16	;volatile
  4235  00E8                     l2091:
  4236                           
  4237                           ;mcc_generated_files/pin_manager.c: 124:     IOCAFbits.IOCAF0 = 0;
  4238  00E8  1013               	bcf	19,0	;volatile
  4239  00E9                     l2093:
  4240                           
  4241                           ;mcc_generated_files/pin_manager.c: 126:     IOCAFbits.IOCAF1 = 0;
  4242  00E9  1093               	bcf	19,1	;volatile
  4243  00EA                     l2095:
  4244                           
  4245                           ;mcc_generated_files/pin_manager.c: 128:     IOCAFbits.IOCAF2 = 0;
  4246  00EA  1113               	bcf	19,2	;volatile
  4247  00EB                     l2097:
  4248                           
  4249                           ;mcc_generated_files/pin_manager.c: 130:     IOCAFbits.IOCAF3 = 0;
  4250  00EB  1193               	bcf	19,3	;volatile
  4251  00EC                     l2099:
  4252                           
  4253                           ;mcc_generated_files/pin_manager.c: 132:     IOCAFbits.IOCAF4 = 0;
  4254  00EC  1213               	bcf	19,4	;volatile
  4255  00ED                     l2101:
  4256                           
  4257                           ;mcc_generated_files/pin_manager.c: 134:     IOCAFbits.IOCAF5 = 0;
  4258  00ED  1293               	bcf	19,5	;volatile
  4259  00EE                     l2103:
  4260                           
  4261                           ;mcc_generated_files/pin_manager.c: 136:     IOCANbits.IOCAN0 = 1;
  4262  00EE  1412               	bsf	18,0	;volatile
  4263  00EF                     l2105:
  4264                           
  4265                           ;mcc_generated_files/pin_manager.c: 138:     IOCANbits.IOCAN1 = 1;
  4266  00EF  1492               	bsf	18,1	;volatile
  4267  00F0                     l2107:
  4268                           
  4269                           ;mcc_generated_files/pin_manager.c: 140:     IOCANbits.IOCAN2 = 1;
  4270  00F0  1512               	bsf	18,2	;volatile
  4271  00F1                     l2109:
  4272                           
  4273                           ;mcc_generated_files/pin_manager.c: 142:     IOCANbits.IOCAN3 = 1;
  4274  00F1  1592               	bsf	18,3	;volatile
  4275  00F2                     l2111:
  4276                           
  4277                           ;mcc_generated_files/pin_manager.c: 144:     IOCANbits.IOCAN4 = 1;
  4278  00F2  1612               	bsf	18,4	;volatile
  4279  00F3                     l2113:
  4280                           
  4281                           ;mcc_generated_files/pin_manager.c: 146:     IOCANbits.IOCAN5 = 1;
  4282  00F3  1692               	bsf	18,5	;volatile
  4283  00F4                     l2115:
  4284                           
  4285                           ;mcc_generated_files/pin_manager.c: 148:     IOCAPbits.IOCAP0 = 1;
  4286  00F4  1411               	bsf	17,0	;volatile
  4287  00F5                     l2117:
  4288                           
  4289                           ;mcc_generated_files/pin_manager.c: 150:     IOCAPbits.IOCAP1 = 0;
  4290  00F5  1091               	bcf	17,1	;volatile
  4291  00F6                     l2119:
  4292                           
  4293                           ;mcc_generated_files/pin_manager.c: 152:     IOCAPbits.IOCAP2 = 0;
  4294  00F6  1111               	bcf	17,2	;volatile
  4295  00F7                     l2121:
  4296                           
  4297                           ;mcc_generated_files/pin_manager.c: 154:     IOCAPbits.IOCAP3 = 1;
  4298  00F7  1591               	bsf	17,3	;volatile
  4299  00F8                     l2123:
  4300                           
  4301                           ;mcc_generated_files/pin_manager.c: 156:     IOCAPbits.IOCAP4 = 0;
  4302  00F8  1211               	bcf	17,4	;volatile
  4303  00F9                     l2125:
  4304                           
  4305                           ;mcc_generated_files/pin_manager.c: 158:     IOCAPbits.IOCAP5 = 0;
  4306  00F9  1291               	bcf	17,5	;volatile
  4307  00FA                     l2127:
  4308                           
  4309                           ;mcc_generated_files/pin_manager.c: 163:     IOCAF0_SetInterruptHandler(IOCAF0_DefaultIn
      +                          terruptHandler);
  4310  00FA  30B7               	movlw	low _IOCAF0_DefaultInterruptHandler
  4311  00FB  0020               	movlb	0	; select bank0
  4312  00FC  00A4               	movwf	IOCAF0_SetInterruptHandler@InterruptHandler
  4313  00FD  3005               	movlw	high _IOCAF0_DefaultInterruptHandler
  4314  00FE  00A5               	movwf	IOCAF0_SetInterruptHandler@InterruptHandler+1
  4315  00FF  3185  25A8  3180   	fcall	_IOCAF0_SetInterruptHandler
  4316  0102                     l2129:
  4317                           
  4318                           ;mcc_generated_files/pin_manager.c: 164:     IOCAF1_SetInterruptHandler(IOCAF1_DefaultIn
      +                          terruptHandler);
  4319  0102  30B6               	movlw	low _IOCAF1_DefaultInterruptHandler
  4320  0103  0020               	movlb	0	; select bank0
  4321  0104  00A4               	movwf	IOCAF1_SetInterruptHandler@InterruptHandler
  4322  0105  3005               	movlw	high _IOCAF1_DefaultInterruptHandler
  4323  0106  00A5               	movwf	IOCAF1_SetInterruptHandler@InterruptHandler+1
  4324  0107  3185  25A2  3180   	fcall	_IOCAF1_SetInterruptHandler
  4325  010A                     l2131:
  4326                           
  4327                           ;mcc_generated_files/pin_manager.c: 165:     IOCAF2_SetInterruptHandler(IOCAF2_DefaultIn
      +                          terruptHandler);
  4328  010A  30B5               	movlw	low _IOCAF2_DefaultInterruptHandler
  4329  010B  0020               	movlb	0	; select bank0
  4330  010C  00A4               	movwf	IOCAF2_SetInterruptHandler@InterruptHandler
  4331  010D  3005               	movlw	high _IOCAF2_DefaultInterruptHandler
  4332  010E  00A5               	movwf	IOCAF2_SetInterruptHandler@InterruptHandler+1
  4333  010F  3185  259C  3180   	fcall	_IOCAF2_SetInterruptHandler
  4334  0112                     l2133:
  4335                           
  4336                           ;mcc_generated_files/pin_manager.c: 166:     IOCAF3_SetInterruptHandler(IOCAF3_DefaultIn
      +                          terruptHandler);
  4337  0112  30B4               	movlw	low _IOCAF3_DefaultInterruptHandler
  4338  0113  0020               	movlb	0	; select bank0
  4339  0114  00A4               	movwf	IOCAF3_SetInterruptHandler@InterruptHandler
  4340  0115  3005               	movlw	high _IOCAF3_DefaultInterruptHandler
  4341  0116  00A5               	movwf	IOCAF3_SetInterruptHandler@InterruptHandler+1
  4342  0117  3185  2596  3180   	fcall	_IOCAF3_SetInterruptHandler
  4343  011A                     l2135:
  4344                           
  4345                           ;mcc_generated_files/pin_manager.c: 167:     IOCAF4_SetInterruptHandler(IOCAF4_DefaultIn
      +                          terruptHandler);
  4346  011A  30B3               	movlw	low _IOCAF4_DefaultInterruptHandler
  4347  011B  0020               	movlb	0	; select bank0
  4348  011C  00A4               	movwf	IOCAF4_SetInterruptHandler@InterruptHandler
  4349  011D  3005               	movlw	high _IOCAF4_DefaultInterruptHandler
  4350  011E  00A5               	movwf	IOCAF4_SetInterruptHandler@InterruptHandler+1
  4351  011F  3185  2590  3180   	fcall	_IOCAF4_SetInterruptHandler
  4352  0122                     l2137:
  4353                           
  4354                           ;mcc_generated_files/pin_manager.c: 168:     IOCAF5_SetInterruptHandler(IOCAF5_DefaultIn
      +                          terruptHandler);
  4355  0122  30B2               	movlw	low _IOCAF5_DefaultInterruptHandler
  4356  0123  0020               	movlb	0	; select bank0
  4357  0124  00A4               	movwf	IOCAF5_SetInterruptHandler@InterruptHandler
  4358  0125  3005               	movlw	high _IOCAF5_DefaultInterruptHandler
  4359  0126  00A5               	movwf	IOCAF5_SetInterruptHandler@InterruptHandler+1
  4360  0127  3185  258A  3180   	fcall	_IOCAF5_SetInterruptHandler
  4361  012A                     l2139:
  4362                           
  4363                           ;mcc_generated_files/pin_manager.c: 171:     INTCONbits.IOCIE = 1;
  4364  012A  158B               	bsf	11,3	;volatile
  4365  012B                     l115:
  4366  012B  0008               	return
  4367  012C                     __end_of_PIN_MANAGER_Initialize:
  4368                           
  4369                           	psect	text14
  4370  058A                     __ptext14:	
  4371 ;; *************** function _IOCAF5_SetInterruptHandler *****************
  4372 ;; Defined at:
  4373 ;;		line 408 in file "mcc_generated_files/pin_manager.c"
  4374 ;; Parameters:    Size  Location     Type
  4375 ;;  InterruptHan    2    4[BANK0 ] PTR FTN()void 
  4376 ;;		 -> IOCAF5_DefaultInterruptHandler(1), 
  4377 ;; Auto vars:     Size  Location     Type
  4378 ;;		None
  4379 ;; Return value:  Size  Location     Type
  4380 ;;                  1    wreg      void 
  4381 ;; Registers used:
  4382 ;;		wreg
  4383 ;; Tracked objects:
  4384 ;;		On entry : 0/0
  4385 ;;		On exit  : 0/0
  4386 ;;		Unchanged: 0/0
  4387 ;; Data sizes:     COMMON   BANK0   BANK1   BANK2   BANK3   BANK4   BANK5   BANK6   BANK7   BANK8   BANK9  BANK10  BANK1
      +1  BANK12  BANK13  BANK14  BANK15  BANK16  BANK17  BANK18  BANK19  BANK20  BANK21  BANK22  BANK23  BANK24  BANK25
  4388 ;;      Params:         0       2       0       0       0       0       0       0       0       0       0       0       
      +0       0       0       0       0       0       0       0       0       0       0       0       0       0       0
  4389 ;;      Locals:         0       0       0       0       0       0       0       0       0       0       0       0       
      +0       0       0       0       0       0       0       0       0       0       0       0       0       0       0
  4390 ;;      Temps:          0       0       0       0       0       0       0       0       0       0       0       0       
      +0       0       0       0       0       0       0       0       0       0       0       0       0       0       0
  4391 ;;      Totals:         0       2       0       0       0       0       0       0       0       0       0       0       
      +0       0       0       0       0       0       0       0       0       0       0       0       0       0       0
  4392 ;;Total ram usage:        2 bytes
  4393 ;; Hardware stack levels used:    1
  4394 ;; Hardware stack levels required when called:    8
  4395 ;; This function calls:
  4396 ;;		Nothing
  4397 ;; This function is called by:
  4398 ;;		_PIN_MANAGER_Initialize
  4399 ;; This function uses a non-reentrant model
  4400 ;;
  4401                           
  4402                           
  4403                           ;psect for function _IOCAF5_SetInterruptHandler
  4404  058A                     _IOCAF5_SetInterruptHandler:
  4405  058A                     l2033:	
  4406                           ;incstack = 0
  4407                           ; Regs used in _IOCAF5_SetInterruptHandler: [wreg]
  4408                           
  4409                           
  4410                           ;mcc_generated_files/pin_manager.c: 409:     IOCAF5_InterruptHandler = InterruptHandler;
  4411  058A  0020               	movlb	0	; select bank0
  4412  058B  0825               	movf	IOCAF5_SetInterruptHandler@InterruptHandler+1,w
  4413  058C  00C7               	movwf	_IOCAF5_InterruptHandler+1
  4414  058D  0824               	movf	IOCAF5_SetInterruptHandler@InterruptHandler,w
  4415  058E  00C6               	movwf	_IOCAF5_InterruptHandler
  4416  058F                     l195:
  4417  058F  0008               	return
  4418  0590                     __end_of_IOCAF5_SetInterruptHandler:
  4419                           
  4420                           	psect	text15
  4421  0590                     __ptext15:	
  4422 ;; *************** function _IOCAF4_SetInterruptHandler *****************
  4423 ;; Defined at:
  4424 ;;		line 378 in file "mcc_generated_files/pin_manager.c"
  4425 ;; Parameters:    Size  Location     Type
  4426 ;;  InterruptHan    2    4[BANK0 ] PTR FTN()void 
  4427 ;;		 -> IOCAF4_DefaultInterruptHandler(1), 
  4428 ;; Auto vars:     Size  Location     Type
  4429 ;;		None
  4430 ;; Return value:  Size  Location     Type
  4431 ;;                  1    wreg      void 
  4432 ;; Registers used:
  4433 ;;		wreg
  4434 ;; Tracked objects:
  4435 ;;		On entry : 0/0
  4436 ;;		On exit  : 0/0
  4437 ;;		Unchanged: 0/0
  4438 ;; Data sizes:     COMMON   BANK0   BANK1   BANK2   BANK3   BANK4   BANK5   BANK6   BANK7   BANK8   BANK9  BANK10  BANK1
      +1  BANK12  BANK13  BANK14  BANK15  BANK16  BANK17  BANK18  BANK19  BANK20  BANK21  BANK22  BANK23  BANK24  BANK25
  4439 ;;      Params:         0       2       0       0       0       0       0       0       0       0       0       0       
      +0       0       0       0       0       0       0       0       0       0       0       0       0       0       0
  4440 ;;      Locals:         0       0       0       0       0       0       0       0       0       0       0       0       
      +0       0       0       0       0       0       0       0       0       0       0       0       0       0       0
  4441 ;;      Temps:          0       0       0       0       0       0       0       0       0       0       0       0       
      +0       0       0       0       0       0       0       0       0       0       0       0       0       0       0
  4442 ;;      Totals:         0       2       0       0       0       0       0       0       0       0       0       0       
      +0       0       0       0       0       0       0       0       0       0       0       0       0       0       0
  4443 ;;Total ram usage:        2 bytes
  4444 ;; Hardware stack levels used:    1
  4445 ;; Hardware stack levels required when called:    8
  4446 ;; This function calls:
  4447 ;;		Nothing
  4448 ;; This function is called by:
  4449 ;;		_PIN_MANAGER_Initialize
  4450 ;; This function uses a non-reentrant model
  4451 ;;
  4452                           
  4453                           
  4454                           ;psect for function _IOCAF4_SetInterruptHandler
  4455  0590                     _IOCAF4_SetInterruptHandler:
  4456  0590                     l2031:	
  4457                           ;incstack = 0
  4458                           ; Regs used in _IOCAF4_SetInterruptHandler: [wreg]
  4459                           
  4460                           
  4461                           ;mcc_generated_files/pin_manager.c: 379:     IOCAF4_InterruptHandler = InterruptHandler;
  4462  0590  0020               	movlb	0	; select bank0
  4463  0591  0825               	movf	IOCAF4_SetInterruptHandler@InterruptHandler+1,w
  4464  0592  00C9               	movwf	_IOCAF4_InterruptHandler+1
  4465  0593  0824               	movf	IOCAF4_SetInterruptHandler@InterruptHandler,w
  4466  0594  00C8               	movwf	_IOCAF4_InterruptHandler
  4467  0595                     l185:
  4468  0595  0008               	return
  4469  0596                     __end_of_IOCAF4_SetInterruptHandler:
  4470                           
  4471                           	psect	text16
  4472  0596                     __ptext16:	
  4473 ;; *************** function _IOCAF3_SetInterruptHandler *****************
  4474 ;; Defined at:
  4475 ;;		line 348 in file "mcc_generated_files/pin_manager.c"
  4476 ;; Parameters:    Size  Location     Type
  4477 ;;  InterruptHan    2    4[BANK0 ] PTR FTN()void 
  4478 ;;		 -> IOCAF3_DefaultInterruptHandler(1), 
  4479 ;; Auto vars:     Size  Location     Type
  4480 ;;		None
  4481 ;; Return value:  Size  Location     Type
  4482 ;;                  1    wreg      void 
  4483 ;; Registers used:
  4484 ;;		wreg
  4485 ;; Tracked objects:
  4486 ;;		On entry : 0/0
  4487 ;;		On exit  : 0/0
  4488 ;;		Unchanged: 0/0
  4489 ;; Data sizes:     COMMON   BANK0   BANK1   BANK2   BANK3   BANK4   BANK5   BANK6   BANK7   BANK8   BANK9  BANK10  BANK1
      +1  BANK12  BANK13  BANK14  BANK15  BANK16  BANK17  BANK18  BANK19  BANK20  BANK21  BANK22  BANK23  BANK24  BANK25
  4490 ;;      Params:         0       2       0       0       0       0       0       0       0       0       0       0       
      +0       0       0       0       0       0       0       0       0       0       0       0       0       0       0
  4491 ;;      Locals:         0       0       0       0       0       0       0       0       0       0       0       0       
      +0       0       0       0       0       0       0       0       0       0       0       0       0       0       0
  4492 ;;      Temps:          0       0       0       0       0       0       0       0       0       0       0       0       
      +0       0       0       0       0       0       0       0       0       0       0       0       0       0       0
  4493 ;;      Totals:         0       2       0       0       0       0       0       0       0       0       0       0       
      +0       0       0       0       0       0       0       0       0       0       0       0       0       0       0
  4494 ;;Total ram usage:        2 bytes
  4495 ;; Hardware stack levels used:    1
  4496 ;; Hardware stack levels required when called:    8
  4497 ;; This function calls:
  4498 ;;		Nothing
  4499 ;; This function is called by:
  4500 ;;		_PIN_MANAGER_Initialize
  4501 ;; This function uses a non-reentrant model
  4502 ;;
  4503                           
  4504                           
  4505                           ;psect for function _IOCAF3_SetInterruptHandler
  4506  0596                     _IOCAF3_SetInterruptHandler:
  4507  0596                     l2029:	
  4508                           ;incstack = 0
  4509                           ; Regs used in _IOCAF3_SetInterruptHandler: [wreg]
  4510                           
  4511                           
  4512                           ;mcc_generated_files/pin_manager.c: 349:     IOCAF3_InterruptHandler = InterruptHandler;
  4513  0596  0020               	movlb	0	; select bank0
  4514  0597  0825               	movf	IOCAF3_SetInterruptHandler@InterruptHandler+1,w
  4515  0598  00CB               	movwf	_IOCAF3_InterruptHandler+1
  4516  0599  0824               	movf	IOCAF3_SetInterruptHandler@InterruptHandler,w
  4517  059A  00CA               	movwf	_IOCAF3_InterruptHandler
  4518  059B                     l175:
  4519  059B  0008               	return
  4520  059C                     __end_of_IOCAF3_SetInterruptHandler:
  4521                           
  4522                           	psect	text17
  4523  059C                     __ptext17:	
  4524 ;; *************** function _IOCAF2_SetInterruptHandler *****************
  4525 ;; Defined at:
  4526 ;;		line 318 in file "mcc_generated_files/pin_manager.c"
  4527 ;; Parameters:    Size  Location     Type
  4528 ;;  InterruptHan    2    4[BANK0 ] PTR FTN()void 
  4529 ;;		 -> IOCAF2_DefaultInterruptHandler(1), 
  4530 ;; Auto vars:     Size  Location     Type
  4531 ;;		None
  4532 ;; Return value:  Size  Location     Type
  4533 ;;                  1    wreg      void 
  4534 ;; Registers used:
  4535 ;;		wreg
  4536 ;; Tracked objects:
  4537 ;;		On entry : 0/0
  4538 ;;		On exit  : 0/0
  4539 ;;		Unchanged: 0/0
  4540 ;; Data sizes:     COMMON   BANK0   BANK1   BANK2   BANK3   BANK4   BANK5   BANK6   BANK7   BANK8   BANK9  BANK10  BANK1
      +1  BANK12  BANK13  BANK14  BANK15  BANK16  BANK17  BANK18  BANK19  BANK20  BANK21  BANK22  BANK23  BANK24  BANK25
  4541 ;;      Params:         0       2       0       0       0       0       0       0       0       0       0       0       
      +0       0       0       0       0       0       0       0       0       0       0       0       0       0       0
  4542 ;;      Locals:         0       0       0       0       0       0       0       0       0       0       0       0       
      +0       0       0       0       0       0       0       0       0       0       0       0       0       0       0
  4543 ;;      Temps:          0       0       0       0       0       0       0       0       0       0       0       0       
      +0       0       0       0       0       0       0       0       0       0       0       0       0       0       0
  4544 ;;      Totals:         0       2       0       0       0       0       0       0       0       0       0       0       
      +0       0       0       0       0       0       0       0       0       0       0       0       0       0       0
  4545 ;;Total ram usage:        2 bytes
  4546 ;; Hardware stack levels used:    1
  4547 ;; Hardware stack levels required when called:    8
  4548 ;; This function calls:
  4549 ;;		Nothing
  4550 ;; This function is called by:
  4551 ;;		_PIN_MANAGER_Initialize
  4552 ;; This function uses a non-reentrant model
  4553 ;;
  4554                           
  4555                           
  4556                           ;psect for function _IOCAF2_SetInterruptHandler
  4557  059C                     _IOCAF2_SetInterruptHandler:
  4558  059C                     l2027:	
  4559                           ;incstack = 0
  4560                           ; Regs used in _IOCAF2_SetInterruptHandler: [wreg]
  4561                           
  4562                           
  4563                           ;mcc_generated_files/pin_manager.c: 319:     IOCAF2_InterruptHandler = InterruptHandler;
  4564  059C  0020               	movlb	0	; select bank0
  4565  059D  0825               	movf	IOCAF2_SetInterruptHandler@InterruptHandler+1,w
  4566  059E  00CD               	movwf	_IOCAF2_InterruptHandler+1
  4567  059F  0824               	movf	IOCAF2_SetInterruptHandler@InterruptHandler,w
  4568  05A0  00CC               	movwf	_IOCAF2_InterruptHandler
  4569  05A1                     l165:
  4570  05A1  0008               	return
  4571  05A2                     __end_of_IOCAF2_SetInterruptHandler:
  4572                           
  4573                           	psect	text18
  4574  05A2                     __ptext18:	
  4575 ;; *************** function _IOCAF1_SetInterruptHandler *****************
  4576 ;; Defined at:
  4577 ;;		line 288 in file "mcc_generated_files/pin_manager.c"
  4578 ;; Parameters:    Size  Location     Type
  4579 ;;  InterruptHan    2    4[BANK0 ] PTR FTN()void 
  4580 ;;		 -> IOCAF1_DefaultInterruptHandler(1), 
  4581 ;; Auto vars:     Size  Location     Type
  4582 ;;		None
  4583 ;; Return value:  Size  Location     Type
  4584 ;;                  1    wreg      void 
  4585 ;; Registers used:
  4586 ;;		wreg
  4587 ;; Tracked objects:
  4588 ;;		On entry : 0/0
  4589 ;;		On exit  : 0/0
  4590 ;;		Unchanged: 0/0
  4591 ;; Data sizes:     COMMON   BANK0   BANK1   BANK2   BANK3   BANK4   BANK5   BANK6   BANK7   BANK8   BANK9  BANK10  BANK1
      +1  BANK12  BANK13  BANK14  BANK15  BANK16  BANK17  BANK18  BANK19  BANK20  BANK21  BANK22  BANK23  BANK24  BANK25
  4592 ;;      Params:         0       2       0       0       0       0       0       0       0       0       0       0       
      +0       0       0       0       0       0       0       0       0       0       0       0       0       0       0
  4593 ;;      Locals:         0       0       0       0       0       0       0       0       0       0       0       0       
      +0       0       0       0       0       0       0       0       0       0       0       0       0       0       0
  4594 ;;      Temps:          0       0       0       0       0       0       0       0       0       0       0       0       
      +0       0       0       0       0       0       0       0       0       0       0       0       0       0       0
  4595 ;;      Totals:         0       2       0       0       0       0       0       0       0       0       0       0       
      +0       0       0       0       0       0       0       0       0       0       0       0       0       0       0
  4596 ;;Total ram usage:        2 bytes
  4597 ;; Hardware stack levels used:    1
  4598 ;; Hardware stack levels required when called:    8
  4599 ;; This function calls:
  4600 ;;		Nothing
  4601 ;; This function is called by:
  4602 ;;		_PIN_MANAGER_Initialize
  4603 ;; This function uses a non-reentrant model
  4604 ;;
  4605                           
  4606                           
  4607                           ;psect for function _IOCAF1_SetInterruptHandler
  4608  05A2                     _IOCAF1_SetInterruptHandler:
  4609  05A2                     l2025:	
  4610                           ;incstack = 0
  4611                           ; Regs used in _IOCAF1_SetInterruptHandler: [wreg]
  4612                           
  4613                           
  4614                           ;mcc_generated_files/pin_manager.c: 289:     IOCAF1_InterruptHandler = InterruptHandler;
  4615  05A2  0020               	movlb	0	; select bank0
  4616  05A3  0825               	movf	IOCAF1_SetInterruptHandler@InterruptHandler+1,w
  4617  05A4  00CF               	movwf	_IOCAF1_InterruptHandler+1
  4618  05A5  0824               	movf	IOCAF1_SetInterruptHandler@InterruptHandler,w
  4619  05A6  00CE               	movwf	_IOCAF1_InterruptHandler
  4620  05A7                     l155:
  4621  05A7  0008               	return
  4622  05A8                     __end_of_IOCAF1_SetInterruptHandler:
  4623                           
  4624                           	psect	text19
  4625  05A8                     __ptext19:	
  4626 ;; *************** function _IOCAF0_SetInterruptHandler *****************
  4627 ;; Defined at:
  4628 ;;		line 243 in file "mcc_generated_files/pin_manager.c"
  4629 ;; Parameters:    Size  Location     Type
  4630 ;;  InterruptHan    2    4[BANK0 ] PTR FTN()void 
  4631 ;;		 -> IOCAF0_DefaultInterruptHandler(1), 
  4632 ;; Auto vars:     Size  Location     Type
  4633 ;;		None
  4634 ;; Return value:  Size  Location     Type
  4635 ;;                  1    wreg      void 
  4636 ;; Registers used:
  4637 ;;		wreg
  4638 ;; Tracked objects:
  4639 ;;		On entry : 0/0
  4640 ;;		On exit  : 0/0
  4641 ;;		Unchanged: 0/0
  4642 ;; Data sizes:     COMMON   BANK0   BANK1   BANK2   BANK3   BANK4   BANK5   BANK6   BANK7   BANK8   BANK9  BANK10  BANK1
      +1  BANK12  BANK13  BANK14  BANK15  BANK16  BANK17  BANK18  BANK19  BANK20  BANK21  BANK22  BANK23  BANK24  BANK25
  4643 ;;      Params:         0       2       0       0       0       0       0       0       0       0       0       0       
      +0       0       0       0       0       0       0       0       0       0       0       0       0       0       0
  4644 ;;      Locals:         0       0       0       0       0       0       0       0       0       0       0       0       
      +0       0       0       0       0       0       0       0       0       0       0       0       0       0       0
  4645 ;;      Temps:          0       0       0       0       0       0       0       0       0       0       0       0       
      +0       0       0       0       0       0       0       0       0       0       0       0       0       0       0
  4646 ;;      Totals:         0       2       0       0       0       0       0       0       0       0       0       0       
      +0       0       0       0       0       0       0       0       0       0       0       0       0       0       0
  4647 ;;Total ram usage:        2 bytes
  4648 ;; Hardware stack levels used:    1
  4649 ;; Hardware stack levels required when called:    8
  4650 ;; This function calls:
  4651 ;;		Nothing
  4652 ;; This function is called by:
  4653 ;;		_PIN_MANAGER_Initialize
  4654 ;; This function uses a non-reentrant model
  4655 ;;
  4656                           
  4657                           
  4658                           ;psect for function _IOCAF0_SetInterruptHandler
  4659  05A8                     _IOCAF0_SetInterruptHandler:
  4660  05A8                     l2023:	
  4661                           ;incstack = 0
  4662                           ; Regs used in _IOCAF0_SetInterruptHandler: [wreg]
  4663                           
  4664                           
  4665                           ;mcc_generated_files/pin_manager.c: 244:     IOCAF0_InterruptHandler = InterruptHandler;
  4666  05A8  0020               	movlb	0	; select bank0
  4667  05A9  0825               	movf	IOCAF0_SetInterruptHandler@InterruptHandler+1,w
  4668  05AA  00D1               	movwf	_IOCAF0_InterruptHandler+1
  4669  05AB  0824               	movf	IOCAF0_SetInterruptHandler@InterruptHandler,w
  4670  05AC  00D0               	movwf	_IOCAF0_InterruptHandler
  4671  05AD                     l138:
  4672  05AD  0008               	return
  4673  05AE                     __end_of_IOCAF0_SetInterruptHandler:
  4674                           
  4675                           	psect	text20
  4676  057D                     __ptext20:	
  4677 ;; *************** function _OSCILLATOR_Initialize *****************
  4678 ;; Defined at:
  4679 ;;		line 58 in file "mcc_generated_files/mcc.c"
  4680 ;; Parameters:    Size  Location     Type
  4681 ;;		None
  4682 ;; Auto vars:     Size  Location     Type
  4683 ;;		None
  4684 ;; Return value:  Size  Location     Type
  4685 ;;                  1    wreg      void 
  4686 ;; Registers used:
  4687 ;;		wreg, status,2
  4688 ;; Tracked objects:
  4689 ;;		On entry : 0/0
  4690 ;;		On exit  : 0/0
  4691 ;;		Unchanged: 0/0
  4692 ;; Data sizes:     COMMON   BANK0   BANK1   BANK2   BANK3   BANK4   BANK5   BANK6   BANK7   BANK8   BANK9  BANK10  BANK1
      +1  BANK12  BANK13  BANK14  BANK15  BANK16  BANK17  BANK18  BANK19  BANK20  BANK21  BANK22  BANK23  BANK24  BANK25
  4693 ;;      Params:         0       0       0       0       0       0       0       0       0       0       0       0       
      +0       0       0       0       0       0       0       0       0       0       0       0       0       0       0
  4694 ;;      Locals:         0       0       0       0       0       0       0       0       0       0       0       0       
      +0       0       0       0       0       0       0       0       0       0       0       0       0       0       0
  4695 ;;      Temps:          0       0       0       0       0       0       0       0       0       0       0       0       
      +0       0       0       0       0       0       0       0       0       0       0       0       0       0       0
  4696 ;;      Totals:         0       0       0       0       0       0       0       0       0       0       0       0       
      +0       0       0       0       0       0       0       0       0       0       0       0       0       0       0
  4697 ;;Total ram usage:        0 bytes
  4698 ;; Hardware stack levels used:    1
  4699 ;; Hardware stack levels required when called:    8
  4700 ;; This function calls:
  4701 ;;		Nothing
  4702 ;; This function is called by:
  4703 ;;		_SYSTEM_Initialize
  4704 ;; This function uses a non-reentrant model
  4705 ;;
  4706                           
  4707                           
  4708                           ;psect for function _OSCILLATOR_Initialize
  4709  057D                     _OSCILLATOR_Initialize:
  4710  057D                     l2179:	
  4711                           ;incstack = 0
  4712                           ; Regs used in _OSCILLATOR_Initialize: [wreg+status,2]
  4713                           
  4714                           
  4715                           ;mcc_generated_files/mcc.c: 61:     OSCCON = 0x3A;
  4716  057D  303A               	movlw	58
  4717  057E  0021               	movlb	1	; select bank1
  4718  057F  0099               	movwf	25	;volatile
  4719  0580                     l2181:
  4720                           
  4721                           ;mcc_generated_files/mcc.c: 63:     OSCTUNE = 0x00;
  4722  0580  0198               	clrf	24	;volatile
  4723  0581                     l2183:
  4724                           
  4725                           ;mcc_generated_files/mcc.c: 65:     BORCON = 0x00;
  4726  0581  0022               	movlb	2	; select bank2
  4727  0582  0196               	clrf	22	;volatile
  4728  0583                     l218:
  4729  0583  0008               	return
  4730  0584                     __end_of_OSCILLATOR_Initialize:
  4731                           
  4732                           	psect	text21
  4733  0314                     __ptext21:	
  4734 ;; *************** function _LCD_Initialize *****************
  4735 ;; Defined at:
  4736 ;;		line 46 in file "lcd.c"
  4737 ;; Parameters:    Size  Location     Type
  4738 ;;		None
  4739 ;; Auto vars:     Size  Location     Type
  4740 ;;		None
  4741 ;; Return value:  Size  Location     Type
  4742 ;;                  1    wreg      void 
  4743 ;; Registers used:
  4744 ;;		wreg, status,2, status,0, pclath, cstack
  4745 ;; Tracked objects:
  4746 ;;		On entry : 0/0
  4747 ;;		On exit  : 0/0
  4748 ;;		Unchanged: 0/0
  4749 ;; Data sizes:     COMMON   BANK0   BANK1   BANK2   BANK3   BANK4   BANK5   BANK6   BANK7   BANK8   BANK9  BANK10  BANK1
      +1  BANK12  BANK13  BANK14  BANK15  BANK16  BANK17  BANK18  BANK19  BANK20  BANK21  BANK22  BANK23  BANK24  BANK25
  4750 ;;      Params:         0       0       0       0       0       0       0       0       0       0       0       0       
      +0       0       0       0       0       0       0       0       0       0       0       0       0       0       0
  4751 ;;      Locals:         0       0       0       0       0       0       0       0       0       0       0       0       
      +0       0       0       0       0       0       0       0       0       0       0       0       0       0       0
  4752 ;;      Temps:          0       1       0       0       0       0       0       0       0       0       0       0       
      +0       0       0       0       0       0       0       0       0       0       0       0       0       0       0
  4753 ;;      Totals:         0       1       0       0       0       0       0       0       0       0       0       0       
      +0       0       0       0       0       0       0       0       0       0       0       0       0       0       0
  4754 ;;Total ram usage:        1 bytes
  4755 ;; Hardware stack levels used:    1
  4756 ;; Hardware stack levels required when called:   10
  4757 ;; This function calls:
  4758 ;;		_LCDPutCmd
  4759 ;; This function is called by:
  4760 ;;		_main
  4761 ;; This function uses a non-reentrant model
  4762 ;;
  4763                           
  4764                           
  4765                           ;psect for function _LCD_Initialize
  4766  0314                     _LCD_Initialize:
  4767  0314                     l2257:	
  4768                           ;incstack = 0
  4769                           ; Regs used in _LCD_Initialize: [wreg+status,2+status,0+pclath+cstack]
  4770                           
  4771                           
  4772                           ;lcd.c: 49:   PORTB = 0;
  4773  0314  0020               	movlb	0	; select bank0
  4774  0315  018D               	clrf	13	;volatile
  4775                           
  4776                           ;lcd.c: 51:   TRISB = 0x00;
  4777  0316  0021               	movlb	1	; select bank1
  4778  0317  018D               	clrf	13	;volatile
  4779  0318                     l2259:
  4780                           
  4781                           ;lcd.c: 54:   PORTBbits.RB7 = 1;
  4782  0318  0020               	movlb	0	; select bank0
  4783  0319  178D               	bsf	13,7	;volatile
  4784  031A                     l2261:
  4785                           
  4786                           ;lcd.c: 57:   _delay((unsigned long)((15)*(500000/4000.0)));
  4787  031A  3003               	movlw	3
  4788  031B  0020               	movlb	0	; select bank0
  4789  031C  00AB               	movwf	??_LCD_Initialize
  4790  031D  306E               	movlw	110
  4791  031E                     u1197:
  4792  031E  0B89               	decfsz	9,f
  4793  031F  2B1E               	goto	u1197
  4794  0320  0BAB               	decfsz	??_LCD_Initialize,f
  4795  0321  2B1E               	goto	u1197
  4796  0322                     l2263:
  4797                           
  4798                           ;lcd.c: 60:   LCDPutCmd(0x32);
  4799  0322  3032               	movlw	50
  4800  0323  3183  2337  3183   	fcall	_LCDPutCmd
  4801  0326                     l2265:
  4802                           
  4803                           ;lcd.c: 63:   LCDPutCmd(0x28);
  4804  0326  3028               	movlw	40
  4805  0327  3183  2337  3183   	fcall	_LCDPutCmd
  4806  032A                     l2267:
  4807                           
  4808                           ;lcd.c: 66:   LCDPutCmd(0x0C);
  4809  032A  300C               	movlw	12
  4810  032B  3183  2337  3183   	fcall	_LCDPutCmd
  4811  032E                     l2269:
  4812                           
  4813                           ;lcd.c: 68:   LCDPutCmd(0x01);
  4814  032E  3001               	movlw	1
  4815  032F  3183  2337  3183   	fcall	_LCDPutCmd
  4816  0332                     l2271:
  4817                           
  4818                           ;lcd.c: 71:   LCDPutCmd(0x06);
  4819  0332  3006               	movlw	6
  4820  0333  3183  2337  3183   	fcall	_LCDPutCmd
  4821  0336                     l247:
  4822  0336  0008               	return
  4823  0337                     __end_of_LCD_Initialize:
  4824                           
  4825                           	psect	text22
  4826  0337                     __ptext22:	
  4827 ;; *************** function _LCDPutCmd *****************
  4828 ;; Defined at:
  4829 ;;		line 115 in file "lcd.c"
  4830 ;; Parameters:    Size  Location     Type
  4831 ;;  ch              1    wreg     unsigned char 
  4832 ;; Auto vars:     Size  Location     Type
  4833 ;;  ch              1   10[BANK0 ] unsigned char 
  4834 ;; Return value:  Size  Location     Type
  4835 ;;                  1    wreg      void 
  4836 ;; Registers used:
  4837 ;;		wreg, status,2, status,0, pclath, cstack
  4838 ;; Tracked objects:
  4839 ;;		On entry : 0/0
  4840 ;;		On exit  : 0/0
  4841 ;;		Unchanged: 0/0
  4842 ;; Data sizes:     COMMON   BANK0   BANK1   BANK2   BANK3   BANK4   BANK5   BANK6   BANK7   BANK8   BANK9  BANK10  BANK1
      +1  BANK12  BANK13  BANK14  BANK15  BANK16  BANK17  BANK18  BANK19  BANK20  BANK21  BANK22  BANK23  BANK24  BANK25
  4843 ;;      Params:         0       0       0       0       0       0       0       0       0       0       0       0       
      +0       0       0       0       0       0       0       0       0       0       0       0       0       0       0
  4844 ;;      Locals:         0       1       0       0       0       0       0       0       0       0       0       0       
      +0       0       0       0       0       0       0       0       0       0       0       0       0       0       0
  4845 ;;      Temps:          0       2       0       0       0       0       0       0       0       0       0       0       
      +0       0       0       0       0       0       0       0       0       0       0       0       0       0       0
  4846 ;;      Totals:         0       3       0       0       0       0       0       0       0       0       0       0       
      +0       0       0       0       0       0       0       0       0       0       0       0       0       0       0
  4847 ;;Total ram usage:        3 bytes
  4848 ;; Hardware stack levels used:    1
  4849 ;; Hardware stack levels required when called:    9
  4850 ;; This function calls:
  4851 ;;		_LCDWriteNibble
  4852 ;; This function is called by:
  4853 ;;		_LCD_Initialize
  4854 ;;		_LCDGoto
  4855 ;;		_createCustomCharacter
  4856 ;; This function uses a non-reentrant model
  4857 ;;
  4858                           
  4859                           
  4860                           ;psect for function _LCDPutCmd
  4861  0337                     _LCDPutCmd:
  4862                           
  4863                           ;incstack = 0
  4864                           ; Regs used in _LCDPutCmd: [wreg+status,2+status,0+pclath+cstack]
  4865                           ;LCDPutCmd@ch stored from wreg
  4866  0337  0020               	movlb	0	; select bank0
  4867  0338  00AA               	movwf	LCDPutCmd@ch
  4868  0339                     l1983:
  4869                           
  4870                           ;lcd.c: 115: void LCDPutCmd(uint8_t ch);lcd.c: 116: {;lcd.c: 117:   _delay((unsigned lon
      +                          g)((5)*(500000/4000.0)));
  4871  0339  30D0               	movlw	208
  4872  033A                     u1207:
  4873  033A  0B89               	decfsz	9,f
  4874  033B  2B3A               	goto	u1207
  4875  033C  0000               	nop
  4876  033D                     l1985:
  4877                           
  4878                           ;lcd.c: 120:   LCDWriteNibble(ch, 0);
  4879  033D  0020               	movlb	0	; select bank0
  4880  033E  01A4               	clrf	LCDWriteNibble@rs
  4881  033F  082A               	movf	LCDPutCmd@ch,w
  4882  0340  3183  237A  3183   	fcall	_LCDWriteNibble
  4883  0343                     l1987:
  4884                           
  4885                           ;lcd.c: 123:   ch = (uint8_t)(ch << 4);
  4886  0343  0020               	movlb	0	; select bank0
  4887  0344  082A               	movf	LCDPutCmd@ch,w
  4888  0345  00A8               	movwf	??_LCDPutCmd
  4889  0346  3003               	movlw	3
  4890  0347                     u845:
  4891  0347  35A8               	lslf	??_LCDPutCmd,f
  4892  0348  3EFF               	addlw	-1
  4893  0349  1D03               	skipz
  4894  034A  2B47               	goto	u845
  4895  034B  3528               	lslf	??_LCDPutCmd,w
  4896  034C  00A9               	movwf	??_LCDPutCmd+1
  4897  034D  0829               	movf	??_LCDPutCmd+1,w
  4898  034E  00AA               	movwf	LCDPutCmd@ch
  4899  034F                     l1989:
  4900                           
  4901                           ;lcd.c: 125:   _delay((unsigned long)((1)*(500000/4000.0)));
  4902  034F  3029               	movlw	41
  4903  0350                     u1217:
  4904  0350  0B89               	decfsz	9,f
  4905  0351  2B50               	goto	u1217
  4906  0352  3200               	nop2
  4907  0353                     l1991:
  4908                           
  4909                           ;lcd.c: 128:   LCDWriteNibble(ch, 0);
  4910  0353  0020               	movlb	0	; select bank0
  4911  0354  01A4               	clrf	LCDWriteNibble@rs
  4912  0355  082A               	movf	LCDPutCmd@ch,w
  4913  0356  3183  237A  3183   	fcall	_LCDWriteNibble
  4914  0359                     l256:
  4915  0359  0008               	return
  4916  035A                     __end_of_LCDPutCmd:
  4917                           
  4918                           	psect	text23
  4919  037A                     __ptext23:	
  4920 ;; *************** function _LCDWriteNibble *****************
  4921 ;; Defined at:
  4922 ;;		line 74 in file "lcd.c"
  4923 ;; Parameters:    Size  Location     Type
  4924 ;;  ch              1    wreg     unsigned char 
  4925 ;;  rs              1    4[BANK0 ] unsigned char 
  4926 ;; Auto vars:     Size  Location     Type
  4927 ;;  ch              1    7[BANK0 ] unsigned char 
  4928 ;; Return value:  Size  Location     Type
  4929 ;;                  1    wreg      void 
  4930 ;; Registers used:
  4931 ;;		wreg, status,2, status,0
  4932 ;; Tracked objects:
  4933 ;;		On entry : 0/0
  4934 ;;		On exit  : 0/0
  4935 ;;		Unchanged: 0/0
  4936 ;; Data sizes:     COMMON   BANK0   BANK1   BANK2   BANK3   BANK4   BANK5   BANK6   BANK7   BANK8   BANK9  BANK10  BANK1
      +1  BANK12  BANK13  BANK14  BANK15  BANK16  BANK17  BANK18  BANK19  BANK20  BANK21  BANK22  BANK23  BANK24  BANK25
  4937 ;;      Params:         0       1       0       0       0       0       0       0       0       0       0       0       
      +0       0       0       0       0       0       0       0       0       0       0       0       0       0       0
  4938 ;;      Locals:         0       1       0       0       0       0       0       0       0       0       0       0       
      +0       0       0       0       0       0       0       0       0       0       0       0       0       0       0
  4939 ;;      Temps:          0       2       0       0       0       0       0       0       0       0       0       0       
      +0       0       0       0       0       0       0       0       0       0       0       0       0       0       0
  4940 ;;      Totals:         0       4       0       0       0       0       0       0       0       0       0       0       
      +0       0       0       0       0       0       0       0       0       0       0       0       0       0       0
  4941 ;;Total ram usage:        4 bytes
  4942 ;; Hardware stack levels used:    1
  4943 ;; Hardware stack levels required when called:    8
  4944 ;; This function calls:
  4945 ;;		Nothing
  4946 ;; This function is called by:
  4947 ;;		_LCDPutChar
  4948 ;;		_LCDPutCmd
  4949 ;; This function uses a non-reentrant model
  4950 ;;
  4951                           
  4952                           
  4953                           ;psect for function _LCDWriteNibble
  4954  037A                     _LCDWriteNibble:
  4955                           
  4956                           ;incstack = 0
  4957                           ; Regs used in _LCDWriteNibble: [wreg+status,2+status,0]
  4958                           ;LCDWriteNibble@ch stored from wreg
  4959  037A  0020               	movlb	0	; select bank0
  4960  037B  00A7               	movwf	LCDWriteNibble@ch
  4961  037C                     l1969:
  4962                           
  4963                           ;lcd.c: 74: void LCDWriteNibble(uint8_t ch, uint8_t rs);lcd.c: 75: {;lcd.c: 77:   ch = (
      +                          ch >> 4);
  4964  037C  0827               	movf	LCDWriteNibble@ch,w
  4965  037D  00A5               	movwf	??_LCDWriteNibble
  4966  037E  3004               	movlw	4
  4967  037F                     u835:
  4968  037F  36A5               	lsrf	??_LCDWriteNibble,f
  4969  0380  0B89               	decfsz	9,f
  4970  0381  2B7F               	goto	u835
  4971  0382  0825               	movf	??_LCDWriteNibble,w
  4972  0383  00A6               	movwf	??_LCDWriteNibble+1
  4973  0384  0826               	movf	??_LCDWriteNibble+1,w
  4974  0385  00A7               	movwf	LCDWriteNibble@ch
  4975  0386                     l1971:
  4976                           
  4977                           ;lcd.c: 80:   ch = (ch & 0x0F);
  4978  0386  0827               	movf	LCDWriteNibble@ch,w
  4979  0387  390F               	andlw	15
  4980  0388  00A5               	movwf	??_LCDWriteNibble
  4981  0389  0825               	movf	??_LCDWriteNibble,w
  4982  038A  00A7               	movwf	LCDWriteNibble@ch
  4983  038B                     l1973:
  4984                           
  4985                           ;lcd.c: 83:   PORTB = (PORTB & 0xF0);
  4986  038B  080D               	movf	13,w	;volatile
  4987  038C  39F0               	andlw	240
  4988  038D  008D               	movwf	13	;volatile
  4989                           
  4990                           ;lcd.c: 86:   PORTB = (PORTB | ch);
  4991  038E  080D               	movf	13,w	;volatile
  4992  038F  0427               	iorwf	LCDWriteNibble@ch,w
  4993  0390  008D               	movwf	13	;volatile
  4994  0391                     l1975:
  4995                           
  4996                           ;lcd.c: 89:   PORTBbits.RB5 = rs;
  4997  0391  0C24               	rrf	LCDWriteNibble@rs,w
  4998  0392  1C03               	skipc
  4999  0393  128D               	bcf	13,5	;volatile
  5000  0394  1803               	skipnc
  5001  0395  168D               	bsf	13,5	;volatile
  5002  0396                     l1977:
  5003                           
  5004                           ;lcd.c: 92:   PORTBbits.RB6 = 0;
  5005  0396  130D               	bcf	13,6	;volatile
  5006  0397                     l1979:
  5007                           
  5008                           ;lcd.c: 95:   PORTBbits.RB4 = 1;
  5009  0397  160D               	bsf	13,4	;volatile
  5010  0398                     l1981:
  5011                           
  5012                           ;lcd.c: 98:   PORTBbits.RB4 = 0;
  5013  0398  120D               	bcf	13,4	;volatile
  5014  0399                     l250:
  5015  0399  0008               	return
  5016  039A                     __end_of_LCDWriteNibble:
  5017                           
  5018                           	psect	intentry
  5019  0004                     __pintentry:	
  5020 ;; *************** function _INTERRUPT_InterruptManager *****************
  5021 ;; Defined at:
  5022 ;;		line 52 in file "mcc_generated_files/interrupt_manager.c"
  5023 ;; Parameters:    Size  Location     Type
  5024 ;;		None
  5025 ;; Auto vars:     Size  Location     Type
  5026 ;;		None
  5027 ;; Return value:  Size  Location     Type
  5028 ;;                  1    wreg      void 
  5029 ;; Registers used:
  5030 ;;		wreg, fsr0l, fsr0h, status,2, status,0, pclath, cstack
  5031 ;; Tracked objects:
  5032 ;;		On entry : 0/0
  5033 ;;		On exit  : 0/0
  5034 ;;		Unchanged: 0/0
  5035 ;; Data sizes:     COMMON   BANK0   BANK1   BANK2   BANK3   BANK4   BANK5   BANK6   BANK7   BANK8   BANK9  BANK10  BANK1
      +1  BANK12  BANK13  BANK14  BANK15  BANK16  BANK17  BANK18  BANK19  BANK20  BANK21  BANK22  BANK23  BANK24  BANK25
  5036 ;;      Params:         0       0       0       0       0       0       0       0       0       0       0       0       
      +0       0       0       0       0       0       0       0       0       0       0       0       0       0       0
  5037 ;;      Locals:         0       0       0       0       0       0       0       0       0       0       0       0       
      +0       0       0       0       0       0       0       0       0       0       0       0       0       0       0
  5038 ;;      Temps:          1       0       0       0       0       0       0       0       0       0       0       0       
      +0       0       0       0       0       0       0       0       0       0       0       0       0       0       0
  5039 ;;      Totals:         1       0       0       0       0       0       0       0       0       0       0       0       
      +0       0       0       0       0       0       0       0       0       0       0       0       0       0       0
  5040 ;;Total ram usage:        1 bytes
  5041 ;; Hardware stack levels used:    1
  5042 ;; Hardware stack levels required when called:    7
  5043 ;; This function calls:
  5044 ;;		_PIN_MANAGER_IOC
  5045 ;; This function is called by:
  5046 ;;		Interrupt level 1
  5047 ;; This function uses a non-reentrant model
  5048 ;;
  5049                           
  5050  0004                     _INTERRUPT_InterruptManager:
  5051                           
  5052                           ;incstack = 0
  5053  0004  147E               	bsf	int$flags,0	;set compiler interrupt flag (level 1)
  5054                           
  5055                           ; Regs used in _INTERRUPT_InterruptManager: [wreg-fsr0h+status,2+status,0+pclath+cstack]
  5056  0005  3180               	pagesel	$
  5057  0006                     i1l2303:
  5058                           
  5059                           ;mcc_generated_files/interrupt_manager.c: 55:     if(INTCONbits.IOCIE == 1 && INTCONbits
      +                          .IOCIF == 1)
  5060  0006  1D8B               	btfss	11,3	;volatile
  5061  0007  2809               	goto	u106_21
  5062  0008  280A               	goto	u106_20
  5063  0009                     u106_21:
  5064  0009  2819               	goto	i1l234
  5065  000A                     u106_20:
  5066  000A                     i1l2305:
  5067  000A  1C0B               	btfss	11,0	;volatile
  5068  000B  280D               	goto	u107_21
  5069  000C  280E               	goto	u107_20
  5070  000D                     u107_21:
  5071  000D  2819               	goto	i1l234
  5072  000E                     u107_20:
  5073  000E                     i1l2307:
  5074                           
  5075                           ;mcc_generated_files/interrupt_manager.c: 56:     {;mcc_generated_files/interrupt_manage
      +                          r.c: 57:         _delay((unsigned long)((80)*(500000/4000.0)));
  5076  000E  300D               	movlw	13
  5077  000F  00FD               	movwf	??_INTERRUPT_InterruptManager
  5078  0010  30FC               	movlw	252
  5079  0011                     u122_27:
  5080  0011  0B89               	decfsz	9,f
  5081  0012  2811               	goto	u122_27
  5082  0013  0BFD               	decfsz	??_INTERRUPT_InterruptManager,f
  5083  0014  2811               	goto	u122_27
  5084  0015                     i1l2309:
  5085                           
  5086                           ;mcc_generated_files/interrupt_manager.c: 58:         PIN_MANAGER_IOC();
  5087  0015  3181  21C0  3180   	fcall	_PIN_MANAGER_IOC
  5088  0018                     i1l2311:
  5089                           
  5090                           ;mcc_generated_files/interrupt_manager.c: 60:         INTCONbits.IOCIF = 0;
  5091  0018  100B               	bcf	11,0	;volatile
  5092  0019                     i1l234:	
  5093                           ;mcc_generated_files/interrupt_manager.c: 61:     }
  5094                           
  5095  0019  107E               	bcf	int$flags,0	;clear compiler interrupt flag (level 1)
  5096  001A  0009               	retfie
  5097  001B                     __end_of_INTERRUPT_InterruptManager:
  5098                           
  5099                           	psect	text25
  5100  01C0                     __ptext25:	
  5101 ;; *************** function _PIN_MANAGER_IOC *****************
  5102 ;; Defined at:
  5103 ;;		line 175 in file "mcc_generated_files/pin_manager.c"
  5104 ;; Parameters:    Size  Location     Type
  5105 ;;		None
  5106 ;; Auto vars:     Size  Location     Type
  5107 ;;		None
  5108 ;; Return value:  Size  Location     Type
  5109 ;;                  1    wreg      void 
  5110 ;; Registers used:
  5111 ;;		wreg, fsr0l, fsr0h, status,2, status,0, pclath, cstack
  5112 ;; Tracked objects:
  5113 ;;		On entry : 0/0
  5114 ;;		On exit  : 0/0
  5115 ;;		Unchanged: 0/0
  5116 ;; Data sizes:     COMMON   BANK0   BANK1   BANK2   BANK3   BANK4   BANK5   BANK6   BANK7   BANK8   BANK9  BANK10  BANK1
      +1  BANK12  BANK13  BANK14  BANK15  BANK16  BANK17  BANK18  BANK19  BANK20  BANK21  BANK22  BANK23  BANK24  BANK25
  5117 ;;      Params:         0       0       0       0       0       0       0       0       0       0       0       0       
      +0       0       0       0       0       0       0       0       0       0       0       0       0       0       0
  5118 ;;      Locals:         0       0       0       0       0       0       0       0       0       0       0       0       
      +0       0       0       0       0       0       0       0       0       0       0       0       0       0       0
  5119 ;;      Temps:          0       0       0       0       0       0       0       0       0       0       0       0       
      +0       0       0       0       0       0       0       0       0       0       0       0       0       0       0
  5120 ;;      Totals:         0       0       0       0       0       0       0       0       0       0       0       0       
      +0       0       0       0       0       0       0       0       0       0       0       0       0       0       0
  5121 ;;Total ram usage:        0 bytes
  5122 ;; Hardware stack levels used:    1
  5123 ;; Hardware stack levels required when called:    6
  5124 ;; This function calls:
  5125 ;;		_IOCAF0_ISR
  5126 ;;		_IOCAF1_ISR
  5127 ;;		_IOCAF2_ISR
  5128 ;;		_IOCAF3_ISR
  5129 ;;		_IOCAF4_ISR
  5130 ;;		_IOCAF5_ISR
  5131 ;; This function is called by:
  5132 ;;		_INTERRUPT_InterruptManager
  5133 ;; This function uses a non-reentrant model
  5134 ;;
  5135                           
  5136                           
  5137                           ;psect for function _PIN_MANAGER_IOC
  5138  01C0                     _PIN_MANAGER_IOC:
  5139  01C0                     i1l2221:	
  5140                           ;incstack = 0
  5141                           ; Regs used in _PIN_MANAGER_IOC: [wreg-fsr0h+status,2+status,0+pclath+cstack]
  5142                           
  5143                           
  5144                           ;mcc_generated_files/pin_manager.c: 178:     if(IOCAFbits.IOCAF0 == 1)
  5145  01C0  0027               	movlb	7	; select bank7
  5146  01C1  1C13               	btfss	19,0	;volatile
  5147  01C2  29C4               	goto	u95_21
  5148  01C3  29C5               	goto	u95_20
  5149  01C4                     u95_21:
  5150  01C4  29C8               	goto	i1l2225
  5151  01C5                     u95_20:
  5152  01C5                     i1l2223:
  5153                           
  5154                           ;mcc_generated_files/pin_manager.c: 179:     {;mcc_generated_files/pin_manager.c: 180:  
      +                                 IOCAF0_ISR();
  5155  01C5  3182  224C  3181   	fcall	_IOCAF0_ISR
  5156  01C8                     i1l2225:
  5157                           
  5158                           ;mcc_generated_files/pin_manager.c: 183:     if(IOCAFbits.IOCAF1 == 1)
  5159  01C8  0027               	movlb	7	; select bank7
  5160  01C9  1C93               	btfss	19,1	;volatile
  5161  01CA  29CC               	goto	u96_21
  5162  01CB  29CD               	goto	u96_20
  5163  01CC                     u96_21:
  5164  01CC  29D0               	goto	i1l2229
  5165  01CD                     u96_20:
  5166  01CD                     i1l2227:
  5167                           
  5168                           ;mcc_generated_files/pin_manager.c: 184:     {;mcc_generated_files/pin_manager.c: 185:  
      +                                 IOCAF1_ISR();
  5169  01CD  3182  2220  3181   	fcall	_IOCAF1_ISR
  5170  01D0                     i1l2229:
  5171                           
  5172                           ;mcc_generated_files/pin_manager.c: 188:     if(IOCAFbits.IOCAF2 == 1)
  5173  01D0  0027               	movlb	7	; select bank7
  5174  01D1  1D13               	btfss	19,2	;volatile
  5175  01D2  29D4               	goto	u97_21
  5176  01D3  29D5               	goto	u97_20
  5177  01D4                     u97_21:
  5178  01D4  29D8               	goto	i1l2233
  5179  01D5                     u97_20:
  5180  01D5                     i1l2231:
  5181                           
  5182                           ;mcc_generated_files/pin_manager.c: 189:     {;mcc_generated_files/pin_manager.c: 190:  
      +                                 IOCAF2_ISR();
  5183  01D5  3185  2526  3181   	fcall	_IOCAF2_ISR
  5184  01D8                     i1l2233:
  5185                           
  5186                           ;mcc_generated_files/pin_manager.c: 193:     if(IOCAFbits.IOCAF3 == 1)
  5187  01D8  0027               	movlb	7	; select bank7
  5188  01D9  1D93               	btfss	19,3	;volatile
  5189  01DA  29DC               	goto	u98_21
  5190  01DB  29DD               	goto	u98_20
  5191  01DC                     u98_21:
  5192  01DC  29E0               	goto	i1l2237
  5193  01DD                     u98_20:
  5194  01DD                     i1l2235:
  5195                           
  5196                           ;mcc_generated_files/pin_manager.c: 194:     {;mcc_generated_files/pin_manager.c: 195:  
      +                                 IOCAF3_ISR();
  5197  01DD  3185  2517  3181   	fcall	_IOCAF3_ISR
  5198  01E0                     i1l2237:
  5199                           
  5200                           ;mcc_generated_files/pin_manager.c: 198:     if(IOCAFbits.IOCAF4 == 1)
  5201  01E0  0027               	movlb	7	; select bank7
  5202  01E1  1E13               	btfss	19,4	;volatile
  5203  01E2  29E4               	goto	u99_21
  5204  01E3  29E5               	goto	u99_20
  5205  01E4                     u99_21:
  5206  01E4  29E8               	goto	i1l2241
  5207  01E5                     u99_20:
  5208  01E5                     i1l2239:
  5209                           
  5210                           ;mcc_generated_files/pin_manager.c: 199:     {;mcc_generated_files/pin_manager.c: 200:  
      +                                 IOCAF4_ISR();
  5211  01E5  3185  2508  3181   	fcall	_IOCAF4_ISR
  5212  01E8                     i1l2241:
  5213                           
  5214                           ;mcc_generated_files/pin_manager.c: 203:     if(IOCAFbits.IOCAF5 == 1)
  5215  01E8  0027               	movlb	7	; select bank7
  5216  01E9  1E93               	btfss	19,5	;volatile
  5217  01EA  29EC               	goto	u100_21
  5218  01EB  29ED               	goto	u100_20
  5219  01EC                     u100_21:
  5220  01EC  29F0               	goto	i1l124
  5221  01ED                     u100_20:
  5222  01ED                     i1l2243:
  5223                           
  5224                           ;mcc_generated_files/pin_manager.c: 204:     {;mcc_generated_files/pin_manager.c: 205:  
      +                                 IOCAF5_ISR();
  5225  01ED  3184  24F9  3181   	fcall	_IOCAF5_ISR
  5226  01F0                     i1l124:
  5227  01F0  0008               	return
  5228  01F1                     __end_of_PIN_MANAGER_IOC:
  5229                           
  5230                           	psect	text26
  5231  04F9                     __ptext26:	
  5232 ;; *************** function _IOCAF5_ISR *****************
  5233 ;; Defined at:
  5234 ;;		line 393 in file "mcc_generated_files/pin_manager.c"
  5235 ;; Parameters:    Size  Location     Type
  5236 ;;		None
  5237 ;; Auto vars:     Size  Location     Type
  5238 ;;		None
  5239 ;; Return value:  Size  Location     Type
  5240 ;;                  1    wreg      void 
  5241 ;; Registers used:
  5242 ;;		wreg, status,2, status,0, pclath, cstack
  5243 ;; Tracked objects:
  5244 ;;		On entry : 0/0
  5245 ;;		On exit  : 0/0
  5246 ;;		Unchanged: 0/0
  5247 ;; Data sizes:     COMMON   BANK0   BANK1   BANK2   BANK3   BANK4   BANK5   BANK6   BANK7   BANK8   BANK9  BANK10  BANK1
      +1  BANK12  BANK13  BANK14  BANK15  BANK16  BANK17  BANK18  BANK19  BANK20  BANK21  BANK22  BANK23  BANK24  BANK25
  5248 ;;      Params:         0       0       0       0       0       0       0       0       0       0       0       0       
      +0       0       0       0       0       0       0       0       0       0       0       0       0       0       0
  5249 ;;      Locals:         0       0       0       0       0       0       0       0       0       0       0       0       
      +0       0       0       0       0       0       0       0       0       0       0       0       0       0       0
  5250 ;;      Temps:          0       0       0       0       0       0       0       0       0       0       0       0       
      +0       0       0       0       0       0       0       0       0       0       0       0       0       0       0
  5251 ;;      Totals:         0       0       0       0       0       0       0       0       0       0       0       0       
      +0       0       0       0       0       0       0       0       0       0       0       0       0       0       0
  5252 ;;Total ram usage:        0 bytes
  5253 ;; Hardware stack levels used:    1
  5254 ;; Hardware stack levels required when called:    1
  5255 ;; This function calls:
  5256 ;;		Absolute function
  5257 ;;		_IOCAF5_DefaultInterruptHandler
  5258 ;; This function is called by:
  5259 ;;		_PIN_MANAGER_IOC
  5260 ;; This function uses a non-reentrant model
  5261 ;;
  5262                           
  5263                           
  5264                           ;psect for function _IOCAF5_ISR
  5265  04F9                     _IOCAF5_ISR:
  5266  04F9                     i1l1683:	
  5267                           ;incstack = 0
  5268                           ; Regs used in _IOCAF5_ISR: [wreg+status,2+status,0+pclath+cstack]
  5269                           
  5270                           
  5271                           ;mcc_generated_files/pin_manager.c: 398:     if(IOCAF5_InterruptHandler)
  5272  04F9  0020               	movlb	0	; select bank0
  5273  04FA  0846               	movf	_IOCAF5_InterruptHandler,w
  5274  04FB  0447               	iorwf	_IOCAF5_InterruptHandler+1,w
  5275  04FC  1903               	btfsc	3,2
  5276  04FD  2CFF               	goto	u62_21
  5277  04FE  2D00               	goto	u62_20
  5278  04FF                     u62_21:
  5279  04FF  2D05               	goto	i1l1687
  5280  0500                     u62_20:
  5281  0500                     i1l1685:
  5282                           
  5283                           ;mcc_generated_files/pin_manager.c: 399:     {;mcc_generated_files/pin_manager.c: 400:  
      +                                 IOCAF5_InterruptHandler();
  5284  0500  0847               	movf	_IOCAF5_InterruptHandler+1,w
  5285  0501  008A               	movwf	10
  5286  0502  0846               	movf	_IOCAF5_InterruptHandler,w
  5287  0503  000A               	callw
  5288  0504  3184               	pagesel	$
  5289  0505                     i1l1687:
  5290                           
  5291                           ;mcc_generated_files/pin_manager.c: 402:     IOCAFbits.IOCAF5 = 0;
  5292  0505  0027               	movlb	7	; select bank7
  5293  0506  1293               	bcf	19,5	;volatile
  5294  0507                     i1l192:
  5295  0507  0008               	return
  5296  0508                     __end_of_IOCAF5_ISR:
  5297                           
  5298                           	psect	text27
  5299  05B2                     __ptext27:	
  5300 ;; *************** function _IOCAF5_DefaultInterruptHandler *****************
  5301 ;; Defined at:
  5302 ;;		line 415 in file "mcc_generated_files/pin_manager.c"
  5303 ;; Parameters:    Size  Location     Type
  5304 ;;		None
  5305 ;; Auto vars:     Size  Location     Type
  5306 ;;		None
  5307 ;; Return value:  Size  Location     Type
  5308 ;;                  1    wreg      void 
  5309 ;; Registers used:
  5310 ;;		None
  5311 ;; Tracked objects:
  5312 ;;		On entry : 0/0
  5313 ;;		On exit  : 0/0
  5314 ;;		Unchanged: 0/0
  5315 ;; Data sizes:     COMMON   BANK0   BANK1   BANK2   BANK3   BANK4   BANK5   BANK6   BANK7   BANK8   BANK9  BANK10  BANK1
      +1  BANK12  BANK13  BANK14  BANK15  BANK16  BANK17  BANK18  BANK19  BANK20  BANK21  BANK22  BANK23  BANK24  BANK25
  5316 ;;      Params:         0       0       0       0       0       0       0       0       0       0       0       0       
      +0       0       0       0       0       0       0       0       0       0       0       0       0       0       0
  5317 ;;      Locals:         0       0       0       0       0       0       0       0       0       0       0       0       
      +0       0       0       0       0       0       0       0       0       0       0       0       0       0       0
  5318 ;;      Temps:          0       0       0       0       0       0       0       0       0       0       0       0       
      +0       0       0       0       0       0       0       0       0       0       0       0       0       0       0
  5319 ;;      Totals:         0       0       0       0       0       0       0       0       0       0       0       0       
      +0       0       0       0       0       0       0       0       0       0       0       0       0       0       0
  5320 ;;Total ram usage:        0 bytes
  5321 ;; Hardware stack levels used:    1
  5322 ;; This function calls:
  5323 ;;		Nothing
  5324 ;; This function is called by:
  5325 ;;		_PIN_MANAGER_Initialize
  5326 ;;		_IOCAF5_ISR
  5327 ;; This function uses a non-reentrant model
  5328 ;;
  5329                           
  5330                           
  5331                           ;psect for function _IOCAF5_DefaultInterruptHandler
  5332  05B2                     _IOCAF5_DefaultInterruptHandler:
  5333  05B2                     i1l198:	
  5334                           ;incstack = 0
  5335                           ; Regs used in _IOCAF5_DefaultInterruptHandler: []
  5336                           
  5337  05B2  0008               	return
  5338  05B3                     __end_of_IOCAF5_DefaultInterruptHandler:
  5339                           
  5340                           	psect	text28
  5341  0508                     __ptext28:	
  5342 ;; *************** function _IOCAF4_ISR *****************
  5343 ;; Defined at:
  5344 ;;		line 363 in file "mcc_generated_files/pin_manager.c"
  5345 ;; Parameters:    Size  Location     Type
  5346 ;;		None
  5347 ;; Auto vars:     Size  Location     Type
  5348 ;;		None
  5349 ;; Return value:  Size  Location     Type
  5350 ;;                  1    wreg      void 
  5351 ;; Registers used:
  5352 ;;		wreg, status,2, status,0, pclath, cstack
  5353 ;; Tracked objects:
  5354 ;;		On entry : 0/0
  5355 ;;		On exit  : 0/0
  5356 ;;		Unchanged: 0/0
  5357 ;; Data sizes:     COMMON   BANK0   BANK1   BANK2   BANK3   BANK4   BANK5   BANK6   BANK7   BANK8   BANK9  BANK10  BANK1
      +1  BANK12  BANK13  BANK14  BANK15  BANK16  BANK17  BANK18  BANK19  BANK20  BANK21  BANK22  BANK23  BANK24  BANK25
  5358 ;;      Params:         0       0       0       0       0       0       0       0       0       0       0       0       
      +0       0       0       0       0       0       0       0       0       0       0       0       0       0       0
  5359 ;;      Locals:         0       0       0       0       0       0       0       0       0       0       0       0       
      +0       0       0       0       0       0       0       0       0       0       0       0       0       0       0
  5360 ;;      Temps:          0       0       0       0       0       0       0       0       0       0       0       0       
      +0       0       0       0       0       0       0       0       0       0       0       0       0       0       0
  5361 ;;      Totals:         0       0       0       0       0       0       0       0       0       0       0       0       
      +0       0       0       0       0       0       0       0       0       0       0       0       0       0       0
  5362 ;;Total ram usage:        0 bytes
  5363 ;; Hardware stack levels used:    1
  5364 ;; Hardware stack levels required when called:    1
  5365 ;; This function calls:
  5366 ;;		Absolute function
  5367 ;;		_IOCAF4_DefaultInterruptHandler
  5368 ;; This function is called by:
  5369 ;;		_PIN_MANAGER_IOC
  5370 ;; This function uses a non-reentrant model
  5371 ;;
  5372                           
  5373                           
  5374                           ;psect for function _IOCAF4_ISR
  5375  0508                     _IOCAF4_ISR:
  5376  0508                     i1l1677:	
  5377                           ;incstack = 0
  5378                           ; Regs used in _IOCAF4_ISR: [wreg+status,2+status,0+pclath+cstack]
  5379                           
  5380                           
  5381                           ;mcc_generated_files/pin_manager.c: 368:     if(IOCAF4_InterruptHandler)
  5382  0508  0020               	movlb	0	; select bank0
  5383  0509  0848               	movf	_IOCAF4_InterruptHandler,w
  5384  050A  0449               	iorwf	_IOCAF4_InterruptHandler+1,w
  5385  050B  1903               	btfsc	3,2
  5386  050C  2D0E               	goto	u61_21
  5387  050D  2D0F               	goto	u61_20
  5388  050E                     u61_21:
  5389  050E  2D14               	goto	i1l1681
  5390  050F                     u61_20:
  5391  050F                     i1l1679:
  5392                           
  5393                           ;mcc_generated_files/pin_manager.c: 369:     {;mcc_generated_files/pin_manager.c: 370:  
      +                                 IOCAF4_InterruptHandler();
  5394  050F  0849               	movf	_IOCAF4_InterruptHandler+1,w
  5395  0510  008A               	movwf	10
  5396  0511  0848               	movf	_IOCAF4_InterruptHandler,w
  5397  0512  000A               	callw
  5398  0513  3185               	pagesel	$
  5399  0514                     i1l1681:
  5400                           
  5401                           ;mcc_generated_files/pin_manager.c: 372:     IOCAFbits.IOCAF4 = 0;
  5402  0514  0027               	movlb	7	; select bank7
  5403  0515  1213               	bcf	19,4	;volatile
  5404  0516                     i1l182:
  5405  0516  0008               	return
  5406  0517                     __end_of_IOCAF4_ISR:
  5407                           
  5408                           	psect	text29
  5409  05B3                     __ptext29:	
  5410 ;; *************** function _IOCAF4_DefaultInterruptHandler *****************
  5411 ;; Defined at:
  5412 ;;		line 385 in file "mcc_generated_files/pin_manager.c"
  5413 ;; Parameters:    Size  Location     Type
  5414 ;;		None
  5415 ;; Auto vars:     Size  Location     Type
  5416 ;;		None
  5417 ;; Return value:  Size  Location     Type
  5418 ;;                  1    wreg      void 
  5419 ;; Registers used:
  5420 ;;		None
  5421 ;; Tracked objects:
  5422 ;;		On entry : 0/0
  5423 ;;		On exit  : 0/0
  5424 ;;		Unchanged: 0/0
  5425 ;; Data sizes:     COMMON   BANK0   BANK1   BANK2   BANK3   BANK4   BANK5   BANK6   BANK7   BANK8   BANK9  BANK10  BANK1
      +1  BANK12  BANK13  BANK14  BANK15  BANK16  BANK17  BANK18  BANK19  BANK20  BANK21  BANK22  BANK23  BANK24  BANK25
  5426 ;;      Params:         0       0       0       0       0       0       0       0       0       0       0       0       
      +0       0       0       0       0       0       0       0       0       0       0       0       0       0       0
  5427 ;;      Locals:         0       0       0       0       0       0       0       0       0       0       0       0       
      +0       0       0       0       0       0       0       0       0       0       0       0       0       0       0
  5428 ;;      Temps:          0       0       0       0       0       0       0       0       0       0       0       0       
      +0       0       0       0       0       0       0       0       0       0       0       0       0       0       0
  5429 ;;      Totals:         0       0       0       0       0       0       0       0       0       0       0       0       
      +0       0       0       0       0       0       0       0       0       0       0       0       0       0       0
  5430 ;;Total ram usage:        0 bytes
  5431 ;; Hardware stack levels used:    1
  5432 ;; This function calls:
  5433 ;;		Nothing
  5434 ;; This function is called by:
  5435 ;;		_PIN_MANAGER_Initialize
  5436 ;;		_IOCAF4_ISR
  5437 ;; This function uses a non-reentrant model
  5438 ;;
  5439                           
  5440                           
  5441                           ;psect for function _IOCAF4_DefaultInterruptHandler
  5442  05B3                     _IOCAF4_DefaultInterruptHandler:
  5443  05B3                     i1l188:	
  5444                           ;incstack = 0
  5445                           ; Regs used in _IOCAF4_DefaultInterruptHandler: []
  5446                           
  5447  05B3  0008               	return
  5448  05B4                     __end_of_IOCAF4_DefaultInterruptHandler:
  5449                           
  5450                           	psect	text30
  5451  0517                     __ptext30:	
  5452 ;; *************** function _IOCAF3_ISR *****************
  5453 ;; Defined at:
  5454 ;;		line 333 in file "mcc_generated_files/pin_manager.c"
  5455 ;; Parameters:    Size  Location     Type
  5456 ;;		None
  5457 ;; Auto vars:     Size  Location     Type
  5458 ;;		None
  5459 ;; Return value:  Size  Location     Type
  5460 ;;                  1    wreg      void 
  5461 ;; Registers used:
  5462 ;;		wreg, status,2, status,0, pclath, cstack
  5463 ;; Tracked objects:
  5464 ;;		On entry : 0/0
  5465 ;;		On exit  : 0/0
  5466 ;;		Unchanged: 0/0
  5467 ;; Data sizes:     COMMON   BANK0   BANK1   BANK2   BANK3   BANK4   BANK5   BANK6   BANK7   BANK8   BANK9  BANK10  BANK1
      +1  BANK12  BANK13  BANK14  BANK15  BANK16  BANK17  BANK18  BANK19  BANK20  BANK21  BANK22  BANK23  BANK24  BANK25
  5468 ;;      Params:         0       0       0       0       0       0       0       0       0       0       0       0       
      +0       0       0       0       0       0       0       0       0       0       0       0       0       0       0
  5469 ;;      Locals:         0       0       0       0       0       0       0       0       0       0       0       0       
      +0       0       0       0       0       0       0       0       0       0       0       0       0       0       0
  5470 ;;      Temps:          0       0       0       0       0       0       0       0       0       0       0       0       
      +0       0       0       0       0       0       0       0       0       0       0       0       0       0       0
  5471 ;;      Totals:         0       0       0       0       0       0       0       0       0       0       0       0       
      +0       0       0       0       0       0       0       0       0       0       0       0       0       0       0
  5472 ;;Total ram usage:        0 bytes
  5473 ;; Hardware stack levels used:    1
  5474 ;; Hardware stack levels required when called:    1
  5475 ;; This function calls:
  5476 ;;		Absolute function
  5477 ;;		_IOCAF3_DefaultInterruptHandler
  5478 ;; This function is called by:
  5479 ;;		_PIN_MANAGER_IOC
  5480 ;; This function uses a non-reentrant model
  5481 ;;
  5482                           
  5483                           
  5484                           ;psect for function _IOCAF3_ISR
  5485  0517                     _IOCAF3_ISR:
  5486  0517                     i1l1671:	
  5487                           ;incstack = 0
  5488                           ; Regs used in _IOCAF3_ISR: [wreg+status,2+status,0+pclath+cstack]
  5489                           
  5490                           
  5491                           ;mcc_generated_files/pin_manager.c: 338:     if(IOCAF3_InterruptHandler)
  5492  0517  0020               	movlb	0	; select bank0
  5493  0518  084A               	movf	_IOCAF3_InterruptHandler,w
  5494  0519  044B               	iorwf	_IOCAF3_InterruptHandler+1,w
  5495  051A  1903               	btfsc	3,2
  5496  051B  2D1D               	goto	u60_21
  5497  051C  2D1E               	goto	u60_20
  5498  051D                     u60_21:
  5499  051D  2D23               	goto	i1l1675
  5500  051E                     u60_20:
  5501  051E                     i1l1673:
  5502                           
  5503                           ;mcc_generated_files/pin_manager.c: 339:     {;mcc_generated_files/pin_manager.c: 340:  
      +                                 IOCAF3_InterruptHandler();
  5504  051E  084B               	movf	_IOCAF3_InterruptHandler+1,w
  5505  051F  008A               	movwf	10
  5506  0520  084A               	movf	_IOCAF3_InterruptHandler,w
  5507  0521  000A               	callw
  5508  0522  3185               	pagesel	$
  5509  0523                     i1l1675:
  5510                           
  5511                           ;mcc_generated_files/pin_manager.c: 342:     IOCAFbits.IOCAF3 = 0;
  5512  0523  0027               	movlb	7	; select bank7
  5513  0524  1193               	bcf	19,3	;volatile
  5514  0525                     i1l172:
  5515  0525  0008               	return
  5516  0526                     __end_of_IOCAF3_ISR:
  5517                           
  5518                           	psect	text31
  5519  05B4                     __ptext31:	
  5520 ;; *************** function _IOCAF3_DefaultInterruptHandler *****************
  5521 ;; Defined at:
  5522 ;;		line 355 in file "mcc_generated_files/pin_manager.c"
  5523 ;; Parameters:    Size  Location     Type
  5524 ;;		None
  5525 ;; Auto vars:     Size  Location     Type
  5526 ;;		None
  5527 ;; Return value:  Size  Location     Type
  5528 ;;                  1    wreg      void 
  5529 ;; Registers used:
  5530 ;;		None
  5531 ;; Tracked objects:
  5532 ;;		On entry : 0/0
  5533 ;;		On exit  : 0/0
  5534 ;;		Unchanged: 0/0
  5535 ;; Data sizes:     COMMON   BANK0   BANK1   BANK2   BANK3   BANK4   BANK5   BANK6   BANK7   BANK8   BANK9  BANK10  BANK1
      +1  BANK12  BANK13  BANK14  BANK15  BANK16  BANK17  BANK18  BANK19  BANK20  BANK21  BANK22  BANK23  BANK24  BANK25
  5536 ;;      Params:         0       0       0       0       0       0       0       0       0       0       0       0       
      +0       0       0       0       0       0       0       0       0       0       0       0       0       0       0
  5537 ;;      Locals:         0       0       0       0       0       0       0       0       0       0       0       0       
      +0       0       0       0       0       0       0       0       0       0       0       0       0       0       0
  5538 ;;      Temps:          0       0       0       0       0       0       0       0       0       0       0       0       
      +0       0       0       0       0       0       0       0       0       0       0       0       0       0       0
  5539 ;;      Totals:         0       0       0       0       0       0       0       0       0       0       0       0       
      +0       0       0       0       0       0       0       0       0       0       0       0       0       0       0
  5540 ;;Total ram usage:        0 bytes
  5541 ;; Hardware stack levels used:    1
  5542 ;; This function calls:
  5543 ;;		Nothing
  5544 ;; This function is called by:
  5545 ;;		_PIN_MANAGER_Initialize
  5546 ;;		_IOCAF3_ISR
  5547 ;; This function uses a non-reentrant model
  5548 ;;
  5549                           
  5550                           
  5551                           ;psect for function _IOCAF3_DefaultInterruptHandler
  5552  05B4                     _IOCAF3_DefaultInterruptHandler:
  5553  05B4                     i1l178:	
  5554                           ;incstack = 0
  5555                           ; Regs used in _IOCAF3_DefaultInterruptHandler: []
  5556                           
  5557  05B4  0008               	return
  5558  05B5                     __end_of_IOCAF3_DefaultInterruptHandler:
  5559                           
  5560                           	psect	text32
  5561  0526                     __ptext32:	
  5562 ;; *************** function _IOCAF2_ISR *****************
  5563 ;; Defined at:
  5564 ;;		line 303 in file "mcc_generated_files/pin_manager.c"
  5565 ;; Parameters:    Size  Location     Type
  5566 ;;		None
  5567 ;; Auto vars:     Size  Location     Type
  5568 ;;		None
  5569 ;; Return value:  Size  Location     Type
  5570 ;;                  1    wreg      void 
  5571 ;; Registers used:
  5572 ;;		wreg, status,2, status,0, pclath, cstack
  5573 ;; Tracked objects:
  5574 ;;		On entry : 0/0
  5575 ;;		On exit  : 0/0
  5576 ;;		Unchanged: 0/0
  5577 ;; Data sizes:     COMMON   BANK0   BANK1   BANK2   BANK3   BANK4   BANK5   BANK6   BANK7   BANK8   BANK9  BANK10  BANK1
      +1  BANK12  BANK13  BANK14  BANK15  BANK16  BANK17  BANK18  BANK19  BANK20  BANK21  BANK22  BANK23  BANK24  BANK25
  5578 ;;      Params:         0       0       0       0       0       0       0       0       0       0       0       0       
      +0       0       0       0       0       0       0       0       0       0       0       0       0       0       0
  5579 ;;      Locals:         0       0       0       0       0       0       0       0       0       0       0       0       
      +0       0       0       0       0       0       0       0       0       0       0       0       0       0       0
  5580 ;;      Temps:          0       0       0       0       0       0       0       0       0       0       0       0       
      +0       0       0       0       0       0       0       0       0       0       0       0       0       0       0
  5581 ;;      Totals:         0       0       0       0       0       0       0       0       0       0       0       0       
      +0       0       0       0       0       0       0       0       0       0       0       0       0       0       0
  5582 ;;Total ram usage:        0 bytes
  5583 ;; Hardware stack levels used:    1
  5584 ;; Hardware stack levels required when called:    1
  5585 ;; This function calls:
  5586 ;;		Absolute function
  5587 ;;		_IOCAF2_DefaultInterruptHandler
  5588 ;; This function is called by:
  5589 ;;		_PIN_MANAGER_IOC
  5590 ;; This function uses a non-reentrant model
  5591 ;;
  5592                           
  5593                           
  5594                           ;psect for function _IOCAF2_ISR
  5595  0526                     _IOCAF2_ISR:
  5596  0526                     i1l1665:	
  5597                           ;incstack = 0
  5598                           ; Regs used in _IOCAF2_ISR: [wreg+status,2+status,0+pclath+cstack]
  5599                           
  5600                           
  5601                           ;mcc_generated_files/pin_manager.c: 308:     if(IOCAF2_InterruptHandler)
  5602  0526  0020               	movlb	0	; select bank0
  5603  0527  084C               	movf	_IOCAF2_InterruptHandler,w
  5604  0528  044D               	iorwf	_IOCAF2_InterruptHandler+1,w
  5605  0529  1903               	btfsc	3,2
  5606  052A  2D2C               	goto	u59_21
  5607  052B  2D2D               	goto	u59_20
  5608  052C                     u59_21:
  5609  052C  2D32               	goto	i1l1669
  5610  052D                     u59_20:
  5611  052D                     i1l1667:
  5612                           
  5613                           ;mcc_generated_files/pin_manager.c: 309:     {;mcc_generated_files/pin_manager.c: 310:  
      +                                 IOCAF2_InterruptHandler();
  5614  052D  084D               	movf	_IOCAF2_InterruptHandler+1,w
  5615  052E  008A               	movwf	10
  5616  052F  084C               	movf	_IOCAF2_InterruptHandler,w
  5617  0530  000A               	callw
  5618  0531  3185               	pagesel	$
  5619  0532                     i1l1669:
  5620                           
  5621                           ;mcc_generated_files/pin_manager.c: 312:     IOCAFbits.IOCAF2 = 0;
  5622  0532  0027               	movlb	7	; select bank7
  5623  0533  1113               	bcf	19,2	;volatile
  5624  0534                     i1l162:
  5625  0534  0008               	return
  5626  0535                     __end_of_IOCAF2_ISR:
  5627                           
  5628                           	psect	text33
  5629  05B5                     __ptext33:	
  5630 ;; *************** function _IOCAF2_DefaultInterruptHandler *****************
  5631 ;; Defined at:
  5632 ;;		line 325 in file "mcc_generated_files/pin_manager.c"
  5633 ;; Parameters:    Size  Location     Type
  5634 ;;		None
  5635 ;; Auto vars:     Size  Location     Type
  5636 ;;		None
  5637 ;; Return value:  Size  Location     Type
  5638 ;;                  1    wreg      void 
  5639 ;; Registers used:
  5640 ;;		None
  5641 ;; Tracked objects:
  5642 ;;		On entry : 0/0
  5643 ;;		On exit  : 0/0
  5644 ;;		Unchanged: 0/0
  5645 ;; Data sizes:     COMMON   BANK0   BANK1   BANK2   BANK3   BANK4   BANK5   BANK6   BANK7   BANK8   BANK9  BANK10  BANK1
      +1  BANK12  BANK13  BANK14  BANK15  BANK16  BANK17  BANK18  BANK19  BANK20  BANK21  BANK22  BANK23  BANK24  BANK25
  5646 ;;      Params:         0       0       0       0       0       0       0       0       0       0       0       0       
      +0       0       0       0       0       0       0       0       0       0       0       0       0       0       0
  5647 ;;      Locals:         0       0       0       0       0       0       0       0       0       0       0       0       
      +0       0       0       0       0       0       0       0       0       0       0       0       0       0       0
  5648 ;;      Temps:          0       0       0       0       0       0       0       0       0       0       0       0       
      +0       0       0       0       0       0       0       0       0       0       0       0       0       0       0
  5649 ;;      Totals:         0       0       0       0       0       0       0       0       0       0       0       0       
      +0       0       0       0       0       0       0       0       0       0       0       0       0       0       0
  5650 ;;Total ram usage:        0 bytes
  5651 ;; Hardware stack levels used:    1
  5652 ;; This function calls:
  5653 ;;		Nothing
  5654 ;; This function is called by:
  5655 ;;		_PIN_MANAGER_Initialize
  5656 ;;		_IOCAF2_ISR
  5657 ;; This function uses a non-reentrant model
  5658 ;;
  5659                           
  5660                           
  5661                           ;psect for function _IOCAF2_DefaultInterruptHandler
  5662  05B5                     _IOCAF2_DefaultInterruptHandler:
  5663  05B5                     i1l168:	
  5664                           ;incstack = 0
  5665                           ; Regs used in _IOCAF2_DefaultInterruptHandler: []
  5666                           
  5667  05B5  0008               	return
  5668  05B6                     __end_of_IOCAF2_DefaultInterruptHandler:
  5669                           
  5670                           	psect	text34
  5671  0220                     __ptext34:	
  5672 ;; *************** function _IOCAF1_ISR *****************
  5673 ;; Defined at:
  5674 ;;		line 258 in file "mcc_generated_files/pin_manager.c"
  5675 ;; Parameters:    Size  Location     Type
  5676 ;;		None
  5677 ;; Auto vars:     Size  Location     Type
  5678 ;;		None
  5679 ;; Return value:  Size  Location     Type
  5680 ;;                  1    wreg      void 
  5681 ;; Registers used:
  5682 ;;		wreg, fsr0l, fsr0h, status,2, status,0, pclath, cstack
  5683 ;; Tracked objects:
  5684 ;;		On entry : 0/0
  5685 ;;		On exit  : 0/0
  5686 ;;		Unchanged: 0/0
  5687 ;; Data sizes:     COMMON   BANK0   BANK1   BANK2   BANK3   BANK4   BANK5   BANK6   BANK7   BANK8   BANK9  BANK10  BANK1
      +1  BANK12  BANK13  BANK14  BANK15  BANK16  BANK17  BANK18  BANK19  BANK20  BANK21  BANK22  BANK23  BANK24  BANK25
  5688 ;;      Params:         0       0       0       0       0       0       0       0       0       0       0       0       
      +0       0       0       0       0       0       0       0       0       0       0       0       0       0       0
  5689 ;;      Locals:         0       0       0       0       0       0       0       0       0       0       0       0       
      +0       0       0       0       0       0       0       0       0       0       0       0       0       0       0
  5690 ;;      Temps:          0       2       0       0       0       0       0       0       0       0       0       0       
      +0       0       0       0       0       0       0       0       0       0       0       0       0       0       0
  5691 ;;      Totals:         0       2       0       0       0       0       0       0       0       0       0       0       
      +0       0       0       0       0       0       0       0       0       0       0       0       0       0       0
  5692 ;;Total ram usage:        2 bytes
  5693 ;; Hardware stack levels used:    1
  5694 ;; Hardware stack levels required when called:    5
  5695 ;; This function calls:
  5696 ;;		Absolute function
  5697 ;;		_IOCAF1_DefaultInterruptHandler
  5698 ;;		i1_printMenu
  5699 ;; This function is called by:
  5700 ;;		_PIN_MANAGER_IOC
  5701 ;; This function uses a non-reentrant model
  5702 ;;
  5703                           
  5704                           
  5705                           ;psect for function _IOCAF1_ISR
  5706  0220                     _IOCAF1_ISR:
  5707  0220                     i1l2161:	
  5708                           ;incstack = 0
  5709                           ; Regs used in _IOCAF1_ISR: [wreg-fsr0h+status,2+status,0+pclath+cstack]
  5710                           
  5711                           
  5712                           ;mcc_generated_files/pin_manager.c: 263:     if(IOCAF1_InterruptHandler)
  5713  0220  0020               	movlb	0	; select bank0
  5714  0221  084E               	movf	_IOCAF1_InterruptHandler,w
  5715  0222  044F               	iorwf	_IOCAF1_InterruptHandler+1,w
  5716  0223  1903               	btfsc	3,2
  5717  0224  2A26               	goto	u93_21
  5718  0225  2A27               	goto	u93_20
  5719  0226                     u93_21:
  5720  0226  2A2C               	goto	i1l2165
  5721  0227                     u93_20:
  5722  0227                     i1l2163:
  5723                           
  5724                           ;mcc_generated_files/pin_manager.c: 264:     {;mcc_generated_files/pin_manager.c: 265:  
      +                                 IOCAF1_InterruptHandler();
  5725  0227  084F               	movf	_IOCAF1_InterruptHandler+1,w
  5726  0228  008A               	movwf	10
  5727  0229  084E               	movf	_IOCAF1_InterruptHandler,w
  5728  022A  000A               	callw
  5729  022B  3182               	pagesel	$
  5730  022C                     i1l2165:
  5731                           
  5732                           ;mcc_generated_files/pin_manager.c: 268:     if (inGame){
  5733  022C  0020               	movlb	0	; select bank0
  5734  022D  0854               	movf	_inGame,w
  5735  022E  1903               	btfsc	3,2
  5736  022F  2A31               	goto	u94_21
  5737  0230  2A32               	goto	u94_20
  5738  0231                     u94_21:
  5739  0231  2A39               	goto	i1l2173
  5740  0232                     u94_20:
  5741  0232  2A49               	goto	i1l146
  5742  0233                     i1l148:	
  5743                           ;mcc_generated_files/pin_manager.c: 272:         case 0:
  5744                           
  5745                           
  5746                           ;mcc_generated_files/pin_manager.c: 273:             mainState = 1;
  5747  0233  01C5               	clrf	_mainState
  5748  0234  0AC5               	incf	_mainState,f
  5749  0235                     i1l2169:
  5750                           
  5751                           ;mcc_generated_files/pin_manager.c: 274:             printMenu();
  5752  0235  3184  2434  3182   	fcall	i1_printMenu
  5753                           
  5754                           ;mcc_generated_files/pin_manager.c: 275:         break;
  5755  0238  2A49               	goto	i1l146
  5756  0239                     i1l2173:
  5757  0239  0845               	movf	_mainState,w
  5758  023A  00A2               	movwf	??_IOCAF1_ISR
  5759  023B  01A3               	clrf	??_IOCAF1_ISR+1
  5760                           
  5761                           ; Switch on 2 bytes has been partitioned into a top level switch of size 1, and 1 sub-sw
      +                          itches
  5762                           ; Switch size 1, requested type "simple"
  5763                           ; Number of cases is 1, Range of values is 0 to 0
  5764                           ; switch strategies available:
  5765                           ; Name         Instructions Cycles
  5766                           ; simple_byte            4     3 (average)
  5767                           ; direct_byte            8     6 (fixed)
  5768                           ; jumptable            260     6 (fixed)
  5769                           ;	Chosen strategy is simple_byte
  5770  023C  0823               	movf	??_IOCAF1_ISR+1,w
  5771  023D  3A00               	xorlw	0	; case 0
  5772  023E  1903               	skipnz
  5773  023F  2A41               	goto	i1l2461
  5774  0240  2A49               	goto	i1l146
  5775  0241                     i1l2461:
  5776                           
  5777                           ; Switch size 1, requested type "simple"
  5778                           ; Number of cases is 2, Range of values is 0 to 1
  5779                           ; switch strategies available:
  5780                           ; Name         Instructions Cycles
  5781                           ; simple_byte            7     4 (average)
  5782                           ; direct_byte           10     6 (fixed)
  5783                           ; jumptable            260     6 (fixed)
  5784                           ;	Chosen strategy is simple_byte
  5785  0241  0822               	movf	??_IOCAF1_ISR,w
  5786  0242  3A00               	xorlw	0	; case 0
  5787  0243  1903               	skipnz
  5788  0244  2A33               	goto	i1l148
  5789  0245  3A01               	xorlw	1	; case 1
  5790  0246  1903               	skipnz
  5791  0247  2A49               	goto	i1l146
  5792  0248  2A49               	goto	i1l146
  5793  0249                     i1l146:	
  5794                           ;mcc_generated_files/pin_manager.c: 281:     }
  5795                           
  5796                           
  5797                           ;mcc_generated_files/pin_manager.c: 282:     IOCAFbits.IOCAF1 = 0;
  5798  0249  0027               	movlb	7	; select bank7
  5799  024A  1093               	bcf	19,1	;volatile
  5800  024B                     i1l152:
  5801  024B  0008               	return
  5802  024C                     __end_of_IOCAF1_ISR:
  5803                           
  5804                           	psect	text35
  5805  05B6                     __ptext35:	
  5806 ;; *************** function _IOCAF1_DefaultInterruptHandler *****************
  5807 ;; Defined at:
  5808 ;;		line 295 in file "mcc_generated_files/pin_manager.c"
  5809 ;; Parameters:    Size  Location     Type
  5810 ;;		None
  5811 ;; Auto vars:     Size  Location     Type
  5812 ;;		None
  5813 ;; Return value:  Size  Location     Type
  5814 ;;                  1    wreg      void 
  5815 ;; Registers used:
  5816 ;;		None
  5817 ;; Tracked objects:
  5818 ;;		On entry : 0/0
  5819 ;;		On exit  : 0/0
  5820 ;;		Unchanged: 0/0
  5821 ;; Data sizes:     COMMON   BANK0   BANK1   BANK2   BANK3   BANK4   BANK5   BANK6   BANK7   BANK8   BANK9  BANK10  BANK1
      +1  BANK12  BANK13  BANK14  BANK15  BANK16  BANK17  BANK18  BANK19  BANK20  BANK21  BANK22  BANK23  BANK24  BANK25
  5822 ;;      Params:         0       0       0       0       0       0       0       0       0       0       0       0       
      +0       0       0       0       0       0       0       0       0       0       0       0       0       0       0
  5823 ;;      Locals:         0       0       0       0       0       0       0       0       0       0       0       0       
      +0       0       0       0       0       0       0       0       0       0       0       0       0       0       0
  5824 ;;      Temps:          0       0       0       0       0       0       0       0       0       0       0       0       
      +0       0       0       0       0       0       0       0       0       0       0       0       0       0       0
  5825 ;;      Totals:         0       0       0       0       0       0       0       0       0       0       0       0       
      +0       0       0       0       0       0       0       0       0       0       0       0       0       0       0
  5826 ;;Total ram usage:        0 bytes
  5827 ;; Hardware stack levels used:    1
  5828 ;; This function calls:
  5829 ;;		Nothing
  5830 ;; This function is called by:
  5831 ;;		_PIN_MANAGER_Initialize
  5832 ;;		_IOCAF1_ISR
  5833 ;; This function uses a non-reentrant model
  5834 ;;
  5835                           
  5836                           
  5837                           ;psect for function _IOCAF1_DefaultInterruptHandler
  5838  05B6                     _IOCAF1_DefaultInterruptHandler:
  5839  05B6                     i1l158:	
  5840                           ;incstack = 0
  5841                           ; Regs used in _IOCAF1_DefaultInterruptHandler: []
  5842                           
  5843  05B6  0008               	return
  5844  05B7                     __end_of_IOCAF1_DefaultInterruptHandler:
  5845                           
  5846                           	psect	text36
  5847  024C                     __ptext36:	
  5848 ;; *************** function _IOCAF0_ISR *****************
  5849 ;; Defined at:
  5850 ;;		line 212 in file "mcc_generated_files/pin_manager.c"
  5851 ;; Parameters:    Size  Location     Type
  5852 ;;		None
  5853 ;; Auto vars:     Size  Location     Type
  5854 ;;		None
  5855 ;; Return value:  Size  Location     Type
  5856 ;;                  1    wreg      void 
  5857 ;; Registers used:
  5858 ;;		wreg, fsr0l, fsr0h, status,2, status,0, pclath, cstack
  5859 ;; Tracked objects:
  5860 ;;		On entry : 0/0
  5861 ;;		On exit  : 0/0
  5862 ;;		Unchanged: 0/0
  5863 ;; Data sizes:     COMMON   BANK0   BANK1   BANK2   BANK3   BANK4   BANK5   BANK6   BANK7   BANK8   BANK9  BANK10  BANK1
      +1  BANK12  BANK13  BANK14  BANK15  BANK16  BANK17  BANK18  BANK19  BANK20  BANK21  BANK22  BANK23  BANK24  BANK25
  5864 ;;      Params:         0       0       0       0       0       0       0       0       0       0       0       0       
      +0       0       0       0       0       0       0       0       0       0       0       0       0       0       0
  5865 ;;      Locals:         0       0       0       0       0       0       0       0       0       0       0       0       
      +0       0       0       0       0       0       0       0       0       0       0       0       0       0       0
  5866 ;;      Temps:          0       2       0       0       0       0       0       0       0       0       0       0       
      +0       0       0       0       0       0       0       0       0       0       0       0       0       0       0
  5867 ;;      Totals:         0       2       0       0       0       0       0       0       0       0       0       0       
      +0       0       0       0       0       0       0       0       0       0       0       0       0       0       0
  5868 ;;Total ram usage:        2 bytes
  5869 ;; Hardware stack levels used:    1
  5870 ;; Hardware stack levels required when called:    5
  5871 ;; This function calls:
  5872 ;;		Absolute function
  5873 ;;		_IOCAF0_DefaultInterruptHandler
  5874 ;;		i1_printMenu
  5875 ;; This function is called by:
  5876 ;;		_PIN_MANAGER_IOC
  5877 ;; This function uses a non-reentrant model
  5878 ;;
  5879                           
  5880                           
  5881                           ;psect for function _IOCAF0_ISR
  5882  024C                     _IOCAF0_ISR:
  5883  024C                     i1l2141:	
  5884                           ;incstack = 0
  5885                           ; Regs used in _IOCAF0_ISR: [wreg-fsr0h+status,2+status,0+pclath+cstack]
  5886                           
  5887                           
  5888                           ;mcc_generated_files/pin_manager.c: 217:     if(IOCAF0_InterruptHandler)
  5889  024C  0020               	movlb	0	; select bank0
  5890  024D  0850               	movf	_IOCAF0_InterruptHandler,w
  5891  024E  0451               	iorwf	_IOCAF0_InterruptHandler+1,w
  5892  024F  1903               	btfsc	3,2
  5893  0250  2A52               	goto	u91_21
  5894  0251  2A53               	goto	u91_20
  5895  0252                     u91_21:
  5896  0252  2A58               	goto	i1l2145
  5897  0253                     u91_20:
  5898  0253                     i1l2143:
  5899                           
  5900                           ;mcc_generated_files/pin_manager.c: 218:     {;mcc_generated_files/pin_manager.c: 219:  
      +                                 IOCAF0_InterruptHandler();
  5901  0253  0851               	movf	_IOCAF0_InterruptHandler+1,w
  5902  0254  008A               	movwf	10
  5903  0255  0850               	movf	_IOCAF0_InterruptHandler,w
  5904  0256  000A               	callw
  5905  0257  3182               	pagesel	$
  5906  0258                     i1l2145:
  5907                           
  5908                           ;mcc_generated_files/pin_manager.c: 221:     if (inGame){
  5909  0258  0020               	movlb	0	; select bank0
  5910  0259  0854               	movf	_inGame,w
  5911  025A  1903               	btfsc	3,2
  5912  025B  2A5D               	goto	u92_21
  5913  025C  2A5E               	goto	u92_20
  5914  025D                     u92_21:
  5915  025D  2A64               	goto	i1l2155
  5916  025E                     u92_20:
  5917  025E  2A74               	goto	i1l129
  5918  025F                     i1l2149:
  5919                           
  5920                           ;mcc_generated_files/pin_manager.c: 228:             mainState = 0;
  5921  025F  01C5               	clrf	_mainState
  5922  0260                     i1l2151:
  5923                           
  5924                           ;mcc_generated_files/pin_manager.c: 229:             printMenu();
  5925  0260  3184  2434  3182   	fcall	i1_printMenu
  5926                           
  5927                           ;mcc_generated_files/pin_manager.c: 230:         break;
  5928  0263  2A74               	goto	i1l129
  5929  0264                     i1l2155:
  5930  0264  0845               	movf	_mainState,w
  5931  0265  00A2               	movwf	??_IOCAF0_ISR
  5932  0266  01A3               	clrf	??_IOCAF0_ISR+1
  5933                           
  5934                           ; Switch on 2 bytes has been partitioned into a top level switch of size 1, and 1 sub-sw
      +                          itches
  5935                           ; Switch size 1, requested type "simple"
  5936                           ; Number of cases is 1, Range of values is 0 to 0
  5937                           ; switch strategies available:
  5938                           ; Name         Instructions Cycles
  5939                           ; simple_byte            4     3 (average)
  5940                           ; direct_byte            8     6 (fixed)
  5941                           ; jumptable            260     6 (fixed)
  5942                           ;	Chosen strategy is simple_byte
  5943  0267  0823               	movf	??_IOCAF0_ISR+1,w
  5944  0268  3A00               	xorlw	0	; case 0
  5945  0269  1903               	skipnz
  5946  026A  2A6C               	goto	i1l2463
  5947  026B  2A74               	goto	i1l129
  5948  026C                     i1l2463:
  5949                           
  5950                           ; Switch size 1, requested type "simple"
  5951                           ; Number of cases is 2, Range of values is 0 to 1
  5952                           ; switch strategies available:
  5953                           ; Name         Instructions Cycles
  5954                           ; simple_byte            7     4 (average)
  5955                           ; direct_byte           10     6 (fixed)
  5956                           ; jumptable            260     6 (fixed)
  5957                           ;	Chosen strategy is simple_byte
  5958  026C  0822               	movf	??_IOCAF0_ISR,w
  5959  026D  3A00               	xorlw	0	; case 0
  5960  026E  1903               	skipnz
  5961  026F  2A74               	goto	i1l129
  5962  0270  3A01               	xorlw	1	; case 1
  5963  0271  1903               	skipnz
  5964  0272  2A5F               	goto	i1l2149
  5965  0273  2A74               	goto	i1l129
  5966  0274                     i1l129:	
  5967                           ;mcc_generated_files/pin_manager.c: 234:     }
  5968                           
  5969                           
  5970                           ;mcc_generated_files/pin_manager.c: 237:     IOCAFbits.IOCAF0 = 0;
  5971  0274  0027               	movlb	7	; select bank7
  5972  0275  1013               	bcf	19,0	;volatile
  5973  0276                     i1l135:
  5974  0276  0008               	return
  5975  0277                     __end_of_IOCAF0_ISR:
  5976                           
  5977                           	psect	text37
  5978  0434                     __ptext37:	
  5979 ;; *************** function i1_printMenu *****************
  5980 ;; Defined at:
  5981 ;;		line 26 in file "menu.c"
  5982 ;; Parameters:    Size  Location     Type
  5983 ;;		None
  5984 ;; Auto vars:     Size  Location     Type
  5985 ;;		None
  5986 ;; Return value:  Size  Location     Type
  5987 ;;                  1    wreg      void 
  5988 ;; Registers used:
  5989 ;;		wreg, fsr0l, fsr0h, status,2, status,0, pclath, cstack
  5990 ;; Tracked objects:
  5991 ;;		On entry : 0/0
  5992 ;;		On exit  : 0/0
  5993 ;;		Unchanged: 0/0
  5994 ;; Data sizes:     COMMON   BANK0   BANK1   BANK2   BANK3   BANK4   BANK5   BANK6   BANK7   BANK8   BANK9  BANK10  BANK1
      +1  BANK12  BANK13  BANK14  BANK15  BANK16  BANK17  BANK18  BANK19  BANK20  BANK21  BANK22  BANK23  BANK24  BANK25
  5995 ;;      Params:         0       0       0       0       0       0       0       0       0       0       0       0       
      +0       0       0       0       0       0       0       0       0       0       0       0       0       0       0
  5996 ;;      Locals:         0       0       0       0       0       0       0       0       0       0       0       0       
      +0       0       0       0       0       0       0       0       0       0       0       0       0       0       0
  5997 ;;      Temps:          0       0       0       0       0       0       0       0       0       0       0       0       
      +0       0       0       0       0       0       0       0       0       0       0       0       0       0       0
  5998 ;;      Totals:         0       0       0       0       0       0       0       0       0       0       0       0       
      +0       0       0       0       0       0       0       0       0       0       0       0       0       0       0
  5999 ;;Total ram usage:        0 bytes
  6000 ;; Hardware stack levels used:    1
  6001 ;; Hardware stack levels required when called:    4
  6002 ;; This function calls:
  6003 ;;		i1_LCDGoto
  6004 ;;		i1_LCDPutStr
  6005 ;;		i1_cleanFullMenu
  6006 ;;		i1_cleanMenu
  6007 ;;		i1_mainMenu
  6008 ;; This function is called by:
  6009 ;;		_IOCAF0_ISR
  6010 ;;		_IOCAF1_ISR
  6011 ;; This function uses a non-reentrant model
  6012 ;;
  6013                           
  6014                           
  6015                           ;psect for function i1_printMenu
  6016  0434                     i1_printMenu:
  6017  0434                     i1l2057:	
  6018                           ;incstack = 0
  6019                           ; Regs used in i1_printMenu: [wreg-fsr0h+status,2+status,0+pclath+cstack]
  6020                           
  6021                           
  6022                           ;menu.c: 29:     if(inGame){
  6023  0434  0020               	movlb	0	; select bank0
  6024  0435  0854               	movf	_inGame,w
  6025  0436  1903               	btfsc	3,2
  6026  0437  2C39               	goto	u90_21
  6027  0438  2C3A               	goto	u90_20
  6028  0439                     u90_21:
  6029  0439  2C4A               	goto	i1l2065
  6030  043A                     u90_20:
  6031  043A                     i1l2059:
  6032                           
  6033                           ;menu.c: 30:         cleanMenu();
  6034  043A  3184  246E  3184   	fcall	i1_cleanMenu
  6035  043D                     i1l2061:
  6036                           
  6037                           ;menu.c: 31:         LCDGoto(0, 0);
  6038  043D  01F7               	clrf	i1LCDGoto@ln
  6039  043E  3000               	movlw	0
  6040  043F  3182  22C7  3184   	fcall	i1_LCDGoto
  6041  0442                     i1l2063:
  6042                           
  6043                           ;menu.c: 32:         LCDPutStr("   Menu   ");
  6044  0442  305F               	movlw	low (STR_5| (0+32768))
  6045  0443  00F7               	movwf	i1LCDPutStr@str
  6046  0444  3085               	movlw	high (STR_5| (0+32768))
  6047  0445  00F8               	movwf	i1LCDPutStr@str+1
  6048  0446  3182  22EE  3184   	fcall	i1_LCDPutStr
  6049                           
  6050                           ;menu.c: 33:     }else {
  6051  0449  2C50               	goto	i1l375
  6052  044A                     i1l2065:
  6053                           
  6054                           ;menu.c: 34:         cleanFullMenu();
  6055  044A  3184  248A  3184   	fcall	i1_cleanFullMenu
  6056                           
  6057                           ;menu.c: 35:         mainMenu();
  6058  044D  3181  2179  3184   	fcall	i1_mainMenu
  6059  0450                     i1l375:
  6060  0450  0008               	return
  6061  0451                     __end_ofi1_printMenu:
  6062                           
  6063                           	psect	text38
  6064  0179                     __ptext38:	
  6065 ;; *************** function i1_mainMenu *****************
  6066 ;; Defined at:
  6067 ;;		line 39 in file "menu.c"
  6068 ;; Parameters:    Size  Location     Type
  6069 ;;		None
  6070 ;; Auto vars:     Size  Location     Type
  6071 ;;		None
  6072 ;; Return value:  Size  Location     Type
  6073 ;;                  1    wreg      void 
  6074 ;; Registers used:
  6075 ;;		wreg, fsr0l, fsr0h, status,2, status,0, pclath, cstack
  6076 ;; Tracked objects:
  6077 ;;		On entry : 0/0
  6078 ;;		On exit  : 0/0
  6079 ;;		Unchanged: 0/0
  6080 ;; Data sizes:     COMMON   BANK0   BANK1   BANK2   BANK3   BANK4   BANK5   BANK6   BANK7   BANK8   BANK9  BANK10  BANK1
      +1  BANK12  BANK13  BANK14  BANK15  BANK16  BANK17  BANK18  BANK19  BANK20  BANK21  BANK22  BANK23  BANK24  BANK25
  6081 ;;      Params:         0       0       0       0       0       0       0       0       0       0       0       0       
      +0       0       0       0       0       0       0       0       0       0       0       0       0       0       0
  6082 ;;      Locals:         0       0       0       0       0       0       0       0       0       0       0       0       
      +0       0       0       0       0       0       0       0       0       0       0       0       0       0       0
  6083 ;;      Temps:          0       2       0       0       0       0       0       0       0       0       0       0       
      +0       0       0       0       0       0       0       0       0       0       0       0       0       0       0
  6084 ;;      Totals:         0       2       0       0       0       0       0       0       0       0       0       0       
      +0       0       0       0       0       0       0       0       0       0       0       0       0       0       0
  6085 ;;Total ram usage:        2 bytes
  6086 ;; Hardware stack levels used:    1
  6087 ;; Hardware stack levels required when called:    3
  6088 ;; This function calls:
  6089 ;;		i1_LCDGoto
  6090 ;;		i1_LCDPutStr
  6091 ;; This function is called by:
  6092 ;;		i1_printMenu
  6093 ;; This function uses a non-reentrant model
  6094 ;;
  6095                           
  6096                           
  6097                           ;psect for function i1_mainMenu
  6098  0179                     i1_mainMenu:
  6099  0179                     i1l2001:	
  6100                           ;incstack = 0
  6101                           ; Regs used in i1_mainMenu: [wreg-fsr0h+status,2+status,0+pclath+cstack]
  6102                           
  6103                           
  6104                           ;menu.c: 40:     switch (mainState){
  6105  0179  29AE               	goto	i1l2017
  6106  017A                     i1l2003:
  6107                           
  6108                           ;menu.c: 42:             LCDGoto(0, 0);
  6109  017A  01F7               	clrf	i1LCDGoto@ln
  6110  017B  3000               	movlw	0
  6111  017C  3182  22C7  3181   	fcall	i1_LCDGoto
  6112  017F                     i1l2005:
  6113                           
  6114                           ;menu.c: 43:             LCDPutStr("Select ship#1");
  6115  017F  3035               	movlw	low (STR_6| (0+32768))
  6116  0180  00F7               	movwf	i1LCDPutStr@str
  6117  0181  3085               	movlw	high (STR_6| (0+32768))
  6118  0182  00F8               	movwf	i1LCDPutStr@str+1
  6119  0183  3182  22EE  3181   	fcall	i1_LCDPutStr
  6120  0186                     i1l2007:
  6121                           
  6122                           ;menu.c: 44:             LCDGoto(0, 1);
  6123  0186  01F7               	clrf	i1LCDGoto@ln
  6124  0187  0AF7               	incf	i1LCDGoto@ln,f
  6125  0188  3000               	movlw	0
  6126  0189  3182  22C7  3181   	fcall	i1_LCDGoto
  6127                           
  6128                           ;menu.c: 45:             LCDPutStr("> Tie Fighter");
  6129  018C  3051               	movlw	low (STR_7| (0+32768))
  6130  018D  00F7               	movwf	i1LCDPutStr@str
  6131  018E  3085               	movlw	high (STR_7| (0+32768))
  6132  018F  00F8               	movwf	i1LCDPutStr@str+1
  6133  0190  3182  22EE  3181   	fcall	i1_LCDPutStr
  6134                           
  6135                           ;menu.c: 46:         break;
  6136  0193  29BF               	goto	i1l383
  6137  0194                     i1l2009:
  6138                           
  6139                           ;menu.c: 48:           LCDGoto(0, 0);
  6140  0194  01F7               	clrf	i1LCDGoto@ln
  6141  0195  3000               	movlw	0
  6142  0196  3182  22C7  3181   	fcall	i1_LCDGoto
  6143  0199                     i1l2011:
  6144                           
  6145                           ;menu.c: 49:             LCDPutStr("  Tie Fighter");
  6146  0199  3043               	movlw	low (STR_8| (0+32768))
  6147  019A  00F7               	movwf	i1LCDPutStr@str
  6148  019B  3085               	movlw	high (STR_8| (0+32768))
  6149  019C  00F8               	movwf	i1LCDPutStr@str+1
  6150  019D  3182  22EE  3181   	fcall	i1_LCDPutStr
  6151  01A0                     i1l2013:
  6152                           
  6153                           ;menu.c: 50:             LCDGoto(0, 1);
  6154  01A0  01F7               	clrf	i1LCDGoto@ln
  6155  01A1  0AF7               	incf	i1LCDGoto@ln,f
  6156  01A2  3000               	movlw	0
  6157  01A3  3182  22C7  3181   	fcall	i1_LCDGoto
  6158                           
  6159                           ;menu.c: 51:             LCDPutStr("> X wing");
  6160  01A6  3074               	movlw	low (STR_9| (0+32768))
  6161  01A7  00F7               	movwf	i1LCDPutStr@str
  6162  01A8  3085               	movlw	high (STR_9| (0+32768))
  6163  01A9  00F8               	movwf	i1LCDPutStr@str+1
  6164  01AA  3182  22EE  3181   	fcall	i1_LCDPutStr
  6165                           
  6166                           ;menu.c: 52:         break;
  6167  01AD  29BF               	goto	i1l383
  6168  01AE                     i1l2017:
  6169  01AE  0020               	movlb	0	; select bank0
  6170  01AF  0845               	movf	_mainState,w
  6171  01B0  00A0               	movwf	??i1_mainMenu
  6172  01B1  01A1               	clrf	??i1_mainMenu+1
  6173                           
  6174                           ; Switch on 2 bytes has been partitioned into a top level switch of size 1, and 1 sub-sw
      +                          itches
  6175                           ; Switch size 1, requested type "simple"
  6176                           ; Number of cases is 1, Range of values is 0 to 0
  6177                           ; switch strategies available:
  6178                           ; Name         Instructions Cycles
  6179                           ; simple_byte            4     3 (average)
  6180                           ; direct_byte            8     6 (fixed)
  6181                           ; jumptable            260     6 (fixed)
  6182                           ;	Chosen strategy is simple_byte
  6183  01B2  0821               	movf	??i1_mainMenu+1,w
  6184  01B3  3A00               	xorlw	0	; case 0
  6185  01B4  1903               	skipnz
  6186  01B5  29B7               	goto	i1l2465
  6187  01B6  29BF               	goto	i1l383
  6188  01B7                     i1l2465:
  6189                           
  6190                           ; Switch size 1, requested type "simple"
  6191                           ; Number of cases is 2, Range of values is 0 to 1
  6192                           ; switch strategies available:
  6193                           ; Name         Instructions Cycles
  6194                           ; simple_byte            7     4 (average)
  6195                           ; direct_byte           10     6 (fixed)
  6196                           ; jumptable            260     6 (fixed)
  6197                           ;	Chosen strategy is simple_byte
  6198  01B7  0820               	movf	??i1_mainMenu,w
  6199  01B8  3A00               	xorlw	0	; case 0
  6200  01B9  1903               	skipnz
  6201  01BA  297A               	goto	i1l2003
  6202  01BB  3A01               	xorlw	1	; case 1
  6203  01BC  1903               	skipnz
  6204  01BD  2994               	goto	i1l2009
  6205  01BE  29BF               	goto	i1l383
  6206  01BF                     i1l383:
  6207  01BF  0008               	return
  6208  01C0                     __end_ofi1_mainMenu:
  6209                           
  6210                           	psect	text39
  6211  046E                     __ptext39:	
  6212 ;; *************** function i1_cleanMenu *****************
  6213 ;; Defined at:
  6214 ;;		line 58 in file "menu.c"
  6215 ;; Parameters:    Size  Location     Type
  6216 ;;		None
  6217 ;; Auto vars:     Size  Location     Type
  6218 ;;		None
  6219 ;; Return value:  Size  Location     Type
  6220 ;;                  1    wreg      void 
  6221 ;; Registers used:
  6222 ;;		wreg, fsr0l, fsr0h, status,2, status,0, pclath, cstack
  6223 ;; Tracked objects:
  6224 ;;		On entry : 0/0
  6225 ;;		On exit  : 0/0
  6226 ;;		Unchanged: 0/0
  6227 ;; Data sizes:     COMMON   BANK0   BANK1   BANK2   BANK3   BANK4   BANK5   BANK6   BANK7   BANK8   BANK9  BANK10  BANK1
      +1  BANK12  BANK13  BANK14  BANK15  BANK16  BANK17  BANK18  BANK19  BANK20  BANK21  BANK22  BANK23  BANK24  BANK25
  6228 ;;      Params:         0       0       0       0       0       0       0       0       0       0       0       0       
      +0       0       0       0       0       0       0       0       0       0       0       0       0       0       0
  6229 ;;      Locals:         0       0       0       0       0       0       0       0       0       0       0       0       
      +0       0       0       0       0       0       0       0       0       0       0       0       0       0       0
  6230 ;;      Temps:          0       0       0       0       0       0       0       0       0       0       0       0       
      +0       0       0       0       0       0       0       0       0       0       0       0       0       0       0
  6231 ;;      Totals:         0       0       0       0       0       0       0       0       0       0       0       0       
      +0       0       0       0       0       0       0       0       0       0       0       0       0       0       0
  6232 ;;Total ram usage:        0 bytes
  6233 ;; Hardware stack levels used:    1
  6234 ;; Hardware stack levels required when called:    3
  6235 ;; This function calls:
  6236 ;;		i1_LCDGoto
  6237 ;;		i1_LCDPutStr
  6238 ;; This function is called by:
  6239 ;;		i1_printMenu
  6240 ;; This function uses a non-reentrant model
  6241 ;;
  6242                           
  6243                           
  6244                           ;psect for function i1_cleanMenu
  6245  046E                     i1_cleanMenu:
  6246  046E                     i1l1497:	
  6247                           ;incstack = 0
  6248                           ; Regs used in i1_cleanMenu: [wreg-fsr0h+status,2+status,0+pclath+cstack]
  6249                           
  6250                           
  6251                           ;menu.c: 61:     LCDGoto(lcdOffset, 0);
  6252  046E  01F7               	clrf	i1LCDGoto@ln
  6253  046F  0020               	movlb	0	; select bank0
  6254  0470  0844               	movf	_lcdOffset,w
  6255  0471  3182  22C7  3184   	fcall	i1_LCDGoto
  6256  0474                     i1l1499:
  6257                           
  6258                           ;menu.c: 62:     LCDPutStr("          ");
  6259  0474  30BC               	movlw	low ((STR_1+6)| (0+32768))
  6260  0475  00F7               	movwf	i1LCDPutStr@str
  6261  0476  3084               	movlw	high ((STR_1+6)| (0+32768))
  6262  0477  00F8               	movwf	i1LCDPutStr@str+1
  6263  0478  3182  22EE  3184   	fcall	i1_LCDPutStr
  6264  047B                     i1l1501:
  6265                           
  6266                           ;menu.c: 63:     LCDGoto(lcdOffset, 1);
  6267  047B  01F7               	clrf	i1LCDGoto@ln
  6268  047C  0AF7               	incf	i1LCDGoto@ln,f
  6269  047D  0020               	movlb	0	; select bank0
  6270  047E  0844               	movf	_lcdOffset,w
  6271  047F  3182  22C7  3184   	fcall	i1_LCDGoto
  6272                           
  6273                           ;menu.c: 64:     LCDPutStr("          ");
  6274  0482  30BC               	movlw	low ((STR_1+6)| (0+32768))
  6275  0483  00F7               	movwf	i1LCDPutStr@str
  6276  0484  3084               	movlw	high ((STR_1+6)| (0+32768))
  6277  0485  00F8               	movwf	i1LCDPutStr@str+1
  6278  0486  3182  22EE  3184   	fcall	i1_LCDPutStr
  6279  0489                     i1l386:
  6280  0489  0008               	return
  6281  048A                     __end_ofi1_cleanMenu:
  6282                           
  6283                           	psect	text40
  6284  048A                     __ptext40:	
  6285 ;; *************** function i1_cleanFullMenu *****************
  6286 ;; Defined at:
  6287 ;;		line 68 in file "menu.c"
  6288 ;; Parameters:    Size  Location     Type
  6289 ;;		None
  6290 ;; Auto vars:     Size  Location     Type
  6291 ;;		None
  6292 ;; Return value:  Size  Location     Type
  6293 ;;                  1    wreg      void 
  6294 ;; Registers used:
  6295 ;;		wreg, fsr0l, fsr0h, status,2, status,0, pclath, cstack
  6296 ;; Tracked objects:
  6297 ;;		On entry : 0/0
  6298 ;;		On exit  : 0/0
  6299 ;;		Unchanged: 0/0
  6300 ;; Data sizes:     COMMON   BANK0   BANK1   BANK2   BANK3   BANK4   BANK5   BANK6   BANK7   BANK8   BANK9  BANK10  BANK1
      +1  BANK12  BANK13  BANK14  BANK15  BANK16  BANK17  BANK18  BANK19  BANK20  BANK21  BANK22  BANK23  BANK24  BANK25
  6301 ;;      Params:         0       0       0       0       0       0       0       0       0       0       0       0       
      +0       0       0       0       0       0       0       0       0       0       0       0       0       0       0
  6302 ;;      Locals:         0       0       0       0       0       0       0       0       0       0       0       0       
      +0       0       0       0       0       0       0       0       0       0       0       0       0       0       0
  6303 ;;      Temps:          0       0       0       0       0       0       0       0       0       0       0       0       
      +0       0       0       0       0       0       0       0       0       0       0       0       0       0       0
  6304 ;;      Totals:         0       0       0       0       0       0       0       0       0       0       0       0       
      +0       0       0       0       0       0       0       0       0       0       0       0       0       0       0
  6305 ;;Total ram usage:        0 bytes
  6306 ;; Hardware stack levels used:    1
  6307 ;; Hardware stack levels required when called:    3
  6308 ;; This function calls:
  6309 ;;		i1_LCDGoto
  6310 ;;		i1_LCDPutStr
  6311 ;; This function is called by:
  6312 ;;		i1_printMenu
  6313 ;; This function uses a non-reentrant model
  6314 ;;
  6315                           
  6316                           
  6317                           ;psect for function i1_cleanFullMenu
  6318  048A                     i1_cleanFullMenu:
  6319  048A                     i1l1503:	
  6320                           ;incstack = 0
  6321                           ; Regs used in i1_cleanFullMenu: [wreg-fsr0h+status,2+status,0+pclath+cstack]
  6322                           
  6323                           
  6324                           ;menu.c: 71:     LCDGoto(0, 0);
  6325  048A  01F7               	clrf	i1LCDGoto@ln
  6326  048B  3000               	movlw	0
  6327  048C  3182  22C7  3184   	fcall	i1_LCDGoto
  6328  048F                     i1l1505:
  6329                           
  6330                           ;menu.c: 72:     LCDPutStr("                ");
  6331  048F  30B6               	movlw	low (STR_1| (0+32768))
  6332  0490  00F7               	movwf	i1LCDPutStr@str
  6333  0491  3084               	movlw	high (STR_1| (0+32768))
  6334  0492  00F8               	movwf	i1LCDPutStr@str+1
  6335  0493  3182  22EE  3184   	fcall	i1_LCDPutStr
  6336  0496                     i1l1507:
  6337                           
  6338                           ;menu.c: 73:     LCDGoto(0, 1);
  6339  0496  01F7               	clrf	i1LCDGoto@ln
  6340  0497  0AF7               	incf	i1LCDGoto@ln,f
  6341  0498  3000               	movlw	0
  6342  0499  3182  22C7  3184   	fcall	i1_LCDGoto
  6343                           
  6344                           ;menu.c: 74:     LCDPutStr("                ");
  6345  049C  30B6               	movlw	low (STR_1| (0+32768))
  6346  049D  00F7               	movwf	i1LCDPutStr@str
  6347  049E  3084               	movlw	high (STR_1| (0+32768))
  6348  049F  00F8               	movwf	i1LCDPutStr@str+1
  6349  04A0  3182  22EE  3184   	fcall	i1_LCDPutStr
  6350  04A3                     i1l389:
  6351  04A3  0008               	return
  6352  04A4                     __end_ofi1_cleanFullMenu:
  6353                           
  6354                           	psect	text41
  6355  02EE                     __ptext41:	
  6356 ;; *************** function i1_LCDPutStr *****************
  6357 ;; Defined at:
  6358 ;;		line 131 in file "lcd.c"
  6359 ;; Parameters:    Size  Location     Type
  6360 ;;  str             2    7[COMMON] PTR const unsigned char 
  6361 ;;		 -> STR_13(17), STR_12(17), STR_11(11), STR_10(11), 
  6362 ;;		 -> STR_9(9), STR_8(14), STR_7(14), STR_6(14), 
  6363 ;;		 -> STR_5(11), STR_4(2), STR_3(2), STR_2(17), 
  6364 ;;		 -> STR_1(17), 
  6365 ;; Auto vars:     Size  Location     Type
  6366 ;;  i               1   12[COMMON] unsigned char 
  6367 ;; Return value:  Size  Location     Type
  6368 ;;                  1    wreg      void 
  6369 ;; Registers used:
  6370 ;;		wreg, fsr0l, fsr0h, status,2, status,0, pclath, cstack
  6371 ;; Tracked objects:
  6372 ;;		On entry : 0/0
  6373 ;;		On exit  : 0/0
  6374 ;;		Unchanged: 0/0
  6375 ;; Data sizes:     COMMON   BANK0   BANK1   BANK2   BANK3   BANK4   BANK5   BANK6   BANK7   BANK8   BANK9  BANK10  BANK1
      +1  BANK12  BANK13  BANK14  BANK15  BANK16  BANK17  BANK18  BANK19  BANK20  BANK21  BANK22  BANK23  BANK24  BANK25
  6376 ;;      Params:         2       0       0       0       0       0       0       0       0       0       0       0       
      +0       0       0       0       0       0       0       0       0       0       0       0       0       0       0
  6377 ;;      Locals:         1       0       0       0       0       0       0       0       0       0       0       0       
      +0       0       0       0       0       0       0       0       0       0       0       0       0       0       0
  6378 ;;      Temps:          3       0       0       0       0       0       0       0       0       0       0       0       
      +0       0       0       0       0       0       0       0       0       0       0       0       0       0       0
  6379 ;;      Totals:         6       0       0       0       0       0       0       0       0       0       0       0       
      +0       0       0       0       0       0       0       0       0       0       0       0       0       0       0
  6380 ;;Total ram usage:        6 bytes
  6381 ;; Hardware stack levels used:    1
  6382 ;; Hardware stack levels required when called:    2
  6383 ;; This function calls:
  6384 ;;		i1_LCDPutChar
  6385 ;; This function is called by:
  6386 ;;		i1_printMenu
  6387 ;;		i1_mainMenu
  6388 ;;		i1_cleanMenu
  6389 ;;		i1_cleanFullMenu
  6390 ;; This function uses a non-reentrant model
  6391 ;;
  6392                           
  6393                           
  6394                           ;psect for function i1_LCDPutStr
  6395  02EE                     i1_LCDPutStr:
  6396  02EE                     i1l1435:	
  6397                           ;incstack = 0
  6398                           ; Regs used in i1_LCDPutStr: [wreg-fsr0h+status,2+status,0+pclath+cstack]
  6399                           
  6400                           
  6401                           ;lcd.c: 131: void LCDPutStr(const char *str);lcd.c: 132: {;lcd.c: 133:   uint8_t i = 0;
  6402  02EE  01FC               	clrf	i1LCDPutStr@i
  6403                           
  6404                           ;lcd.c: 136:   while (str[i])
  6405  02EF  2B03               	goto	i1l1441
  6406  02F0                     i1l1437:
  6407                           
  6408                           ;lcd.c: 137:   {;lcd.c: 139:     LCDPutChar(str[i++]);
  6409  02F0  0878               	movf	i1LCDPutStr@str+1,w
  6410  02F1  00FA               	movwf	??i1_LCDPutStr+1
  6411  02F2  0877               	movf	i1LCDPutStr@str,w
  6412  02F3  00F9               	movwf	??i1_LCDPutStr
  6413  02F4  087C               	movf	i1LCDPutStr@i,w
  6414  02F5  0779               	addwf	??i1_LCDPutStr,w
  6415  02F6  0084               	movwf	4
  6416  02F7  087A               	movf	??i1_LCDPutStr+1,w
  6417  02F8  1803               	skipnc
  6418  02F9  0A7A               	incf	??i1_LCDPutStr+1,w
  6419  02FA  0085               	movwf	5
  6420  02FB  0800               	movf	0,w	;code access
  6421  02FC  3184  2451  3182   	fcall	i1_LCDPutChar
  6422  02FF                     i1l1439:
  6423  02FF  3001               	movlw	1
  6424  0300  00F9               	movwf	??i1_LCDPutStr
  6425  0301  0879               	movf	??i1_LCDPutStr,w
  6426  0302  07FC               	addwf	i1LCDPutStr@i,f
  6427  0303                     i1l1441:
  6428                           
  6429                           ;lcd.c: 136:   while (str[i])
  6430  0303  0878               	movf	i1LCDPutStr@str+1,w
  6431  0304  00FA               	movwf	??i1_LCDPutStr+1
  6432  0305  0877               	movf	i1LCDPutStr@str,w
  6433  0306  00F9               	movwf	??i1_LCDPutStr
  6434  0307  087C               	movf	i1LCDPutStr@i,w
  6435  0308  0779               	addwf	??i1_LCDPutStr,w
  6436  0309  0084               	movwf	4
  6437  030A  087A               	movf	??i1_LCDPutStr+1,w
  6438  030B  1803               	skipnc
  6439  030C  0A7A               	incf	??i1_LCDPutStr+1,w
  6440  030D  0085               	movwf	5
  6441  030E  0012               	moviw fsr0++
  6442  030F  1D03               	btfss	3,2
  6443  0310  2B12               	goto	u44_21
  6444  0311  2B13               	goto	u44_20
  6445  0312                     u44_21:
  6446  0312  2AF0               	goto	i1l1437
  6447  0313                     u44_20:
  6448  0313                     i1l262:
  6449  0313  0008               	return
  6450  0314                     __end_ofi1_LCDPutStr:
  6451                           
  6452                           	psect	text42
  6453  0451                     __ptext42:	
  6454 ;; *************** function i1_LCDPutChar *****************
  6455 ;; Defined at:
  6456 ;;		line 101 in file "lcd.c"
  6457 ;; Parameters:    Size  Location     Type
  6458 ;;  ch              1    wreg     unsigned char 
  6459 ;; Auto vars:     Size  Location     Type
  6460 ;;  ch              1    6[COMMON] unsigned char 
  6461 ;; Return value:  Size  Location     Type
  6462 ;;                  1    wreg      void 
  6463 ;; Registers used:
  6464 ;;		wreg, status,2, status,0, pclath, cstack
  6465 ;; Tracked objects:
  6466 ;;		On entry : 0/0
  6467 ;;		On exit  : 0/0
  6468 ;;		Unchanged: 0/0
  6469 ;; Data sizes:     COMMON   BANK0   BANK1   BANK2   BANK3   BANK4   BANK5   BANK6   BANK7   BANK8   BANK9  BANK10  BANK1
      +1  BANK12  BANK13  BANK14  BANK15  BANK16  BANK17  BANK18  BANK19  BANK20  BANK21  BANK22  BANK23  BANK24  BANK25
  6470 ;;      Params:         0       0       0       0       0       0       0       0       0       0       0       0       
      +0       0       0       0       0       0       0       0       0       0       0       0       0       0       0
  6471 ;;      Locals:         1       0       0       0       0       0       0       0       0       0       0       0       
      +0       0       0       0       0       0       0       0       0       0       0       0       0       0       0
  6472 ;;      Temps:          2       0       0       0       0       0       0       0       0       0       0       0       
      +0       0       0       0       0       0       0       0       0       0       0       0       0       0       0
  6473 ;;      Totals:         3       0       0       0       0       0       0       0       0       0       0       0       
      +0       0       0       0       0       0       0       0       0       0       0       0       0       0       0
  6474 ;;Total ram usage:        3 bytes
  6475 ;; Hardware stack levels used:    1
  6476 ;; Hardware stack levels required when called:    1
  6477 ;; This function calls:
  6478 ;;		i1_LCDWriteNibble
  6479 ;; This function is called by:
  6480 ;;		i1_LCDPutStr
  6481 ;; This function uses a non-reentrant model
  6482 ;;
  6483                           
  6484                           
  6485                           ;psect for function i1_LCDPutChar
  6486  0451                     i1_LCDPutChar:
  6487                           
  6488                           ;incstack = 0
  6489                           ; Regs used in i1_LCDPutChar: [wreg+status,2+status,0+pclath+cstack]
  6490                           ;i1LCDPutChar@ch stored from wreg
  6491  0451  00F6               	movwf	i1LCDPutChar@ch
  6492  0452                     i1l1403:
  6493                           
  6494                           ;lcd.c: 101: void LCDPutChar(uint8_t ch);lcd.c: 102: {;lcd.c: 103:   _delay((unsigned lo
      +                          ng)((5)*(500000/4000.0)));
  6495  0452  30D0               	movlw	208
  6496  0453                     u123_27:
  6497  0453  0B89               	decfsz	9,f
  6498  0454  2C53               	goto	u123_27
  6499  0455  0000               	nop
  6500  0456                     i1l1405:
  6501                           
  6502                           ;lcd.c: 106:   LCDWriteNibble(ch, 1);
  6503  0456  01F0               	clrf	i1LCDWriteNibble@rs
  6504  0457  0AF0               	incf	i1LCDWriteNibble@rs,f
  6505  0458  0876               	movf	i1LCDPutChar@ch,w
  6506  0459  3183  239A  3184   	fcall	i1_LCDWriteNibble
  6507  045C                     i1l1407:
  6508                           
  6509                           ;lcd.c: 109:   ch = (uint8_t)(ch << 4);
  6510  045C  0876               	movf	i1LCDPutChar@ch,w
  6511  045D  00F4               	movwf	??i1_LCDPutChar
  6512  045E  3003               	movlw	3
  6513  045F                     u41_25:
  6514  045F  35F4               	lslf	??i1_LCDPutChar,f
  6515  0460  3EFF               	addlw	-1
  6516  0461  1D03               	skipz
  6517  0462  2C5F               	goto	u41_25
  6518  0463  3574               	lslf	??i1_LCDPutChar,w
  6519  0464  00F5               	movwf	??i1_LCDPutChar+1
  6520  0465  0875               	movf	??i1_LCDPutChar+1,w
  6521  0466  00F6               	movwf	i1LCDPutChar@ch
  6522  0467                     i1l1409:
  6523                           
  6524                           ;lcd.c: 112:   LCDWriteNibble(ch, 1);
  6525  0467  01F0               	clrf	i1LCDWriteNibble@rs
  6526  0468  0AF0               	incf	i1LCDWriteNibble@rs,f
  6527  0469  0876               	movf	i1LCDPutChar@ch,w
  6528  046A  3183  239A  3184   	fcall	i1_LCDWriteNibble
  6529  046D                     i1l253:
  6530  046D  0008               	return
  6531  046E                     __end_ofi1_LCDPutChar:
  6532                           
  6533                           	psect	text43
  6534  02C7                     __ptext43:	
  6535 ;; *************** function i1_LCDGoto *****************
  6536 ;; Defined at:
  6537 ;;		line 143 in file "lcd.c"
  6538 ;; Parameters:    Size  Location     Type
  6539 ;;  pos             1    wreg     unsigned char 
  6540 ;;  ln              1    7[COMMON] unsigned char 
  6541 ;; Auto vars:     Size  Location     Type
  6542 ;;  pos             1   10[COMMON] unsigned char 
  6543 ;; Return value:  Size  Location     Type
  6544 ;;                  1    wreg      void 
  6545 ;; Registers used:
  6546 ;;		wreg, status,2, status,0, pclath, cstack
  6547 ;; Tracked objects:
  6548 ;;		On entry : 0/0
  6549 ;;		On exit  : 0/0
  6550 ;;		Unchanged: 0/0
  6551 ;; Data sizes:     COMMON   BANK0   BANK1   BANK2   BANK3   BANK4   BANK5   BANK6   BANK7   BANK8   BANK9  BANK10  BANK1
      +1  BANK12  BANK13  BANK14  BANK15  BANK16  BANK17  BANK18  BANK19  BANK20  BANK21  BANK22  BANK23  BANK24  BANK25
  6552 ;;      Params:         1       0       0       0       0       0       0       0       0       0       0       0       
      +0       0       0       0       0       0       0       0       0       0       0       0       0       0       0
  6553 ;;      Locals:         3       0       0       0       0       0       0       0       0       0       0       0       
      +0       0       0       0       0       0       0       0       0       0       0       0       0       0       0
  6554 ;;      Temps:          0       0       0       0       0       0       0       0       0       0       0       0       
      +0       0       0       0       0       0       0       0       0       0       0       0       0       0       0
  6555 ;;      Totals:         4       0       0       0       0       0       0       0       0       0       0       0       
      +0       0       0       0       0       0       0       0       0       0       0       0       0       0       0
  6556 ;;Total ram usage:        4 bytes
  6557 ;; Hardware stack levels used:    1
  6558 ;; Hardware stack levels required when called:    2
  6559 ;; This function calls:
  6560 ;;		i1_LCDPutCmd
  6561 ;; This function is called by:
  6562 ;;		i1_printMenu
  6563 ;;		i1_mainMenu
  6564 ;;		i1_cleanMenu
  6565 ;;		i1_cleanFullMenu
  6566 ;; This function uses a non-reentrant model
  6567 ;;
  6568                           
  6569                           
  6570                           ;psect for function i1_LCDGoto
  6571  02C7                     i1_LCDGoto:
  6572                           
  6573                           ;incstack = 0
  6574                           ; Regs used in i1_LCDGoto: [wreg+status,2+status,0+pclath+cstack]
  6575                           ;i1LCDGoto@pos stored from wreg
  6576  02C7  00FA               	movwf	i1LCDGoto@pos
  6577  02C8                     i1l1443:
  6578                           
  6579                           ;lcd.c: 143: void LCDGoto(uint8_t pos, uint8_t ln);lcd.c: 144: {;lcd.c: 146:   if ((ln >
      +                           (2 - 1)) || (pos > (16 - 1)))
  6580  02C8  3002               	movlw	2
  6581  02C9  0277               	subwf	i1LCDGoto@ln,w
  6582  02CA  1803               	skipnc
  6583  02CB  2ACD               	goto	u45_21
  6584  02CC  2ACE               	goto	u45_20
  6585  02CD                     u45_21:
  6586  02CD  2AED               	goto	i1l268
  6587  02CE                     u45_20:
  6588  02CE                     i1l1445:
  6589  02CE  3010               	movlw	16
  6590  02CF  027A               	subwf	i1LCDGoto@pos,w
  6591  02D0  1C03               	skipc
  6592  02D1  2AD3               	goto	u46_21
  6593  02D2  2AD4               	goto	u46_20
  6594  02D3                     u46_21:
  6595  02D3  2AD5               	goto	i1l1447
  6596  02D4                     u46_20:
  6597  02D4  2AED               	goto	i1l268
  6598  02D5                     i1l1447:
  6599                           
  6600                           ;lcd.c: 153:   LCDPutCmd((ln == 1) ? (0xC0 | pos) : (0x80 | pos));
  6601  02D5  0377               	decf	i1LCDGoto@ln,w
  6602  02D6  1903               	btfsc	3,2
  6603  02D7  2AD9               	goto	u47_21
  6604  02D8  2ADA               	goto	u47_20
  6605  02D9                     u47_21:
  6606  02D9  2AE0               	goto	i1l1451
  6607  02DA                     u47_20:
  6608  02DA                     i1l1449:
  6609  02DA  3080               	movlw	128
  6610  02DB  047A               	iorwf	i1LCDGoto@pos,w
  6611  02DC  00F8               	movwf	i1_LCDGoto$469
  6612  02DD  3000               	movlw	0
  6613  02DE  00F9               	movwf	i1_LCDGoto$469+1
  6614  02DF  2AE5               	goto	i1l1453
  6615  02E0                     i1l1451:
  6616  02E0  30C0               	movlw	192
  6617  02E1  047A               	iorwf	i1LCDGoto@pos,w
  6618  02E2  00F8               	movwf	i1_LCDGoto$469
  6619  02E3  3000               	movlw	0
  6620  02E4  00F9               	movwf	i1_LCDGoto$469+1
  6621  02E5                     i1l1453:
  6622  02E5  0878               	movf	i1_LCDGoto$469,w
  6623  02E6  3183  23D9  3182   	fcall	i1_LCDPutCmd
  6624  02E9                     i1l1455:
  6625                           
  6626                           ;lcd.c: 156:   _delay((unsigned long)((5)*(500000/4000.0)));
  6627  02E9  30D0               	movlw	208
  6628  02EA                     u124_27:
  6629  02EA  0B89               	decfsz	9,f
  6630  02EB  2AEA               	goto	u124_27
  6631  02EC  0000               	nop
  6632  02ED                     i1l268:
  6633  02ED  0008               	return
  6634  02EE                     __end_ofi1_LCDGoto:
  6635                           
  6636                           	psect	text44
  6637  03D9                     __ptext44:	
  6638 ;; *************** function i1_LCDPutCmd *****************
  6639 ;; Defined at:
  6640 ;;		line 115 in file "lcd.c"
  6641 ;; Parameters:    Size  Location     Type
  6642 ;;  ch              1    wreg     unsigned char 
  6643 ;; Auto vars:     Size  Location     Type
  6644 ;;  ch              1    6[COMMON] unsigned char 
  6645 ;; Return value:  Size  Location     Type
  6646 ;;                  1    wreg      void 
  6647 ;; Registers used:
  6648 ;;		wreg, status,2, status,0, pclath, cstack
  6649 ;; Tracked objects:
  6650 ;;		On entry : 0/0
  6651 ;;		On exit  : 0/0
  6652 ;;		Unchanged: 0/0
  6653 ;; Data sizes:     COMMON   BANK0   BANK1   BANK2   BANK3   BANK4   BANK5   BANK6   BANK7   BANK8   BANK9  BANK10  BANK1
      +1  BANK12  BANK13  BANK14  BANK15  BANK16  BANK17  BANK18  BANK19  BANK20  BANK21  BANK22  BANK23  BANK24  BANK25
  6654 ;;      Params:         0       0       0       0       0       0       0       0       0       0       0       0       
      +0       0       0       0       0       0       0       0       0       0       0       0       0       0       0
  6655 ;;      Locals:         1       0       0       0       0       0       0       0       0       0       0       0       
      +0       0       0       0       0       0       0       0       0       0       0       0       0       0       0
  6656 ;;      Temps:          2       0       0       0       0       0       0       0       0       0       0       0       
      +0       0       0       0       0       0       0       0       0       0       0       0       0       0       0
  6657 ;;      Totals:         3       0       0       0       0       0       0       0       0       0       0       0       
      +0       0       0       0       0       0       0       0       0       0       0       0       0       0       0
  6658 ;;Total ram usage:        3 bytes
  6659 ;; Hardware stack levels used:    1
  6660 ;; Hardware stack levels required when called:    1
  6661 ;; This function calls:
  6662 ;;		i1_LCDWriteNibble
  6663 ;; This function is called by:
  6664 ;;		i1_LCDGoto
  6665 ;; This function uses a non-reentrant model
  6666 ;;
  6667                           
  6668                           
  6669                           ;psect for function i1_LCDPutCmd
  6670  03D9                     i1_LCDPutCmd:
  6671                           
  6672                           ;incstack = 0
  6673                           ; Regs used in i1_LCDPutCmd: [wreg+status,2+status,0+pclath+cstack]
  6674                           ;i1LCDPutCmd@ch stored from wreg
  6675  03D9  00F6               	movwf	i1LCDPutCmd@ch
  6676  03DA                     i1l1411:
  6677                           
  6678                           ;lcd.c: 115: void LCDPutCmd(uint8_t ch);lcd.c: 116: {;lcd.c: 117:   _delay((unsigned lon
      +                          g)((5)*(500000/4000.0)));
  6679  03DA  30D0               	movlw	208
  6680  03DB                     u125_27:
  6681  03DB  0B89               	decfsz	9,f
  6682  03DC  2BDB               	goto	u125_27
  6683  03DD  0000               	nop
  6684  03DE                     i1l1413:
  6685                           
  6686                           ;lcd.c: 120:   LCDWriteNibble(ch, 0);
  6687  03DE  01F0               	clrf	i1LCDWriteNibble@rs
  6688  03DF  0876               	movf	i1LCDPutCmd@ch,w
  6689  03E0  3183  239A  3183   	fcall	i1_LCDWriteNibble
  6690  03E3                     i1l1415:
  6691                           
  6692                           ;lcd.c: 123:   ch = (uint8_t)(ch << 4);
  6693  03E3  0876               	movf	i1LCDPutCmd@ch,w
  6694  03E4  00F4               	movwf	??i1_LCDPutCmd
  6695  03E5  3003               	movlw	3
  6696  03E6                     u42_25:
  6697  03E6  35F4               	lslf	??i1_LCDPutCmd,f
  6698  03E7  3EFF               	addlw	-1
  6699  03E8  1D03               	skipz
  6700  03E9  2BE6               	goto	u42_25
  6701  03EA  3574               	lslf	??i1_LCDPutCmd,w
  6702  03EB  00F5               	movwf	??i1_LCDPutCmd+1
  6703  03EC  0875               	movf	??i1_LCDPutCmd+1,w
  6704  03ED  00F6               	movwf	i1LCDPutCmd@ch
  6705  03EE                     i1l1417:
  6706                           
  6707                           ;lcd.c: 125:   _delay((unsigned long)((1)*(500000/4000.0)));
  6708  03EE  3029               	movlw	41
  6709  03EF                     u126_27:
  6710  03EF  0B89               	decfsz	9,f
  6711  03F0  2BEF               	goto	u126_27
  6712  03F1  3200               	nop2
  6713  03F2                     i1l1419:
  6714                           
  6715                           ;lcd.c: 128:   LCDWriteNibble(ch, 0);
  6716  03F2  01F0               	clrf	i1LCDWriteNibble@rs
  6717  03F3  0876               	movf	i1LCDPutCmd@ch,w
  6718  03F4  3183  239A  3183   	fcall	i1_LCDWriteNibble
  6719  03F7                     i1l256:
  6720  03F7  0008               	return
  6721  03F8                     __end_ofi1_LCDPutCmd:
  6722                           
  6723                           	psect	text45
  6724  039A                     __ptext45:	
  6725 ;; *************** function i1_LCDWriteNibble *****************
  6726 ;; Defined at:
  6727 ;;		line 74 in file "lcd.c"
  6728 ;; Parameters:    Size  Location     Type
  6729 ;;  ch              1    wreg     unsigned char 
  6730 ;;  rs              1    0[COMMON] unsigned char 
  6731 ;; Auto vars:     Size  Location     Type
  6732 ;;  ch              1    3[COMMON] unsigned char 
  6733 ;; Return value:  Size  Location     Type
  6734 ;;                  1    wreg      void 
  6735 ;; Registers used:
  6736 ;;		wreg, status,2, status,0
  6737 ;; Tracked objects:
  6738 ;;		On entry : 0/0
  6739 ;;		On exit  : 0/0
  6740 ;;		Unchanged: 0/0
  6741 ;; Data sizes:     COMMON   BANK0   BANK1   BANK2   BANK3   BANK4   BANK5   BANK6   BANK7   BANK8   BANK9  BANK10  BANK1
      +1  BANK12  BANK13  BANK14  BANK15  BANK16  BANK17  BANK18  BANK19  BANK20  BANK21  BANK22  BANK23  BANK24  BANK25
  6742 ;;      Params:         1       0       0       0       0       0       0       0       0       0       0       0       
      +0       0       0       0       0       0       0       0       0       0       0       0       0       0       0
  6743 ;;      Locals:         1       0       0       0       0       0       0       0       0       0       0       0       
      +0       0       0       0       0       0       0       0       0       0       0       0       0       0       0
  6744 ;;      Temps:          2       0       0       0       0       0       0       0       0       0       0       0       
      +0       0       0       0       0       0       0       0       0       0       0       0       0       0       0
  6745 ;;      Totals:         4       0       0       0       0       0       0       0       0       0       0       0       
      +0       0       0       0       0       0       0       0       0       0       0       0       0       0       0
  6746 ;;Total ram usage:        4 bytes
  6747 ;; Hardware stack levels used:    1
  6748 ;; This function calls:
  6749 ;;		Nothing
  6750 ;; This function is called by:
  6751 ;;		i1_LCDPutChar
  6752 ;;		i1_LCDPutCmd
  6753 ;; This function uses a non-reentrant model
  6754 ;;
  6755                           
  6756                           
  6757                           ;psect for function i1_LCDWriteNibble
  6758  039A                     i1_LCDWriteNibble:
  6759                           
  6760                           ;incstack = 0
  6761                           ; Regs used in i1_LCDWriteNibble: [wreg+status,2+status,0]
  6762                           ;i1LCDWriteNibble@ch stored from wreg
  6763  039A  00F3               	movwf	i1LCDWriteNibble@ch
  6764  039B                     i1l1389:
  6765                           
  6766                           ;lcd.c: 74: void LCDWriteNibble(uint8_t ch, uint8_t rs);lcd.c: 75: {;lcd.c: 77:   ch = (
      +                          ch >> 4);
  6767  039B  0873               	movf	i1LCDWriteNibble@ch,w
  6768  039C  00F1               	movwf	??i1_LCDWriteNibble
  6769  039D  3004               	movlw	4
  6770  039E                     u40_25:
  6771  039E  36F1               	lsrf	??i1_LCDWriteNibble,f
  6772  039F  0B89               	decfsz	9,f
  6773  03A0  2B9E               	goto	u40_25
  6774  03A1  0871               	movf	??i1_LCDWriteNibble,w
  6775  03A2  00F2               	movwf	??i1_LCDWriteNibble+1
  6776  03A3  0872               	movf	??i1_LCDWriteNibble+1,w
  6777  03A4  00F3               	movwf	i1LCDWriteNibble@ch
  6778  03A5                     i1l1391:
  6779                           
  6780                           ;lcd.c: 80:   ch = (ch & 0x0F);
  6781  03A5  0873               	movf	i1LCDWriteNibble@ch,w
  6782  03A6  390F               	andlw	15
  6783  03A7  00F1               	movwf	??i1_LCDWriteNibble
  6784  03A8  0871               	movf	??i1_LCDWriteNibble,w
  6785  03A9  00F3               	movwf	i1LCDWriteNibble@ch
  6786  03AA                     i1l1393:
  6787                           
  6788                           ;lcd.c: 83:   PORTB = (PORTB & 0xF0);
  6789  03AA  0020               	movlb	0	; select bank0
  6790  03AB  080D               	movf	13,w	;volatile
  6791  03AC  39F0               	andlw	240
  6792  03AD  008D               	movwf	13	;volatile
  6793                           
  6794                           ;lcd.c: 86:   PORTB = (PORTB | ch);
  6795  03AE  080D               	movf	13,w	;volatile
  6796  03AF  0473               	iorwf	i1LCDWriteNibble@ch,w
  6797  03B0  008D               	movwf	13	;volatile
  6798  03B1                     i1l1395:
  6799                           
  6800                           ;lcd.c: 89:   PORTBbits.RB5 = rs;
  6801  03B1  0C70               	rrf	i1LCDWriteNibble@rs,w
  6802  03B2  1C03               	skipc
  6803  03B3  128D               	bcf	13,5	;volatile
  6804  03B4  1803               	skipnc
  6805  03B5  168D               	bsf	13,5	;volatile
  6806  03B6                     i1l1397:
  6807                           
  6808                           ;lcd.c: 92:   PORTBbits.RB6 = 0;
  6809  03B6  130D               	bcf	13,6	;volatile
  6810  03B7                     i1l1399:
  6811                           
  6812                           ;lcd.c: 95:   PORTBbits.RB4 = 1;
  6813  03B7  160D               	bsf	13,4	;volatile
  6814  03B8                     i1l1401:
  6815                           
  6816                           ;lcd.c: 98:   PORTBbits.RB4 = 0;
  6817  03B8  120D               	bcf	13,4	;volatile
  6818  03B9                     i1l250:
  6819  03B9  0008               	return
  6820  03BA                     __end_ofi1_LCDWriteNibble:
  6821                           
  6822                           	psect	text46
  6823  05B7                     __ptext46:	
  6824 ;; *************** function _IOCAF0_DefaultInterruptHandler *****************
  6825 ;; Defined at:
  6826 ;;		line 250 in file "mcc_generated_files/pin_manager.c"
  6827 ;; Parameters:    Size  Location     Type
  6828 ;;		None
  6829 ;; Auto vars:     Size  Location     Type
  6830 ;;		None
  6831 ;; Return value:  Size  Location     Type
  6832 ;;                  1    wreg      void 
  6833 ;; Registers used:
  6834 ;;		None
  6835 ;; Tracked objects:
  6836 ;;		On entry : 0/0
  6837 ;;		On exit  : 0/0
  6838 ;;		Unchanged: 0/0
  6839 ;; Data sizes:     COMMON   BANK0   BANK1   BANK2   BANK3   BANK4   BANK5   BANK6   BANK7   BANK8   BANK9  BANK10  BANK1
      +1  BANK12  BANK13  BANK14  BANK15  BANK16  BANK17  BANK18  BANK19  BANK20  BANK21  BANK22  BANK23  BANK24  BANK25
  6840 ;;      Params:         0       0       0       0       0       0       0       0       0       0       0       0       
      +0       0       0       0       0       0       0       0       0       0       0       0       0       0       0
  6841 ;;      Locals:         0       0       0       0       0       0       0       0       0       0       0       0       
      +0       0       0       0       0       0       0       0       0       0       0       0       0       0       0
  6842 ;;      Temps:          0       0       0       0       0       0       0       0       0       0       0       0       
      +0       0       0       0       0       0       0       0       0       0       0       0       0       0       0
  6843 ;;      Totals:         0       0       0       0       0       0       0       0       0       0       0       0       
      +0       0       0       0       0       0       0       0       0       0       0       0       0       0       0
  6844 ;;Total ram usage:        0 bytes
  6845 ;; Hardware stack levels used:    1
  6846 ;; This function calls:
  6847 ;;		Nothing
  6848 ;; This function is called by:
  6849 ;;		_PIN_MANAGER_Initialize
  6850 ;;		_IOCAF0_ISR
  6851 ;; This function uses a non-reentrant model
  6852 ;;
  6853                           
  6854                           
  6855                           ;psect for function _IOCAF0_DefaultInterruptHandler
  6856  05B7                     _IOCAF0_DefaultInterruptHandler:
  6857  05B7                     i1l141:	
  6858                           ;incstack = 0
  6859                           ; Regs used in _IOCAF0_DefaultInterruptHandler: []
  6860                           
  6861  05B7  0008               	return
  6862  05B8                     __end_of_IOCAF0_DefaultInterruptHandler:
  6863  007E                     btemp	set	126	;btemp
  6864  007E                     int$flags	set	126
  6865  007E                     wtemp0	set	126
  6866                           
  6867                           	psect	config
  6868                           
  6869                           ;Config register CONFIG1 @ 0x8007
  6870                           ;	Oscillator Selection Bits
  6871                           ;	FOSC = INTOSC, INTOSC oscillator: I/O function on CLKIN pin
  6872                           ;	Watchdog Timer Enable
  6873                           ;	WDTE = OFF, WDT disabled
  6874                           ;	Power-up Timer Enable
  6875                           ;	PWRTE = OFF, PWRT disabled
  6876                           ;	MCLR Pin Function Select
  6877                           ;	MCLRE = ON, MCLR/VPP pin function is MCLR
  6878                           ;	Flash Program Memory Code Protection
  6879                           ;	CP = OFF, Program memory code protection is disabled
  6880                           ;	Brown-out Reset Enable
  6881                           ;	BOREN = ON, Brown-out Reset enabled
  6882                           ;	Clock Out Enable
  6883                           ;	CLKOUTEN = OFF, CLKOUT function is disabled. I/O or oscillator function on the CLKOUT 
      +                          pin
  6884                           ;	Internal/External Switchover Mode
  6885                           ;	IESO = ON, Internal/External Switchover Mode is enabled
  6886                           ;	Fail-Safe Clock Monitor Enable
  6887                           ;	FCMEN = ON, Fail-Safe Clock Monitor is enabled
  6888  8007                     	org	32775
  6889  8007  3FE4               	dw	16356
  6890                           
  6891                           ;Config register CONFIG2 @ 0x8008
  6892                           ;	Flash Memory Self-Write Protection
  6893                           ;	WRT = OFF, Write protection off
  6894                           ;	Peripheral Pin Select one-way control
  6895                           ;	PPS1WAY = ON, The PPSLOCK bit cannot be cleared once it is set by software
  6896                           ;	Zero-cross detect disable
  6897                           ;	ZCDDIS = ON, Zero-cross detect circuit is disabled at POR and can be enabled with ZCDS
      +                          EN bit.
  6898                           ;	Phase Lock Loop enable
  6899                           ;	PLLEN = ON, 4x PLL is always enabled
  6900                           ;	Stack Overflow/Underflow Reset Enable
  6901                           ;	STVREN = ON, Stack Overflow or Underflow will cause a Reset
  6902                           ;	Brown-out Reset Voltage Selection
  6903                           ;	BORV = LO, Brown-out Reset Voltage (Vbor), low trip point selected.
  6904                           ;	Low-Power Brown Out Reset
  6905                           ;	LPBOR = OFF, Low-Power BOR is disabled
  6906                           ;	Low-Voltage Programming Enable
  6907                           ;	LVP = OFF, High-voltage on MCLR/VPP must be used for programming
  6908  8008                     	org	32776
  6909  8008  1FFF               	dw	8191

Data Sizes:
    Strings     79
    Constant    0
    Data        34
    BSS         3
    Persistent  44
    Stack       0

Auto Spaces:
    Space          Size  Autos    Used
    COMMON           14     14      14
    BANK0            80     20      53
    BANK1            80     32      48
    BANK2            80      0       0
    BANK3            80      0       0
    BANK4            80      0       0
    BANK5            80      0       0
    BANK6            80      0       0
    BANK7            80      0       0
    BANK8            80      0       0
    BANK9            80      0       0
    BANK10           80      0       0
    BANK11           80      0       0
    BANK12           80      0       0
    BANK13           80      0       0
    BANK14           80      0       0
    BANK15           80      0       0
    BANK16           80      0       0
    BANK17           80      0       0
    BANK18           80      0       0
    BANK19           80      0       0
    BANK20           80      0       0
    BANK21           80      0       0
    BANK22           80      0       0
    BANK23           80      0       0
    BANK24           80      0       0
    BANK25           32      0       0

Pointer List with Targets:

    createCustomCharacter@Pattern	PTR unsigned char  size(1) Largest target is 8
		 -> main@Pattern4(BANK1[8]), main@Pattern3(BANK1[8]), main@Pattern2(BANK1[8]), main@Pattern1(BANK1[8]), 

    LCDPutStr@str	PTR const unsigned char  size(2) Largest target is 17
		 -> STR_13(CODE[17]), STR_12(CODE[17]), STR_11(CODE[11]), STR_10(CODE[11]), 
		 -> STR_9(CODE[9]), STR_8(CODE[14]), STR_7(CODE[14]), STR_6(CODE[14]), 
		 -> STR_5(CODE[11]), STR_4(CODE[2]), STR_3(CODE[2]), STR_2(CODE[17]), 
		 -> STR_1(CODE[17]), 

    IOCAF5_SetInterruptHandler@InterruptHandler	PTR FTN()void  size(2) Largest target is 1
		 -> IOCAF5_DefaultInterruptHandler(), 

    IOCAF5_InterruptHandler	PTR FTN()void  size(2) Largest target is 1
		 -> Absolute function(), IOCAF5_DefaultInterruptHandler(), 

    IOCAF4_SetInterruptHandler@InterruptHandler	PTR FTN()void  size(2) Largest target is 1
		 -> IOCAF4_DefaultInterruptHandler(), 

    IOCAF4_InterruptHandler	PTR FTN()void  size(2) Largest target is 1
		 -> Absolute function(), IOCAF4_DefaultInterruptHandler(), 

    IOCAF3_SetInterruptHandler@InterruptHandler	PTR FTN()void  size(2) Largest target is 1
		 -> IOCAF3_DefaultInterruptHandler(), 

    IOCAF3_InterruptHandler	PTR FTN()void  size(2) Largest target is 1
		 -> Absolute function(), IOCAF3_DefaultInterruptHandler(), 

    IOCAF2_SetInterruptHandler@InterruptHandler	PTR FTN()void  size(2) Largest target is 1
		 -> IOCAF2_DefaultInterruptHandler(), 

    IOCAF2_InterruptHandler	PTR FTN()void  size(2) Largest target is 1
		 -> Absolute function(), IOCAF2_DefaultInterruptHandler(), 

    IOCAF1_SetInterruptHandler@InterruptHandler	PTR FTN()void  size(2) Largest target is 1
		 -> IOCAF1_DefaultInterruptHandler(), 

    IOCAF1_InterruptHandler	PTR FTN()void  size(2) Largest target is 1
		 -> Absolute function(), IOCAF1_DefaultInterruptHandler(), 

    IOCAF0_SetInterruptHandler@InterruptHandler	PTR FTN()void  size(2) Largest target is 1
		 -> IOCAF0_DefaultInterruptHandler(), 

    IOCAF0_InterruptHandler	PTR FTN()void  size(2) Largest target is 1
		 -> Absolute function(), IOCAF0_DefaultInterruptHandler(), 


Critical Paths under _main in COMMON

    None.

Critical Paths under _INTERRUPT_InterruptManager in COMMON

    i1_printMenu->i1_LCDPutStr
    i1_mainMenu->i1_LCDPutStr
    i1_cleanMenu->i1_LCDPutStr
    i1_cleanFullMenu->i1_LCDPutStr
    i1_LCDPutStr->i1_LCDPutChar
    i1_LCDPutChar->i1_LCDWriteNibble
    i1_LCDGoto->i1_LCDPutCmd
    i1_LCDPutCmd->i1_LCDWriteNibble

Critical Paths under _main in BANK0

    _printMenu->_mainMenu
    _mainMenu->_LCDPutStr
    _cleanMenu->_LCDPutStr
    _cleanFullMenu->_LCDPutStr
    _LCDPutStr->_LCDPutChar
    _LCDGoto->_LCDPutCmd
    _createCustomCharacter->_LCDPutChar
    _createCustomCharacter->_LCDPutCmd
    _LCDPutChar->_LCDWriteNibble
    _PIN_MANAGER_Initialize->_IOCAF0_SetInterruptHandler
    _PIN_MANAGER_Initialize->_IOCAF1_SetInterruptHandler
    _PIN_MANAGER_Initialize->_IOCAF2_SetInterruptHandler
    _PIN_MANAGER_Initialize->_IOCAF3_SetInterruptHandler
    _PIN_MANAGER_Initialize->_IOCAF4_SetInterruptHandler
    _PIN_MANAGER_Initialize->_IOCAF5_SetInterruptHandler
    _LCD_Initialize->_LCDPutCmd
    _LCDPutCmd->_LCDWriteNibble

Critical Paths under _INTERRUPT_InterruptManager in BANK0

    _PIN_MANAGER_IOC->_IOCAF0_ISR
    _PIN_MANAGER_IOC->_IOCAF1_ISR
    i1_printMenu->i1_mainMenu

Critical Paths under _main in BANK1

    None.

Critical Paths under _INTERRUPT_InterruptManager in BANK1

    None.

Critical Paths under _main in BANK2

    None.

Critical Paths under _INTERRUPT_InterruptManager in BANK2

    None.

Critical Paths under _main in BANK3

    None.

Critical Paths under _INTERRUPT_InterruptManager in BANK3

    None.

Critical Paths under _main in BANK4

    None.

Critical Paths under _INTERRUPT_InterruptManager in BANK4

    None.

Critical Paths under _main in BANK5

    None.

Critical Paths under _INTERRUPT_InterruptManager in BANK5

    None.

Critical Paths under _main in BANK6

    None.

Critical Paths under _INTERRUPT_InterruptManager in BANK6

    None.

Critical Paths under _main in BANK7

    None.

Critical Paths under _INTERRUPT_InterruptManager in BANK7

    None.

Critical Paths under _main in BANK8

    None.

Critical Paths under _INTERRUPT_InterruptManager in BANK8

    None.

Critical Paths under _main in BANK9

    None.

Critical Paths under _INTERRUPT_InterruptManager in BANK9

    None.

Critical Paths under _main in BANK10

    None.

Critical Paths under _INTERRUPT_InterruptManager in BANK10

    None.

Critical Paths under _main in BANK11

    None.

Critical Paths under _INTERRUPT_InterruptManager in BANK11

    None.

Critical Paths under _main in BANK12

    None.

Critical Paths under _INTERRUPT_InterruptManager in BANK12

    None.

Critical Paths under _main in BANK13

    None.

Critical Paths under _INTERRUPT_InterruptManager in BANK13

    None.

Critical Paths under _main in BANK14

    None.

Critical Paths under _INTERRUPT_InterruptManager in BANK14

    None.

Critical Paths under _main in BANK15

    None.

Critical Paths under _INTERRUPT_InterruptManager in BANK15

    None.

Critical Paths under _main in BANK16

    None.

Critical Paths under _INTERRUPT_InterruptManager in BANK16

    None.

Critical Paths under _main in BANK17

    None.

Critical Paths under _INTERRUPT_InterruptManager in BANK17

    None.

Critical Paths under _main in BANK18

    None.

Critical Paths under _INTERRUPT_InterruptManager in BANK18

    None.

Critical Paths under _main in BANK19

    None.

Critical Paths under _INTERRUPT_InterruptManager in BANK19

    None.

Critical Paths under _main in BANK20

    None.

Critical Paths under _INTERRUPT_InterruptManager in BANK20

    None.

Critical Paths under _main in BANK21

    None.

Critical Paths under _INTERRUPT_InterruptManager in BANK21

    None.

Critical Paths under _main in BANK22

    None.

Critical Paths under _INTERRUPT_InterruptManager in BANK22

    None.

Critical Paths under _main in BANK23

    None.

Critical Paths under _INTERRUPT_InterruptManager in BANK23

    None.

Critical Paths under _main in BANK24

    None.

Critical Paths under _INTERRUPT_InterruptManager in BANK24

    None.

Critical Paths under _main in BANK25

    None.

Critical Paths under _INTERRUPT_InterruptManager in BANK25

    None.

Call Graph Tables:

 ---------------------------------------------------------------------------------
 (Depth) Function   	        Calls       Base Space   Used Autos Params    Refs
 ---------------------------------------------------------------------------------
 (0) _main                                                33    33      0   20138
                                             19 BANK0      1     1      0
                                              0 BANK1     32    32      0
                     _LCD_Initialize
                  _SYSTEM_Initialize
              _createCustomCharacter
                      _disableButton
                       _enableButton
                          _printMenu
 ---------------------------------------------------------------------------------
 (1) _printMenu                                            0     0      0   16776
                            _LCDGoto
                          _LCDPutStr
                      _cleanFullMenu
                          _cleanMenu
                           _mainMenu
 ---------------------------------------------------------------------------------
 (2) _mainMenu                                             2     2      0    4194
                                             17 BANK0      2     2      0
                            _LCDGoto
                          _LCDPutStr
 ---------------------------------------------------------------------------------
 (2) _cleanMenu                                            0     0      0    4194
                            _LCDGoto
                          _LCDPutStr
 ---------------------------------------------------------------------------------
 (2) _cleanFullMenu                                        0     0      0    4194
                            _LCDGoto
                          _LCDPutStr
 ---------------------------------------------------------------------------------
 (3) _LCDPutStr                                            6     4      2    1886
                                             11 BANK0      6     4      2
                         _LCDPutChar
 ---------------------------------------------------------------------------------
 (3) _LCDGoto                                              4     3      1    2308
                                             11 BANK0      4     3      1
                          _LCDPutCmd
 ---------------------------------------------------------------------------------
 (1) _enableButton                                         1     1      0      31
                                              4 BANK0      1     1      0
 ---------------------------------------------------------------------------------
 (1) _disableButton                                        1     1      0      31
                                              4 BANK0      1     1      0
 ---------------------------------------------------------------------------------
 (1) _createCustomCharacter                                5     4      1    1840
                                             11 BANK0      5     4      1
                         _LCDPutChar
                          _LCDPutCmd
 ---------------------------------------------------------------------------------
 (4) _LCDPutChar                                           3     3      0     586
                                              8 BANK0      3     3      0
                     _LCDWriteNibble
 ---------------------------------------------------------------------------------
 (1) _SYSTEM_Initialize                                    0     0      0     726
              _OSCILLATOR_Initialize
             _PIN_MANAGER_Initialize
                     _WDT_Initialize
 ---------------------------------------------------------------------------------
 (2) _WDT_Initialize                                       0     0      0       0
 ---------------------------------------------------------------------------------
 (2) _PIN_MANAGER_Initialize                               0     0      0     726
         _IOCAF0_SetInterruptHandler
         _IOCAF1_SetInterruptHandler
         _IOCAF2_SetInterruptHandler
         _IOCAF3_SetInterruptHandler
         _IOCAF4_SetInterruptHandler
         _IOCAF5_SetInterruptHandler
 ---------------------------------------------------------------------------------
 (3) _IOCAF5_SetInterruptHandler                           2     0      2     121
                                              4 BANK0      2     0      2
 ---------------------------------------------------------------------------------
 (3) _IOCAF4_SetInterruptHandler                           2     0      2     121
                                              4 BANK0      2     0      2
 ---------------------------------------------------------------------------------
 (3) _IOCAF3_SetInterruptHandler                           2     0      2     121
                                              4 BANK0      2     0      2
 ---------------------------------------------------------------------------------
 (3) _IOCAF2_SetInterruptHandler                           2     0      2     121
                                              4 BANK0      2     0      2
 ---------------------------------------------------------------------------------
 (3) _IOCAF1_SetInterruptHandler                           2     0      2     121
                                              4 BANK0      2     0      2
 ---------------------------------------------------------------------------------
 (3) _IOCAF0_SetInterruptHandler                           2     0      2     121
                                              4 BANK0      2     0      2
 ---------------------------------------------------------------------------------
 (2) _OSCILLATOR_Initialize                                0     0      0       0
 ---------------------------------------------------------------------------------
 (1) _LCD_Initialize                                       1     1      0     586
                                             11 BANK0      1     1      0
                          _LCDPutCmd
 ---------------------------------------------------------------------------------
 (4) _LCDPutCmd                                            3     3      0     586
                                              8 BANK0      3     3      0
                     _LCDWriteNibble
 ---------------------------------------------------------------------------------
 (5) _LCDWriteNibble                                       4     3      1     490
                                              4 BANK0      4     3      1
 ---------------------------------------------------------------------------------
 Estimated maximum stack depth 5
 ---------------------------------------------------------------------------------
 (Depth) Function   	        Calls       Base Space   Used Autos Params    Refs
 ---------------------------------------------------------------------------------
 (6) _INTERRUPT_InterruptManager                           1     1      0    9712
                                             13 COMMON     1     1      0
                    _PIN_MANAGER_IOC
 ---------------------------------------------------------------------------------
 (7) _PIN_MANAGER_IOC                                      0     0      0    9712
                         _IOCAF0_ISR
                         _IOCAF1_ISR
                         _IOCAF2_ISR
                         _IOCAF3_ISR
                         _IOCAF4_ISR
                         _IOCAF5_ISR
 ---------------------------------------------------------------------------------
 (8) _IOCAF5_ISR                                           0     0      0       0
                   Absolute function *
     _IOCAF5_DefaultInterruptHandler *
 ---------------------------------------------------------------------------------
 (9) _IOCAF5_DefaultInterruptHandler                       0     0      0       0
 ---------------------------------------------------------------------------------
 (8) _IOCAF4_ISR                                           0     0      0       0
                   Absolute function *
     _IOCAF4_DefaultInterruptHandler *
 ---------------------------------------------------------------------------------
 (9) _IOCAF4_DefaultInterruptHandler                       0     0      0       0
 ---------------------------------------------------------------------------------
 (8) _IOCAF3_ISR                                           0     0      0       0
                   Absolute function *
     _IOCAF3_DefaultInterruptHandler *
 ---------------------------------------------------------------------------------
 (9) _IOCAF3_DefaultInterruptHandler                       0     0      0       0
 ---------------------------------------------------------------------------------
 (8) _IOCAF2_ISR                                           0     0      0       0
                   Absolute function *
     _IOCAF2_DefaultInterruptHandler *
 ---------------------------------------------------------------------------------
 (9) _IOCAF2_DefaultInterruptHandler                       0     0      0       0
 ---------------------------------------------------------------------------------
 (8) _IOCAF1_ISR                                           2     2      0    4856
                                              2 BANK0      2     2      0
                   Absolute function *
     _IOCAF1_DefaultInterruptHandler *
                        i1_printMenu
 ---------------------------------------------------------------------------------
 (9) _IOCAF1_DefaultInterruptHandler                       0     0      0       0
 ---------------------------------------------------------------------------------
 (8) _IOCAF0_ISR                                           2     2      0    4856
                                              2 BANK0      2     2      0
                   Absolute function *
     _IOCAF0_DefaultInterruptHandler *
                        i1_printMenu
 ---------------------------------------------------------------------------------
 (9) i1_printMenu                                          0     0      0    4856
                          i1_LCDGoto
                        i1_LCDPutStr
                    i1_cleanFullMenu
                        i1_cleanMenu
                         i1_mainMenu
 ---------------------------------------------------------------------------------
 (10) i1_mainMenu                                          2     2      0    1214
                                              0 BANK0      2     2      0
                          i1_LCDGoto
                        i1_LCDPutStr
 ---------------------------------------------------------------------------------
 (10) i1_cleanMenu                                         0     0      0    1214
                          i1_LCDGoto
                        i1_LCDPutStr
 ---------------------------------------------------------------------------------
 (10) i1_cleanFullMenu                                     0     0      0    1214
                          i1_LCDGoto
                        i1_LCDPutStr
 ---------------------------------------------------------------------------------
 (11) i1_LCDPutStr                                         6     4      2     585
                                              7 COMMON     6     4      2
                       i1_LCDPutChar
 ---------------------------------------------------------------------------------
 (12) i1_LCDPutChar                                        3     3      0     261
                                              4 COMMON     3     3      0
                   i1_LCDWriteNibble
 ---------------------------------------------------------------------------------
 (11) i1_LCDGoto                                           4     3      1     629
                                              7 COMMON     4     3      1
                        i1_LCDPutCmd
 ---------------------------------------------------------------------------------
 (12) i1_LCDPutCmd                                         3     3      0     261
                                              4 COMMON     3     3      0
                   i1_LCDWriteNibble
 ---------------------------------------------------------------------------------
 (13) i1_LCDWriteNibble                                    4     3      1     194
                                              0 COMMON     4     3      1
 ---------------------------------------------------------------------------------
 (9) _IOCAF0_DefaultInterruptHandler                       0     0      0       0
 ---------------------------------------------------------------------------------
 (9) Absolute function(Fake)                               0     0      0       0
 ---------------------------------------------------------------------------------
 Estimated maximum stack depth 13
 ---------------------------------------------------------------------------------

 Call Graph Graphs:

 _main (ROOT)
   _LCD_Initialize
     _LCDPutCmd
       _LCDWriteNibble
   _SYSTEM_Initialize
     _OSCILLATOR_Initialize
     _PIN_MANAGER_Initialize
       _IOCAF0_SetInterruptHandler
       _IOCAF1_SetInterruptHandler
       _IOCAF2_SetInterruptHandler
       _IOCAF3_SetInterruptHandler
       _IOCAF4_SetInterruptHandler
       _IOCAF5_SetInterruptHandler
     _WDT_Initialize
   _createCustomCharacter
     _LCDPutChar
       _LCDWriteNibble
     _LCDPutCmd
       _LCDWriteNibble
   _disableButton
   _enableButton
   _printMenu
     _LCDGoto
       _LCDPutCmd
         _LCDWriteNibble
     _LCDPutStr
       _LCDPutChar
         _LCDWriteNibble
     _cleanFullMenu
       _LCDGoto
         _LCDPutCmd
           _LCDWriteNibble
       _LCDPutStr
         _LCDPutChar
           _LCDWriteNibble
     _cleanMenu
       _LCDGoto
         _LCDPutCmd
           _LCDWriteNibble
       _LCDPutStr
         _LCDPutChar
           _LCDWriteNibble
     _mainMenu
       _LCDGoto
         _LCDPutCmd
           _LCDWriteNibble
       _LCDPutStr
         _LCDPutChar
           _LCDWriteNibble

 _INTERRUPT_InterruptManager (ROOT)
   _PIN_MANAGER_IOC
     _IOCAF0_ISR
       Absolute function(Fake) *
       _IOCAF0_DefaultInterruptHandler *
       i1_printMenu *
         i1_LCDGoto
           i1_LCDPutCmd
             i1_LCDWriteNibble
         i1_LCDPutStr
           i1_LCDPutChar
             i1_LCDWriteNibble
         i1_cleanFullMenu
           i1_LCDGoto
             i1_LCDPutCmd
               i1_LCDWriteNibble
           i1_LCDPutStr
             i1_LCDPutChar
               i1_LCDWriteNibble
         i1_cleanMenu
           i1_LCDGoto
             i1_LCDPutCmd
               i1_LCDWriteNibble
           i1_LCDPutStr
             i1_LCDPutChar
               i1_LCDWriteNibble
         i1_mainMenu
           i1_LCDGoto
             i1_LCDPutCmd
               i1_LCDWriteNibble
           i1_LCDPutStr
             i1_LCDPutChar
               i1_LCDWriteNibble
     _IOCAF1_ISR
       Absolute function(Fake) *
       _IOCAF1_DefaultInterruptHandler *
       i1_printMenu *
         i1_LCDGoto
           i1_LCDPutCmd
             i1_LCDWriteNibble
         i1_LCDPutStr
           i1_LCDPutChar
             i1_LCDWriteNibble
         i1_cleanFullMenu
           i1_LCDGoto
             i1_LCDPutCmd
               i1_LCDWriteNibble
           i1_LCDPutStr
             i1_LCDPutChar
               i1_LCDWriteNibble
         i1_cleanMenu
           i1_LCDGoto
             i1_LCDPutCmd
               i1_LCDWriteNibble
           i1_LCDPutStr
             i1_LCDPutChar
               i1_LCDWriteNibble
         i1_mainMenu
           i1_LCDGoto
             i1_LCDPutCmd
               i1_LCDWriteNibble
           i1_LCDPutStr
             i1_LCDPutChar
               i1_LCDWriteNibble
     _IOCAF2_ISR
       Absolute function(Fake) *
       _IOCAF2_DefaultInterruptHandler *
     _IOCAF3_ISR
       Absolute function(Fake) *
       _IOCAF3_DefaultInterruptHandler *
     _IOCAF4_ISR
       Absolute function(Fake) *
       _IOCAF4_DefaultInterruptHandler *
     _IOCAF5_ISR
       Absolute function(Fake) *
       _IOCAF5_DefaultInterruptHandler *

 Address spaces:
Name               Size   Autos  Total    Cost      Usage
BIGRAM             7F0      0       0       0        0.0%
NULL                 0      0       0       0        0.0%
CODE                 0      0       0       0        0.0%
BITCOMMON            E      0       0       1        0.0%
BITSFR0              0      0       0       1        0.0%
SFR0                 0      0       0       1        0.0%
COMMON               E      E       E       2      100.0%
BITSFR1              0      0       0       2        0.0%
SFR1                 0      0       0       2        0.0%
BITSFR2              0      0       0       3        0.0%
SFR2                 0      0       0       3        0.0%
STACK                0      0       0       3        0.0%
BITBANK0            50      0       0       4        0.0%
BITSFR3              0      0       0       4        0.0%
SFR3                 0      0       0       4        0.0%
BANK0               50     14      35       5       66.2%
BITSFR4              0      0       0       5        0.0%
SFR4                 0      0       0       5        0.0%
BITBANK1            50      0       0       6        0.0%
BITSFR5              0      0       0       6        0.0%
SFR5                 0      0       0       6        0.0%
BANK1               50     20      30       7       60.0%
BITSFR6              0      0       0       7        0.0%
SFR6                 0      0       0       7        0.0%
BITBANK2            50      0       0       8        0.0%
BITSFR7              0      0       0       8        0.0%
SFR7                 0      0       0       8        0.0%
BANK2               50      0       0       9        0.0%
BITSFR8              0      0       0       9        0.0%
SFR8                 0      0       0       9        0.0%
BITBANK3            50      0       0      10        0.0%
BITSFR9              0      0       0      10        0.0%
SFR9                 0      0       0      10        0.0%
BANK3               50      0       0      11        0.0%
BITSFR10             0      0       0      11        0.0%
SFR10                0      0       0      11        0.0%
BITBANK4            50      0       0      12        0.0%
BITSFR11             0      0       0      12        0.0%
SFR11                0      0       0      12        0.0%
BANK4               50      0       0      13        0.0%
BITSFR12             0      0       0      13        0.0%
SFR12                0      0       0      13        0.0%
BITSFR13             0      0       0      14        0.0%
SFR13                0      0       0      14        0.0%
ABS                  0      0      73      14        0.0%
BITBANK5            50      0       0      15        0.0%
BITSFR14             0      0       0      15        0.0%
SFR14                0      0       0      15        0.0%
BANK5               50      0       0      16        0.0%
BITSFR15             0      0       0      16        0.0%
SFR15                0      0       0      16        0.0%
BITBANK6            50      0       0      17        0.0%
BITSFR16             0      0       0      17        0.0%
SFR16                0      0       0      17        0.0%
BANK6               50      0       0      18        0.0%
BITSFR17             0      0       0      18        0.0%
SFR17                0      0       0      18        0.0%
BITBANK7            50      0       0      19        0.0%
BITSFR18             0      0       0      19        0.0%
SFR18                0      0       0      19        0.0%
BANK7               50      0       0      20        0.0%
BITSFR19             0      0       0      20        0.0%
SFR19                0      0       0      20        0.0%
BITBANK8            50      0       0      21        0.0%
BITSFR20             0      0       0      21        0.0%
SFR20                0      0       0      21        0.0%
BANK8               50      0       0      22        0.0%
BITSFR21             0      0       0      22        0.0%
SFR21                0      0       0      22        0.0%
BITBANK9            50      0       0      23        0.0%
BITSFR22             0      0       0      23        0.0%
SFR22                0      0       0      23        0.0%
BANK9               50      0       0      24        0.0%
BITSFR23             0      0       0      24        0.0%
SFR23                0      0       0      24        0.0%
BITBANK10           50      0       0      25        0.0%
BITSFR24             0      0       0      25        0.0%
SFR24                0      0       0      25        0.0%
BANK10              50      0       0      26        0.0%
BITSFR25             0      0       0      26        0.0%
SFR25                0      0       0      26        0.0%
BITBANK11           50      0       0      27        0.0%
BITSFR26             0      0       0      27        0.0%
SFR26                0      0       0      27        0.0%
BITSFR27             0      0       0      28        0.0%
SFR27                0      0       0      28        0.0%
DATA                 0      0      73      28        0.0%
BANK11              50      0       0      29        0.0%
BITSFR28             0      0       0      29        0.0%
SFR28                0      0       0      29        0.0%
BITBANK12           50      0       0      30        0.0%
BITSFR29             0      0       0      30        0.0%
SFR29                0      0       0      30        0.0%
BANK12              50      0       0      31        0.0%
BITSFR30             0      0       0      31        0.0%
SFR30                0      0       0      31        0.0%
BITBANK13           50      0       0      32        0.0%
BITSFR31             0      0       0      32        0.0%
SFR31                0      0       0      32        0.0%
BANK13              50      0       0      33        0.0%
BITBANK14           50      0       0      34        0.0%
BANK14              50      0       0      35        0.0%
BITBANK15           50      0       0      36        0.0%
BANK15              50      0       0      37        0.0%
BITBANK16           50      0       0      38        0.0%
BANK16              50      0       0      39        0.0%
BITBANK17           50      0       0      40        0.0%
BANK17              50      0       0      41        0.0%
BITBANK18           50      0       0      42        0.0%
BANK18              50      0       0      43        0.0%
BITBANK19           50      0       0      44        0.0%
BANK19              50      0       0      45        0.0%
BITBANK20           50      0       0      46        0.0%
BANK20              50      0       0      47        0.0%
BITBANK21           50      0       0      48        0.0%
BANK21              50      0       0      49        0.0%
BITBANK22           50      0       0      50        0.0%
BANK22              50      0       0      51        0.0%
BITBANK23           50      0       0      52        0.0%
BANK23              50      0       0      53        0.0%
BITBANK24           50      0       0      54        0.0%
BANK24              50      0       0      55        0.0%
BITBANK25           20      0       0      56        0.0%
BANK25              20      0       0      57        0.0%


Microchip Technology PIC Macro Assembler V2.31 build 20201012212115 
Symbol Table                                                                                   Mon Jul 19 20:57:56 2021

                          ?i1_cleanFullMenu 0070                              _LCD_Initialize 0314  
                       __end_ofi1_printMenu 0451                                 ?_LCDPutChar 0070  
                                       l115 012B                                         l221 05B1  
                                       l215 0573                                         l320 04D7  
                                       l313 04E4                                         l250 0399  
                                       l218 0583                                         l138 05AD  
                                       l155 05A7                                         l315 04E8  
                                       l165 05A1                                         l253 0379  
                                       l318 04D3                                         l262 029E  
                                       l247 0336                                         l175 059B  
                                       l256 0359                                         l185 0595  
                                       l195 058F                                         l268 02C6  
                                       l383 0178                                         l375 03D8  
                                       l296 021F                                         l386 0415  
                                       l389 0433                                         u835 037F  
                                       u860 029E                                         u845 0347  
                                       u861 029D                                         u870 02A7  
                                       u855 036B                                         u871 02A6  
                                       u880 02AD                                         u881 02AC  
                                       u890 02B3                                         u891 02B2  
                                       wreg 0009          __end_of_IOCAF2_SetInterruptHandler 05A2  
                _IOCAF2_SetInterruptHandler 059C          __end_of_IOCAF5_SetInterruptHandler 0590  
                _IOCAF5_SetInterruptHandler 058A                                main@Pattern1 00A0  
                              main@Pattern2 00A8                                main@Pattern3 00B0  
                              main@Pattern4 00B8                                  i1_mainMenu 0179  
                           __end_of_LCDGoto 02C7                                        l2101 00ED  
                                      l2023 05A8                                        l2031 0590  
                                      l2111 00F2                                        l2103 00EE  
                                      l2025 05A2                                        l2033 058A  
                                      l2121 00F7                                        l2113 00F3  
                                      l2105 00EF                                        l2041 028E  
                                      l2201 012D                                        l2027 059C  
                                      l2131 010A                                        l2123 00F8  
                                      l2115 00F4                                        l2107 00F0  
                                      l2051 02B9                                        l2043 02A1  
                                      l2035 0277                                        l2211 0157  
                                      l2203 0132                                        l2029 0596  
                                      l2133 0112                                        l2125 00F9  
                                      l2117 00F5                                        l2109 00F1  
                                      l2301 04CE                                        l2053 02BE  
                                      l2045 02A7                                        l2037 027A  
                                      l2205 013A                                        l2135 011A  
                                      l2127 00FA                                        l2119 00F6  
                                      l2071 00C1                                        l2055 02C2  
                                      l2047 02AE                                        l2039 0289  
                                      l2207 014A                                        l2215 0167  
                                      l2137 0122                                        l2129 0102  
                                      l2081 00D1                                        l2073 00C4  
                                      l2049 02B3                                        l2209 014F  
                                      l2139 012A                                        l2091 00E8  
                                      l2083 00D2                                        l2075 00C6  
                                      l2067 00BA                                        l2251 03C9  
                                      l2261 031A                                        l2181 0580  
                                      l2093 00E9                                        l2085 00D4  
                                      l2077 00CB                                        l2069 00BE  
                                      l2253 03D2                                        l2245 03BA  
                                      l2271 0332                                        l2263 0322  
                                      l2183 0581                                        l2095 00EA  
                                      l2087 00D6                                        l2079 00CE  
                                      l2255 056A                                        l2191 0406  
                                      l2247 03C0                                        l2351 0042  
                                      l2265 0326                                        l2257 0314  
                                      l2097 00EB                                        l2089 00D7  
                                      l2185 05AE                                        l2281 01F3  
                                      l2193 0416                                        l2249 03C3  
                                      l2361 0081                                        l2353 0051  
                                      l2267 032A                                        l2259 0318  
                                      l2179 057D                                        l2099 00EC  
                                      l2291 020D                                        l2283 01FF  
                                      l2195 041C                                        l2187 03F8  
                                      l2371 009D                                        l2363 0087  
                                      l2355 005F                                        l2269 032E  
                                      l2293 0212                                        l2197 0424  
                                      l2189 03FE                                        l2373 00A1  
                                      l2365 0090                                        l2357 006D  
                                      l2349 003C                                        l2279 01F3  
                                      l2295 04DA                                        l2199 012C  
                                      l2375 00AA                                        l2367 0099  
                                      l2359 007B                                        l2289 0202  
                                      l2297 04DF                                        l2377 00AE  
                                      l2369 009C                                        l2299 04C9  
                                      l2459 0170                                        l1971 0386  
                                      l1981 0398                                        l1973 038B  
                                      l1975 0391                                        l1991 0353  
                                      l1983 0339                                        l1977 0396  
                                      l1969 037C                                        l1985 033D  
                                      l1993 035C                                        l1979 0397  
                                      l1987 0343                                        l1995 0360  
                                      l1989 034F                                        l1997 0367  
                                      l1999 0373                                        STR_1 04B6  
                                      STR_5 055F                                        STR_6 0535  
                                      STR_7 0551                                        STR_8 0543  
                                      STR_9 0574                                        u1010 03C0  
                                      u1011 03BF                                        u1030 021F  
                                      u1110 004D                                        u1031 021E  
                                      u1040 04DF                                        u1120 005B  
                                      u1025 01F6                                        u1041 04DE  
                                      u1050 04CE                                        u1130 0069  
                                      u1035 021B                                        u1051 04CD  
                                      u1140 0077                                        u1207 033A  
                                      u1217 0350                                        u1157 00A5  
                                      _LATA 010C                                        _LATB 010D  
                                      u1167 00B2                                        _LATC 010E  
                                      u1177 02C3                                        u1187 035D  
                                      u1197 031E                                 i1_cleanMenu 046E  
                                      _WPUA 020C                                        _WPUB 020D  
                                      _WPUC 020E                                        _WPUE 0210  
                                      _main 003C                                        fsr0h 0005  
                                      fsr1h 0007                                        indf0 0000  
                                      fsr0l 0004                                        indf1 0001  
                                      fsr1l 0006                                        btemp 007E  
                        __size_of_LCDPutCmd 0023                                        start 001B  
                        __size_of_LCDPutStr 0028                      __end_of_LCD_Initialize 0337  
                        __size_ofi1_LCDGoto 0027                                 LCDPutCmd@ch 002A  
                       __size_of_IOCAF0_ISR 002B                         __size_of_IOCAF1_ISR 002C  
            __size_of_OSCILLATOR_Initialize 0007                         __size_of_IOCAF2_ISR 000F  
                       __size_of_IOCAF3_ISR 000F                         __size_of_IOCAF4_ISR 000F  
                       __size_of_IOCAF5_ISR 000F               __end_of_OSCILLATOR_Initialize 0584  
                                     ?_main 0070                                       STR_10 04BC  
                                     STR_11 04BC                                       STR_12 04B6  
                                     STR_13 04B6                                ?i1_LCDPutCmd 0070  
                                     i1l124 01F0                                       i1l141 05B7  
                                     i1l135 0276                                       i1l152 024B  
                                     i1l129 0274                                       i1l250 03B9  
                                     i1l146 0249                                       i1l162 0534  
                                     i1l234 0019                                       i1l148 0233  
                                     i1l172 0525                                       i1l253 046D  
                                     i1l262 0313                                       i1l158 05B6  
                                     i1l182 0516                                       i1l256 03F7  
                                     i1l168 05B5                                       i1l192 0507  
                                     i1l178 05B4                                       i1l268 02ED  
                                     i1l188 05B3                                       i1l198 05B2  
                                     i1l383 01BF                                       i1l375 0450  
                                     i1l386 0489                                       i1l389 04A3  
                              ?i1_LCDPutStr 0077                                       u40_25 039E  
                                     u41_25 045F                                       u42_25 03E6  
                                     _PORTB 000D                                       u44_20 0313  
                                     u60_20 051E                                       u44_21 0312  
                                     u60_21 051D                                       u45_20 02CE  
                                     u61_20 050F                                       u45_21 02CD  
                                     u61_21 050E                                       u46_20 02D4  
                                     u62_20 0500                                       u46_21 02D3  
                                     u62_21 04FF                                       u47_20 02DA  
                                     u47_21 02D9                                       _TRISA 008C  
                                     _TRISB 008D                                       _TRISC 008E  
                                     _TRISE 0090                                       u90_20 043A  
                                     u90_21 0439                                       u91_20 0253  
                                     u59_20 052D                                       u91_21 0252  
                                     u59_21 052C                                       u92_20 025E  
                                     u92_21 025D                                       u93_20 0227  
                                     u93_21 0226                                       u94_20 0232  
                                     u94_21 0231                                       u95_20 01C5  
                                     u95_21 01C4                                       u96_20 01CD  
                                     u96_21 01CC                                       u97_20 01D5  
                                     u97_21 01D4                                       u98_20 01DD  
                                     u98_21 01DC                      ?_createCustomCharacter 002B  
                                     u99_20 01E5                                       u99_21 01E4  
                   __end_of_PIN_MANAGER_IOC 01F1                              _WDT_Initialize 05AE  
                                     pclath 000A                         __size_of_LCDPutChar 0020  
                                     status 0003                                       wtemp0 007E  
                               i1_printMenu 0434                       __end_of_cleanFullMenu 0434  
                           ?_LCD_Initialize 0070                             __initialization 001D  
                              __end_of_main 00BA                        __end_of_enableButton 04D8  
               ?_INTERRUPT_InterruptManager 0070                      createCustomCharacter@i 002E  
                                    ??_main 0033                                   ??_LCDGoto 002C  
                         __end_of_LCDPutCmd 035A                                LCDPutChar@ch 002A  
                   _IOCAF4_InterruptHandler 0048                           __end_of_LCDPutStr 029F  
                    __end_of_WDT_Initialize 05B2                ??_IOCAF0_SetInterruptHandler 0026  
                               ?i1_mainMenu 0070                ??_IOCAF3_SetInterruptHandler 0026  
                         __end_ofi1_LCDGoto 02EE                                      _ANSELA 018C  
                                    _ANSELB 018D                                      _ANSELC 018E  
                                    _BORCON 0116                               ?i1_LCDPutChar 0070  
                                    u100_20 01ED                                      u100_21 01EC  
                                    i1l2001 0179                                      i1l2011 0199  
                                    i1l2003 017A                                      i1l2013 01A0  
                                    i1l2005 017F                                      i1l2007 0186  
                                    i1l1401 03B8                                      i1l2009 0194  
                                    i1l2017 01AE                                      i1l1411 03DA  
                                    i1l1403 0452                                      i1l1413 03DE  
                                    i1l1405 0456                                      i1l1501 047B  
                                    i1l2061 043D                                      i1l2141 024C  
                                    i1l2221 01C0                                      i1l1415 03E3  
                                    i1l1407 045C                                      i1l1503 048A  
                                    i1l2063 0442                                      i1l2151 0260  
                                    i1l2143 0253                                      i1l2231 01D5  
                                    i1l2223 01C5                                      i1l2311 0018  
                                    i1l2303 0006                                      i1l1417 03EE  
                                    i1l1409 0467                                      i1l1441 0303  
                                    i1l1505 048F                                      i1l2065 044A  
                                    i1l2057 0434                                      i1l2145 0258  
                                    i1l2161 0220                                      i1l2241 01E8  
                                    i1l2233 01D8                                      i1l2225 01C8  
                                    i1l2305 000A                                      _ODCONA 028C  
                                    _ODCONB 028D                                      i1l1419 03F2  
                                    i1l1451 02E0                                      i1l1443 02C8  
                                    i1l1435 02EE                                      i1l1507 0496  
                                    i1l2059 043A                                      i1l2155 0264  
                                    i1l2163 0227                                      i1l2243 01ED  
                                    i1l2235 01DD                                      i1l2227 01CD  
                                    i1l2307 000E                                      _ODCONC 028E  
                                    i1l1453 02E5                                      i1l1445 02CE  
                                    i1l1437 02F0                                      i1l2149 025F  
                                    i1l2173 0239                                      i1l2165 022C  
                                    i1l2237 01E0                                      i1l2229 01D0  
                                    i1l2309 0015                                      i1l1391 03A5  
                                    i1l1455 02E9                                      i1l1447 02D5  
                                    i1l1439 02FF                                      i1l2239 01E5  
                                    i1l1393 03AA                                      i1l1449 02DA  
                                    i1l2169 0235                                      i1l1395 03B1  
                                    i1l1397 03B6                                      i1l1389 039B  
                                    i1l2461 0241                                      i1l1399 03B7  
                                    i1l2463 026C                                      i1l1671 0517  
                                    u106_20 000A                                      i1l1497 046E  
                                    i1l2465 01B7                                      i1l1665 0526  
                                    i1l1673 051E                                      i1l1681 0514  
                                    u106_21 0009                                      i1l1499 0474  
                                    i1l1667 052D                                      i1l1675 0523  
                                    i1l1683 04F9                                      i1l1669 0532  
                                    i1l1677 0508                                      i1l1685 0500  
                                    i1l1679 050F                                      i1l1687 0505  
                                    u122_27 0011                                      u107_20 000E  
                                    u107_21 000D                                      u123_27 0453  
                                    u124_27 02EA                                      u125_27 03DB  
                                    u126_27 03EF                                      _INLVLA 038C  
                                    _INLVLB 038D                                      _INLVLC 038E  
                                    _INLVLE 0390                                      _OSCCON 0099  
                                    _WDTCON 0097                                LCDPutStr@str 002B  
                            _LCDWriteNibble 037A                            __end_of_mainMenu 0179  
                                    _inGame 0054         __size_of_IOCAF0_SetInterruptHandler 0006  
                                    _player 0053         __size_of_IOCAF3_SetInterruptHandler 0006  
                           ?_WDT_Initialize 0070                              i1LCDPutChar@ch 0076  
IOCAF5_SetInterruptHandler@InterruptHandler 0024  IOCAF4_SetInterruptHandler@InterruptHandler 0024  
IOCAF3_SetInterruptHandler@InterruptHandler 0024  IOCAF2_SetInterruptHandler@InterruptHandler 0024  
IOCAF1_SetInterruptHandler@InterruptHandler 0024  IOCAF0_SetInterruptHandler@InterruptHandler 0024  
                          ?_PIN_MANAGER_IOC 0070                         disableButton@player 0024  
                            ??i1_LCDPutChar 0074                                ??_IOCAF0_ISR 0022  
                              ??_IOCAF1_ISR 0022                                ??_IOCAF2_ISR 0070  
                              ??_IOCAF3_ISR 0070                                ??_IOCAF4_ISR 0070  
                              ??_IOCAF5_ISR 0070                           _SYSTEM_Initialize 056A  
                    __end_of_LCDWriteNibble 039A                     __end_of__initialization 0038  
    __end_of_IOCAF1_DefaultInterruptHandler 05B7     __size_of_IOCAF1_DefaultInterruptHandler 0001  
            _IOCAF1_DefaultInterruptHandler 05B6                          ?_SYSTEM_Initialize 0070  
                            i1LCDPutStr@str 0077                                   LCDGoto@ln 002B  
                             i1_LCDGoto$469 0078                              __pcstackCOMMON 0070  
                              __pidataBANK0 04A4                                __pidataBANK1 04E9  
                       ??_SYSTEM_Initialize 0026                         __size_ofi1_mainMenu 0047  
                              ??_LCDPutChar 0028      __end_of_IOCAF4_DefaultInterruptHandler 05B4  
   __size_of_IOCAF4_DefaultInterruptHandler 0001              _IOCAF4_DefaultInterruptHandler 05B3  
                        __size_of_cleanMenu 001E                          __end_of_IOCAF0_ISR 0277  
                        __end_of_IOCAF1_ISR 024C                          __end_of_IOCAF2_ISR 0535  
                        __end_of_IOCAF3_ISR 0526                          __end_of_IOCAF4_ISR 0517  
                        __end_of_IOCAF5_ISR 0508                   __size_ofi1_LCDWriteNibble 0020  
                              i1LCDGoto@pos 007A                              _OPTION_REGbits 0095  
                      __size_ofi1_LCDPutCmd 001F                 ?_IOCAF2_SetInterruptHandler 0024  
          ??_IOCAF2_DefaultInterruptHandler 0070             ?_IOCAF2_DefaultInterruptHandler 0070  
                      __size_ofi1_LCDPutStr 0026                 ?_IOCAF5_SetInterruptHandler 0024  
                 __end_of_SYSTEM_Initialize 0574                                  __pbssBANK0 0052  
                              ?i1_cleanMenu 0070                                i1LCDPutStr@i 007C  
                           ?_LCDWriteNibble 0024                          __end_of_LCDPutChar 037A  
          ??_IOCAF5_DefaultInterruptHandler 0070             ?_IOCAF5_DefaultInterruptHandler 0070  
                   _IOCAF5_InterruptHandler 0046                       __size_of_enableButton 0011  
                                __pmaintext 003C                       __end_of_disableButton 04E9  
                                __pintentry 0004                     ??_createCustomCharacter 002C  
                  __size_ofi1_cleanFullMenu 001A                                     _LCDGoto 029F  
                        __size_of_printMenu 001F          __end_of_IOCAF0_SetInterruptHandler 05AE  
                _IOCAF0_SetInterruptHandler 05A8          __end_of_IOCAF3_SetInterruptHandler 059C  
                _IOCAF3_SetInterruptHandler 0596                                     _OSCTUNE 0098  
                                   _SLRCONA 030C                                     _SLRCONB 030D  
                                   _SLRCONC 030E                                   ?_mainMenu 0070  
                        enableButton@player 0024                                _enableButton 04C7  
                         __end_of_cleanMenu 0416                            ??_LCD_Initialize 002B  
                              ?i1_printMenu 0070                        __end_ofi1_LCDPutChar 046E  
                                   __ptext1 03BA                                     __ptext2 012C  
                                   __ptext3 03F8                                     __ptext4 0416  
                                   __ptext5 0277                                     __ptext6 029F  
                                   __ptext7 04C7                                     __ptext8 04D8  
                                   __ptext9 01F1                       _OSCILLATOR_Initialize 057D  
                  ??_PIN_MANAGER_Initialize 0026                                   _IOCAFbits 0393  
                                 _IOCANbits 0392                                   _IOCAPbits 0391  
                              ??i1_mainMenu 0020                                   _LCDPutCmd 0337  
                __size_of_SYSTEM_Initialize 000A                                   _LCDPutStr 0277  
                      end_of_initialization 0038                                  ??_mainMenu 0031  
                                   init_ram 0584                                     initloop 0585  
                                 i1_LCDGoto 02C7                                  _playerTurn 0052  
                         __end_of_printMenu 03D9                          __end_ofi1_mainMenu 01C0  
                          ??_WDT_Initialize 0024                                   _PORTBbits 000D  
                          i1_LCDWriteNibble 039A                     _IOCAF0_InterruptHandler 0050  
              ??_IOCAF1_SetInterruptHandler 0026                      __size_of_cleanFullMenu 001E  
              ??_IOCAF4_SetInterruptHandler 0026                                  ?_LCDPutCmd 0070  
                         ??i1_cleanFullMenu 007D                                  ?_LCDPutStr 002B  
                                ?i1_LCDGoto 0077                        __size_ofi1_cleanMenu 001C  
                                LCDGoto@pos 002E                                  LCDPutStr@i 0030  
       __size_of_IOCAF1_SetInterruptHandler 0006         __size_of_IOCAF4_SetInterruptHandler 0006  
                    ?_OSCILLATOR_Initialize 0070                         start_initialization 001D  
           __size_of_PIN_MANAGER_Initialize 0072                            ??_LCDWriteNibble 0025  
              createCustomCharacter@Pattern 002D                    __size_of_PIN_MANAGER_IOC 0031  
    __end_of_IOCAF2_DefaultInterruptHandler 05B6     __size_of_IOCAF2_DefaultInterruptHandler 0001  
            _IOCAF2_DefaultInterruptHandler 05B5                       __size_ofi1_LCDPutChar 001D  
                             _cleanFullMenu 0416                        __size_ofi1_printMenu 001D  
                               __pdataBANK0 0034                                 __pdataBANK1 00C0  
                             i1LCDPutCmd@ch 0076            ??_IOCAF0_DefaultInterruptHandler 0070  
           ?_IOCAF0_DefaultInterruptHandler 0070      __end_of_IOCAF5_DefaultInterruptHandler 05B3  
   __size_of_IOCAF5_DefaultInterruptHandler 0001              _IOCAF5_DefaultInterruptHandler 05B2  
                             ??i1_LCDPutCmd 0074                               ??i1_LCDPutStr 0079  
            __size_of_createCustomCharacter 002F               __end_of_createCustomCharacter 0220  
                                  ?_LCDGoto 002B                                   ___latbits 0003  
               ?_IOCAF0_SetInterruptHandler 0024                               __pcstackBANK0 0020  
                             __pcstackBANK1 00A0                 ?_IOCAF3_SetInterruptHandler 0024  
                               ??_LCDPutCmd 0028                                 ??_LCDPutStr 002D  
          ??_IOCAF3_DefaultInterruptHandler 0070             ?_IOCAF3_DefaultInterruptHandler 0070  
                               i1LCDGoto@ln 0077                                i1_LCDPutChar 0451  
                         __size_of_mainMenu 004D                                 ??i1_LCDGoto 0078  
                                 __pnvBANK0 0046                     _IOCAF1_InterruptHandler 004E  
                                 _cleanMenu 03F8                      _PIN_MANAGER_Initialize 00BA  
                            ?_cleanFullMenu 0070                                   _lcdOffset 0044  
                          LCDWriteNibble@ch 0027                            LCDWriteNibble@rs 0024  
              ??_INTERRUPT_InterruptManager 007D                                   _mainState 0045  
        __end_of_IOCAF1_SetInterruptHandler 05A8                  _IOCAF1_SetInterruptHandler 05A2  
        __end_of_IOCAF4_SetInterruptHandler 0596                  _IOCAF4_SetInterruptHandler 0590  
                    __size_of_disableButton 0011                         __end_ofi1_LCDPutCmd 03F8  
                       __end_ofi1_LCDPutStr 0314                    __end_ofi1_LCDWriteNibble 03BA  
                               _LCDGoto$469 002C                                  ?_cleanMenu 0070  
       __size_of_INTERRUPT_InterruptManager 0017               createCustomCharacter@Location 002B  
                                 main@F5660 003C                                   main@F5662 0034  
                                 main@F5664 00C8                                   main@F5666 00C0  
                                 _printMenu 03BA                           ??_PIN_MANAGER_IOC 007D  
                           i1_cleanFullMenu 048A                            __size_of_LCDGoto 0028  
                           ??_cleanFullMenu 0031                               _disableButton 04D8  
                   ??_OSCILLATOR_Initialize 0024                     __size_of_LCD_Initialize 0023  
                                ?_printMenu 0070                                 i1_LCDPutCmd 03D9  
                               i1_LCDPutStr 02EE                     _IOCAF2_InterruptHandler 004C  
              ??_IOCAF2_SetInterruptHandler 0026                                    __ptext10 035A  
                                  __ptext11 056A                                    __ptext20 057D  
                                  __ptext12 05AE                                    __ptext21 0314  
                                  __ptext13 00BA                                    __ptext30 0517  
                                  __ptext22 0337                                    __ptext14 058A  
                                  __ptext31 05B4                                    __ptext23 037A  
                                  __ptext15 0590                                    __ptext40 048A  
                                  __ptext32 0526                                    __ptext16 0596  
                                  __ptext41 02EE                                    __ptext33 05B5  
                                  __ptext25 01C0                                    __ptext17 059C  
                                  __ptext42 0451                                    __ptext34 0220  
                                  __ptext26 04F9                                    __ptext18 05A2  
                                  __ptext43 02C7                                    __ptext35 05B6  
                                  __ptext27 05B2                                    __ptext19 05A8  
                                  __ptext44 03D9                                    __ptext36 024C  
                                  __ptext28 0508                                    __ptext45 039A  
                                  __ptext37 0434                                    __ptext29 05B3  
                                  __ptext46 05B7                                    __ptext38 0179  
                                  __ptext39 046E                ??_IOCAF5_SetInterruptHandler 0026  
                                _IOCAF0_ISR 024C                                  _IOCAF1_ISR 0220  
                                  _mainMenu 012C                                  _IOCAF2_ISR 0526  
                             ??i1_cleanMenu 007D                                  _IOCAF3_ISR 0517  
                                _IOCAF4_ISR 0508                                  _IOCAF5_ISR 04F9  
                             __size_of_main 007E                                 ??_cleanMenu 0031  
                        i1LCDWriteNibble@ch 0073                          i1LCDWriteNibble@rs 0070  
                   __end_ofi1_cleanFullMenu 04A4                              ?_disableButton 0070  
                                  int$flags 007E          __end_of_INTERRUPT_InterruptManager 001B  
                _INTERRUPT_InterruptManager 0004                                  _LCDPutChar 035A  
       __size_of_IOCAF2_SetInterruptHandler 0006         __size_of_IOCAF5_SetInterruptHandler 0006  
                                _INTCONbits 000B                     __size_of_WDT_Initialize 0004  
                                  intlevel1 0000      __end_of_IOCAF0_DefaultInterruptHandler 05B8  
   __size_of_IOCAF0_DefaultInterruptHandler 0001              _IOCAF0_DefaultInterruptHandler 05B7  
                             ?_enableButton 0070                     ?_PIN_MANAGER_Initialize 0070  
                             ??i1_printMenu 007D                         __end_ofi1_cleanMenu 048A  
    __end_of_IOCAF3_DefaultInterruptHandler 05B5     __size_of_IOCAF3_DefaultInterruptHandler 0001  
            _IOCAF3_DefaultInterruptHandler 05B4                                 ??_printMenu 0033  
                             __pstringtext1 04B6                               __pstringtext2 0535  
                             __pstringtext3 0543                               __pstringtext4 0551  
                             __pstringtext5 055F                               __pstringtext6 0574  
                             __pstringtext7 0000            ??_IOCAF1_DefaultInterruptHandler 0070  
           ?_IOCAF1_DefaultInterruptHandler 0070                 ?_IOCAF1_SetInterruptHandler 0024  
                     _createCustomCharacter 01F1                 ?_IOCAF4_SetInterruptHandler 0024  
                            ??_enableButton 0024                                 ?_IOCAF0_ISR 0070  
                               ?_IOCAF1_ISR 0070                                 ?_IOCAF2_ISR 0070  
                               ?_IOCAF3_ISR 0070                                 ?_IOCAF4_ISR 0070  
                               ?_IOCAF5_ISR 0070              __end_of_PIN_MANAGER_Initialize 012C  
          ??_IOCAF4_DefaultInterruptHandler 0070             ?_IOCAF4_DefaultInterruptHandler 0070  
                           _PIN_MANAGER_IOC 01C0                           ?i1_LCDWriteNibble 0070  
                   __size_of_LCDWriteNibble 0020                             ??_disableButton 0024  
                   _IOCAF3_InterruptHandler 004A                          ??i1_LCDWriteNibble 0071  
