

Microchip MPLAB XC8 Assembler V2.31 build 20201012212115 
                                                                                               Wed Jul 21 23:04:16 2021

Microchip MPLAB XC8 C Compiler v2.31 (Free license) build 20201012212115 Og1 
     1                           	processor	16LF1718
     2                           	pagewidth 120
     3                           	opt	flic
     4                           	psect	idataBANK0,global,class=CODE,delta=2,noexec
     5                           	psect	idataBANK1,global,class=CODE,delta=2,noexec
     6                           	psect	idataBANK2,global,class=CODE,delta=2,noexec
     7                           	psect	nvBANK1,global,class=BANK1,space=1,delta=1,noexec
     8                           	psect	stringtext1,global,class=STRCODE,delta=2,noexec
     9                           	psect	stringtext2,global,class=STRCODE,delta=2,noexec
    10                           	psect	stringtext3,global,class=STRCODE,delta=2,noexec
    11                           	psect	stringtext4,global,class=STRCODE,delta=2,noexec
    12                           	psect	stringtext5,global,class=STRCODE,delta=2,noexec
    13                           	psect	stringtext6,global,class=STRCODE,delta=2,noexec
    14                           	psect	stringtext7,global,class=STRCODE,delta=2,noexec
    15                           	psect	stringtext8,global,class=STRCODE,delta=2,noexec
    16                           	psect	stringtext9,global,class=STRCODE,delta=2,noexec
    17                           	psect	cinit,global,class=CODE,merge=1,delta=2
    18                           	psect	bssBANK0,global,class=BANK0,space=1,delta=1,noexec
    19                           	psect	dataBANK0,global,class=BANK0,space=1,delta=1,noexec
    20                           	psect	bssBANK1,global,class=BANK1,space=1,delta=1,noexec
    21                           	psect	dataBANK1,global,class=BANK1,space=1,delta=1,noexec
    22                           	psect	dataBANK2,global,class=BANK2,space=1,delta=1,noexec
    23                           	psect	inittext,global,class=CODE,delta=2
    24                           	psect	cstackBANK3,global,class=BANK3,space=1,delta=1,noexec
    25                           	psect	cstackCOMMON,global,class=COMMON,space=1,delta=1,noexec
    26                           	psect	cstackBANK0,global,class=BANK0,space=1,delta=1,noexec
    27                           	psect	maintext,global,class=CODE,merge=1,split=1,delta=2
    28                           	psect	text1,local,class=CODE,merge=1,delta=2
    29                           	psect	text2,local,class=CODE,merge=1,delta=2
    30                           	psect	text3,local,class=CODE,merge=1,delta=2
    31                           	psect	text4,local,class=CODE,merge=1,delta=2
    32                           	psect	text5,local,class=CODE,merge=1,delta=2
    33                           	psect	text6,local,class=CODE,merge=1,delta=2
    34                           	psect	text7,local,class=CODE,merge=1,delta=2
    35                           	psect	text8,local,class=CODE,merge=1,delta=2
    36                           	psect	text9,local,class=CODE,merge=1,delta=2
    37                           	psect	text10,local,class=CODE,merge=1,delta=2
    38                           	psect	text11,local,class=CODE,merge=1,delta=2
    39                           	psect	text12,local,class=CODE,merge=1,delta=2
    40                           	psect	text13,local,class=CODE,merge=1,delta=2
    41                           	psect	text14,local,class=CODE,merge=1,delta=2
    42                           	psect	text15,local,class=CODE,merge=1,delta=2
    43                           	psect	text16,local,class=CODE,merge=1,delta=2
    44                           	psect	text17,local,class=CODE,merge=1,delta=2
    45                           	psect	text18,local,class=CODE,merge=1,delta=2
    46                           	psect	text19,local,class=CODE,merge=1,delta=2
    47                           	psect	text20,local,class=CODE,merge=1,delta=2
    48                           	psect	text21,local,class=CODE,merge=1,delta=2
    49                           	psect	text22,local,class=CODE,merge=1,delta=2
    50                           	psect	text23,local,class=CODE,merge=1,delta=2
    51                           	psect	text24,local,class=CODE,merge=1,delta=2
    52                           	psect	intentry,global,class=CODE,delta=2
    53                           	psect	text26,local,class=CODE,merge=1,delta=2
    54                           	psect	text27,local,class=CODE,merge=1,delta=2
    55                           	psect	text28,local,class=CODE,merge=1,delta=2,group=1
    56                           	psect	text29,local,class=CODE,merge=1,delta=2,group=1
    57                           	psect	text30,local,class=CODE,merge=1,delta=2
    58                           	psect	text31,local,class=CODE,merge=1,delta=2
    59                           	psect	text32,local,class=CODE,merge=1,delta=2
    60                           	psect	text33,local,class=CODE,merge=1,delta=2
    61                           	psect	text34,local,class=CODE,merge=1,delta=2
    62                           	psect	text35,local,class=CODE,merge=1,delta=2
    63                           	psect	text36,local,class=CODE,merge=1,delta=2
    64                           	psect	text37,local,class=CODE,merge=1,delta=2
    65                           	psect	text38,local,class=CODE,merge=1,delta=2
    66                           	psect	text39,local,class=CODE,merge=1,delta=2
    67                           	psect	text40,local,class=CODE,merge=1,delta=2
    68                           	psect	text41,local,class=CODE,merge=1,delta=2
    69                           	psect	text42,local,class=CODE,merge=1,delta=2
    70                           	psect	text43,local,class=CODE,merge=1,delta=2
    71                           	psect	text44,local,class=CODE,merge=1,delta=2
    72                           	psect	text45,local,class=CODE,merge=1,delta=2
    73                           	psect	text46,local,class=CODE,merge=1,delta=2
    74                           	psect	text47,local,class=CODE,merge=1,delta=2
    75                           	psect	text48,local,class=CODE,merge=1,delta=2
    76                           	psect	text49,local,class=CODE,merge=1,delta=2
    77                           	psect	text50,local,class=CODE,merge=1,delta=2
    78                           	psect	text51,local,class=CODE,merge=1,delta=2
    79                           	psect	text52,local,class=CODE,merge=1,delta=2
    80                           	psect	text53,local,class=CODE,merge=1,delta=2
    81                           	psect	text54,local,class=CODE,merge=1,delta=2
    82                           	psect	text55,local,class=CODE,merge=1,delta=2
    83                           	psect	text56,local,class=CODE,merge=1,delta=2
    84                           	psect	text57,local,class=CODE,merge=1,delta=2
    85                           	psect	config,global,abs,ovrld,class=CONFIG,space=4,delta=2,noexec
    86                           	dabs	1,0x7E,2
    87  0000                     
    88                           ; Version 2.20
    89                           ; Generated 12/02/2020 GMT
    90                           ; 
    91                           ; Copyright © 2020, Microchip Technology Inc. and its subsidiaries ("Microchip")
    92                           ; All rights reserved.
    93                           ; 
    94                           ; This software is developed by Microchip Technology Inc. and its subsidiaries ("Microch
      +                          ip").
    95                           ; 
    96                           ; Redistribution and use in source and binary forms, with or without modification, are
    97                           ; permitted provided that the following conditions are met:
    98                           ; 
    99                           ;     1. Redistributions of source code must retain the above copyright notice, this lis
      +                          t of
   100                           ;        conditions and the following disclaimer.
   101                           ; 
   102                           ;     2. Redistributions in binary form must reproduce the above copyright notice, this 
      +                          list
   103                           ;        of conditions and the following disclaimer in the documentation and/or other
   104                           ;        materials provided with the distribution.
   105                           ; 
   106                           ;     3. Microchip's name may not be used to endorse or promote products derived from th
      +                          is
   107                           ;        software without specific prior written permission.
   108                           ; 
   109                           ; THIS SOFTWARE IS PROVIDED BY MICROCHIP "AS IS" AND ANY EXPRESS OR IMPLIED WARRANTIES,
   110                           ; INCLUDING, BUT NOT LIMITED TO, THE IMPLIED WARRANTIES OF MERCHANTABILITY AND FITNESS F
      +                          OR
   111                           ; PURPOSE ARE DISCLAIMED.  IN NO EVENT SHALL MICROCHIP BE LIABLE FOR ANY DIRECT, INDIREC
      +                          T,
   112                           ; INCIDENTAL, SPECIAL, EXEMPLARY, OR CONSEQUENTIAL DAMAGES (INCLUDING BUT NOT LIMITED TO
   113                           ; PROCUREMENT OF SUBSTITUTE GOODS OR SERVICES; LOSS OF USE, DATA OR PROFITS; OR BUSINESS
   114                           ; INTERRUPTION) HOWSOEVER CAUSED AND ON ANY THEORY OF LIABILITY, WHETHER IN CONTRACT, ST
      +                          RICT
   115                           ; LIABILITY, OR TORT (INCLUDING NEGLIGENCE OR OTHERWISE) ARISING IN ANY WAY OUT OF THE U
      +                          SE OF
   116                           ; THIS SOFTWARE, EVEN IF ADVISED OF THE POSSIBILITY OF SUCH DAMAGE.
   117                           ; 
   118                           ; 
   119                           ; Code-generator required, PIC16LF1718 Definitions
   120                           ; 
   121                           ; SFR Addresses
   122  0000                     	;# 
   123  0001                     	;# 
   124  0002                     	;# 
   125  0003                     	;# 
   126  0004                     	;# 
   127  0005                     	;# 
   128  0006                     	;# 
   129  0007                     	;# 
   130  0008                     	;# 
   131  0009                     	;# 
   132  000A                     	;# 
   133  000B                     	;# 
   134  000C                     	;# 
   135  000D                     	;# 
   136  000E                     	;# 
   137  0010                     	;# 
   138  0011                     	;# 
   139  0012                     	;# 
   140  0013                     	;# 
   141  0015                     	;# 
   142  0016                     	;# 
   143  0016                     	;# 
   144  0017                     	;# 
   145  0018                     	;# 
   146  0019                     	;# 
   147  001A                     	;# 
   148  001B                     	;# 
   149  001C                     	;# 
   150  008C                     	;# 
   151  008D                     	;# 
   152  008E                     	;# 
   153  0090                     	;# 
   154  0091                     	;# 
   155  0092                     	;# 
   156  0093                     	;# 
   157  0095                     	;# 
   158  0096                     	;# 
   159  0097                     	;# 
   160  0098                     	;# 
   161  0099                     	;# 
   162  009A                     	;# 
   163  009B                     	;# 
   164  009B                     	;# 
   165  009C                     	;# 
   166  009D                     	;# 
   167  009E                     	;# 
   168  009F                     	;# 
   169  010C                     	;# 
   170  010D                     	;# 
   171  010E                     	;# 
   172  0111                     	;# 
   173  0112                     	;# 
   174  0113                     	;# 
   175  0114                     	;# 
   176  0115                     	;# 
   177  0116                     	;# 
   178  0117                     	;# 
   179  0118                     	;# 
   180  0119                     	;# 
   181  011A                     	;# 
   182  011B                     	;# 
   183  011B                     	;# 
   184  011C                     	;# 
   185  018C                     	;# 
   186  018D                     	;# 
   187  018E                     	;# 
   188  0191                     	;# 
   189  0191                     	;# 
   190  0192                     	;# 
   191  0193                     	;# 
   192  0193                     	;# 
   193  0194                     	;# 
   194  0195                     	;# 
   195  0196                     	;# 
   196  0199                     	;# 
   197  0199                     	;# 
   198  0199                     	;# 
   199  019A                     	;# 
   200  019A                     	;# 
   201  019A                     	;# 
   202  019B                     	;# 
   203  019B                     	;# 
   204  019B                     	;# 
   205  019B                     	;# 
   206  019B                     	;# 
   207  019C                     	;# 
   208  019C                     	;# 
   209  019C                     	;# 
   210  019D                     	;# 
   211  019D                     	;# 
   212  019D                     	;# 
   213  019E                     	;# 
   214  019E                     	;# 
   215  019E                     	;# 
   216  019F                     	;# 
   217  019F                     	;# 
   218  019F                     	;# 
   219  019F                     	;# 
   220  019F                     	;# 
   221  020C                     	;# 
   222  020D                     	;# 
   223  020E                     	;# 
   224  0210                     	;# 
   225  0211                     	;# 
   226  0211                     	;# 
   227  0212                     	;# 
   228  0212                     	;# 
   229  0213                     	;# 
   230  0213                     	;# 
   231  0214                     	;# 
   232  0214                     	;# 
   233  0215                     	;# 
   234  0215                     	;# 
   235  0215                     	;# 
   236  0215                     	;# 
   237  0216                     	;# 
   238  0216                     	;# 
   239  0217                     	;# 
   240  0217                     	;# 
   241  028C                     	;# 
   242  028D                     	;# 
   243  028E                     	;# 
   244  0291                     	;# 
   245  0291                     	;# 
   246  0292                     	;# 
   247  0293                     	;# 
   248  0293                     	;# 
   249  0298                     	;# 
   250  0298                     	;# 
   251  0299                     	;# 
   252  029A                     	;# 
   253  029A                     	;# 
   254  029E                     	;# 
   255  030C                     	;# 
   256  030D                     	;# 
   257  030E                     	;# 
   258  038C                     	;# 
   259  038D                     	;# 
   260  038E                     	;# 
   261  0390                     	;# 
   262  0391                     	;# 
   263  0392                     	;# 
   264  0393                     	;# 
   265  0394                     	;# 
   266  0395                     	;# 
   267  0396                     	;# 
   268  0397                     	;# 
   269  0398                     	;# 
   270  0399                     	;# 
   271  039D                     	;# 
   272  039E                     	;# 
   273  039F                     	;# 
   274  0415                     	;# 
   275  0416                     	;# 
   276  0417                     	;# 
   277  041C                     	;# 
   278  041D                     	;# 
   279  041E                     	;# 
   280  0498                     	;# 
   281  0498                     	;# 
   282  0499                     	;# 
   283  049A                     	;# 
   284  049B                     	;# 
   285  049B                     	;# 
   286  049C                     	;# 
   287  049D                     	;# 
   288  049E                     	;# 
   289  049F                     	;# 
   290  0511                     	;# 
   291  0515                     	;# 
   292  0617                     	;# 
   293  0618                     	;# 
   294  0619                     	;# 
   295  0619                     	;# 
   296  061A                     	;# 
   297  061B                     	;# 
   298  061C                     	;# 
   299  061C                     	;# 
   300  0691                     	;# 
   301  0692                     	;# 
   302  0693                     	;# 
   303  0694                     	;# 
   304  0695                     	;# 
   305  0696                     	;# 
   306  0697                     	;# 
   307  0698                     	;# 
   308  0699                     	;# 
   309  069A                     	;# 
   310  069B                     	;# 
   311  069C                     	;# 
   312  069D                     	;# 
   313  069E                     	;# 
   314  069F                     	;# 
   315  0E0F                     	;# 
   316  0E10                     	;# 
   317  0E11                     	;# 
   318  0E12                     	;# 
   319  0E13                     	;# 
   320  0E14                     	;# 
   321  0E15                     	;# 
   322  0E17                     	;# 
   323  0E20                     	;# 
   324  0E21                     	;# 
   325  0E22                     	;# 
   326  0E24                     	;# 
   327  0E25                     	;# 
   328  0E28                     	;# 
   329  0E29                     	;# 
   330  0E2A                     	;# 
   331  0E2B                     	;# 
   332  0E90                     	;# 
   333  0E91                     	;# 
   334  0E92                     	;# 
   335  0E93                     	;# 
   336  0E94                     	;# 
   337  0E95                     	;# 
   338  0E96                     	;# 
   339  0E97                     	;# 
   340  0E98                     	;# 
   341  0E99                     	;# 
   342  0E9A                     	;# 
   343  0E9B                     	;# 
   344  0E9C                     	;# 
   345  0E9D                     	;# 
   346  0E9E                     	;# 
   347  0E9F                     	;# 
   348  0EA0                     	;# 
   349  0EA1                     	;# 
   350  0EA2                     	;# 
   351  0EA3                     	;# 
   352  0EA4                     	;# 
   353  0EA5                     	;# 
   354  0EA6                     	;# 
   355  0EA7                     	;# 
   356  0F0F                     	;# 
   357  0F10                     	;# 
   358  0F11                     	;# 
   359  0F12                     	;# 
   360  0F13                     	;# 
   361  0F14                     	;# 
   362  0F15                     	;# 
   363  0F16                     	;# 
   364  0F17                     	;# 
   365  0F18                     	;# 
   366  0F19                     	;# 
   367  0F1A                     	;# 
   368  0F1B                     	;# 
   369  0F1C                     	;# 
   370  0F1D                     	;# 
   371  0F1E                     	;# 
   372  0F1F                     	;# 
   373  0F20                     	;# 
   374  0F21                     	;# 
   375  0F22                     	;# 
   376  0F23                     	;# 
   377  0F24                     	;# 
   378  0F25                     	;# 
   379  0F26                     	;# 
   380  0F27                     	;# 
   381  0F28                     	;# 
   382  0F29                     	;# 
   383  0F2A                     	;# 
   384  0F2B                     	;# 
   385  0F2C                     	;# 
   386  0F2D                     	;# 
   387  0F2E                     	;# 
   388  0F2F                     	;# 
   389  0F30                     	;# 
   390  0F31                     	;# 
   391  0F32                     	;# 
   392  0F33                     	;# 
   393  0F34                     	;# 
   394  0F35                     	;# 
   395  0F36                     	;# 
   396  0F37                     	;# 
   397  0FE4                     	;# 
   398  0FE5                     	;# 
   399  0FE6                     	;# 
   400  0FE7                     	;# 
   401  0FE8                     	;# 
   402  0FE9                     	;# 
   403  0FEA                     	;# 
   404  0FEB                     	;# 
   405  0FED                     	;# 
   406  0FEE                     	;# 
   407  0FEF                     	;# 
   408  0000                     	;# 
   409  0001                     	;# 
   410  0002                     	;# 
   411  0003                     	;# 
   412  0004                     	;# 
   413  0005                     	;# 
   414  0006                     	;# 
   415  0007                     	;# 
   416  0008                     	;# 
   417  0009                     	;# 
   418  000A                     	;# 
   419  000B                     	;# 
   420  000C                     	;# 
   421  000D                     	;# 
   422  000E                     	;# 
   423  0010                     	;# 
   424  0011                     	;# 
   425  0012                     	;# 
   426  0013                     	;# 
   427  0015                     	;# 
   428  0016                     	;# 
   429  0016                     	;# 
   430  0017                     	;# 
   431  0018                     	;# 
   432  0019                     	;# 
   433  001A                     	;# 
   434  001B                     	;# 
   435  001C                     	;# 
   436  008C                     	;# 
   437  008D                     	;# 
   438  008E                     	;# 
   439  0090                     	;# 
   440  0091                     	;# 
   441  0092                     	;# 
   442  0093                     	;# 
   443  0095                     	;# 
   444  0096                     	;# 
   445  0097                     	;# 
   446  0098                     	;# 
   447  0099                     	;# 
   448  009A                     	;# 
   449  009B                     	;# 
   450  009B                     	;# 
   451  009C                     	;# 
   452  009D                     	;# 
   453  009E                     	;# 
   454  009F                     	;# 
   455  010C                     	;# 
   456  010D                     	;# 
   457  010E                     	;# 
   458  0111                     	;# 
   459  0112                     	;# 
   460  0113                     	;# 
   461  0114                     	;# 
   462  0115                     	;# 
   463  0116                     	;# 
   464  0117                     	;# 
   465  0118                     	;# 
   466  0119                     	;# 
   467  011A                     	;# 
   468  011B                     	;# 
   469  011B                     	;# 
   470  011C                     	;# 
   471  018C                     	;# 
   472  018D                     	;# 
   473  018E                     	;# 
   474  0191                     	;# 
   475  0191                     	;# 
   476  0192                     	;# 
   477  0193                     	;# 
   478  0193                     	;# 
   479  0194                     	;# 
   480  0195                     	;# 
   481  0196                     	;# 
   482  0199                     	;# 
   483  0199                     	;# 
   484  0199                     	;# 
   485  019A                     	;# 
   486  019A                     	;# 
   487  019A                     	;# 
   488  019B                     	;# 
   489  019B                     	;# 
   490  019B                     	;# 
   491  019B                     	;# 
   492  019B                     	;# 
   493  019C                     	;# 
   494  019C                     	;# 
   495  019C                     	;# 
   496  019D                     	;# 
   497  019D                     	;# 
   498  019D                     	;# 
   499  019E                     	;# 
   500  019E                     	;# 
   501  019E                     	;# 
   502  019F                     	;# 
   503  019F                     	;# 
   504  019F                     	;# 
   505  019F                     	;# 
   506  019F                     	;# 
   507  020C                     	;# 
   508  020D                     	;# 
   509  020E                     	;# 
   510  0210                     	;# 
   511  0211                     	;# 
   512  0211                     	;# 
   513  0212                     	;# 
   514  0212                     	;# 
   515  0213                     	;# 
   516  0213                     	;# 
   517  0214                     	;# 
   518  0214                     	;# 
   519  0215                     	;# 
   520  0215                     	;# 
   521  0215                     	;# 
   522  0215                     	;# 
   523  0216                     	;# 
   524  0216                     	;# 
   525  0217                     	;# 
   526  0217                     	;# 
   527  028C                     	;# 
   528  028D                     	;# 
   529  028E                     	;# 
   530  0291                     	;# 
   531  0291                     	;# 
   532  0292                     	;# 
   533  0293                     	;# 
   534  0293                     	;# 
   535  0298                     	;# 
   536  0298                     	;# 
   537  0299                     	;# 
   538  029A                     	;# 
   539  029A                     	;# 
   540  029E                     	;# 
   541  030C                     	;# 
   542  030D                     	;# 
   543  030E                     	;# 
   544  038C                     	;# 
   545  038D                     	;# 
   546  038E                     	;# 
   547  0390                     	;# 
   548  0391                     	;# 
   549  0392                     	;# 
   550  0393                     	;# 
   551  0394                     	;# 
   552  0395                     	;# 
   553  0396                     	;# 
   554  0397                     	;# 
   555  0398                     	;# 
   556  0399                     	;# 
   557  039D                     	;# 
   558  039E                     	;# 
   559  039F                     	;# 
   560  0415                     	;# 
   561  0416                     	;# 
   562  0417                     	;# 
   563  041C                     	;# 
   564  041D                     	;# 
   565  041E                     	;# 
   566  0498                     	;# 
   567  0498                     	;# 
   568  0499                     	;# 
   569  049A                     	;# 
   570  049B                     	;# 
   571  049B                     	;# 
   572  049C                     	;# 
   573  049D                     	;# 
   574  049E                     	;# 
   575  049F                     	;# 
   576  0511                     	;# 
   577  0515                     	;# 
   578  0617                     	;# 
   579  0618                     	;# 
   580  0619                     	;# 
   581  0619                     	;# 
   582  061A                     	;# 
   583  061B                     	;# 
   584  061C                     	;# 
   585  061C                     	;# 
   586  0691                     	;# 
   587  0692                     	;# 
   588  0693                     	;# 
   589  0694                     	;# 
   590  0695                     	;# 
   591  0696                     	;# 
   592  0697                     	;# 
   593  0698                     	;# 
   594  0699                     	;# 
   595  069A                     	;# 
   596  069B                     	;# 
   597  069C                     	;# 
   598  069D                     	;# 
   599  069E                     	;# 
   600  069F                     	;# 
   601  0E0F                     	;# 
   602  0E10                     	;# 
   603  0E11                     	;# 
   604  0E12                     	;# 
   605  0E13                     	;# 
   606  0E14                     	;# 
   607  0E15                     	;# 
   608  0E17                     	;# 
   609  0E20                     	;# 
   610  0E21                     	;# 
   611  0E22                     	;# 
   612  0E24                     	;# 
   613  0E25                     	;# 
   614  0E28                     	;# 
   615  0E29                     	;# 
   616  0E2A                     	;# 
   617  0E2B                     	;# 
   618  0E90                     	;# 
   619  0E91                     	;# 
   620  0E92                     	;# 
   621  0E93                     	;# 
   622  0E94                     	;# 
   623  0E95                     	;# 
   624  0E96                     	;# 
   625  0E97                     	;# 
   626  0E98                     	;# 
   627  0E99                     	;# 
   628  0E9A                     	;# 
   629  0E9B                     	;# 
   630  0E9C                     	;# 
   631  0E9D                     	;# 
   632  0E9E                     	;# 
   633  0E9F                     	;# 
   634  0EA0                     	;# 
   635  0EA1                     	;# 
   636  0EA2                     	;# 
   637  0EA3                     	;# 
   638  0EA4                     	;# 
   639  0EA5                     	;# 
   640  0EA6                     	;# 
   641  0EA7                     	;# 
   642  0F0F                     	;# 
   643  0F10                     	;# 
   644  0F11                     	;# 
   645  0F12                     	;# 
   646  0F13                     	;# 
   647  0F14                     	;# 
   648  0F15                     	;# 
   649  0F16                     	;# 
   650  0F17                     	;# 
   651  0F18                     	;# 
   652  0F19                     	;# 
   653  0F1A                     	;# 
   654  0F1B                     	;# 
   655  0F1C                     	;# 
   656  0F1D                     	;# 
   657  0F1E                     	;# 
   658  0F1F                     	;# 
   659  0F20                     	;# 
   660  0F21                     	;# 
   661  0F22                     	;# 
   662  0F23                     	;# 
   663  0F24                     	;# 
   664  0F25                     	;# 
   665  0F26                     	;# 
   666  0F27                     	;# 
   667  0F28                     	;# 
   668  0F29                     	;# 
   669  0F2A                     	;# 
   670  0F2B                     	;# 
   671  0F2C                     	;# 
   672  0F2D                     	;# 
   673  0F2E                     	;# 
   674  0F2F                     	;# 
   675  0F30                     	;# 
   676  0F31                     	;# 
   677  0F32                     	;# 
   678  0F33                     	;# 
   679  0F34                     	;# 
   680  0F35                     	;# 
   681  0F36                     	;# 
   682  0F37                     	;# 
   683  0FE4                     	;# 
   684  0FE5                     	;# 
   685  0FE6                     	;# 
   686  0FE7                     	;# 
   687  0FE8                     	;# 
   688  0FE9                     	;# 
   689  0FEA                     	;# 
   690  0FEB                     	;# 
   691  0FED                     	;# 
   692  0FEE                     	;# 
   693  0FEF                     	;# 
   694  0000                     	;# 
   695  0001                     	;# 
   696  0002                     	;# 
   697  0003                     	;# 
   698  0004                     	;# 
   699  0005                     	;# 
   700  0006                     	;# 
   701  0007                     	;# 
   702  0008                     	;# 
   703  0009                     	;# 
   704  000A                     	;# 
   705  000B                     	;# 
   706  000C                     	;# 
   707  000D                     	;# 
   708  000E                     	;# 
   709  0010                     	;# 
   710  0011                     	;# 
   711  0012                     	;# 
   712  0013                     	;# 
   713  0015                     	;# 
   714  0016                     	;# 
   715  0016                     	;# 
   716  0017                     	;# 
   717  0018                     	;# 
   718  0019                     	;# 
   719  001A                     	;# 
   720  001B                     	;# 
   721  001C                     	;# 
   722  008C                     	;# 
   723  008D                     	;# 
   724  008E                     	;# 
   725  0090                     	;# 
   726  0091                     	;# 
   727  0092                     	;# 
   728  0093                     	;# 
   729  0095                     	;# 
   730  0096                     	;# 
   731  0097                     	;# 
   732  0098                     	;# 
   733  0099                     	;# 
   734  009A                     	;# 
   735  009B                     	;# 
   736  009B                     	;# 
   737  009C                     	;# 
   738  009D                     	;# 
   739  009E                     	;# 
   740  009F                     	;# 
   741  010C                     	;# 
   742  010D                     	;# 
   743  010E                     	;# 
   744  0111                     	;# 
   745  0112                     	;# 
   746  0113                     	;# 
   747  0114                     	;# 
   748  0115                     	;# 
   749  0116                     	;# 
   750  0117                     	;# 
   751  0118                     	;# 
   752  0119                     	;# 
   753  011A                     	;# 
   754  011B                     	;# 
   755  011B                     	;# 
   756  011C                     	;# 
   757  018C                     	;# 
   758  018D                     	;# 
   759  018E                     	;# 
   760  0191                     	;# 
   761  0191                     	;# 
   762  0192                     	;# 
   763  0193                     	;# 
   764  0193                     	;# 
   765  0194                     	;# 
   766  0195                     	;# 
   767  0196                     	;# 
   768  0199                     	;# 
   769  0199                     	;# 
   770  0199                     	;# 
   771  019A                     	;# 
   772  019A                     	;# 
   773  019A                     	;# 
   774  019B                     	;# 
   775  019B                     	;# 
   776  019B                     	;# 
   777  019B                     	;# 
   778  019B                     	;# 
   779  019C                     	;# 
   780  019C                     	;# 
   781  019C                     	;# 
   782  019D                     	;# 
   783  019D                     	;# 
   784  019D                     	;# 
   785  019E                     	;# 
   786  019E                     	;# 
   787  019E                     	;# 
   788  019F                     	;# 
   789  019F                     	;# 
   790  019F                     	;# 
   791  019F                     	;# 
   792  019F                     	;# 
   793  020C                     	;# 
   794  020D                     	;# 
   795  020E                     	;# 
   796  0210                     	;# 
   797  0211                     	;# 
   798  0211                     	;# 
   799  0212                     	;# 
   800  0212                     	;# 
   801  0213                     	;# 
   802  0213                     	;# 
   803  0214                     	;# 
   804  0214                     	;# 
   805  0215                     	;# 
   806  0215                     	;# 
   807  0215                     	;# 
   808  0215                     	;# 
   809  0216                     	;# 
   810  0216                     	;# 
   811  0217                     	;# 
   812  0217                     	;# 
   813  028C                     	;# 
   814  028D                     	;# 
   815  028E                     	;# 
   816  0291                     	;# 
   817  0291                     	;# 
   818  0292                     	;# 
   819  0293                     	;# 
   820  0293                     	;# 
   821  0298                     	;# 
   822  0298                     	;# 
   823  0299                     	;# 
   824  029A                     	;# 
   825  029A                     	;# 
   826  029E                     	;# 
   827  030C                     	;# 
   828  030D                     	;# 
   829  030E                     	;# 
   830  038C                     	;# 
   831  038D                     	;# 
   832  038E                     	;# 
   833  0390                     	;# 
   834  0391                     	;# 
   835  0392                     	;# 
   836  0393                     	;# 
   837  0394                     	;# 
   838  0395                     	;# 
   839  0396                     	;# 
   840  0397                     	;# 
   841  0398                     	;# 
   842  0399                     	;# 
   843  039D                     	;# 
   844  039E                     	;# 
   845  039F                     	;# 
   846  0415                     	;# 
   847  0416                     	;# 
   848  0417                     	;# 
   849  041C                     	;# 
   850  041D                     	;# 
   851  041E                     	;# 
   852  0498                     	;# 
   853  0498                     	;# 
   854  0499                     	;# 
   855  049A                     	;# 
   856  049B                     	;# 
   857  049B                     	;# 
   858  049C                     	;# 
   859  049D                     	;# 
   860  049E                     	;# 
   861  049F                     	;# 
   862  0511                     	;# 
   863  0515                     	;# 
   864  0617                     	;# 
   865  0618                     	;# 
   866  0619                     	;# 
   867  0619                     	;# 
   868  061A                     	;# 
   869  061B                     	;# 
   870  061C                     	;# 
   871  061C                     	;# 
   872  0691                     	;# 
   873  0692                     	;# 
   874  0693                     	;# 
   875  0694                     	;# 
   876  0695                     	;# 
   877  0696                     	;# 
   878  0697                     	;# 
   879  0698                     	;# 
   880  0699                     	;# 
   881  069A                     	;# 
   882  069B                     	;# 
   883  069C                     	;# 
   884  069D                     	;# 
   885  069E                     	;# 
   886  069F                     	;# 
   887  0E0F                     	;# 
   888  0E10                     	;# 
   889  0E11                     	;# 
   890  0E12                     	;# 
   891  0E13                     	;# 
   892  0E14                     	;# 
   893  0E15                     	;# 
   894  0E17                     	;# 
   895  0E20                     	;# 
   896  0E21                     	;# 
   897  0E22                     	;# 
   898  0E24                     	;# 
   899  0E25                     	;# 
   900  0E28                     	;# 
   901  0E29                     	;# 
   902  0E2A                     	;# 
   903  0E2B                     	;# 
   904  0E90                     	;# 
   905  0E91                     	;# 
   906  0E92                     	;# 
   907  0E93                     	;# 
   908  0E94                     	;# 
   909  0E95                     	;# 
   910  0E96                     	;# 
   911  0E97                     	;# 
   912  0E98                     	;# 
   913  0E99                     	;# 
   914  0E9A                     	;# 
   915  0E9B                     	;# 
   916  0E9C                     	;# 
   917  0E9D                     	;# 
   918  0E9E                     	;# 
   919  0E9F                     	;# 
   920  0EA0                     	;# 
   921  0EA1                     	;# 
   922  0EA2                     	;# 
   923  0EA3                     	;# 
   924  0EA4                     	;# 
   925  0EA5                     	;# 
   926  0EA6                     	;# 
   927  0EA7                     	;# 
   928  0F0F                     	;# 
   929  0F10                     	;# 
   930  0F11                     	;# 
   931  0F12                     	;# 
   932  0F13                     	;# 
   933  0F14                     	;# 
   934  0F15                     	;# 
   935  0F16                     	;# 
   936  0F17                     	;# 
   937  0F18                     	;# 
   938  0F19                     	;# 
   939  0F1A                     	;# 
   940  0F1B                     	;# 
   941  0F1C                     	;# 
   942  0F1D                     	;# 
   943  0F1E                     	;# 
   944  0F1F                     	;# 
   945  0F20                     	;# 
   946  0F21                     	;# 
   947  0F22                     	;# 
   948  0F23                     	;# 
   949  0F24                     	;# 
   950  0F25                     	;# 
   951  0F26                     	;# 
   952  0F27                     	;# 
   953  0F28                     	;# 
   954  0F29                     	;# 
   955  0F2A                     	;# 
   956  0F2B                     	;# 
   957  0F2C                     	;# 
   958  0F2D                     	;# 
   959  0F2E                     	;# 
   960  0F2F                     	;# 
   961  0F30                     	;# 
   962  0F31                     	;# 
   963  0F32                     	;# 
   964  0F33                     	;# 
   965  0F34                     	;# 
   966  0F35                     	;# 
   967  0F36                     	;# 
   968  0F37                     	;# 
   969  0FE4                     	;# 
   970  0FE5                     	;# 
   971  0FE6                     	;# 
   972  0FE7                     	;# 
   973  0FE8                     	;# 
   974  0FE9                     	;# 
   975  0FEA                     	;# 
   976  0FEB                     	;# 
   977  0FED                     	;# 
   978  0FEE                     	;# 
   979  0FEF                     	;# 
   980  0000                     	;# 
   981  0001                     	;# 
   982  0002                     	;# 
   983  0003                     	;# 
   984  0004                     	;# 
   985  0005                     	;# 
   986  0006                     	;# 
   987  0007                     	;# 
   988  0008                     	;# 
   989  0009                     	;# 
   990  000A                     	;# 
   991  000B                     	;# 
   992  000C                     	;# 
   993  000D                     	;# 
   994  000E                     	;# 
   995  0010                     	;# 
   996  0011                     	;# 
   997  0012                     	;# 
   998  0013                     	;# 
   999  0015                     	;# 
  1000  0016                     	;# 
  1001  0016                     	;# 
  1002  0017                     	;# 
  1003  0018                     	;# 
  1004  0019                     	;# 
  1005  001A                     	;# 
  1006  001B                     	;# 
  1007  001C                     	;# 
  1008  008C                     	;# 
  1009  008D                     	;# 
  1010  008E                     	;# 
  1011  0090                     	;# 
  1012  0091                     	;# 
  1013  0092                     	;# 
  1014  0093                     	;# 
  1015  0095                     	;# 
  1016  0096                     	;# 
  1017  0097                     	;# 
  1018  0098                     	;# 
  1019  0099                     	;# 
  1020  009A                     	;# 
  1021  009B                     	;# 
  1022  009B                     	;# 
  1023  009C                     	;# 
  1024  009D                     	;# 
  1025  009E                     	;# 
  1026  009F                     	;# 
  1027  010C                     	;# 
  1028  010D                     	;# 
  1029  010E                     	;# 
  1030  0111                     	;# 
  1031  0112                     	;# 
  1032  0113                     	;# 
  1033  0114                     	;# 
  1034  0115                     	;# 
  1035  0116                     	;# 
  1036  0117                     	;# 
  1037  0118                     	;# 
  1038  0119                     	;# 
  1039  011A                     	;# 
  1040  011B                     	;# 
  1041  011B                     	;# 
  1042  011C                     	;# 
  1043  018C                     	;# 
  1044  018D                     	;# 
  1045  018E                     	;# 
  1046  0191                     	;# 
  1047  0191                     	;# 
  1048  0192                     	;# 
  1049  0193                     	;# 
  1050  0193                     	;# 
  1051  0194                     	;# 
  1052  0195                     	;# 
  1053  0196                     	;# 
  1054  0199                     	;# 
  1055  0199                     	;# 
  1056  0199                     	;# 
  1057  019A                     	;# 
  1058  019A                     	;# 
  1059  019A                     	;# 
  1060  019B                     	;# 
  1061  019B                     	;# 
  1062  019B                     	;# 
  1063  019B                     	;# 
  1064  019B                     	;# 
  1065  019C                     	;# 
  1066  019C                     	;# 
  1067  019C                     	;# 
  1068  019D                     	;# 
  1069  019D                     	;# 
  1070  019D                     	;# 
  1071  019E                     	;# 
  1072  019E                     	;# 
  1073  019E                     	;# 
  1074  019F                     	;# 
  1075  019F                     	;# 
  1076  019F                     	;# 
  1077  019F                     	;# 
  1078  019F                     	;# 
  1079  020C                     	;# 
  1080  020D                     	;# 
  1081  020E                     	;# 
  1082  0210                     	;# 
  1083  0211                     	;# 
  1084  0211                     	;# 
  1085  0212                     	;# 
  1086  0212                     	;# 
  1087  0213                     	;# 
  1088  0213                     	;# 
  1089  0214                     	;# 
  1090  0214                     	;# 
  1091  0215                     	;# 
  1092  0215                     	;# 
  1093  0215                     	;# 
  1094  0215                     	;# 
  1095  0216                     	;# 
  1096  0216                     	;# 
  1097  0217                     	;# 
  1098  0217                     	;# 
  1099  028C                     	;# 
  1100  028D                     	;# 
  1101  028E                     	;# 
  1102  0291                     	;# 
  1103  0291                     	;# 
  1104  0292                     	;# 
  1105  0293                     	;# 
  1106  0293                     	;# 
  1107  0298                     	;# 
  1108  0298                     	;# 
  1109  0299                     	;# 
  1110  029A                     	;# 
  1111  029A                     	;# 
  1112  029E                     	;# 
  1113  030C                     	;# 
  1114  030D                     	;# 
  1115  030E                     	;# 
  1116  038C                     	;# 
  1117  038D                     	;# 
  1118  038E                     	;# 
  1119  0390                     	;# 
  1120  0391                     	;# 
  1121  0392                     	;# 
  1122  0393                     	;# 
  1123  0394                     	;# 
  1124  0395                     	;# 
  1125  0396                     	;# 
  1126  0397                     	;# 
  1127  0398                     	;# 
  1128  0399                     	;# 
  1129  039D                     	;# 
  1130  039E                     	;# 
  1131  039F                     	;# 
  1132  0415                     	;# 
  1133  0416                     	;# 
  1134  0417                     	;# 
  1135  041C                     	;# 
  1136  041D                     	;# 
  1137  041E                     	;# 
  1138  0498                     	;# 
  1139  0498                     	;# 
  1140  0499                     	;# 
  1141  049A                     	;# 
  1142  049B                     	;# 
  1143  049B                     	;# 
  1144  049C                     	;# 
  1145  049D                     	;# 
  1146  049E                     	;# 
  1147  049F                     	;# 
  1148  0511                     	;# 
  1149  0515                     	;# 
  1150  0617                     	;# 
  1151  0618                     	;# 
  1152  0619                     	;# 
  1153  0619                     	;# 
  1154  061A                     	;# 
  1155  061B                     	;# 
  1156  061C                     	;# 
  1157  061C                     	;# 
  1158  0691                     	;# 
  1159  0692                     	;# 
  1160  0693                     	;# 
  1161  0694                     	;# 
  1162  0695                     	;# 
  1163  0696                     	;# 
  1164  0697                     	;# 
  1165  0698                     	;# 
  1166  0699                     	;# 
  1167  069A                     	;# 
  1168  069B                     	;# 
  1169  069C                     	;# 
  1170  069D                     	;# 
  1171  069E                     	;# 
  1172  069F                     	;# 
  1173  0E0F                     	;# 
  1174  0E10                     	;# 
  1175  0E11                     	;# 
  1176  0E12                     	;# 
  1177  0E13                     	;# 
  1178  0E14                     	;# 
  1179  0E15                     	;# 
  1180  0E17                     	;# 
  1181  0E20                     	;# 
  1182  0E21                     	;# 
  1183  0E22                     	;# 
  1184  0E24                     	;# 
  1185  0E25                     	;# 
  1186  0E28                     	;# 
  1187  0E29                     	;# 
  1188  0E2A                     	;# 
  1189  0E2B                     	;# 
  1190  0E90                     	;# 
  1191  0E91                     	;# 
  1192  0E92                     	;# 
  1193  0E93                     	;# 
  1194  0E94                     	;# 
  1195  0E95                     	;# 
  1196  0E96                     	;# 
  1197  0E97                     	;# 
  1198  0E98                     	;# 
  1199  0E99                     	;# 
  1200  0E9A                     	;# 
  1201  0E9B                     	;# 
  1202  0E9C                     	;# 
  1203  0E9D                     	;# 
  1204  0E9E                     	;# 
  1205  0E9F                     	;# 
  1206  0EA0                     	;# 
  1207  0EA1                     	;# 
  1208  0EA2                     	;# 
  1209  0EA3                     	;# 
  1210  0EA4                     	;# 
  1211  0EA5                     	;# 
  1212  0EA6                     	;# 
  1213  0EA7                     	;# 
  1214  0F0F                     	;# 
  1215  0F10                     	;# 
  1216  0F11                     	;# 
  1217  0F12                     	;# 
  1218  0F13                     	;# 
  1219  0F14                     	;# 
  1220  0F15                     	;# 
  1221  0F16                     	;# 
  1222  0F17                     	;# 
  1223  0F18                     	;# 
  1224  0F19                     	;# 
  1225  0F1A                     	;# 
  1226  0F1B                     	;# 
  1227  0F1C                     	;# 
  1228  0F1D                     	;# 
  1229  0F1E                     	;# 
  1230  0F1F                     	;# 
  1231  0F20                     	;# 
  1232  0F21                     	;# 
  1233  0F22                     	;# 
  1234  0F23                     	;# 
  1235  0F24                     	;# 
  1236  0F25                     	;# 
  1237  0F26                     	;# 
  1238  0F27                     	;# 
  1239  0F28                     	;# 
  1240  0F29                     	;# 
  1241  0F2A                     	;# 
  1242  0F2B                     	;# 
  1243  0F2C                     	;# 
  1244  0F2D                     	;# 
  1245  0F2E                     	;# 
  1246  0F2F                     	;# 
  1247  0F30                     	;# 
  1248  0F31                     	;# 
  1249  0F32                     	;# 
  1250  0F33                     	;# 
  1251  0F34                     	;# 
  1252  0F35                     	;# 
  1253  0F36                     	;# 
  1254  0F37                     	;# 
  1255  0FE4                     	;# 
  1256  0FE5                     	;# 
  1257  0FE6                     	;# 
  1258  0FE7                     	;# 
  1259  0FE8                     	;# 
  1260  0FE9                     	;# 
  1261  0FEA                     	;# 
  1262  0FEB                     	;# 
  1263  0FED                     	;# 
  1264  0FEE                     	;# 
  1265  0FEF                     	;# 
  1266  0000                     	;# 
  1267  0001                     	;# 
  1268  0002                     	;# 
  1269  0003                     	;# 
  1270  0004                     	;# 
  1271  0005                     	;# 
  1272  0006                     	;# 
  1273  0007                     	;# 
  1274  0008                     	;# 
  1275  0009                     	;# 
  1276  000A                     	;# 
  1277  000B                     	;# 
  1278  000C                     	;# 
  1279  000D                     	;# 
  1280  000E                     	;# 
  1281  0010                     	;# 
  1282  0011                     	;# 
  1283  0012                     	;# 
  1284  0013                     	;# 
  1285  0015                     	;# 
  1286  0016                     	;# 
  1287  0016                     	;# 
  1288  0017                     	;# 
  1289  0018                     	;# 
  1290  0019                     	;# 
  1291  001A                     	;# 
  1292  001B                     	;# 
  1293  001C                     	;# 
  1294  008C                     	;# 
  1295  008D                     	;# 
  1296  008E                     	;# 
  1297  0090                     	;# 
  1298  0091                     	;# 
  1299  0092                     	;# 
  1300  0093                     	;# 
  1301  0095                     	;# 
  1302  0096                     	;# 
  1303  0097                     	;# 
  1304  0098                     	;# 
  1305  0099                     	;# 
  1306  009A                     	;# 
  1307  009B                     	;# 
  1308  009B                     	;# 
  1309  009C                     	;# 
  1310  009D                     	;# 
  1311  009E                     	;# 
  1312  009F                     	;# 
  1313  010C                     	;# 
  1314  010D                     	;# 
  1315  010E                     	;# 
  1316  0111                     	;# 
  1317  0112                     	;# 
  1318  0113                     	;# 
  1319  0114                     	;# 
  1320  0115                     	;# 
  1321  0116                     	;# 
  1322  0117                     	;# 
  1323  0118                     	;# 
  1324  0119                     	;# 
  1325  011A                     	;# 
  1326  011B                     	;# 
  1327  011B                     	;# 
  1328  011C                     	;# 
  1329  018C                     	;# 
  1330  018D                     	;# 
  1331  018E                     	;# 
  1332  0191                     	;# 
  1333  0191                     	;# 
  1334  0192                     	;# 
  1335  0193                     	;# 
  1336  0193                     	;# 
  1337  0194                     	;# 
  1338  0195                     	;# 
  1339  0196                     	;# 
  1340  0199                     	;# 
  1341  0199                     	;# 
  1342  0199                     	;# 
  1343  019A                     	;# 
  1344  019A                     	;# 
  1345  019A                     	;# 
  1346  019B                     	;# 
  1347  019B                     	;# 
  1348  019B                     	;# 
  1349  019B                     	;# 
  1350  019B                     	;# 
  1351  019C                     	;# 
  1352  019C                     	;# 
  1353  019C                     	;# 
  1354  019D                     	;# 
  1355  019D                     	;# 
  1356  019D                     	;# 
  1357  019E                     	;# 
  1358  019E                     	;# 
  1359  019E                     	;# 
  1360  019F                     	;# 
  1361  019F                     	;# 
  1362  019F                     	;# 
  1363  019F                     	;# 
  1364  019F                     	;# 
  1365  020C                     	;# 
  1366  020D                     	;# 
  1367  020E                     	;# 
  1368  0210                     	;# 
  1369  0211                     	;# 
  1370  0211                     	;# 
  1371  0212                     	;# 
  1372  0212                     	;# 
  1373  0213                     	;# 
  1374  0213                     	;# 
  1375  0214                     	;# 
  1376  0214                     	;# 
  1377  0215                     	;# 
  1378  0215                     	;# 
  1379  0215                     	;# 
  1380  0215                     	;# 
  1381  0216                     	;# 
  1382  0216                     	;# 
  1383  0217                     	;# 
  1384  0217                     	;# 
  1385  028C                     	;# 
  1386  028D                     	;# 
  1387  028E                     	;# 
  1388  0291                     	;# 
  1389  0291                     	;# 
  1390  0292                     	;# 
  1391  0293                     	;# 
  1392  0293                     	;# 
  1393  0298                     	;# 
  1394  0298                     	;# 
  1395  0299                     	;# 
  1396  029A                     	;# 
  1397  029A                     	;# 
  1398  029E                     	;# 
  1399  030C                     	;# 
  1400  030D                     	;# 
  1401  030E                     	;# 
  1402  038C                     	;# 
  1403  038D                     	;# 
  1404  038E                     	;# 
  1405  0390                     	;# 
  1406  0391                     	;# 
  1407  0392                     	;# 
  1408  0393                     	;# 
  1409  0394                     	;# 
  1410  0395                     	;# 
  1411  0396                     	;# 
  1412  0397                     	;# 
  1413  0398                     	;# 
  1414  0399                     	;# 
  1415  039D                     	;# 
  1416  039E                     	;# 
  1417  039F                     	;# 
  1418  0415                     	;# 
  1419  0416                     	;# 
  1420  0417                     	;# 
  1421  041C                     	;# 
  1422  041D                     	;# 
  1423  041E                     	;# 
  1424  0498                     	;# 
  1425  0498                     	;# 
  1426  0499                     	;# 
  1427  049A                     	;# 
  1428  049B                     	;# 
  1429  049B                     	;# 
  1430  049C                     	;# 
  1431  049D                     	;# 
  1432  049E                     	;# 
  1433  049F                     	;# 
  1434  0511                     	;# 
  1435  0515                     	;# 
  1436  0617                     	;# 
  1437  0618                     	;# 
  1438  0619                     	;# 
  1439  0619                     	;# 
  1440  061A                     	;# 
  1441  061B                     	;# 
  1442  061C                     	;# 
  1443  061C                     	;# 
  1444  0691                     	;# 
  1445  0692                     	;# 
  1446  0693                     	;# 
  1447  0694                     	;# 
  1448  0695                     	;# 
  1449  0696                     	;# 
  1450  0697                     	;# 
  1451  0698                     	;# 
  1452  0699                     	;# 
  1453  069A                     	;# 
  1454  069B                     	;# 
  1455  069C                     	;# 
  1456  069D                     	;# 
  1457  069E                     	;# 
  1458  069F                     	;# 
  1459  0E0F                     	;# 
  1460  0E10                     	;# 
  1461  0E11                     	;# 
  1462  0E12                     	;# 
  1463  0E13                     	;# 
  1464  0E14                     	;# 
  1465  0E15                     	;# 
  1466  0E17                     	;# 
  1467  0E20                     	;# 
  1468  0E21                     	;# 
  1469  0E22                     	;# 
  1470  0E24                     	;# 
  1471  0E25                     	;# 
  1472  0E28                     	;# 
  1473  0E29                     	;# 
  1474  0E2A                     	;# 
  1475  0E2B                     	;# 
  1476  0E90                     	;# 
  1477  0E91                     	;# 
  1478  0E92                     	;# 
  1479  0E93                     	;# 
  1480  0E94                     	;# 
  1481  0E95                     	;# 
  1482  0E96                     	;# 
  1483  0E97                     	;# 
  1484  0E98                     	;# 
  1485  0E99                     	;# 
  1486  0E9A                     	;# 
  1487  0E9B                     	;# 
  1488  0E9C                     	;# 
  1489  0E9D                     	;# 
  1490  0E9E                     	;# 
  1491  0E9F                     	;# 
  1492  0EA0                     	;# 
  1493  0EA1                     	;# 
  1494  0EA2                     	;# 
  1495  0EA3                     	;# 
  1496  0EA4                     	;# 
  1497  0EA5                     	;# 
  1498  0EA6                     	;# 
  1499  0EA7                     	;# 
  1500  0F0F                     	;# 
  1501  0F10                     	;# 
  1502  0F11                     	;# 
  1503  0F12                     	;# 
  1504  0F13                     	;# 
  1505  0F14                     	;# 
  1506  0F15                     	;# 
  1507  0F16                     	;# 
  1508  0F17                     	;# 
  1509  0F18                     	;# 
  1510  0F19                     	;# 
  1511  0F1A                     	;# 
  1512  0F1B                     	;# 
  1513  0F1C                     	;# 
  1514  0F1D                     	;# 
  1515  0F1E                     	;# 
  1516  0F1F                     	;# 
  1517  0F20                     	;# 
  1518  0F21                     	;# 
  1519  0F22                     	;# 
  1520  0F23                     	;# 
  1521  0F24                     	;# 
  1522  0F25                     	;# 
  1523  0F26                     	;# 
  1524  0F27                     	;# 
  1525  0F28                     	;# 
  1526  0F29                     	;# 
  1527  0F2A                     	;# 
  1528  0F2B                     	;# 
  1529  0F2C                     	;# 
  1530  0F2D                     	;# 
  1531  0F2E                     	;# 
  1532  0F2F                     	;# 
  1533  0F30                     	;# 
  1534  0F31                     	;# 
  1535  0F32                     	;# 
  1536  0F33                     	;# 
  1537  0F34                     	;# 
  1538  0F35                     	;# 
  1539  0F36                     	;# 
  1540  0F37                     	;# 
  1541  0FE4                     	;# 
  1542  0FE5                     	;# 
  1543  0FE6                     	;# 
  1544  0FE7                     	;# 
  1545  0FE8                     	;# 
  1546  0FE9                     	;# 
  1547  0FEA                     	;# 
  1548  0FEB                     	;# 
  1549  0FED                     	;# 
  1550  0FEE                     	;# 
  1551  0FEF                     	;# 
  1552  0000                     	;# 
  1553  0001                     	;# 
  1554  0002                     	;# 
  1555  0003                     	;# 
  1556  0004                     	;# 
  1557  0005                     	;# 
  1558  0006                     	;# 
  1559  0007                     	;# 
  1560  0008                     	;# 
  1561  0009                     	;# 
  1562  000A                     	;# 
  1563  000B                     	;# 
  1564  000C                     	;# 
  1565  000D                     	;# 
  1566  000E                     	;# 
  1567  0010                     	;# 
  1568  0011                     	;# 
  1569  0012                     	;# 
  1570  0013                     	;# 
  1571  0015                     	;# 
  1572  0016                     	;# 
  1573  0016                     	;# 
  1574  0017                     	;# 
  1575  0018                     	;# 
  1576  0019                     	;# 
  1577  001A                     	;# 
  1578  001B                     	;# 
  1579  001C                     	;# 
  1580  008C                     	;# 
  1581  008D                     	;# 
  1582  008E                     	;# 
  1583  0090                     	;# 
  1584  0091                     	;# 
  1585  0092                     	;# 
  1586  0093                     	;# 
  1587  0095                     	;# 
  1588  0096                     	;# 
  1589  0097                     	;# 
  1590  0098                     	;# 
  1591  0099                     	;# 
  1592  009A                     	;# 
  1593  009B                     	;# 
  1594  009B                     	;# 
  1595  009C                     	;# 
  1596  009D                     	;# 
  1597  009E                     	;# 
  1598  009F                     	;# 
  1599  010C                     	;# 
  1600  010D                     	;# 
  1601  010E                     	;# 
  1602  0111                     	;# 
  1603  0112                     	;# 
  1604  0113                     	;# 
  1605  0114                     	;# 
  1606  0115                     	;# 
  1607  0116                     	;# 
  1608  0117                     	;# 
  1609  0118                     	;# 
  1610  0119                     	;# 
  1611  011A                     	;# 
  1612  011B                     	;# 
  1613  011B                     	;# 
  1614  011C                     	;# 
  1615  018C                     	;# 
  1616  018D                     	;# 
  1617  018E                     	;# 
  1618  0191                     	;# 
  1619  0191                     	;# 
  1620  0192                     	;# 
  1621  0193                     	;# 
  1622  0193                     	;# 
  1623  0194                     	;# 
  1624  0195                     	;# 
  1625  0196                     	;# 
  1626  0199                     	;# 
  1627  0199                     	;# 
  1628  0199                     	;# 
  1629  019A                     	;# 
  1630  019A                     	;# 
  1631  019A                     	;# 
  1632  019B                     	;# 
  1633  019B                     	;# 
  1634  019B                     	;# 
  1635  019B                     	;# 
  1636  019B                     	;# 
  1637  019C                     	;# 
  1638  019C                     	;# 
  1639  019C                     	;# 
  1640  019D                     	;# 
  1641  019D                     	;# 
  1642  019D                     	;# 
  1643  019E                     	;# 
  1644  019E                     	;# 
  1645  019E                     	;# 
  1646  019F                     	;# 
  1647  019F                     	;# 
  1648  019F                     	;# 
  1649  019F                     	;# 
  1650  019F                     	;# 
  1651  020C                     	;# 
  1652  020D                     	;# 
  1653  020E                     	;# 
  1654  0210                     	;# 
  1655  0211                     	;# 
  1656  0211                     	;# 
  1657  0212                     	;# 
  1658  0212                     	;# 
  1659  0213                     	;# 
  1660  0213                     	;# 
  1661  0214                     	;# 
  1662  0214                     	;# 
  1663  0215                     	;# 
  1664  0215                     	;# 
  1665  0215                     	;# 
  1666  0215                     	;# 
  1667  0216                     	;# 
  1668  0216                     	;# 
  1669  0217                     	;# 
  1670  0217                     	;# 
  1671  028C                     	;# 
  1672  028D                     	;# 
  1673  028E                     	;# 
  1674  0291                     	;# 
  1675  0291                     	;# 
  1676  0292                     	;# 
  1677  0293                     	;# 
  1678  0293                     	;# 
  1679  0298                     	;# 
  1680  0298                     	;# 
  1681  0299                     	;# 
  1682  029A                     	;# 
  1683  029A                     	;# 
  1684  029E                     	;# 
  1685  030C                     	;# 
  1686  030D                     	;# 
  1687  030E                     	;# 
  1688  038C                     	;# 
  1689  038D                     	;# 
  1690  038E                     	;# 
  1691  0390                     	;# 
  1692  0391                     	;# 
  1693  0392                     	;# 
  1694  0393                     	;# 
  1695  0394                     	;# 
  1696  0395                     	;# 
  1697  0396                     	;# 
  1698  0397                     	;# 
  1699  0398                     	;# 
  1700  0399                     	;# 
  1701  039D                     	;# 
  1702  039E                     	;# 
  1703  039F                     	;# 
  1704  0415                     	;# 
  1705  0416                     	;# 
  1706  0417                     	;# 
  1707  041C                     	;# 
  1708  041D                     	;# 
  1709  041E                     	;# 
  1710  0498                     	;# 
  1711  0498                     	;# 
  1712  0499                     	;# 
  1713  049A                     	;# 
  1714  049B                     	;# 
  1715  049B                     	;# 
  1716  049C                     	;# 
  1717  049D                     	;# 
  1718  049E                     	;# 
  1719  049F                     	;# 
  1720  0511                     	;# 
  1721  0515                     	;# 
  1722  0617                     	;# 
  1723  0618                     	;# 
  1724  0619                     	;# 
  1725  0619                     	;# 
  1726  061A                     	;# 
  1727  061B                     	;# 
  1728  061C                     	;# 
  1729  061C                     	;# 
  1730  0691                     	;# 
  1731  0692                     	;# 
  1732  0693                     	;# 
  1733  0694                     	;# 
  1734  0695                     	;# 
  1735  0696                     	;# 
  1736  0697                     	;# 
  1737  0698                     	;# 
  1738  0699                     	;# 
  1739  069A                     	;# 
  1740  069B                     	;# 
  1741  069C                     	;# 
  1742  069D                     	;# 
  1743  069E                     	;# 
  1744  069F                     	;# 
  1745  0E0F                     	;# 
  1746  0E10                     	;# 
  1747  0E11                     	;# 
  1748  0E12                     	;# 
  1749  0E13                     	;# 
  1750  0E14                     	;# 
  1751  0E15                     	;# 
  1752  0E17                     	;# 
  1753  0E20                     	;# 
  1754  0E21                     	;# 
  1755  0E22                     	;# 
  1756  0E24                     	;# 
  1757  0E25                     	;# 
  1758  0E28                     	;# 
  1759  0E29                     	;# 
  1760  0E2A                     	;# 
  1761  0E2B                     	;# 
  1762  0E90                     	;# 
  1763  0E91                     	;# 
  1764  0E92                     	;# 
  1765  0E93                     	;# 
  1766  0E94                     	;# 
  1767  0E95                     	;# 
  1768  0E96                     	;# 
  1769  0E97                     	;# 
  1770  0E98                     	;# 
  1771  0E99                     	;# 
  1772  0E9A                     	;# 
  1773  0E9B                     	;# 
  1774  0E9C                     	;# 
  1775  0E9D                     	;# 
  1776  0E9E                     	;# 
  1777  0E9F                     	;# 
  1778  0EA0                     	;# 
  1779  0EA1                     	;# 
  1780  0EA2                     	;# 
  1781  0EA3                     	;# 
  1782  0EA4                     	;# 
  1783  0EA5                     	;# 
  1784  0EA6                     	;# 
  1785  0EA7                     	;# 
  1786  0F0F                     	;# 
  1787  0F10                     	;# 
  1788  0F11                     	;# 
  1789  0F12                     	;# 
  1790  0F13                     	;# 
  1791  0F14                     	;# 
  1792  0F15                     	;# 
  1793  0F16                     	;# 
  1794  0F17                     	;# 
  1795  0F18                     	;# 
  1796  0F19                     	;# 
  1797  0F1A                     	;# 
  1798  0F1B                     	;# 
  1799  0F1C                     	;# 
  1800  0F1D                     	;# 
  1801  0F1E                     	;# 
  1802  0F1F                     	;# 
  1803  0F20                     	;# 
  1804  0F21                     	;# 
  1805  0F22                     	;# 
  1806  0F23                     	;# 
  1807  0F24                     	;# 
  1808  0F25                     	;# 
  1809  0F26                     	;# 
  1810  0F27                     	;# 
  1811  0F28                     	;# 
  1812  0F29                     	;# 
  1813  0F2A                     	;# 
  1814  0F2B                     	;# 
  1815  0F2C                     	;# 
  1816  0F2D                     	;# 
  1817  0F2E                     	;# 
  1818  0F2F                     	;# 
  1819  0F30                     	;# 
  1820  0F31                     	;# 
  1821  0F32                     	;# 
  1822  0F33                     	;# 
  1823  0F34                     	;# 
  1824  0F35                     	;# 
  1825  0F36                     	;# 
  1826  0F37                     	;# 
  1827  0FE4                     	;# 
  1828  0FE5                     	;# 
  1829  0FE6                     	;# 
  1830  0FE7                     	;# 
  1831  0FE8                     	;# 
  1832  0FE9                     	;# 
  1833  0FEA                     	;# 
  1834  0FEB                     	;# 
  1835  0FED                     	;# 
  1836  0FEE                     	;# 
  1837  0FEF                     	;# 
  1838  0000                     	;# 
  1839  0001                     	;# 
  1840  0002                     	;# 
  1841  0003                     	;# 
  1842  0004                     	;# 
  1843  0005                     	;# 
  1844  0006                     	;# 
  1845  0007                     	;# 
  1846  0008                     	;# 
  1847  0009                     	;# 
  1848  000A                     	;# 
  1849  000B                     	;# 
  1850  000C                     	;# 
  1851  000D                     	;# 
  1852  000E                     	;# 
  1853  0010                     	;# 
  1854  0011                     	;# 
  1855  0012                     	;# 
  1856  0013                     	;# 
  1857  0015                     	;# 
  1858  0016                     	;# 
  1859  0016                     	;# 
  1860  0017                     	;# 
  1861  0018                     	;# 
  1862  0019                     	;# 
  1863  001A                     	;# 
  1864  001B                     	;# 
  1865  001C                     	;# 
  1866  008C                     	;# 
  1867  008D                     	;# 
  1868  008E                     	;# 
  1869  0090                     	;# 
  1870  0091                     	;# 
  1871  0092                     	;# 
  1872  0093                     	;# 
  1873  0095                     	;# 
  1874  0096                     	;# 
  1875  0097                     	;# 
  1876  0098                     	;# 
  1877  0099                     	;# 
  1878  009A                     	;# 
  1879  009B                     	;# 
  1880  009B                     	;# 
  1881  009C                     	;# 
  1882  009D                     	;# 
  1883  009E                     	;# 
  1884  009F                     	;# 
  1885  010C                     	;# 
  1886  010D                     	;# 
  1887  010E                     	;# 
  1888  0111                     	;# 
  1889  0112                     	;# 
  1890  0113                     	;# 
  1891  0114                     	;# 
  1892  0115                     	;# 
  1893  0116                     	;# 
  1894  0117                     	;# 
  1895  0118                     	;# 
  1896  0119                     	;# 
  1897  011A                     	;# 
  1898  011B                     	;# 
  1899  011B                     	;# 
  1900  011C                     	;# 
  1901  018C                     	;# 
  1902  018D                     	;# 
  1903  018E                     	;# 
  1904  0191                     	;# 
  1905  0191                     	;# 
  1906  0192                     	;# 
  1907  0193                     	;# 
  1908  0193                     	;# 
  1909  0194                     	;# 
  1910  0195                     	;# 
  1911  0196                     	;# 
  1912  0199                     	;# 
  1913  0199                     	;# 
  1914  0199                     	;# 
  1915  019A                     	;# 
  1916  019A                     	;# 
  1917  019A                     	;# 
  1918  019B                     	;# 
  1919  019B                     	;# 
  1920  019B                     	;# 
  1921  019B                     	;# 
  1922  019B                     	;# 
  1923  019C                     	;# 
  1924  019C                     	;# 
  1925  019C                     	;# 
  1926  019D                     	;# 
  1927  019D                     	;# 
  1928  019D                     	;# 
  1929  019E                     	;# 
  1930  019E                     	;# 
  1931  019E                     	;# 
  1932  019F                     	;# 
  1933  019F                     	;# 
  1934  019F                     	;# 
  1935  019F                     	;# 
  1936  019F                     	;# 
  1937  020C                     	;# 
  1938  020D                     	;# 
  1939  020E                     	;# 
  1940  0210                     	;# 
  1941  0211                     	;# 
  1942  0211                     	;# 
  1943  0212                     	;# 
  1944  0212                     	;# 
  1945  0213                     	;# 
  1946  0213                     	;# 
  1947  0214                     	;# 
  1948  0214                     	;# 
  1949  0215                     	;# 
  1950  0215                     	;# 
  1951  0215                     	;# 
  1952  0215                     	;# 
  1953  0216                     	;# 
  1954  0216                     	;# 
  1955  0217                     	;# 
  1956  0217                     	;# 
  1957  028C                     	;# 
  1958  028D                     	;# 
  1959  028E                     	;# 
  1960  0291                     	;# 
  1961  0291                     	;# 
  1962  0292                     	;# 
  1963  0293                     	;# 
  1964  0293                     	;# 
  1965  0298                     	;# 
  1966  0298                     	;# 
  1967  0299                     	;# 
  1968  029A                     	;# 
  1969  029A                     	;# 
  1970  029E                     	;# 
  1971  030C                     	;# 
  1972  030D                     	;# 
  1973  030E                     	;# 
  1974  038C                     	;# 
  1975  038D                     	;# 
  1976  038E                     	;# 
  1977  0390                     	;# 
  1978  0391                     	;# 
  1979  0392                     	;# 
  1980  0393                     	;# 
  1981  0394                     	;# 
  1982  0395                     	;# 
  1983  0396                     	;# 
  1984  0397                     	;# 
  1985  0398                     	;# 
  1986  0399                     	;# 
  1987  039D                     	;# 
  1988  039E                     	;# 
  1989  039F                     	;# 
  1990  0415                     	;# 
  1991  0416                     	;# 
  1992  0417                     	;# 
  1993  041C                     	;# 
  1994  041D                     	;# 
  1995  041E                     	;# 
  1996  0498                     	;# 
  1997  0498                     	;# 
  1998  0499                     	;# 
  1999  049A                     	;# 
  2000  049B                     	;# 
  2001  049B                     	;# 
  2002  049C                     	;# 
  2003  049D                     	;# 
  2004  049E                     	;# 
  2005  049F                     	;# 
  2006  0511                     	;# 
  2007  0515                     	;# 
  2008  0617                     	;# 
  2009  0618                     	;# 
  2010  0619                     	;# 
  2011  0619                     	;# 
  2012  061A                     	;# 
  2013  061B                     	;# 
  2014  061C                     	;# 
  2015  061C                     	;# 
  2016  0691                     	;# 
  2017  0692                     	;# 
  2018  0693                     	;# 
  2019  0694                     	;# 
  2020  0695                     	;# 
  2021  0696                     	;# 
  2022  0697                     	;# 
  2023  0698                     	;# 
  2024  0699                     	;# 
  2025  069A                     	;# 
  2026  069B                     	;# 
  2027  069C                     	;# 
  2028  069D                     	;# 
  2029  069E                     	;# 
  2030  069F                     	;# 
  2031  0E0F                     	;# 
  2032  0E10                     	;# 
  2033  0E11                     	;# 
  2034  0E12                     	;# 
  2035  0E13                     	;# 
  2036  0E14                     	;# 
  2037  0E15                     	;# 
  2038  0E17                     	;# 
  2039  0E20                     	;# 
  2040  0E21                     	;# 
  2041  0E22                     	;# 
  2042  0E24                     	;# 
  2043  0E25                     	;# 
  2044  0E28                     	;# 
  2045  0E29                     	;# 
  2046  0E2A                     	;# 
  2047  0E2B                     	;# 
  2048  0E90                     	;# 
  2049  0E91                     	;# 
  2050  0E92                     	;# 
  2051  0E93                     	;# 
  2052  0E94                     	;# 
  2053  0E95                     	;# 
  2054  0E96                     	;# 
  2055  0E97                     	;# 
  2056  0E98                     	;# 
  2057  0E99                     	;# 
  2058  0E9A                     	;# 
  2059  0E9B                     	;# 
  2060  0E9C                     	;# 
  2061  0E9D                     	;# 
  2062  0E9E                     	;# 
  2063  0E9F                     	;# 
  2064  0EA0                     	;# 
  2065  0EA1                     	;# 
  2066  0EA2                     	;# 
  2067  0EA3                     	;# 
  2068  0EA4                     	;# 
  2069  0EA5                     	;# 
  2070  0EA6                     	;# 
  2071  0EA7                     	;# 
  2072  0F0F                     	;# 
  2073  0F10                     	;# 
  2074  0F11                     	;# 
  2075  0F12                     	;# 
  2076  0F13                     	;# 
  2077  0F14                     	;# 
  2078  0F15                     	;# 
  2079  0F16                     	;# 
  2080  0F17                     	;# 
  2081  0F18                     	;# 
  2082  0F19                     	;# 
  2083  0F1A                     	;# 
  2084  0F1B                     	;# 
  2085  0F1C                     	;# 
  2086  0F1D                     	;# 
  2087  0F1E                     	;# 
  2088  0F1F                     	;# 
  2089  0F20                     	;# 
  2090  0F21                     	;# 
  2091  0F22                     	;# 
  2092  0F23                     	;# 
  2093  0F24                     	;# 
  2094  0F25                     	;# 
  2095  0F26                     	;# 
  2096  0F27                     	;# 
  2097  0F28                     	;# 
  2098  0F29                     	;# 
  2099  0F2A                     	;# 
  2100  0F2B                     	;# 
  2101  0F2C                     	;# 
  2102  0F2D                     	;# 
  2103  0F2E                     	;# 
  2104  0F2F                     	;# 
  2105  0F30                     	;# 
  2106  0F31                     	;# 
  2107  0F32                     	;# 
  2108  0F33                     	;# 
  2109  0F34                     	;# 
  2110  0F35                     	;# 
  2111  0F36                     	;# 
  2112  0F37                     	;# 
  2113  0FE4                     	;# 
  2114  0FE5                     	;# 
  2115  0FE6                     	;# 
  2116  0FE7                     	;# 
  2117  0FE8                     	;# 
  2118  0FE9                     	;# 
  2119  0FEA                     	;# 
  2120  0FEB                     	;# 
  2121  0FED                     	;# 
  2122  0FEE                     	;# 
  2123  0FEF                     	;# 
  2124  0000                     	;# 
  2125  0001                     	;# 
  2126  0002                     	;# 
  2127  0003                     	;# 
  2128  0004                     	;# 
  2129  0005                     	;# 
  2130  0006                     	;# 
  2131  0007                     	;# 
  2132  0008                     	;# 
  2133  0009                     	;# 
  2134  000A                     	;# 
  2135  000B                     	;# 
  2136  000C                     	;# 
  2137  000D                     	;# 
  2138  000E                     	;# 
  2139  0010                     	;# 
  2140  0011                     	;# 
  2141  0012                     	;# 
  2142  0013                     	;# 
  2143  0015                     	;# 
  2144  0016                     	;# 
  2145  0016                     	;# 
  2146  0017                     	;# 
  2147  0018                     	;# 
  2148  0019                     	;# 
  2149  001A                     	;# 
  2150  001B                     	;# 
  2151  001C                     	;# 
  2152  008C                     	;# 
  2153  008D                     	;# 
  2154  008E                     	;# 
  2155  0090                     	;# 
  2156  0091                     	;# 
  2157  0092                     	;# 
  2158  0093                     	;# 
  2159  0095                     	;# 
  2160  0096                     	;# 
  2161  0097                     	;# 
  2162  0098                     	;# 
  2163  0099                     	;# 
  2164  009A                     	;# 
  2165  009B                     	;# 
  2166  009B                     	;# 
  2167  009C                     	;# 
  2168  009D                     	;# 
  2169  009E                     	;# 
  2170  009F                     	;# 
  2171  010C                     	;# 
  2172  010D                     	;# 
  2173  010E                     	;# 
  2174  0111                     	;# 
  2175  0112                     	;# 
  2176  0113                     	;# 
  2177  0114                     	;# 
  2178  0115                     	;# 
  2179  0116                     	;# 
  2180  0117                     	;# 
  2181  0118                     	;# 
  2182  0119                     	;# 
  2183  011A                     	;# 
  2184  011B                     	;# 
  2185  011B                     	;# 
  2186  011C                     	;# 
  2187  018C                     	;# 
  2188  018D                     	;# 
  2189  018E                     	;# 
  2190  0191                     	;# 
  2191  0191                     	;# 
  2192  0192                     	;# 
  2193  0193                     	;# 
  2194  0193                     	;# 
  2195  0194                     	;# 
  2196  0195                     	;# 
  2197  0196                     	;# 
  2198  0199                     	;# 
  2199  0199                     	;# 
  2200  0199                     	;# 
  2201  019A                     	;# 
  2202  019A                     	;# 
  2203  019A                     	;# 
  2204  019B                     	;# 
  2205  019B                     	;# 
  2206  019B                     	;# 
  2207  019B                     	;# 
  2208  019B                     	;# 
  2209  019C                     	;# 
  2210  019C                     	;# 
  2211  019C                     	;# 
  2212  019D                     	;# 
  2213  019D                     	;# 
  2214  019D                     	;# 
  2215  019E                     	;# 
  2216  019E                     	;# 
  2217  019E                     	;# 
  2218  019F                     	;# 
  2219  019F                     	;# 
  2220  019F                     	;# 
  2221  019F                     	;# 
  2222  019F                     	;# 
  2223  020C                     	;# 
  2224  020D                     	;# 
  2225  020E                     	;# 
  2226  0210                     	;# 
  2227  0211                     	;# 
  2228  0211                     	;# 
  2229  0212                     	;# 
  2230  0212                     	;# 
  2231  0213                     	;# 
  2232  0213                     	;# 
  2233  0214                     	;# 
  2234  0214                     	;# 
  2235  0215                     	;# 
  2236  0215                     	;# 
  2237  0215                     	;# 
  2238  0215                     	;# 
  2239  0216                     	;# 
  2240  0216                     	;# 
  2241  0217                     	;# 
  2242  0217                     	;# 
  2243  028C                     	;# 
  2244  028D                     	;# 
  2245  028E                     	;# 
  2246  0291                     	;# 
  2247  0291                     	;# 
  2248  0292                     	;# 
  2249  0293                     	;# 
  2250  0293                     	;# 
  2251  0298                     	;# 
  2252  0298                     	;# 
  2253  0299                     	;# 
  2254  029A                     	;# 
  2255  029A                     	;# 
  2256  029E                     	;# 
  2257  030C                     	;# 
  2258  030D                     	;# 
  2259  030E                     	;# 
  2260  038C                     	;# 
  2261  038D                     	;# 
  2262  038E                     	;# 
  2263  0390                     	;# 
  2264  0391                     	;# 
  2265  0392                     	;# 
  2266  0393                     	;# 
  2267  0394                     	;# 
  2268  0395                     	;# 
  2269  0396                     	;# 
  2270  0397                     	;# 
  2271  0398                     	;# 
  2272  0399                     	;# 
  2273  039D                     	;# 
  2274  039E                     	;# 
  2275  039F                     	;# 
  2276  0415                     	;# 
  2277  0416                     	;# 
  2278  0417                     	;# 
  2279  041C                     	;# 
  2280  041D                     	;# 
  2281  041E                     	;# 
  2282  0498                     	;# 
  2283  0498                     	;# 
  2284  0499                     	;# 
  2285  049A                     	;# 
  2286  049B                     	;# 
  2287  049B                     	;# 
  2288  049C                     	;# 
  2289  049D                     	;# 
  2290  049E                     	;# 
  2291  049F                     	;# 
  2292  0511                     	;# 
  2293  0515                     	;# 
  2294  0617                     	;# 
  2295  0618                     	;# 
  2296  0619                     	;# 
  2297  0619                     	;# 
  2298  061A                     	;# 
  2299  061B                     	;# 
  2300  061C                     	;# 
  2301  061C                     	;# 
  2302  0691                     	;# 
  2303  0692                     	;# 
  2304  0693                     	;# 
  2305  0694                     	;# 
  2306  0695                     	;# 
  2307  0696                     	;# 
  2308  0697                     	;# 
  2309  0698                     	;# 
  2310  0699                     	;# 
  2311  069A                     	;# 
  2312  069B                     	;# 
  2313  069C                     	;# 
  2314  069D                     	;# 
  2315  069E                     	;# 
  2316  069F                     	;# 
  2317  0E0F                     	;# 
  2318  0E10                     	;# 
  2319  0E11                     	;# 
  2320  0E12                     	;# 
  2321  0E13                     	;# 
  2322  0E14                     	;# 
  2323  0E15                     	;# 
  2324  0E17                     	;# 
  2325  0E20                     	;# 
  2326  0E21                     	;# 
  2327  0E22                     	;# 
  2328  0E24                     	;# 
  2329  0E25                     	;# 
  2330  0E28                     	;# 
  2331  0E29                     	;# 
  2332  0E2A                     	;# 
  2333  0E2B                     	;# 
  2334  0E90                     	;# 
  2335  0E91                     	;# 
  2336  0E92                     	;# 
  2337  0E93                     	;# 
  2338  0E94                     	;# 
  2339  0E95                     	;# 
  2340  0E96                     	;# 
  2341  0E97                     	;# 
  2342  0E98                     	;# 
  2343  0E99                     	;# 
  2344  0E9A                     	;# 
  2345  0E9B                     	;# 
  2346  0E9C                     	;# 
  2347  0E9D                     	;# 
  2348  0E9E                     	;# 
  2349  0E9F                     	;# 
  2350  0EA0                     	;# 
  2351  0EA1                     	;# 
  2352  0EA2                     	;# 
  2353  0EA3                     	;# 
  2354  0EA4                     	;# 
  2355  0EA5                     	;# 
  2356  0EA6                     	;# 
  2357  0EA7                     	;# 
  2358  0F0F                     	;# 
  2359  0F10                     	;# 
  2360  0F11                     	;# 
  2361  0F12                     	;# 
  2362  0F13                     	;# 
  2363  0F14                     	;# 
  2364  0F15                     	;# 
  2365  0F16                     	;# 
  2366  0F17                     	;# 
  2367  0F18                     	;# 
  2368  0F19                     	;# 
  2369  0F1A                     	;# 
  2370  0F1B                     	;# 
  2371  0F1C                     	;# 
  2372  0F1D                     	;# 
  2373  0F1E                     	;# 
  2374  0F1F                     	;# 
  2375  0F20                     	;# 
  2376  0F21                     	;# 
  2377  0F22                     	;# 
  2378  0F23                     	;# 
  2379  0F24                     	;# 
  2380  0F25                     	;# 
  2381  0F26                     	;# 
  2382  0F27                     	;# 
  2383  0F28                     	;# 
  2384  0F29                     	;# 
  2385  0F2A                     	;# 
  2386  0F2B                     	;# 
  2387  0F2C                     	;# 
  2388  0F2D                     	;# 
  2389  0F2E                     	;# 
  2390  0F2F                     	;# 
  2391  0F30                     	;# 
  2392  0F31                     	;# 
  2393  0F32                     	;# 
  2394  0F33                     	;# 
  2395  0F34                     	;# 
  2396  0F35                     	;# 
  2397  0F36                     	;# 
  2398  0F37                     	;# 
  2399  0FE4                     	;# 
  2400  0FE5                     	;# 
  2401  0FE6                     	;# 
  2402  0FE7                     	;# 
  2403  0FE8                     	;# 
  2404  0FE9                     	;# 
  2405  0FEA                     	;# 
  2406  0FEB                     	;# 
  2407  0FED                     	;# 
  2408  0FEE                     	;# 
  2409  0FEF                     	;# 
  2410  0000                     	;# 
  2411  0001                     	;# 
  2412  0002                     	;# 
  2413  0003                     	;# 
  2414  0004                     	;# 
  2415  0005                     	;# 
  2416  0006                     	;# 
  2417  0007                     	;# 
  2418  0008                     	;# 
  2419  0009                     	;# 
  2420  000A                     	;# 
  2421  000B                     	;# 
  2422  000C                     	;# 
  2423  000D                     	;# 
  2424  000E                     	;# 
  2425  0010                     	;# 
  2426  0011                     	;# 
  2427  0012                     	;# 
  2428  0013                     	;# 
  2429  0015                     	;# 
  2430  0016                     	;# 
  2431  0016                     	;# 
  2432  0017                     	;# 
  2433  0018                     	;# 
  2434  0019                     	;# 
  2435  001A                     	;# 
  2436  001B                     	;# 
  2437  001C                     	;# 
  2438  008C                     	;# 
  2439  008D                     	;# 
  2440  008E                     	;# 
  2441  0090                     	;# 
  2442  0091                     	;# 
  2443  0092                     	;# 
  2444  0093                     	;# 
  2445  0095                     	;# 
  2446  0096                     	;# 
  2447  0097                     	;# 
  2448  0098                     	;# 
  2449  0099                     	;# 
  2450  009A                     	;# 
  2451  009B                     	;# 
  2452  009B                     	;# 
  2453  009C                     	;# 
  2454  009D                     	;# 
  2455  009E                     	;# 
  2456  009F                     	;# 
  2457  010C                     	;# 
  2458  010D                     	;# 
  2459  010E                     	;# 
  2460  0111                     	;# 
  2461  0112                     	;# 
  2462  0113                     	;# 
  2463  0114                     	;# 
  2464  0115                     	;# 
  2465  0116                     	;# 
  2466  0117                     	;# 
  2467  0118                     	;# 
  2468  0119                     	;# 
  2469  011A                     	;# 
  2470  011B                     	;# 
  2471  011B                     	;# 
  2472  011C                     	;# 
  2473  018C                     	;# 
  2474  018D                     	;# 
  2475  018E                     	;# 
  2476  0191                     	;# 
  2477  0191                     	;# 
  2478  0192                     	;# 
  2479  0193                     	;# 
  2480  0193                     	;# 
  2481  0194                     	;# 
  2482  0195                     	;# 
  2483  0196                     	;# 
  2484  0199                     	;# 
  2485  0199                     	;# 
  2486  0199                     	;# 
  2487  019A                     	;# 
  2488  019A                     	;# 
  2489  019A                     	;# 
  2490  019B                     	;# 
  2491  019B                     	;# 
  2492  019B                     	;# 
  2493  019B                     	;# 
  2494  019B                     	;# 
  2495  019C                     	;# 
  2496  019C                     	;# 
  2497  019C                     	;# 
  2498  019D                     	;# 
  2499  019D                     	;# 
  2500  019D                     	;# 
  2501  019E                     	;# 
  2502  019E                     	;# 
  2503  019E                     	;# 
  2504  019F                     	;# 
  2505  019F                     	;# 
  2506  019F                     	;# 
  2507  019F                     	;# 
  2508  019F                     	;# 
  2509  020C                     	;# 
  2510  020D                     	;# 
  2511  020E                     	;# 
  2512  0210                     	;# 
  2513  0211                     	;# 
  2514  0211                     	;# 
  2515  0212                     	;# 
  2516  0212                     	;# 
  2517  0213                     	;# 
  2518  0213                     	;# 
  2519  0214                     	;# 
  2520  0214                     	;# 
  2521  0215                     	;# 
  2522  0215                     	;# 
  2523  0215                     	;# 
  2524  0215                     	;# 
  2525  0216                     	;# 
  2526  0216                     	;# 
  2527  0217                     	;# 
  2528  0217                     	;# 
  2529  028C                     	;# 
  2530  028D                     	;# 
  2531  028E                     	;# 
  2532  0291                     	;# 
  2533  0291                     	;# 
  2534  0292                     	;# 
  2535  0293                     	;# 
  2536  0293                     	;# 
  2537  0298                     	;# 
  2538  0298                     	;# 
  2539  0299                     	;# 
  2540  029A                     	;# 
  2541  029A                     	;# 
  2542  029E                     	;# 
  2543  030C                     	;# 
  2544  030D                     	;# 
  2545  030E                     	;# 
  2546  038C                     	;# 
  2547  038D                     	;# 
  2548  038E                     	;# 
  2549  0390                     	;# 
  2550  0391                     	;# 
  2551  0392                     	;# 
  2552  0393                     	;# 
  2553  0394                     	;# 
  2554  0395                     	;# 
  2555  0396                     	;# 
  2556  0397                     	;# 
  2557  0398                     	;# 
  2558  0399                     	;# 
  2559  039D                     	;# 
  2560  039E                     	;# 
  2561  039F                     	;# 
  2562  0415                     	;# 
  2563  0416                     	;# 
  2564  0417                     	;# 
  2565  041C                     	;# 
  2566  041D                     	;# 
  2567  041E                     	;# 
  2568  0498                     	;# 
  2569  0498                     	;# 
  2570  0499                     	;# 
  2571  049A                     	;# 
  2572  049B                     	;# 
  2573  049B                     	;# 
  2574  049C                     	;# 
  2575  049D                     	;# 
  2576  049E                     	;# 
  2577  049F                     	;# 
  2578  0511                     	;# 
  2579  0515                     	;# 
  2580  0617                     	;# 
  2581  0618                     	;# 
  2582  0619                     	;# 
  2583  0619                     	;# 
  2584  061A                     	;# 
  2585  061B                     	;# 
  2586  061C                     	;# 
  2587  061C                     	;# 
  2588  0691                     	;# 
  2589  0692                     	;# 
  2590  0693                     	;# 
  2591  0694                     	;# 
  2592  0695                     	;# 
  2593  0696                     	;# 
  2594  0697                     	;# 
  2595  0698                     	;# 
  2596  0699                     	;# 
  2597  069A                     	;# 
  2598  069B                     	;# 
  2599  069C                     	;# 
  2600  069D                     	;# 
  2601  069E                     	;# 
  2602  069F                     	;# 
  2603  0E0F                     	;# 
  2604  0E10                     	;# 
  2605  0E11                     	;# 
  2606  0E12                     	;# 
  2607  0E13                     	;# 
  2608  0E14                     	;# 
  2609  0E15                     	;# 
  2610  0E17                     	;# 
  2611  0E20                     	;# 
  2612  0E21                     	;# 
  2613  0E22                     	;# 
  2614  0E24                     	;# 
  2615  0E25                     	;# 
  2616  0E28                     	;# 
  2617  0E29                     	;# 
  2618  0E2A                     	;# 
  2619  0E2B                     	;# 
  2620  0E90                     	;# 
  2621  0E91                     	;# 
  2622  0E92                     	;# 
  2623  0E93                     	;# 
  2624  0E94                     	;# 
  2625  0E95                     	;# 
  2626  0E96                     	;# 
  2627  0E97                     	;# 
  2628  0E98                     	;# 
  2629  0E99                     	;# 
  2630  0E9A                     	;# 
  2631  0E9B                     	;# 
  2632  0E9C                     	;# 
  2633  0E9D                     	;# 
  2634  0E9E                     	;# 
  2635  0E9F                     	;# 
  2636  0EA0                     	;# 
  2637  0EA1                     	;# 
  2638  0EA2                     	;# 
  2639  0EA3                     	;# 
  2640  0EA4                     	;# 
  2641  0EA5                     	;# 
  2642  0EA6                     	;# 
  2643  0EA7                     	;# 
  2644  0F0F                     	;# 
  2645  0F10                     	;# 
  2646  0F11                     	;# 
  2647  0F12                     	;# 
  2648  0F13                     	;# 
  2649  0F14                     	;# 
  2650  0F15                     	;# 
  2651  0F16                     	;# 
  2652  0F17                     	;# 
  2653  0F18                     	;# 
  2654  0F19                     	;# 
  2655  0F1A                     	;# 
  2656  0F1B                     	;# 
  2657  0F1C                     	;# 
  2658  0F1D                     	;# 
  2659  0F1E                     	;# 
  2660  0F1F                     	;# 
  2661  0F20                     	;# 
  2662  0F21                     	;# 
  2663  0F22                     	;# 
  2664  0F23                     	;# 
  2665  0F24                     	;# 
  2666  0F25                     	;# 
  2667  0F26                     	;# 
  2668  0F27                     	;# 
  2669  0F28                     	;# 
  2670  0F29                     	;# 
  2671  0F2A                     	;# 
  2672  0F2B                     	;# 
  2673  0F2C                     	;# 
  2674  0F2D                     	;# 
  2675  0F2E                     	;# 
  2676  0F2F                     	;# 
  2677  0F30                     	;# 
  2678  0F31                     	;# 
  2679  0F32                     	;# 
  2680  0F33                     	;# 
  2681  0F34                     	;# 
  2682  0F35                     	;# 
  2683  0F36                     	;# 
  2684  0F37                     	;# 
  2685  0FE4                     	;# 
  2686  0FE5                     	;# 
  2687  0FE6                     	;# 
  2688  0FE7                     	;# 
  2689  0FE8                     	;# 
  2690  0FE9                     	;# 
  2691  0FEA                     	;# 
  2692  0FEB                     	;# 
  2693  0FED                     	;# 
  2694  0FEE                     	;# 
  2695  0FEF                     	;# 
  2696  0000                     	;# 
  2697  0001                     	;# 
  2698  0002                     	;# 
  2699  0003                     	;# 
  2700  0004                     	;# 
  2701  0005                     	;# 
  2702  0006                     	;# 
  2703  0007                     	;# 
  2704  0008                     	;# 
  2705  0009                     	;# 
  2706  000A                     	;# 
  2707  000B                     	;# 
  2708  000C                     	;# 
  2709  000D                     	;# 
  2710  000E                     	;# 
  2711  0010                     	;# 
  2712  0011                     	;# 
  2713  0012                     	;# 
  2714  0013                     	;# 
  2715  0015                     	;# 
  2716  0016                     	;# 
  2717  0016                     	;# 
  2718  0017                     	;# 
  2719  0018                     	;# 
  2720  0019                     	;# 
  2721  001A                     	;# 
  2722  001B                     	;# 
  2723  001C                     	;# 
  2724  008C                     	;# 
  2725  008D                     	;# 
  2726  008E                     	;# 
  2727  0090                     	;# 
  2728  0091                     	;# 
  2729  0092                     	;# 
  2730  0093                     	;# 
  2731  0095                     	;# 
  2732  0096                     	;# 
  2733  0097                     	;# 
  2734  0098                     	;# 
  2735  0099                     	;# 
  2736  009A                     	;# 
  2737  009B                     	;# 
  2738  009B                     	;# 
  2739  009C                     	;# 
  2740  009D                     	;# 
  2741  009E                     	;# 
  2742  009F                     	;# 
  2743  010C                     	;# 
  2744  010D                     	;# 
  2745  010E                     	;# 
  2746  0111                     	;# 
  2747  0112                     	;# 
  2748  0113                     	;# 
  2749  0114                     	;# 
  2750  0115                     	;# 
  2751  0116                     	;# 
  2752  0117                     	;# 
  2753  0118                     	;# 
  2754  0119                     	;# 
  2755  011A                     	;# 
  2756  011B                     	;# 
  2757  011B                     	;# 
  2758  011C                     	;# 
  2759  018C                     	;# 
  2760  018D                     	;# 
  2761  018E                     	;# 
  2762  0191                     	;# 
  2763  0191                     	;# 
  2764  0192                     	;# 
  2765  0193                     	;# 
  2766  0193                     	;# 
  2767  0194                     	;# 
  2768  0195                     	;# 
  2769  0196                     	;# 
  2770  0199                     	;# 
  2771  0199                     	;# 
  2772  0199                     	;# 
  2773  019A                     	;# 
  2774  019A                     	;# 
  2775  019A                     	;# 
  2776  019B                     	;# 
  2777  019B                     	;# 
  2778  019B                     	;# 
  2779  019B                     	;# 
  2780  019B                     	;# 
  2781  019C                     	;# 
  2782  019C                     	;# 
  2783  019C                     	;# 
  2784  019D                     	;# 
  2785  019D                     	;# 
  2786  019D                     	;# 
  2787  019E                     	;# 
  2788  019E                     	;# 
  2789  019E                     	;# 
  2790  019F                     	;# 
  2791  019F                     	;# 
  2792  019F                     	;# 
  2793  019F                     	;# 
  2794  019F                     	;# 
  2795  020C                     	;# 
  2796  020D                     	;# 
  2797  020E                     	;# 
  2798  0210                     	;# 
  2799  0211                     	;# 
  2800  0211                     	;# 
  2801  0212                     	;# 
  2802  0212                     	;# 
  2803  0213                     	;# 
  2804  0213                     	;# 
  2805  0214                     	;# 
  2806  0214                     	;# 
  2807  0215                     	;# 
  2808  0215                     	;# 
  2809  0215                     	;# 
  2810  0215                     	;# 
  2811  0216                     	;# 
  2812  0216                     	;# 
  2813  0217                     	;# 
  2814  0217                     	;# 
  2815  028C                     	;# 
  2816  028D                     	;# 
  2817  028E                     	;# 
  2818  0291                     	;# 
  2819  0291                     	;# 
  2820  0292                     	;# 
  2821  0293                     	;# 
  2822  0293                     	;# 
  2823  0298                     	;# 
  2824  0298                     	;# 
  2825  0299                     	;# 
  2826  029A                     	;# 
  2827  029A                     	;# 
  2828  029E                     	;# 
  2829  030C                     	;# 
  2830  030D                     	;# 
  2831  030E                     	;# 
  2832  038C                     	;# 
  2833  038D                     	;# 
  2834  038E                     	;# 
  2835  0390                     	;# 
  2836  0391                     	;# 
  2837  0392                     	;# 
  2838  0393                     	;# 
  2839  0394                     	;# 
  2840  0395                     	;# 
  2841  0396                     	;# 
  2842  0397                     	;# 
  2843  0398                     	;# 
  2844  0399                     	;# 
  2845  039D                     	;# 
  2846  039E                     	;# 
  2847  039F                     	;# 
  2848  0415                     	;# 
  2849  0416                     	;# 
  2850  0417                     	;# 
  2851  041C                     	;# 
  2852  041D                     	;# 
  2853  041E                     	;# 
  2854  0498                     	;# 
  2855  0498                     	;# 
  2856  0499                     	;# 
  2857  049A                     	;# 
  2858  049B                     	;# 
  2859  049B                     	;# 
  2860  049C                     	;# 
  2861  049D                     	;# 
  2862  049E                     	;# 
  2863  049F                     	;# 
  2864  0511                     	;# 
  2865  0515                     	;# 
  2866  0617                     	;# 
  2867  0618                     	;# 
  2868  0619                     	;# 
  2869  0619                     	;# 
  2870  061A                     	;# 
  2871  061B                     	;# 
  2872  061C                     	;# 
  2873  061C                     	;# 
  2874  0691                     	;# 
  2875  0692                     	;# 
  2876  0693                     	;# 
  2877  0694                     	;# 
  2878  0695                     	;# 
  2879  0696                     	;# 
  2880  0697                     	;# 
  2881  0698                     	;# 
  2882  0699                     	;# 
  2883  069A                     	;# 
  2884  069B                     	;# 
  2885  069C                     	;# 
  2886  069D                     	;# 
  2887  069E                     	;# 
  2888  069F                     	;# 
  2889  0E0F                     	;# 
  2890  0E10                     	;# 
  2891  0E11                     	;# 
  2892  0E12                     	;# 
  2893  0E13                     	;# 
  2894  0E14                     	;# 
  2895  0E15                     	;# 
  2896  0E17                     	;# 
  2897  0E20                     	;# 
  2898  0E21                     	;# 
  2899  0E22                     	;# 
  2900  0E24                     	;# 
  2901  0E25                     	;# 
  2902  0E28                     	;# 
  2903  0E29                     	;# 
  2904  0E2A                     	;# 
  2905  0E2B                     	;# 
  2906  0E90                     	;# 
  2907  0E91                     	;# 
  2908  0E92                     	;# 
  2909  0E93                     	;# 
  2910  0E94                     	;# 
  2911  0E95                     	;# 
  2912  0E96                     	;# 
  2913  0E97                     	;# 
  2914  0E98                     	;# 
  2915  0E99                     	;# 
  2916  0E9A                     	;# 
  2917  0E9B                     	;# 
  2918  0E9C                     	;# 
  2919  0E9D                     	;# 
  2920  0E9E                     	;# 
  2921  0E9F                     	;# 
  2922  0EA0                     	;# 
  2923  0EA1                     	;# 
  2924  0EA2                     	;# 
  2925  0EA3                     	;# 
  2926  0EA4                     	;# 
  2927  0EA5                     	;# 
  2928  0EA6                     	;# 
  2929  0EA7                     	;# 
  2930  0F0F                     	;# 
  2931  0F10                     	;# 
  2932  0F11                     	;# 
  2933  0F12                     	;# 
  2934  0F13                     	;# 
  2935  0F14                     	;# 
  2936  0F15                     	;# 
  2937  0F16                     	;# 
  2938  0F17                     	;# 
  2939  0F18                     	;# 
  2940  0F19                     	;# 
  2941  0F1A                     	;# 
  2942  0F1B                     	;# 
  2943  0F1C                     	;# 
  2944  0F1D                     	;# 
  2945  0F1E                     	;# 
  2946  0F1F                     	;# 
  2947  0F20                     	;# 
  2948  0F21                     	;# 
  2949  0F22                     	;# 
  2950  0F23                     	;# 
  2951  0F24                     	;# 
  2952  0F25                     	;# 
  2953  0F26                     	;# 
  2954  0F27                     	;# 
  2955  0F28                     	;# 
  2956  0F29                     	;# 
  2957  0F2A                     	;# 
  2958  0F2B                     	;# 
  2959  0F2C                     	;# 
  2960  0F2D                     	;# 
  2961  0F2E                     	;# 
  2962  0F2F                     	;# 
  2963  0F30                     	;# 
  2964  0F31                     	;# 
  2965  0F32                     	;# 
  2966  0F33                     	;# 
  2967  0F34                     	;# 
  2968  0F35                     	;# 
  2969  0F36                     	;# 
  2970  0F37                     	;# 
  2971  0FE4                     	;# 
  2972  0FE5                     	;# 
  2973  0FE6                     	;# 
  2974  0FE7                     	;# 
  2975  0FE8                     	;# 
  2976  0FE9                     	;# 
  2977  0FEA                     	;# 
  2978  0FEB                     	;# 
  2979  0FED                     	;# 
  2980  0FEE                     	;# 
  2981  0FEF                     	;# 
  2982                           
  2983                           	psect	idataBANK0
  2984  07FE                     __pidataBANK0:
  2985                           
  2986                           ;initializer for _lcdOffset
  2987  07FE  3403               	retlw	3
  2988                           
  2989                           	psect	idataBANK1
  2990  061E                     __pidataBANK1:
  2991                           
  2992                           ;initializer for printHeart@F5851
  2993  061E  3400               	retlw	0
  2994  061F  340A               	retlw	10
  2995  0620  3415               	retlw	21
  2996  0621  3411               	retlw	17
  2997  0622  3411               	retlw	17
  2998  0623  340A               	retlw	10
  2999  0624  3404               	retlw	4
  3000  0625  3400               	retlw	0
  3001                           
  3002                           ;initializer for main@F5685
  3003  0626  3400               	retlw	0
  3004  0627  341F               	retlw	31
  3005  0628  341F               	retlw	31
  3006  0629  341F               	retlw	31
  3007  062A  341F               	retlw	31
  3008  062B  340E               	retlw	14
  3009  062C  3404               	retlw	4
  3010  062D  3400               	retlw	0
  3011                           
  3012                           ;initializer for main@F5683
  3013  062E  340E               	retlw	14
  3014  062F  3402               	retlw	2
  3015  0630  3407               	retlw	7
  3016  0631  341F               	retlw	31
  3017  0632  3407               	retlw	7
  3018  0633  3402               	retlw	2
  3019  0634  340E               	retlw	14
  3020  0635  3400               	retlw	0
  3021                           
  3022                           ;initializer for main@F5681
  3023  0636  3400               	retlw	0
  3024  0637  3400               	retlw	0
  3025  0638  340A               	retlw	10
  3026  0639  341F               	retlw	31
  3027  063A  341F               	retlw	31
  3028  063B  340E               	retlw	14
  3029  063C  3404               	retlw	4
  3030  063D  3400               	retlw	0
  3031                           
  3032                           ;initializer for main@F5679
  3033  063E  3400               	retlw	0
  3034  063F  3400               	retlw	0
  3035  0640  340E               	retlw	14
  3036  0641  341F               	retlw	31
  3037  0642  340E               	retlw	14
  3038  0643  3400               	retlw	0
  3039  0644  3400               	retlw	0
  3040  0645  3400               	retlw	0
  3041                           
  3042                           ;initializer for main@F5677
  3043  0646  3400               	retlw	0
  3044  0647  340A               	retlw	10
  3045  0648  3411               	retlw	17
  3046  0649  3415               	retlw	21
  3047  064A  3415               	retlw	21
  3048  064B  3411               	retlw	17
  3049  064C  340A               	retlw	10
  3050  064D  3400               	retlw	0
  3051                           
  3052                           ;initializer for main@F5675
  3053  064E  340E               	retlw	14
  3054  064F  3408               	retlw	8
  3055  0650  341C               	retlw	28
  3056  0651  341F               	retlw	31
  3057  0652  341C               	retlw	28
  3058  0653  3408               	retlw	8
  3059  0654  340E               	retlw	14
  3060  0655  3400               	retlw	0
  3061                           
  3062                           ;initializer for _shield2
  3063  0656  3404               	retlw	4
  3064                           
  3065                           ;initializer for _shield1
  3066  0657  3404               	retlw	4
  3067                           
  3068                           ;initializer for _health2
  3069  0658  3404               	retlw	4
  3070                           
  3071                           ;initializer for _health1
  3072  0659  3404               	retlw	4
  3073                           
  3074                           	psect	idataBANK2
  3075  0555                     __pidataBANK2:
  3076                           
  3077                           ;initializer for printShield@F5870
  3078  0555  3400               	retlw	0
  3079  0556  341F               	retlw	31
  3080  0557  3411               	retlw	17
  3081  0558  3411               	retlw	17
  3082  0559  341F               	retlw	31
  3083  055A  340E               	retlw	14
  3084  055B  3404               	retlw	4
  3085  055C  3400               	retlw	0
  3086                           
  3087                           ;initializer for printShield@F5868
  3088  055D  3400               	retlw	0
  3089  055E  341F               	retlw	31
  3090  055F  3411               	retlw	17
  3091  0560  3411               	retlw	17
  3092  0561  3411               	retlw	17
  3093  0562  340A               	retlw	10
  3094  0563  3404               	retlw	4
  3095  0564  3400               	retlw	0
  3096                           
  3097                           ;initializer for printShield@F5866
  3098  0565  3400               	retlw	0
  3099  0566  341F               	retlw	31
  3100  0567  3411               	retlw	17
  3101  0568  3411               	retlw	17
  3102  0569  341F               	retlw	31
  3103  056A  340E               	retlw	14
  3104  056B  3404               	retlw	4
  3105  056C  3400               	retlw	0
  3106                           
  3107                           ;initializer for printShield@F5864
  3108  056D  3400               	retlw	0
  3109  056E  341F               	retlw	31
  3110  056F  3411               	retlw	17
  3111  0570  3411               	retlw	17
  3112  0571  3411               	retlw	17
  3113  0572  340A               	retlw	10
  3114  0573  3404               	retlw	4
  3115  0574  3400               	retlw	0
  3116                           
  3117                           ;initializer for printHeart@F5861
  3118  0575  3400               	retlw	0
  3119  0576  340A               	retlw	10
  3120  0577  341D               	retlw	29
  3121  0578  341D               	retlw	29
  3122  0579  341D               	retlw	29
  3123  057A  340E               	retlw	14
  3124  057B  3404               	retlw	4
  3125  057C  3400               	retlw	0
  3126                           
  3127                           ;initializer for printHeart@F5859
  3128  057D  3400               	retlw	0
  3129  057E  340A               	retlw	10
  3130  057F  341D               	retlw	29
  3131  0580  3419               	retlw	25
  3132  0581  3419               	retlw	25
  3133  0582  340A               	retlw	10
  3134  0583  3404               	retlw	4
  3135  0584  3400               	retlw	0
  3136                           
  3137                           ;initializer for printHeart@F5857
  3138  0585  3400               	retlw	0
  3139  0586  340A               	retlw	10
  3140  0587  3415               	retlw	21
  3141  0588  3411               	retlw	17
  3142  0589  3411               	retlw	17
  3143  058A  340A               	retlw	10
  3144  058B  3404               	retlw	4
  3145  058C  3400               	retlw	0
  3146                           
  3147                           ;initializer for printHeart@F5855
  3148  058D  3400               	retlw	0
  3149  058E  340A               	retlw	10
  3150  058F  341D               	retlw	29
  3151  0590  341D               	retlw	29
  3152  0591  341D               	retlw	29
  3153  0592  340E               	retlw	14
  3154  0593  3404               	retlw	4
  3155  0594  3400               	retlw	0
  3156                           
  3157                           ;initializer for printHeart@F5853
  3158  0595  3400               	retlw	0
  3159  0596  340A               	retlw	10
  3160  0597  341D               	retlw	29
  3161  0598  3419               	retlw	25
  3162  0599  3419               	retlw	25
  3163  059A  340A               	retlw	10
  3164  059B  3404               	retlw	4
  3165  059C  3400               	retlw	0
  3166                           
  3167                           	psect	nvBANK1
  3168  00DC                     __pnvBANK1:
  3169  00DC                     _TMR0_InterruptHandler:
  3170  00DC                     	ds	2
  3171  00DE                     _IOCAF5_InterruptHandler:
  3172  00DE                     	ds	2
  3173  00E0                     _IOCAF4_InterruptHandler:
  3174  00E0                     	ds	2
  3175  00E2                     _IOCAF3_InterruptHandler:
  3176  00E2                     	ds	2
  3177  00E4                     _IOCAF2_InterruptHandler:
  3178  00E4                     	ds	2
  3179  00E6                     _IOCAF1_InterruptHandler:
  3180  00E6                     	ds	2
  3181  00E8                     _IOCAF0_InterruptHandler:
  3182  00E8                     	ds	2
  3183  00EA                     _timer0ReloadVal:
  3184  00EA                     	ds	1
  3185  0015                     _TMR0	set	21
  3186  000D                     _PORTBbits	set	13
  3187  000D                     _PORTB	set	13
  3188  000B                     _INTCONbits	set	11
  3189  0095                     _OPTION_REG	set	149
  3190  0097                     _WDTCON	set	151
  3191  0098                     _OSCTUNE	set	152
  3192  0099                     _OSCCON	set	153
  3193  0095                     _OPTION_REGbits	set	149
  3194  008E                     _TRISC	set	142
  3195  008D                     _TRISB	set	141
  3196  008C                     _TRISA	set	140
  3197  0090                     _TRISE	set	144
  3198  0116                     _BORCON	set	278
  3199  010E                     _LATC	set	270
  3200  010D                     _LATB	set	269
  3201  010C                     _LATA	set	268
  3202  018C                     _ANSELA	set	396
  3203  018D                     _ANSELB	set	397
  3204  018E                     _ANSELC	set	398
  3205  020E                     _WPUC	set	526
  3206  020C                     _WPUA	set	524
  3207  020D                     _WPUB	set	525
  3208  0210                     _WPUE	set	528
  3209  028E                     _ODCONC	set	654
  3210  028D                     _ODCONB	set	653
  3211  028C                     _ODCONA	set	652
  3212  030E                     _SLRCONC	set	782
  3213  030D                     _SLRCONB	set	781
  3214  030C                     _SLRCONA	set	780
  3215  0391                     _IOCAPbits	set	913
  3216  0392                     _IOCANbits	set	914
  3217  0393                     _IOCAFbits	set	915
  3218  0390                     _INLVLE	set	912
  3219  038E                     _INLVLC	set	910
  3220  038D                     _INLVLB	set	909
  3221  038C                     _INLVLA	set	908
  3222                           
  3223                           	psect	stringtext1
  3224  1000                     __pstringtext1:
  3225  1000                     STR_1:
  3226  1000  3420               	retlw	32	;' '
  3227  1001  3420               	retlw	32	;' '
  3228  1002  3420               	retlw	32	;' '
  3229  1003  3420               	retlw	32	;' '
  3230  1004  3420               	retlw	32	;' '
  3231  1005  3420               	retlw	32	;' '
  3232  1006  3420               	retlw	32	;' '
  3233  1007  3420               	retlw	32	;' '
  3234  1008  3420               	retlw	32	;' '
  3235  1009  3420               	retlw	32	;' '
  3236  100A  3420               	retlw	32	;' '
  3237  100B  3420               	retlw	32	;' '
  3238  100C  3420               	retlw	32	;' '
  3239  100D  3420               	retlw	32	;' '
  3240  100E  3420               	retlw	32	;' '
  3241  100F  3420               	retlw	32	;' '
  3242  1010  3400               	retlw	0
  3243                           
  3244                           	psect	stringtext2
  3245  1011                     __pstringtext2:
  3246  1011                     STR_6:
  3247  1011  3453               	retlw	83	;'S'
  3248  1012  3465               	retlw	101	;'e'
  3249  1013  346C               	retlw	108	;'l'
  3250  1014  3465               	retlw	101	;'e'
  3251  1015  3463               	retlw	99	;'c'
  3252  1016  3474               	retlw	116	;'t'
  3253  1017  3420               	retlw	32	;' '
  3254  1018  3473               	retlw	115	;'s'
  3255  1019  3468               	retlw	104	;'h'
  3256  101A  3469               	retlw	105	;'i'
  3257  101B  3470               	retlw	112	;'p'
  3258  101C  3423               	retlw	35	;'#'
  3259  101D  3431               	retlw	49	;'1'
  3260  101E  3400               	retlw	0
  3261                           
  3262                           	psect	stringtext3
  3263  101F                     __pstringtext3:
  3264  101F                     STR_10:
  3265  101F  3453               	retlw	83	;'S'
  3266  1020  3465               	retlw	101	;'e'
  3267  1021  346C               	retlw	108	;'l'
  3268  1022  3465               	retlw	101	;'e'
  3269  1023  3463               	retlw	99	;'c'
  3270  1024  3474               	retlw	116	;'t'
  3271  1025  3420               	retlw	32	;' '
  3272  1026  3473               	retlw	115	;'s'
  3273  1027  3468               	retlw	104	;'h'
  3274  1028  3469               	retlw	105	;'i'
  3275  1029  3470               	retlw	112	;'p'
  3276  102A  3423               	retlw	35	;'#'
  3277  102B  3432               	retlw	50	;'2'
  3278  102C  3400               	retlw	0
  3279                           
  3280                           	psect	stringtext4
  3281  102D                     __pstringtext4:
  3282  102D                     STR_8:
  3283  102D  3420               	retlw	32	;' '
  3284  102E  3420               	retlw	32	;' '
  3285  102F  3454               	retlw	84	;'T'
  3286  1030  3469               	retlw	105	;'i'
  3287  1031  3465               	retlw	101	;'e'
  3288  1032  3420               	retlw	32	;' '
  3289  1033  3446               	retlw	70	;'F'
  3290  1034  3469               	retlw	105	;'i'
  3291  1035  3467               	retlw	103	;'g'
  3292  1036  3468               	retlw	104	;'h'
  3293  1037  3474               	retlw	116	;'t'
  3294  1038  3465               	retlw	101	;'e'
  3295  1039  3472               	retlw	114	;'r'
  3296  103A  3400               	retlw	0
  3297                           
  3298                           	psect	stringtext5
  3299  103B                     __pstringtext5:
  3300  103B                     STR_7:
  3301  103B  343E               	retlw	62	;'>'
  3302  103C  3420               	retlw	32	;' '
  3303  103D  3454               	retlw	84	;'T'
  3304  103E  3469               	retlw	105	;'i'
  3305  103F  3465               	retlw	101	;'e'
  3306  1040  3420               	retlw	32	;' '
  3307  1041  3446               	retlw	70	;'F'
  3308  1042  3469               	retlw	105	;'i'
  3309  1043  3467               	retlw	103	;'g'
  3310  1044  3468               	retlw	104	;'h'
  3311  1045  3474               	retlw	116	;'t'
  3312  1046  3465               	retlw	101	;'e'
  3313  1047  3472               	retlw	114	;'r'
  3314  1048  3400               	retlw	0
  3315                           
  3316                           	psect	stringtext6
  3317  1049                     __pstringtext6:
  3318  1049                     STR_16:
  3319  1049  3453               	retlw	83	;'S'
  3320  104A  3474               	retlw	116	;'t'
  3321  104B  3461               	retlw	97	;'a'
  3322  104C  3472               	retlw	114	;'r'
  3323  104D  3474               	retlw	116	;'t'
  3324  104E  3420               	retlw	32	;' '
  3325  104F  3446               	retlw	70	;'F'
  3326  1050  3469               	retlw	105	;'i'
  3327  1051  3467               	retlw	103	;'g'
  3328  1052  3468               	retlw	104	;'h'
  3329  1053  3474               	retlw	116	;'t'
  3330  1054  3400               	retlw	0
  3331                           
  3332                           	psect	stringtext7
  3333  1055                     __pstringtext7:
  3334  1055                     STR_5:
  3335  1055  3420               	retlw	32	;' '
  3336  1056  3420               	retlw	32	;' '
  3337  1057  3420               	retlw	32	;' '
  3338  1058  344D               	retlw	77	;'M'
  3339  1059  3465               	retlw	101	;'e'
  3340  105A  346E               	retlw	110	;'n'
  3341  105B  3475               	retlw	117	;'u'
  3342  105C  3420               	retlw	32	;' '
  3343  105D  3420               	retlw	32	;' '
  3344  105E  3420               	retlw	32	;' '
  3345  105F  3400               	retlw	0
  3346                           
  3347                           	psect	stringtext8
  3348  1060                     __pstringtext8:
  3349  1060                     STR_9:
  3350  1060  343E               	retlw	62	;'>'
  3351  1061  3420               	retlw	32	;' '
  3352  1062  3458               	retlw	88	;'X'
  3353  1063  3420               	retlw	32	;' '
  3354  1064  3477               	retlw	119	;'w'
  3355  1065  3469               	retlw	105	;'i'
  3356  1066  346E               	retlw	110	;'n'
  3357  1067  3467               	retlw	103	;'g'
  3358  1068  3400               	retlw	0
  3359                           
  3360                           	psect	stringtext9
  3361  0000                     __pstringtext9:
  3362  100F                     
  3363                           	psect	cinit
  3364  0029                     start_initialization:	
  3365                           ; #config settings
  3366                           
  3367  0029                     __initialization:
  3368                           
  3369                           ; Initialize objects allocated to BANK0
  3370  0029  3187  27FE  3180   	fcall	__pidataBANK0	;fetch initializer
  3371  002C  00C1               	movwf	__pdataBANK0& (0+127)
  3372                           
  3373                           ; Initialize objects allocated to BANK1
  3374  002D  301E               	movlw	low __pidataBANK1
  3375  002E  0084               	movwf	4
  3376  002F  3086               	movlw	(high __pidataBANK1)| (0+128)
  3377  0030  0085               	movwf	5
  3378  0031  30A0               	movlw	low __pdataBANK1
  3379  0032  0086               	movwf	6
  3380  0033  3000               	movlw	high __pdataBANK1
  3381  0034  0087               	movwf	7
  3382  0035  303C               	movlw	60
  3383  0036  318D  2544  3180   	fcall	init_ram
  3384                           
  3385                           ; Initialize objects allocated to BANK2
  3386  0039  3055               	movlw	low __pidataBANK2
  3387  003A  0084               	movwf	4
  3388  003B  3085               	movlw	(high __pidataBANK2)| (0+128)
  3389  003C  0085               	movwf	5
  3390  003D  3020               	movlw	low __pdataBANK2
  3391  003E  0086               	movwf	6
  3392  003F  3001               	movlw	high __pdataBANK2
  3393  0040  0087               	movwf	7
  3394  0041  3048               	movlw	72
  3395  0042  318D  2544  3180   	fcall	init_ram
  3396                           
  3397                           ; Clear objects allocated to BANK0
  3398  0045  01B8               	clrf	__pbssBANK0& (0+127)
  3399  0046  01B9               	clrf	(__pbssBANK0+1)& (0+127)
  3400  0047  01BA               	clrf	(__pbssBANK0+2)& (0+127)
  3401  0048  01BB               	clrf	(__pbssBANK0+3)& (0+127)
  3402  0049  01BC               	clrf	(__pbssBANK0+4)& (0+127)
  3403  004A  01BD               	clrf	(__pbssBANK0+5)& (0+127)
  3404  004B  01BE               	clrf	(__pbssBANK0+6)& (0+127)
  3405  004C  01BF               	clrf	(__pbssBANK0+7)& (0+127)
  3406  004D  01C0               	clrf	(__pbssBANK0+8)& (0+127)
  3407                           
  3408                           ; Clear objects allocated to BANK1
  3409  004E  0021               	movlb	1	; select bank1
  3410  004F  01EB               	clrf	__pbssBANK1& (0+127)
  3411  0050  01EC               	clrf	(__pbssBANK1+1)& (0+127)
  3412  0051  01ED               	clrf	(__pbssBANK1+2)& (0+127)
  3413  0052                     end_of_initialization:	
  3414                           ;End of C runtime variable initialization code
  3415                           
  3416  0052                     __end_of__initialization:
  3417  0052  107E               	bcf	int$flags,0	;clear compiler interrupt flag (level 1)
  3418  0053  0020               	movlb	0
  3419  0054  3182  2A95         	ljmp	_main	;jump to C main() function
  3420                           
  3421                           	psect	bssBANK0
  3422  0038                     __pbssBANK0:
  3423  0038                     _counter:
  3424  0038                     	ds	4
  3425  003C                     _player:
  3426  003C                     	ds	1
  3427  003D                     _ship2:
  3428  003D                     	ds	1
  3429  003E                     _ship1:
  3430  003E                     	ds	1
  3431  003F                     _mainState:
  3432  003F                     	ds	1
  3433  0040                     _inGame:
  3434  0040                     	ds	1
  3435                           
  3436                           	psect	dataBANK0
  3437  0041                     __pdataBANK0:
  3438  0041                     _lcdOffset:
  3439  0041                     	ds	1
  3440                           
  3441                           	psect	bssBANK1
  3442  00EB                     __pbssBANK1:
  3443  00EB                     TMR0_ISR@CountCallBack:
  3444  00EB                     	ds	2
  3445  00ED                     _playerTurn:
  3446  00ED                     	ds	1
  3447                           
  3448                           	psect	dataBANK1
  3449  00A0                     __pdataBANK1:
  3450  00A0                     printHeart@F5851:
  3451  00A0                     	ds	8
  3452  00A8                     main@F5685:
  3453  00A8                     	ds	8
  3454  00B0                     main@F5683:
  3455  00B0                     	ds	8
  3456  00B8                     main@F5681:
  3457  00B8                     	ds	8
  3458  00C0                     main@F5679:
  3459  00C0                     	ds	8
  3460  00C8                     main@F5677:
  3461  00C8                     	ds	8
  3462  00D0                     main@F5675:
  3463  00D0                     	ds	8
  3464  00D8                     _shield2:
  3465  00D8                     	ds	1
  3466  00D9                     _shield1:
  3467  00D9                     	ds	1
  3468  00DA                     _health2:
  3469  00DA                     	ds	1
  3470  00DB                     _health1:
  3471  00DB                     	ds	1
  3472                           
  3473                           	psect	dataBANK2
  3474  0120                     __pdataBANK2:
  3475  0120                     printShield@F5870:
  3476  0120                     	ds	8
  3477  0128                     printShield@F5868:
  3478  0128                     	ds	8
  3479  0130                     printShield@F5866:
  3480  0130                     	ds	8
  3481  0138                     printShield@F5864:
  3482  0138                     	ds	8
  3483  0140                     printHeart@F5861:
  3484  0140                     	ds	8
  3485  0148                     printHeart@F5859:
  3486  0148                     	ds	8
  3487  0150                     printHeart@F5857:
  3488  0150                     	ds	8
  3489  0158                     printHeart@F5855:
  3490  0158                     	ds	8
  3491  0160                     printHeart@F5853:
  3492  0160                     	ds	8
  3493                           
  3494                           	psect	inittext
  3495  0D44                     init_ram:
  3496  0D44  00FE               	movwf	btemp
  3497  0D45                     initloop:
  3498  0D45  0012               	moviw fsr0++
  3499  0D46  001E               	movwi fsr1++
  3500  0D47  0BFE               	decfsz	btemp,f
  3501  0D48  2D45               	goto	initloop
  3502  0D49  3400               	retlw	0
  3503                           
  3504                           	psect	cstackBANK3
  3505  01A0                     __pcstackBANK3:
  3506  01A0                     main@Pattern1:
  3507                           
  3508                           ; 8 bytes @ 0x0
  3509  01A0                     	ds	8
  3510  01A8                     main@Pattern2:
  3511                           
  3512                           ; 8 bytes @ 0x8
  3513  01A8                     	ds	8
  3514  01B0                     main@Pattern3:
  3515                           
  3516                           ; 8 bytes @ 0x10
  3517  01B0                     	ds	8
  3518  01B8                     main@Pattern4:
  3519                           
  3520                           ; 8 bytes @ 0x18
  3521  01B8                     	ds	8
  3522  01C0                     main@Pattern5:
  3523                           
  3524                           ; 8 bytes @ 0x20
  3525  01C0                     	ds	8
  3526  01C8                     main@Pattern8:
  3527                           
  3528                           ; 8 bytes @ 0x28
  3529  01C8                     	ds	8
  3530                           
  3531                           	psect	cstackCOMMON
  3532  0070                     __pcstackCOMMON:
  3533  0070                     ?___fleq:
  3534  0070                     ?_IOCAF0_DefaultInterruptHandler:	
  3535                           ; 1 bit 
  3536                           
  3537  0070                     ??_IOCAF0_DefaultInterruptHandler:	
  3538                           ; 1 bytes @ 0x0
  3539                           
  3540  0070                     ?_IOCAF1_DefaultInterruptHandler:	
  3541                           ; 1 bytes @ 0x0
  3542                           
  3543  0070                     ??_IOCAF1_DefaultInterruptHandler:	
  3544                           ; 1 bytes @ 0x0
  3545                           
  3546  0070                     ?_IOCAF2_DefaultInterruptHandler:	
  3547                           ; 1 bytes @ 0x0
  3548                           
  3549  0070                     ??_IOCAF2_DefaultInterruptHandler:	
  3550                           ; 1 bytes @ 0x0
  3551                           
  3552  0070                     ?_IOCAF3_DefaultInterruptHandler:	
  3553                           ; 1 bytes @ 0x0
  3554                           
  3555  0070                     ??_IOCAF3_DefaultInterruptHandler:	
  3556                           ; 1 bytes @ 0x0
  3557                           
  3558  0070                     ?_IOCAF4_DefaultInterruptHandler:	
  3559                           ; 1 bytes @ 0x0
  3560                           
  3561  0070                     ??_IOCAF4_DefaultInterruptHandler:	
  3562                           ; 1 bytes @ 0x0
  3563                           
  3564  0070                     ?_IOCAF5_DefaultInterruptHandler:	
  3565                           ; 1 bytes @ 0x0
  3566                           
  3567  0070                     ??_IOCAF5_DefaultInterruptHandler:	
  3568                           ; 1 bytes @ 0x0
  3569                           
  3570  0070                     ?_IOCAF0_ISR:	
  3571                           ; 1 bytes @ 0x0
  3572                           
  3573  0070                     ?_IOCAF1_ISR:	
  3574                           ; 1 bytes @ 0x0
  3575                           
  3576  0070                     ?_IOCAF2_ISR:	
  3577                           ; 1 bytes @ 0x0
  3578                           
  3579  0070                     ?_IOCAF3_ISR:	
  3580                           ; 1 bytes @ 0x0
  3581                           
  3582  0070                     ?_IOCAF4_ISR:	
  3583                           ; 1 bytes @ 0x0
  3584                           
  3585  0070                     ?_IOCAF5_ISR:	
  3586                           ; 1 bytes @ 0x0
  3587                           
  3588  0070                     ?_printMenu:	
  3589                           ; 1 bytes @ 0x0
  3590                           
  3591  0070                     ?_disableButton:	
  3592                           ; 1 bytes @ 0x0
  3593                           
  3594  0070                     ?_enableButton:	
  3595                           ; 1 bytes @ 0x0
  3596                           
  3597  0070                     ??_enableButton:	
  3598                           ; 1 bytes @ 0x0
  3599                           
  3600  0070                     ?_startFight:	
  3601                           ; 1 bytes @ 0x0
  3602                           
  3603  0070                     ?_OSCILLATOR_Initialize:	
  3604                           ; 1 bytes @ 0x0
  3605                           
  3606  0070                     ?_WDT_Initialize:	
  3607                           ; 1 bytes @ 0x0
  3608                           
  3609  0070                     ?_TMR0_Initialize:	
  3610                           ; 1 bytes @ 0x0
  3611                           
  3612  0070                     ?_TMR0_ISR:	
  3613                           ; 1 bytes @ 0x0
  3614                           
  3615  0070                     ?_LCDPutCmd:	
  3616                           ; 1 bytes @ 0x0
  3617                           
  3618  0070                     ?_cleanMenu:	
  3619                           ; 1 bytes @ 0x0
  3620                           
  3621  0070                     ?_cleanFullMenu:	
  3622                           ; 1 bytes @ 0x0
  3623                           
  3624  0070                     ?_mainMenu:	
  3625                           ; 1 bytes @ 0x0
  3626                           
  3627  0070                     ?_printShip:	
  3628                           ; 1 bytes @ 0x0
  3629                           
  3630  0070                     ?_TMR0_DefaultInterruptHandler:	
  3631                           ; 1 bytes @ 0x0
  3632                           
  3633  0070                     ??_TMR0_DefaultInterruptHandler:	
  3634                           ; 1 bytes @ 0x0
  3635                           
  3636  0070                     ?_TMR0_CallBack:	
  3637                           ; 1 bytes @ 0x0
  3638                           
  3639  0070                     ?_PIN_MANAGER_Initialize:	
  3640                           ; 1 bytes @ 0x0
  3641                           
  3642  0070                     ?_PIN_MANAGER_IOC:	
  3643                           ; 1 bytes @ 0x0
  3644                           
  3645  0070                     ?_SYSTEM_Initialize:	
  3646                           ; 1 bytes @ 0x0
  3647                           
  3648  0070                     ?_INTERRUPT_InterruptManager:	
  3649                           ; 1 bytes @ 0x0
  3650                           
  3651  0070                     ?_LCD_Initialize:	
  3652                           ; 1 bytes @ 0x0
  3653                           
  3654  0070                     ?_LCDPutChar:	
  3655                           ; 1 bytes @ 0x0
  3656                           
  3657  0070                     ?_LCDClear:	
  3658                           ; 1 bytes @ 0x0
  3659                           
  3660  0070                     ?_main:	
  3661                           ; 1 bytes @ 0x0
  3662                           
  3663  0070                     ?i1_LCDWriteNibble:	
  3664                           ; 1 bytes @ 0x0
  3665                           
  3666  0070                     ?i1_LCDPutChar:	
  3667                           ; 1 bytes @ 0x0
  3668                           
  3669  0070                     ?i1_LCDPutCmd:	
  3670                           ; 1 bytes @ 0x0
  3671                           
  3672  0070                     ?i1_disableButton:	
  3673                           ; 1 bytes @ 0x0
  3674                           
  3675  0070                     ??i1_disableButton:	
  3676                           ; 1 bytes @ 0x0
  3677                           
  3678  0070                     ?i1_printMenu:	
  3679                           ; 1 bytes @ 0x0
  3680                           
  3681  0070                     ?i1_mainMenu:	
  3682                           ; 1 bytes @ 0x0
  3683                           
  3684  0070                     ?i1_cleanMenu:	
  3685                           ; 1 bytes @ 0x0
  3686                           
  3687  0070                     ?i1_cleanFullMenu:	
  3688                           ; 1 bytes @ 0x0
  3689                           
  3690  0070                     ?___fladd:	
  3691                           ; 1 bytes @ 0x0
  3692                           
  3693  0070                     enableButton@player:	
  3694                           ; 4 bytes @ 0x0
  3695                           
  3696  0070                     i1LCDWriteNibble@rs:	
  3697                           ; 1 bytes @ 0x0
  3698                           
  3699  0070                     i1disableButton@player:	
  3700                           ; 1 bytes @ 0x0
  3701                           
  3702  0070                     ___fleq@ff1:	
  3703                           ; 1 bytes @ 0x0
  3704                           
  3705  0070                     ___fladd@b:	
  3706                           ; 4 bytes @ 0x0
  3707                           
  3708                           
  3709                           ; 4 bytes @ 0x0
  3710  0070                     	ds	1
  3711  0071                     ??i1_LCDWriteNibble:
  3712                           
  3713                           ; 1 bytes @ 0x1
  3714  0071                     	ds	2
  3715  0073                     i1LCDWriteNibble@ch:
  3716                           
  3717                           ; 1 bytes @ 0x3
  3718  0073                     	ds	1
  3719  0074                     ??i1_LCDPutChar:
  3720  0074                     ??i1_LCDPutCmd:	
  3721                           ; 1 bytes @ 0x4
  3722                           
  3723  0074                     ___fleq@ff2:	
  3724                           ; 1 bytes @ 0x4
  3725                           
  3726  0074                     ___fladd@a:	
  3727                           ; 4 bytes @ 0x4
  3728                           
  3729                           
  3730                           ; 4 bytes @ 0x4
  3731  0074                     	ds	2
  3732  0076                     i1LCDPutChar@ch:
  3733  0076                     i1LCDPutCmd@ch:	
  3734                           ; 1 bytes @ 0x6
  3735                           
  3736                           
  3737                           ; 1 bytes @ 0x6
  3738  0076                     	ds	1
  3739  0077                     ?i1_LCDPutStr:
  3740  0077                     ?i1_LCDGoto:	
  3741                           ; 1 bytes @ 0x7
  3742                           
  3743  0077                     i1LCDGoto@ln:	
  3744                           ; 1 bytes @ 0x7
  3745                           
  3746  0077                     i1LCDPutStr@str:	
  3747                           ; 1 bytes @ 0x7
  3748                           
  3749                           
  3750                           ; 2 bytes @ 0x7
  3751  0077                     	ds	1
  3752  0078                     ??___fleq:
  3753  0078                     ??i1_LCDGoto:	
  3754                           ; 1 bytes @ 0x8
  3755                           
  3756  0078                     ___fladd@signs:	
  3757                           ; 1 bytes @ 0x8
  3758                           
  3759  0078                     i1_LCDGoto$493:	
  3760                           ; 1 bytes @ 0x8
  3761                           
  3762                           
  3763                           ; 2 bytes @ 0x8
  3764  0078                     	ds	1
  3765  0079                     ??i1_LCDPutStr:
  3766  0079                     ___fladd@aexp:	
  3767                           ; 1 bytes @ 0x9
  3768                           
  3769                           
  3770                           ; 1 bytes @ 0x9
  3771  0079                     	ds	1
  3772  007A                     ___fladd@bexp:
  3773  007A                     i1LCDGoto@pos:	
  3774                           ; 1 bytes @ 0xA
  3775                           
  3776                           
  3777                           ; 1 bytes @ 0xA
  3778  007A                     	ds	1
  3779  007B                     ___fladd@grs:
  3780                           
  3781                           ; 1 bytes @ 0xB
  3782  007B                     	ds	1
  3783  007C                     ??_TMR0_ISR:
  3784  007C                     ??_TMR0_CallBack:	
  3785                           ; 1 bytes @ 0xC
  3786                           
  3787  007C                     i1LCDPutStr@i:	
  3788                           ; 1 bytes @ 0xC
  3789                           
  3790                           
  3791                           ; 1 bytes @ 0xC
  3792  007C                     	ds	1
  3793  007D                     ??_printShip:
  3794  007D                     ??_PIN_MANAGER_IOC:	
  3795                           ; 1 bytes @ 0xD
  3796                           
  3797  007D                     ??_INTERRUPT_InterruptManager:	
  3798                           ; 1 bytes @ 0xD
  3799                           
  3800  007D                     ??_LCDClear:	
  3801                           ; 1 bytes @ 0xD
  3802                           
  3803  007D                     ??i1_printMenu:	
  3804                           ; 1 bytes @ 0xD
  3805                           
  3806  007D                     ??i1_cleanMenu:	
  3807                           ; 1 bytes @ 0xD
  3808                           
  3809  007D                     ??i1_cleanFullMenu:	
  3810                           ; 1 bytes @ 0xD
  3811                           
  3812                           
  3813                           ; 1 bytes @ 0xD
  3814  007D                     	ds	1
  3815                           
  3816                           	psect	cstackBANK0
  3817  0020                     __pcstackBANK0:
  3818  0020                     ??___fladd:
  3819  0020                     ??i1_mainMenu:	
  3820                           ; 1 bytes @ 0x0
  3821                           
  3822                           
  3823                           ; 1 bytes @ 0x0
  3824  0020                     	ds	2
  3825  0022                     ??_IOCAF0_ISR:
  3826  0022                     ??_IOCAF1_ISR:	
  3827                           ; 1 bytes @ 0x2
  3828                           
  3829  0022                     ??_IOCAF2_ISR:	
  3830                           ; 1 bytes @ 0x2
  3831                           
  3832  0022                     ??_IOCAF3_ISR:	
  3833                           ; 1 bytes @ 0x2
  3834                           
  3835  0022                     ??_IOCAF4_ISR:	
  3836                           ; 1 bytes @ 0x2
  3837                           
  3838  0022                     ??_startFight:	
  3839                           ; 1 bytes @ 0x2
  3840                           
  3841                           
  3842                           ; 1 bytes @ 0x2
  3843  0022                     	ds	2
  3844  0024                     ??_IOCAF5_ISR:
  3845                           
  3846                           ; 1 bytes @ 0x4
  3847  0024                     	ds	4
  3848  0028                     ?_IOCAF0_SetInterruptHandler:
  3849  0028                     ?_IOCAF1_SetInterruptHandler:	
  3850                           ; 1 bytes @ 0x8
  3851                           
  3852  0028                     ?_IOCAF2_SetInterruptHandler:	
  3853                           ; 1 bytes @ 0x8
  3854                           
  3855  0028                     ?_IOCAF3_SetInterruptHandler:	
  3856                           ; 1 bytes @ 0x8
  3857                           
  3858  0028                     ?_IOCAF4_SetInterruptHandler:	
  3859                           ; 1 bytes @ 0x8
  3860                           
  3861  0028                     ?_IOCAF5_SetInterruptHandler:	
  3862                           ; 1 bytes @ 0x8
  3863                           
  3864  0028                     ??_disableButton:	
  3865                           ; 1 bytes @ 0x8
  3866                           
  3867  0028                     ??_OSCILLATOR_Initialize:	
  3868                           ; 1 bytes @ 0x8
  3869                           
  3870  0028                     ??_WDT_Initialize:	
  3871                           ; 1 bytes @ 0x8
  3872                           
  3873  0028                     ?_TMR0_SetInterruptHandler:	
  3874                           ; 1 bytes @ 0x8
  3875                           
  3876  0028                     ?_LCDWriteNibble:	
  3877                           ; 1 bytes @ 0x8
  3878                           
  3879  0028                     LCDWriteNibble@rs:	
  3880                           ; 1 bytes @ 0x8
  3881                           
  3882  0028                     disableButton@player:	
  3883                           ; 1 bytes @ 0x8
  3884                           
  3885  0028                     IOCAF0_SetInterruptHandler@InterruptHandler:	
  3886                           ; 1 bytes @ 0x8
  3887                           
  3888  0028                     IOCAF1_SetInterruptHandler@InterruptHandler:	
  3889                           ; 2 bytes @ 0x8
  3890                           
  3891  0028                     IOCAF2_SetInterruptHandler@InterruptHandler:	
  3892                           ; 2 bytes @ 0x8
  3893                           
  3894  0028                     IOCAF3_SetInterruptHandler@InterruptHandler:	
  3895                           ; 2 bytes @ 0x8
  3896                           
  3897  0028                     IOCAF4_SetInterruptHandler@InterruptHandler:	
  3898                           ; 2 bytes @ 0x8
  3899                           
  3900  0028                     IOCAF5_SetInterruptHandler@InterruptHandler:	
  3901                           ; 2 bytes @ 0x8
  3902                           
  3903  0028                     TMR0_SetInterruptHandler@InterruptHandler:	
  3904                           ; 2 bytes @ 0x8
  3905                           
  3906                           
  3907                           ; 2 bytes @ 0x8
  3908  0028                     	ds	1
  3909  0029                     ??_LCDWriteNibble:
  3910                           
  3911                           ; 1 bytes @ 0x9
  3912  0029                     	ds	1
  3913  002A                     ??_IOCAF0_SetInterruptHandler:
  3914  002A                     ??_IOCAF1_SetInterruptHandler:	
  3915                           ; 1 bytes @ 0xA
  3916                           
  3917  002A                     ??_IOCAF2_SetInterruptHandler:	
  3918                           ; 1 bytes @ 0xA
  3919                           
  3920  002A                     ??_IOCAF3_SetInterruptHandler:	
  3921                           ; 1 bytes @ 0xA
  3922                           
  3923  002A                     ??_IOCAF4_SetInterruptHandler:	
  3924                           ; 1 bytes @ 0xA
  3925                           
  3926  002A                     ??_IOCAF5_SetInterruptHandler:	
  3927                           ; 1 bytes @ 0xA
  3928                           
  3929  002A                     ??_TMR0_Initialize:	
  3930                           ; 1 bytes @ 0xA
  3931                           
  3932  002A                     ??_TMR0_SetInterruptHandler:	
  3933                           ; 1 bytes @ 0xA
  3934                           
  3935  002A                     ??_PIN_MANAGER_Initialize:	
  3936                           ; 1 bytes @ 0xA
  3937                           
  3938                           
  3939                           ; 1 bytes @ 0xA
  3940  002A                     	ds	1
  3941  002B                     ??_SYSTEM_Initialize:
  3942  002B                     LCDWriteNibble@ch:	
  3943                           ; 1 bytes @ 0xB
  3944                           
  3945                           
  3946                           ; 1 bytes @ 0xB
  3947  002B                     	ds	1
  3948  002C                     ??_LCDPutCmd:
  3949  002C                     ??_LCDPutChar:	
  3950                           ; 1 bytes @ 0xC
  3951                           
  3952                           
  3953                           ; 1 bytes @ 0xC
  3954  002C                     	ds	2
  3955  002E                     LCDPutChar@ch:
  3956  002E                     LCDPutCmd@ch:	
  3957                           ; 1 bytes @ 0xE
  3958                           
  3959                           
  3960                           ; 1 bytes @ 0xE
  3961  002E                     	ds	1
  3962  002F                     ??_LCD_Initialize:
  3963  002F                     ?_LCDPutStr:	
  3964                           ; 1 bytes @ 0xF
  3965                           
  3966  002F                     ?_LCDGoto:	
  3967                           ; 1 bytes @ 0xF
  3968                           
  3969  002F                     ?_createCustomCharacter:	
  3970                           ; 1 bytes @ 0xF
  3971                           
  3972  002F                     LCDGoto@ln:	
  3973                           ; 1 bytes @ 0xF
  3974                           
  3975  002F                     LCDPutStr@str:	
  3976                           ; 1 bytes @ 0xF
  3977                           
  3978  002F                     createCustomCharacter@Pattern:	
  3979                           ; 2 bytes @ 0xF
  3980                           
  3981                           
  3982                           ; 2 bytes @ 0xF
  3983  002F                     	ds	1
  3984  0030                     ??_LCDGoto:
  3985  0030                     _LCDGoto$493:	
  3986                           ; 1 bytes @ 0x10
  3987                           
  3988                           
  3989                           ; 2 bytes @ 0x10
  3990  0030                     	ds	1
  3991  0031                     ??_LCDPutStr:
  3992  0031                     createCustomCharacter@Location:	
  3993                           ; 1 bytes @ 0x11
  3994                           
  3995                           
  3996                           ; 1 bytes @ 0x11
  3997  0031                     	ds	1
  3998  0032                     ??_createCustomCharacter:
  3999  0032                     LCDGoto@pos:	
  4000                           ; 1 bytes @ 0x12
  4001                           
  4002                           
  4003                           ; 1 bytes @ 0x12
  4004  0032                     	ds	1
  4005  0033                     createCustomCharacter@i:
  4006                           
  4007                           ; 2 bytes @ 0x13
  4008  0033                     	ds	1
  4009  0034                     LCDPutStr@i:
  4010                           
  4011                           ; 1 bytes @ 0x14
  4012  0034                     	ds	1
  4013  0035                     ??_cleanMenu:
  4014  0035                     ??_cleanFullMenu:	
  4015                           ; 1 bytes @ 0x15
  4016                           
  4017  0035                     ??_mainMenu:	
  4018                           ; 1 bytes @ 0x15
  4019                           
  4020                           
  4021                           ; 1 bytes @ 0x15
  4022  0035                     	ds	2
  4023  0037                     ??_printMenu:
  4024  0037                     ??_main:	
  4025                           ; 1 bytes @ 0x17
  4026                           
  4027                           
  4028                           ; 1 bytes @ 0x17
  4029  0037                     	ds	1
  4030                           
  4031                           	psect	maintext
  4032  0295                     __pmaintext:	
  4033 ;;
  4034 ;;Main: autosize = 0, tempsize = 1, incstack = 0, save=0
  4035 ;;
  4036 ;; *************** function _main *****************
  4037 ;; Defined at:
  4038 ;;		line 29 in file "main.c"
  4039 ;; Parameters:    Size  Location     Type
  4040 ;;		None
  4041 ;; Auto vars:     Size  Location     Type
  4042 ;;  Pattern8        8   40[BANK3 ] unsigned char [8]
  4043 ;;  Pattern5        8   32[BANK3 ] unsigned char [8]
  4044 ;;  Pattern4        8   24[BANK3 ] unsigned char [8]
  4045 ;;  Pattern3        8   16[BANK3 ] unsigned char [8]
  4046 ;;  Pattern2        8    8[BANK3 ] unsigned char [8]
  4047 ;;  Pattern1        8    0[BANK3 ] unsigned char [8]
  4048 ;; Return value:  Size  Location     Type
  4049 ;;                  1    wreg      void 
  4050 ;; Registers used:
  4051 ;;		wreg, fsr0l, fsr0h, fsr1l, fsr1h, status,2, status,0, pclath, cstack
  4052 ;; Tracked objects:
  4053 ;;		On entry : B1F/0
  4054 ;;		On exit  : 0/0
  4055 ;;		Unchanged: 0/0
  4056 ;; Data sizes:     COMMON   BANK0   BANK1   BANK2   BANK3   BANK4   BANK5   BANK6   BANK7   BANK8   BANK9  BANK10  BANK1
      +1  BANK12  BANK13  BANK14  BANK15  BANK16  BANK17  BANK18  BANK19  BANK20  BANK21  BANK22  BANK23  BANK24  BANK25
  4057 ;;      Params:         0       0       0       0       0       0       0       0       0       0       0       0       
      +0       0       0       0       0       0       0       0       0       0       0       0       0       0       0
  4058 ;;      Locals:         0       0       0       0      48       0       0       0       0       0       0       0       
      +0       0       0       0       0       0       0       0       0       0       0       0       0       0       0
  4059 ;;      Temps:          0       1       0       0       0       0       0       0       0       0       0       0       
      +0       0       0       0       0       0       0       0       0       0       0       0       0       0       0
  4060 ;;      Totals:         0       1       0       0      48       0       0       0       0       0       0       0       
      +0       0       0       0       0       0       0       0       0       0       0       0       0       0       0
  4061 ;;Total ram usage:       49 bytes
  4062 ;; Hardware stack levels required when called:   14
  4063 ;; This function calls:
  4064 ;;		_LCD_Initialize
  4065 ;;		_SYSTEM_Initialize
  4066 ;;		_createCustomCharacter
  4067 ;;		_disableButton
  4068 ;;		_printMenu
  4069 ;; This function is called by:
  4070 ;;		Startup code after reset
  4071 ;; This function uses a non-reentrant model
  4072 ;;
  4073                           
  4074                           
  4075                           ;psect for function _main
  4076  0295                     _main:
  4077  0295                     l4726:	
  4078                           ;incstack = 0
  4079                           ; Regs used in _main: [wreg-fsr1h+status,2+status,0+pclath+cstack]
  4080                           
  4081                           
  4082                           ;main.c: 35:     SYSTEM_Initialize();
  4083  0295  318D  2590  3182   	fcall	_SYSTEM_Initialize
  4084                           
  4085                           ;main.c: 36:     LCD_Initialize();
  4086  0298  318F  2768  3182   	fcall	_LCD_Initialize
  4087  029B                     l4728:
  4088                           
  4089                           ;main.c: 40:     unsigned char Pattern1 [ ] = {0x0E,0x08,0x1C,0x1F,0x1C,0x08,0x0E,0x00};
  4090  029B  30D0               	movlw	low main@F5675
  4091  029C  0086               	movwf	6
  4092  029D  3000               	movlw	high main@F5675
  4093  029E  0087               	movwf	7
  4094  029F  30A0               	movlw	low main@Pattern1
  4095  02A0  0084               	movwf	4
  4096  02A1  3001               	movlw	high main@Pattern1
  4097  02A2  0085               	movwf	5
  4098  02A3  3008               	movlw	8
  4099  02A4  0020               	movlb	0	; select bank0
  4100  02A5  00B7               	movwf	??_main
  4101  02A6                     u3570:
  4102  02A6  0016               	moviw fsr1++
  4103  02A7  001A               	movwi fsr0++
  4104  02A8  0BB7               	decfsz	??_main,f
  4105  02A9  2AA6               	goto	u3570
  4106  02AA                     l4730:
  4107                           
  4108                           ;main.c: 42:     unsigned char Pattern2 [ ] = {0x00,0x0A,0x11,0x15,0x15,0x11,0x0A,0x00};
  4109  02AA  30C8               	movlw	low main@F5677
  4110  02AB  0086               	movwf	6
  4111  02AC  3000               	movlw	high main@F5677
  4112  02AD  0087               	movwf	7
  4113  02AE  30A8               	movlw	low main@Pattern2
  4114  02AF  0084               	movwf	4
  4115  02B0  3001               	movlw	high main@Pattern2
  4116  02B1  0085               	movwf	5
  4117  02B2  3008               	movlw	8
  4118  02B3  00B7               	movwf	??_main
  4119  02B4                     u3580:
  4120  02B4  0016               	moviw fsr1++
  4121  02B5  001A               	movwi fsr0++
  4122  02B6  0BB7               	decfsz	??_main,f
  4123  02B7  2AB4               	goto	u3580
  4124  02B8                     l4732:
  4125                           
  4126                           ;main.c: 44:     unsigned char Pattern3 [ ] = {0x00,0x00,0x0E,0x1F,0x0E,0x00,0x00,0x00};
  4127  02B8  30C0               	movlw	low main@F5679
  4128  02B9  0086               	movwf	6
  4129  02BA  3000               	movlw	high main@F5679
  4130  02BB  0087               	movwf	7
  4131  02BC  30B0               	movlw	low main@Pattern3
  4132  02BD  0084               	movwf	4
  4133  02BE  3001               	movlw	high main@Pattern3
  4134  02BF  0085               	movwf	5
  4135  02C0  3008               	movlw	8
  4136  02C1  00B7               	movwf	??_main
  4137  02C2                     u3590:
  4138  02C2  0016               	moviw fsr1++
  4139  02C3  001A               	movwi fsr0++
  4140  02C4  0BB7               	decfsz	??_main,f
  4141  02C5  2AC2               	goto	u3590
  4142  02C6                     l4734:
  4143                           
  4144                           ;main.c: 46:     unsigned char Pattern4 [ ] = {0x00,0x00,0x0A,0x1F,0x1F,0x0E,0x04,0x00};
  4145  02C6  30B8               	movlw	low main@F5681
  4146  02C7  0086               	movwf	6
  4147  02C8  3000               	movlw	high main@F5681
  4148  02C9  0087               	movwf	7
  4149  02CA  30B8               	movlw	low main@Pattern4
  4150  02CB  0084               	movwf	4
  4151  02CC  3001               	movlw	high main@Pattern4
  4152  02CD  0085               	movwf	5
  4153  02CE  3008               	movlw	8
  4154  02CF  00B7               	movwf	??_main
  4155  02D0                     u3600:
  4156  02D0  0016               	moviw fsr1++
  4157  02D1  001A               	movwi fsr0++
  4158  02D2  0BB7               	decfsz	??_main,f
  4159  02D3  2AD0               	goto	u3600
  4160  02D4                     l4736:
  4161                           
  4162                           ;main.c: 48:     unsigned char Pattern5 [ ] = {0x0E,0x02,0x07,0x1F,0x07,0x02,0x0E,0x00};
  4163  02D4  30B0               	movlw	low main@F5683
  4164  02D5  0086               	movwf	6
  4165  02D6  3000               	movlw	high main@F5683
  4166  02D7  0087               	movwf	7
  4167  02D8  30C0               	movlw	low main@Pattern5
  4168  02D9  0084               	movwf	4
  4169  02DA  3001               	movlw	high main@Pattern5
  4170  02DB  0085               	movwf	5
  4171  02DC  3008               	movlw	8
  4172  02DD  00B7               	movwf	??_main
  4173  02DE                     u3610:
  4174  02DE  0016               	moviw fsr1++
  4175  02DF  001A               	movwi fsr0++
  4176  02E0  0BB7               	decfsz	??_main,f
  4177  02E1  2ADE               	goto	u3610
  4178  02E2                     l4738:
  4179                           
  4180                           ;main.c: 50:     unsigned char Pattern8 [ ] = {0x00,0x1F,0x1F,0x1F,0x1F,0x0E,0x04,0x00};
  4181  02E2  30A8               	movlw	low main@F5685
  4182  02E3  0086               	movwf	6
  4183  02E4  3000               	movlw	high main@F5685
  4184  02E5  0087               	movwf	7
  4185  02E6  30C8               	movlw	low main@Pattern8
  4186  02E7  0084               	movwf	4
  4187  02E8  3001               	movlw	high main@Pattern8
  4188  02E9  0085               	movwf	5
  4189  02EA  3008               	movlw	8
  4190  02EB  00B7               	movwf	??_main
  4191  02EC                     u3620:
  4192  02EC  0016               	moviw fsr1++
  4193  02ED  001A               	movwi fsr0++
  4194  02EE  0BB7               	decfsz	??_main,f
  4195  02EF  2AEC               	goto	u3620
  4196  02F0                     l4740:
  4197                           
  4198                           ;main.c: 54:     createCustomCharacter(Pattern1,1);
  4199  02F0  30A0               	movlw	low main@Pattern1
  4200  02F1  00AF               	movwf	createCustomCharacter@Pattern
  4201  02F2  3001               	movlw	high main@Pattern1
  4202  02F3  00B0               	movwf	createCustomCharacter@Pattern+1
  4203  02F4  01B1               	clrf	createCustomCharacter@Location
  4204  02F5  0AB1               	incf	createCustomCharacter@Location,f
  4205  02F6  3186  268B  3182   	fcall	_createCustomCharacter
  4206  02F9                     l4742:
  4207                           
  4208                           ;main.c: 55:     createCustomCharacter(Pattern2,0);
  4209  02F9  30A8               	movlw	low main@Pattern2
  4210  02FA  0020               	movlb	0	; select bank0
  4211  02FB  00AF               	movwf	createCustomCharacter@Pattern
  4212  02FC  3001               	movlw	high main@Pattern2
  4213  02FD  00B0               	movwf	createCustomCharacter@Pattern+1
  4214  02FE  01B1               	clrf	createCustomCharacter@Location
  4215  02FF  3186  268B  3182   	fcall	_createCustomCharacter
  4216  0302                     l4744:
  4217                           
  4218                           ;main.c: 56:     createCustomCharacter(Pattern3,2);
  4219  0302  30B0               	movlw	low main@Pattern3
  4220  0303  0020               	movlb	0	; select bank0
  4221  0304  00AF               	movwf	createCustomCharacter@Pattern
  4222  0305  3001               	movlw	high main@Pattern3
  4223  0306  00B0               	movwf	createCustomCharacter@Pattern+1
  4224  0307  3002               	movlw	2
  4225  0308  00B7               	movwf	??_main
  4226  0309  0837               	movf	??_main,w
  4227  030A  00B1               	movwf	createCustomCharacter@Location
  4228  030B  3186  268B  3182   	fcall	_createCustomCharacter
  4229  030E                     l4746:
  4230                           
  4231                           ;main.c: 57:     createCustomCharacter(Pattern4,3);
  4232  030E  30B8               	movlw	low main@Pattern4
  4233  030F  0020               	movlb	0	; select bank0
  4234  0310  00AF               	movwf	createCustomCharacter@Pattern
  4235  0311  3001               	movlw	high main@Pattern4
  4236  0312  00B0               	movwf	createCustomCharacter@Pattern+1
  4237  0313  3003               	movlw	3
  4238  0314  00B7               	movwf	??_main
  4239  0315  0837               	movf	??_main,w
  4240  0316  00B1               	movwf	createCustomCharacter@Location
  4241  0317  3186  268B  3182   	fcall	_createCustomCharacter
  4242  031A                     l4748:
  4243                           
  4244                           ;main.c: 58:     createCustomCharacter(Pattern5,4);
  4245  031A  30C0               	movlw	low main@Pattern5
  4246  031B  0020               	movlb	0	; select bank0
  4247  031C  00AF               	movwf	createCustomCharacter@Pattern
  4248  031D  3001               	movlw	high main@Pattern5
  4249  031E  00B0               	movwf	createCustomCharacter@Pattern+1
  4250  031F  3004               	movlw	4
  4251  0320  00B7               	movwf	??_main
  4252  0321  0837               	movf	??_main,w
  4253  0322  00B1               	movwf	createCustomCharacter@Location
  4254  0323  3186  268B  3182   	fcall	_createCustomCharacter
  4255  0326                     l4750:
  4256                           
  4257                           ;main.c: 59:     createCustomCharacter(Pattern8,7);
  4258  0326  30C8               	movlw	low main@Pattern8
  4259  0327  0020               	movlb	0	; select bank0
  4260  0328  00AF               	movwf	createCustomCharacter@Pattern
  4261  0329  3001               	movlw	high main@Pattern8
  4262  032A  00B0               	movwf	createCustomCharacter@Pattern+1
  4263  032B  3007               	movlw	7
  4264  032C  00B7               	movwf	??_main
  4265  032D  0837               	movf	??_main,w
  4266  032E  00B1               	movwf	createCustomCharacter@Location
  4267  032F  3186  268B  3182   	fcall	_createCustomCharacter
  4268  0332                     l4752:
  4269                           
  4270                           ;main.c: 63:     printMenu();
  4271  0332  318E  26E6  3182   	fcall	_printMenu
  4272  0335                     l4754:
  4273                           
  4274                           ;main.c: 66:     (INTCONbits.GIE = 1);
  4275  0335  178B               	bsf	11,7	;volatile
  4276  0336                     l4756:
  4277                           
  4278                           ;main.c: 69:     disableButton(1);
  4279  0336  3001               	movlw	1
  4280  0337  318D  25BD  3182   	fcall	_disableButton
  4281  033A                     l391:	
  4282                           ;main.c: 71:     while (1)
  4283                           
  4284  033A                     l392:	
  4285                           ;main.c: 72:     {;main.c: 74:     }
  4286                           
  4287  033A  2B3A               	goto	l391
  4288  033B  3180  2827         	ljmp	start
  4289  033D                     __end_of_main:
  4290                           
  4291                           	psect	text1
  4292  0EE6                     __ptext1:	
  4293 ;; *************** function _printMenu *****************
  4294 ;; Defined at:
  4295 ;;		line 32 in file "menu.c"
  4296 ;; Parameters:    Size  Location     Type
  4297 ;;		None
  4298 ;; Auto vars:     Size  Location     Type
  4299 ;;		None
  4300 ;; Return value:  Size  Location     Type
  4301 ;;                  1    wreg      void 
  4302 ;; Registers used:
  4303 ;;		wreg, fsr0l, fsr0h, status,2, status,0, pclath, cstack
  4304 ;; Tracked objects:
  4305 ;;		On entry : 0/0
  4306 ;;		On exit  : 0/0
  4307 ;;		Unchanged: 0/0
  4308 ;; Data sizes:     COMMON   BANK0   BANK1   BANK2   BANK3   BANK4   BANK5   BANK6   BANK7   BANK8   BANK9  BANK10  BANK1
      +1  BANK12  BANK13  BANK14  BANK15  BANK16  BANK17  BANK18  BANK19  BANK20  BANK21  BANK22  BANK23  BANK24  BANK25
  4309 ;;      Params:         0       0       0       0       0       0       0       0       0       0       0       0       
      +0       0       0       0       0       0       0       0       0       0       0       0       0       0       0
  4310 ;;      Locals:         0       0       0       0       0       0       0       0       0       0       0       0       
      +0       0       0       0       0       0       0       0       0       0       0       0       0       0       0
  4311 ;;      Temps:          0       0       0       0       0       0       0       0       0       0       0       0       
      +0       0       0       0       0       0       0       0       0       0       0       0       0       0       0
  4312 ;;      Totals:         0       0       0       0       0       0       0       0       0       0       0       0       
      +0       0       0       0       0       0       0       0       0       0       0       0       0       0       0
  4313 ;;Total ram usage:        0 bytes
  4314 ;; Hardware stack levels used:    1
  4315 ;; Hardware stack levels required when called:   13
  4316 ;; This function calls:
  4317 ;;		_LCDGoto
  4318 ;;		_LCDPutStr
  4319 ;;		_cleanFullMenu
  4320 ;;		_cleanMenu
  4321 ;;		_mainMenu
  4322 ;; This function is called by:
  4323 ;;		_main
  4324 ;; This function uses a non-reentrant model
  4325 ;;
  4326                           
  4327                           
  4328                           ;psect for function _printMenu
  4329  0EE6                     _printMenu:
  4330  0EE6                     l4216:	
  4331                           ;incstack = 0
  4332                           ; Regs used in _printMenu: [wreg-fsr0h+status,2+status,0+pclath+cstack]
  4333                           
  4334                           
  4335                           ;menu.c: 43:     if(inGame){
  4336  0EE6  0020               	movlb	0	; select bank0
  4337  0EE7  0840               	movf	_inGame,w
  4338  0EE8  1903               	btfsc	3,2
  4339  0EE9  2EEB               	goto	u3281
  4340  0EEA  2EEC               	goto	u3280
  4341  0EEB                     u3281:
  4342  0EEB  2EFE               	goto	l4224
  4343  0EEC                     u3280:
  4344  0EEC                     l4218:
  4345                           
  4346                           ;menu.c: 44:         cleanMenu();
  4347  0EEC  318E  26A9  318E   	fcall	_cleanMenu
  4348  0EEF                     l4220:
  4349                           
  4350                           ;menu.c: 45:         LCDGoto(lcdOffset, 0);
  4351  0EEF  0020               	movlb	0	; select bank0
  4352  0EF0  01AF               	clrf	LCDGoto@ln
  4353  0EF1  0841               	movf	_lcdOffset,w
  4354  0EF2  3187  278E  318E   	fcall	_LCDGoto
  4355  0EF5                     l4222:
  4356                           
  4357                           ;menu.c: 46:         LCDPutStr("   Menu   ");
  4358  0EF5  3055               	movlw	low (STR_5| (0+32768))
  4359  0EF6  0020               	movlb	0	; select bank0
  4360  0EF7  00AF               	movwf	LCDPutStr@str
  4361  0EF8  3090               	movlw	high (STR_5| (0+32768))
  4362  0EF9  00B0               	movwf	LCDPutStr@str+1
  4363  0EFA  3187  2766  318E   	fcall	_LCDPutStr
  4364                           
  4365                           ;menu.c: 47:     }else {
  4366  0EFD  2F04               	goto	l421
  4367  0EFE                     l4224:
  4368                           
  4369                           ;menu.c: 48:         cleanFullMenu();
  4370  0EFE  318E  268B  318E   	fcall	_cleanFullMenu
  4371                           
  4372                           ;menu.c: 49:         mainMenu();
  4373  0F01  3183  233D  318E   	fcall	_mainMenu
  4374  0F04                     l421:
  4375  0F04  0008               	return
  4376  0F05                     __end_of_printMenu:
  4377                           
  4378                           	psect	text2
  4379  033D                     __ptext2:	
  4380 ;; *************** function _mainMenu *****************
  4381 ;; Defined at:
  4382 ;;		line 53 in file "menu.c"
  4383 ;; Parameters:    Size  Location     Type
  4384 ;;		None
  4385 ;; Auto vars:     Size  Location     Type
  4386 ;;		None
  4387 ;; Return value:  Size  Location     Type
  4388 ;;                  1    wreg      void 
  4389 ;; Registers used:
  4390 ;;		wreg, fsr0l, fsr0h, status,2, status,0, pclath, cstack
  4391 ;; Tracked objects:
  4392 ;;		On entry : 0/0
  4393 ;;		On exit  : 0/0
  4394 ;;		Unchanged: 0/0
  4395 ;; Data sizes:     COMMON   BANK0   BANK1   BANK2   BANK3   BANK4   BANK5   BANK6   BANK7   BANK8   BANK9  BANK10  BANK1
      +1  BANK12  BANK13  BANK14  BANK15  BANK16  BANK17  BANK18  BANK19  BANK20  BANK21  BANK22  BANK23  BANK24  BANK25
  4396 ;;      Params:         0       0       0       0       0       0       0       0       0       0       0       0       
      +0       0       0       0       0       0       0       0       0       0       0       0       0       0       0
  4397 ;;      Locals:         0       0       0       0       0       0       0       0       0       0       0       0       
      +0       0       0       0       0       0       0       0       0       0       0       0       0       0       0
  4398 ;;      Temps:          0       2       0       0       0       0       0       0       0       0       0       0       
      +0       0       0       0       0       0       0       0       0       0       0       0       0       0       0
  4399 ;;      Totals:         0       2       0       0       0       0       0       0       0       0       0       0       
      +0       0       0       0       0       0       0       0       0       0       0       0       0       0       0
  4400 ;;Total ram usage:        2 bytes
  4401 ;; Hardware stack levels used:    1
  4402 ;; Hardware stack levels required when called:   12
  4403 ;; This function calls:
  4404 ;;		_LCDGoto
  4405 ;;		_LCDPutStr
  4406 ;; This function is called by:
  4407 ;;		_printMenu
  4408 ;; This function uses a non-reentrant model
  4409 ;;
  4410                           
  4411                           
  4412                           ;psect for function _mainMenu
  4413  033D                     _mainMenu:
  4414  033D                     l4158:	
  4415                           ;incstack = 0
  4416                           ; Regs used in _mainMenu: [wreg-fsr0h+status,2+status,0+pclath+cstack]
  4417                           
  4418                           
  4419                           ;menu.c: 63:     switch (mainState){
  4420  033D  2BB2               	goto	l4186
  4421  033E                     l4160:
  4422                           
  4423                           ;menu.c: 65:             LCDGoto(0, 0);
  4424  033E  01AF               	clrf	LCDGoto@ln
  4425  033F  3000               	movlw	0
  4426  0340  3187  278E  3183   	fcall	_LCDGoto
  4427  0343                     l4162:
  4428                           
  4429                           ;menu.c: 66:             LCDPutStr("Select ship#1");
  4430  0343  3011               	movlw	low (STR_6| (0+32768))
  4431  0344  0020               	movlb	0	; select bank0
  4432  0345  00AF               	movwf	LCDPutStr@str
  4433  0346  3090               	movlw	high (STR_6| (0+32768))
  4434  0347  00B0               	movwf	LCDPutStr@str+1
  4435  0348  3187  2766  3183   	fcall	_LCDPutStr
  4436  034B                     l4164:
  4437                           
  4438                           ;menu.c: 67:             LCDGoto(0, 1);
  4439  034B  0020               	movlb	0	; select bank0
  4440  034C  01AF               	clrf	LCDGoto@ln
  4441  034D  0AAF               	incf	LCDGoto@ln,f
  4442  034E  3000               	movlw	0
  4443  034F  3187  278E  3183   	fcall	_LCDGoto
  4444                           
  4445                           ;menu.c: 68:             LCDPutStr("> Tie Fighter");
  4446  0352  303B               	movlw	low (STR_7| (0+32768))
  4447  0353  0020               	movlb	0	; select bank0
  4448  0354  00AF               	movwf	LCDPutStr@str
  4449  0355  3090               	movlw	high (STR_7| (0+32768))
  4450  0356  00B0               	movwf	LCDPutStr@str+1
  4451  0357  3187  2766  3183   	fcall	_LCDPutStr
  4452                           
  4453                           ;menu.c: 69:         break;
  4454  035A  2BC9               	goto	l431
  4455  035B                     l4166:
  4456                           
  4457                           ;menu.c: 71:             LCDGoto(0, 0);
  4458  035B  01AF               	clrf	LCDGoto@ln
  4459  035C  3000               	movlw	0
  4460  035D  3187  278E  3183   	fcall	_LCDGoto
  4461  0360                     l4168:
  4462                           
  4463                           ;menu.c: 72:             LCDPutStr("  Tie Fighter");
  4464  0360  302D               	movlw	low (STR_8| (0+32768))
  4465  0361  0020               	movlb	0	; select bank0
  4466  0362  00AF               	movwf	LCDPutStr@str
  4467  0363  3090               	movlw	high (STR_8| (0+32768))
  4468  0364  00B0               	movwf	LCDPutStr@str+1
  4469  0365  3187  2766  3183   	fcall	_LCDPutStr
  4470  0368                     l4170:
  4471                           
  4472                           ;menu.c: 73:             LCDGoto(0, 1);
  4473  0368  0020               	movlb	0	; select bank0
  4474  0369  01AF               	clrf	LCDGoto@ln
  4475  036A  0AAF               	incf	LCDGoto@ln,f
  4476  036B  3000               	movlw	0
  4477  036C  3187  278E  3183   	fcall	_LCDGoto
  4478                           
  4479                           ;menu.c: 74:             LCDPutStr("> X wing");
  4480  036F  3060               	movlw	low (STR_9| (0+32768))
  4481  0370  0020               	movlb	0	; select bank0
  4482  0371  00AF               	movwf	LCDPutStr@str
  4483  0372  3090               	movlw	high (STR_9| (0+32768))
  4484  0373  00B0               	movwf	LCDPutStr@str+1
  4485  0374  3187  2766  3183   	fcall	_LCDPutStr
  4486                           
  4487                           ;menu.c: 75:         break;
  4488  0377  2BC9               	goto	l431
  4489  0378                     l4172:
  4490                           
  4491                           ;menu.c: 77:             LCDGoto(0, 0);
  4492  0378  01AF               	clrf	LCDGoto@ln
  4493  0379  3000               	movlw	0
  4494  037A  3187  278E  3183   	fcall	_LCDGoto
  4495  037D                     l4174:
  4496                           
  4497                           ;menu.c: 78:             LCDPutStr("Select ship#2");
  4498  037D  301F               	movlw	low (STR_10| (0+32768))
  4499  037E  0020               	movlb	0	; select bank0
  4500  037F  00AF               	movwf	LCDPutStr@str
  4501  0380  3090               	movlw	high (STR_10| (0+32768))
  4502  0381  00B0               	movwf	LCDPutStr@str+1
  4503  0382  3187  2766  3183   	fcall	_LCDPutStr
  4504  0385                     l4176:
  4505                           
  4506                           ;menu.c: 79:             LCDGoto(0, 1);
  4507  0385  0020               	movlb	0	; select bank0
  4508  0386  01AF               	clrf	LCDGoto@ln
  4509  0387  0AAF               	incf	LCDGoto@ln,f
  4510  0388  3000               	movlw	0
  4511  0389  3187  278E  3183   	fcall	_LCDGoto
  4512                           
  4513                           ;menu.c: 80:             LCDPutStr("> Tie Fighter");
  4514  038C  303B               	movlw	low (STR_7| (0+32768))
  4515  038D  0020               	movlb	0	; select bank0
  4516  038E  00AF               	movwf	LCDPutStr@str
  4517  038F  3090               	movlw	high (STR_7| (0+32768))
  4518  0390  00B0               	movwf	LCDPutStr@str+1
  4519  0391  3187  2766  3183   	fcall	_LCDPutStr
  4520                           
  4521                           ;menu.c: 81:         break;
  4522  0394  2BC9               	goto	l431
  4523  0395                     l4178:
  4524                           
  4525                           ;menu.c: 83:             LCDGoto(0, 0);
  4526  0395  01AF               	clrf	LCDGoto@ln
  4527  0396  3000               	movlw	0
  4528  0397  3187  278E  3183   	fcall	_LCDGoto
  4529  039A                     l4180:
  4530                           
  4531                           ;menu.c: 84:             LCDPutStr("  Tie Fighter");
  4532  039A  302D               	movlw	low (STR_8| (0+32768))
  4533  039B  0020               	movlb	0	; select bank0
  4534  039C  00AF               	movwf	LCDPutStr@str
  4535  039D  3090               	movlw	high (STR_8| (0+32768))
  4536  039E  00B0               	movwf	LCDPutStr@str+1
  4537  039F  3187  2766  3183   	fcall	_LCDPutStr
  4538  03A2                     l4182:
  4539                           
  4540                           ;menu.c: 85:             LCDGoto(0, 1);
  4541  03A2  0020               	movlb	0	; select bank0
  4542  03A3  01AF               	clrf	LCDGoto@ln
  4543  03A4  0AAF               	incf	LCDGoto@ln,f
  4544  03A5  3000               	movlw	0
  4545  03A6  3187  278E  3183   	fcall	_LCDGoto
  4546                           
  4547                           ;menu.c: 86:             LCDPutStr("> X wing");
  4548  03A9  3060               	movlw	low (STR_9| (0+32768))
  4549  03AA  0020               	movlb	0	; select bank0
  4550  03AB  00AF               	movwf	LCDPutStr@str
  4551  03AC  3090               	movlw	high (STR_9| (0+32768))
  4552  03AD  00B0               	movwf	LCDPutStr@str+1
  4553  03AE  3187  2766  3183   	fcall	_LCDPutStr
  4554                           
  4555                           ;menu.c: 87:         break;
  4556  03B1  2BC9               	goto	l431
  4557  03B2                     l4186:
  4558  03B2  0020               	movlb	0	; select bank0
  4559  03B3  083F               	movf	_mainState,w
  4560  03B4  00B5               	movwf	??_mainMenu
  4561  03B5  01B6               	clrf	??_mainMenu+1
  4562                           
  4563                           ; Switch on 2 bytes has been partitioned into a top level switch of size 1, and 1 sub-sw
      +                          itches
  4564                           ; Switch size 1, requested type "simple"
  4565                           ; Number of cases is 1, Range of values is 0 to 0
  4566                           ; switch strategies available:
  4567                           ; Name         Instructions Cycles
  4568                           ; simple_byte            4     3 (average)
  4569                           ; direct_byte            8     6 (fixed)
  4570                           ; jumptable            260     6 (fixed)
  4571                           ;	Chosen strategy is simple_byte
  4572  03B6  0836               	movf	??_mainMenu+1,w
  4573  03B7  3A00               	xorlw	0	; case 0
  4574  03B8  1903               	skipnz
  4575  03B9  2BBB               	goto	l5122
  4576  03BA  2BC9               	goto	l431
  4577  03BB                     l5122:
  4578                           
  4579                           ; Switch size 1, requested type "simple"
  4580                           ; Number of cases is 4, Range of values is 0 to 3
  4581                           ; switch strategies available:
  4582                           ; Name         Instructions Cycles
  4583                           ; simple_byte           13     7 (average)
  4584                           ; direct_byte           14     6 (fixed)
  4585                           ; jumptable            260     6 (fixed)
  4586                           ;	Chosen strategy is simple_byte
  4587  03BB  0835               	movf	??_mainMenu,w
  4588  03BC  3A00               	xorlw	0	; case 0
  4589  03BD  1903               	skipnz
  4590  03BE  2B3E               	goto	l4160
  4591  03BF  3A01               	xorlw	1	; case 1
  4592  03C0  1903               	skipnz
  4593  03C1  2B5B               	goto	l4166
  4594  03C2  3A03               	xorlw	3	; case 2
  4595  03C3  1903               	skipnz
  4596  03C4  2B78               	goto	l4172
  4597  03C5  3A01               	xorlw	1	; case 3
  4598  03C6  1903               	skipnz
  4599  03C7  2B95               	goto	l4178
  4600  03C8  2BC9               	goto	l431
  4601  03C9                     l431:
  4602  03C9  0008               	return
  4603  03CA                     __end_of_mainMenu:
  4604                           
  4605                           	psect	text3
  4606  0EA9                     __ptext3:	
  4607 ;; *************** function _cleanMenu *****************
  4608 ;; Defined at:
  4609 ;;		line 93 in file "menu.c"
  4610 ;; Parameters:    Size  Location     Type
  4611 ;;		None
  4612 ;; Auto vars:     Size  Location     Type
  4613 ;;		None
  4614 ;; Return value:  Size  Location     Type
  4615 ;;                  1    wreg      void 
  4616 ;; Registers used:
  4617 ;;		wreg, fsr0l, fsr0h, status,2, status,0, pclath, cstack
  4618 ;; Tracked objects:
  4619 ;;		On entry : 0/0
  4620 ;;		On exit  : 0/0
  4621 ;;		Unchanged: 0/0
  4622 ;; Data sizes:     COMMON   BANK0   BANK1   BANK2   BANK3   BANK4   BANK5   BANK6   BANK7   BANK8   BANK9  BANK10  BANK1
      +1  BANK12  BANK13  BANK14  BANK15  BANK16  BANK17  BANK18  BANK19  BANK20  BANK21  BANK22  BANK23  BANK24  BANK25
  4623 ;;      Params:         0       0       0       0       0       0       0       0       0       0       0       0       
      +0       0       0       0       0       0       0       0       0       0       0       0       0       0       0
  4624 ;;      Locals:         0       0       0       0       0       0       0       0       0       0       0       0       
      +0       0       0       0       0       0       0       0       0       0       0       0       0       0       0
  4625 ;;      Temps:          0       0       0       0       0       0       0       0       0       0       0       0       
      +0       0       0       0       0       0       0       0       0       0       0       0       0       0       0
  4626 ;;      Totals:         0       0       0       0       0       0       0       0       0       0       0       0       
      +0       0       0       0       0       0       0       0       0       0       0       0       0       0       0
  4627 ;;Total ram usage:        0 bytes
  4628 ;; Hardware stack levels used:    1
  4629 ;; Hardware stack levels required when called:   12
  4630 ;; This function calls:
  4631 ;;		_LCDGoto
  4632 ;;		_LCDPutStr
  4633 ;; This function is called by:
  4634 ;;		_printMenu
  4635 ;; This function uses a non-reentrant model
  4636 ;;
  4637                           
  4638                           
  4639                           ;psect for function _cleanMenu
  4640  0EA9                     _cleanMenu:
  4641  0EA9                     l4146:	
  4642                           ;incstack = 0
  4643                           ; Regs used in _cleanMenu: [wreg-fsr0h+status,2+status,0+pclath+cstack]
  4644                           
  4645                           
  4646                           ;menu.c: 104:         LCDGoto(lcdOffset, 0);
  4647  0EA9  0020               	movlb	0	; select bank0
  4648  0EAA  01AF               	clrf	LCDGoto@ln
  4649  0EAB  0841               	movf	_lcdOffset,w
  4650  0EAC  3187  278E  318E   	fcall	_LCDGoto
  4651  0EAF                     l4148:
  4652                           
  4653                           ;menu.c: 105:         LCDPutStr("           ");
  4654  0EAF  3005               	movlw	low ((STR_1+5)| (0+32768))
  4655  0EB0  0020               	movlb	0	; select bank0
  4656  0EB1  00AF               	movwf	LCDPutStr@str
  4657  0EB2  3090               	movlw	high ((STR_1+5)| (0+32768))
  4658  0EB3  00B0               	movwf	LCDPutStr@str+1
  4659  0EB4  3187  2766  318E   	fcall	_LCDPutStr
  4660  0EB7                     l4150:
  4661                           
  4662                           ;menu.c: 106:         LCDGoto(lcdOffset, 1);
  4663  0EB7  0020               	movlb	0	; select bank0
  4664  0EB8  01AF               	clrf	LCDGoto@ln
  4665  0EB9  0AAF               	incf	LCDGoto@ln,f
  4666  0EBA  0841               	movf	_lcdOffset,w
  4667  0EBB  3187  278E  318E   	fcall	_LCDGoto
  4668                           
  4669                           ;menu.c: 107:         LCDPutStr("           ");
  4670  0EBE  3005               	movlw	low ((STR_1+5)| (0+32768))
  4671  0EBF  0020               	movlb	0	; select bank0
  4672  0EC0  00AF               	movwf	LCDPutStr@str
  4673  0EC1  3090               	movlw	high ((STR_1+5)| (0+32768))
  4674  0EC2  00B0               	movwf	LCDPutStr@str+1
  4675  0EC3  3187  2766  318E   	fcall	_LCDPutStr
  4676  0EC6                     l434:
  4677  0EC6  0008               	return
  4678  0EC7                     __end_of_cleanMenu:
  4679                           
  4680                           	psect	text4
  4681  0E8B                     __ptext4:	
  4682 ;; *************** function _cleanFullMenu *****************
  4683 ;; Defined at:
  4684 ;;		line 134 in file "menu.c"
  4685 ;; Parameters:    Size  Location     Type
  4686 ;;		None
  4687 ;; Auto vars:     Size  Location     Type
  4688 ;;		None
  4689 ;; Return value:  Size  Location     Type
  4690 ;;                  1    wreg      void 
  4691 ;; Registers used:
  4692 ;;		wreg, fsr0l, fsr0h, status,2, status,0, pclath, cstack
  4693 ;; Tracked objects:
  4694 ;;		On entry : 0/0
  4695 ;;		On exit  : 0/0
  4696 ;;		Unchanged: 0/0
  4697 ;; Data sizes:     COMMON   BANK0   BANK1   BANK2   BANK3   BANK4   BANK5   BANK6   BANK7   BANK8   BANK9  BANK10  BANK1
      +1  BANK12  BANK13  BANK14  BANK15  BANK16  BANK17  BANK18  BANK19  BANK20  BANK21  BANK22  BANK23  BANK24  BANK25
  4698 ;;      Params:         0       0       0       0       0       0       0       0       0       0       0       0       
      +0       0       0       0       0       0       0       0       0       0       0       0       0       0       0
  4699 ;;      Locals:         0       0       0       0       0       0       0       0       0       0       0       0       
      +0       0       0       0       0       0       0       0       0       0       0       0       0       0       0
  4700 ;;      Temps:          0       0       0       0       0       0       0       0       0       0       0       0       
      +0       0       0       0       0       0       0       0       0       0       0       0       0       0       0
  4701 ;;      Totals:         0       0       0       0       0       0       0       0       0       0       0       0       
      +0       0       0       0       0       0       0       0       0       0       0       0       0       0       0
  4702 ;;Total ram usage:        0 bytes
  4703 ;; Hardware stack levels used:    1
  4704 ;; Hardware stack levels required when called:   12
  4705 ;; This function calls:
  4706 ;;		_LCDGoto
  4707 ;;		_LCDPutStr
  4708 ;; This function is called by:
  4709 ;;		_printMenu
  4710 ;; This function uses a non-reentrant model
  4711 ;;
  4712                           
  4713                           
  4714                           ;psect for function _cleanFullMenu
  4715  0E8B                     _cleanFullMenu:
  4716  0E8B                     l4152:	
  4717                           ;incstack = 0
  4718                           ; Regs used in _cleanFullMenu: [wreg-fsr0h+status,2+status,0+pclath+cstack]
  4719                           
  4720                           
  4721                           ;menu.c: 144:         LCDGoto(0, 0);
  4722  0E8B  0020               	movlb	0	; select bank0
  4723  0E8C  01AF               	clrf	LCDGoto@ln
  4724  0E8D  3000               	movlw	0
  4725  0E8E  3187  278E  318E   	fcall	_LCDGoto
  4726  0E91                     l4154:
  4727                           
  4728                           ;menu.c: 145:         LCDPutStr("                ");
  4729  0E91  3000               	movlw	low (STR_1| (0+32768))
  4730  0E92  0020               	movlb	0	; select bank0
  4731  0E93  00AF               	movwf	LCDPutStr@str
  4732  0E94  3090               	movlw	high (STR_1| (0+32768))
  4733  0E95  00B0               	movwf	LCDPutStr@str+1
  4734  0E96  3187  2766  318E   	fcall	_LCDPutStr
  4735  0E99                     l4156:
  4736                           
  4737                           ;menu.c: 146:         LCDGoto(0, 1);
  4738  0E99  0020               	movlb	0	; select bank0
  4739  0E9A  01AF               	clrf	LCDGoto@ln
  4740  0E9B  0AAF               	incf	LCDGoto@ln,f
  4741  0E9C  3000               	movlw	0
  4742  0E9D  3187  278E  318E   	fcall	_LCDGoto
  4743                           
  4744                           ;menu.c: 147:         LCDPutStr("                ");
  4745  0EA0  3000               	movlw	low (STR_1| (0+32768))
  4746  0EA1  0020               	movlb	0	; select bank0
  4747  0EA2  00AF               	movwf	LCDPutStr@str
  4748  0EA3  3090               	movlw	high (STR_1| (0+32768))
  4749  0EA4  00B0               	movwf	LCDPutStr@str+1
  4750  0EA5  3187  2766  318E   	fcall	_LCDPutStr
  4751  0EA8                     l440:
  4752  0EA8  0008               	return
  4753  0EA9                     __end_of_cleanFullMenu:
  4754                           
  4755                           	psect	text5
  4756  0766                     __ptext5:	
  4757 ;; *************** function _LCDPutStr *****************
  4758 ;; Defined at:
  4759 ;;		line 131 in file "lcd.c"
  4760 ;; Parameters:    Size  Location     Type
  4761 ;;  str             2   15[BANK0 ] PTR const unsigned char 
  4762 ;;		 -> STR_36(2), STR_35(2), STR_34(2), STR_33(2), 
  4763 ;;		 -> STR_32(2), STR_31(2), STR_30(2), STR_29(2), 
  4764 ;;		 -> STR_28(2), STR_27(2), STR_26(2), STR_25(2), 
  4765 ;;		 -> STR_24(2), STR_23(2), STR_22(2), STR_21(2), 
  4766 ;;		 -> STR_20(2), STR_19(2), STR_18(17), STR_17(17), 
  4767 ;;		 -> STR_16(12), STR_15(12), STR_14(12), STR_13(9), 
  4768 ;;		 -> STR_12(14), STR_11(14), STR_10(14), STR_9(9), 
  4769 ;;		 -> STR_8(14), STR_7(14), STR_6(14), STR_5(11), 
  4770 ;;		 -> STR_4(2), STR_3(2), STR_2(17), STR_1(17), 
  4771 ;; Auto vars:     Size  Location     Type
  4772 ;;  i               1   20[BANK0 ] unsigned char 
  4773 ;; Return value:  Size  Location     Type
  4774 ;;                  1    wreg      void 
  4775 ;; Registers used:
  4776 ;;		wreg, fsr0l, fsr0h, status,2, status,0, pclath, cstack
  4777 ;; Tracked objects:
  4778 ;;		On entry : 0/0
  4779 ;;		On exit  : 0/0
  4780 ;;		Unchanged: 0/0
  4781 ;; Data sizes:     COMMON   BANK0   BANK1   BANK2   BANK3   BANK4   BANK5   BANK6   BANK7   BANK8   BANK9  BANK10  BANK1
      +1  BANK12  BANK13  BANK14  BANK15  BANK16  BANK17  BANK18  BANK19  BANK20  BANK21  BANK22  BANK23  BANK24  BANK25
  4782 ;;      Params:         0       2       0       0       0       0       0       0       0       0       0       0       
      +0       0       0       0       0       0       0       0       0       0       0       0       0       0       0
  4783 ;;      Locals:         0       1       0       0       0       0       0       0       0       0       0       0       
      +0       0       0       0       0       0       0       0       0       0       0       0       0       0       0
  4784 ;;      Temps:          0       3       0       0       0       0       0       0       0       0       0       0       
      +0       0       0       0       0       0       0       0       0       0       0       0       0       0       0
  4785 ;;      Totals:         0       6       0       0       0       0       0       0       0       0       0       0       
      +0       0       0       0       0       0       0       0       0       0       0       0       0       0       0
  4786 ;;Total ram usage:        6 bytes
  4787 ;; Hardware stack levels used:    1
  4788 ;; Hardware stack levels required when called:   11
  4789 ;; This function calls:
  4790 ;;		_LCDPutChar
  4791 ;; This function is called by:
  4792 ;;		_printMenu
  4793 ;;		_mainMenu
  4794 ;;		_cleanMenu
  4795 ;;		_cleanFullMenu
  4796 ;;		_basicShoot
  4797 ;;		_printHeart
  4798 ;;		_printShield
  4799 ;; This function uses a non-reentrant model
  4800 ;;
  4801                           
  4802                           
  4803                           ;psect for function _LCDPutStr
  4804  0766                     _LCDPutStr:
  4805  0766                     l3890:	
  4806                           ;incstack = 0
  4807                           ; Regs used in _LCDPutStr: [wreg-fsr0h+status,2+status,0+pclath+cstack]
  4808                           
  4809                           
  4810                           ;lcd.c: 131: void LCDPutStr(const char *str);lcd.c: 132: {;lcd.c: 133:   uint8_t i = 0;
  4811  0766  0020               	movlb	0	; select bank0
  4812  0767  01B4               	clrf	LCDPutStr@i
  4813                           
  4814                           ;lcd.c: 136:   while (str[i])
  4815  0768  2F7D               	goto	l3896
  4816  0769                     l3892:
  4817                           
  4818                           ;lcd.c: 137:   {;lcd.c: 139:     LCDPutChar(str[i++]);
  4819  0769  0830               	movf	LCDPutStr@str+1,w
  4820  076A  00B2               	movwf	??_LCDPutStr+1
  4821  076B  082F               	movf	LCDPutStr@str,w
  4822  076C  00B1               	movwf	??_LCDPutStr
  4823  076D  0834               	movf	LCDPutStr@i,w
  4824  076E  0731               	addwf	??_LCDPutStr,w
  4825  076F  0084               	movwf	4
  4826  0770  0832               	movf	??_LCDPutStr+1,w
  4827  0771  1803               	skipnc
  4828  0772  0A32               	incf	??_LCDPutStr+1,w
  4829  0773  0085               	movwf	5
  4830  0774  0800               	movf	0,w	;code access
  4831  0775  3187  27DE  3187   	fcall	_LCDPutChar
  4832  0778                     l3894:
  4833  0778  3001               	movlw	1
  4834  0779  0020               	movlb	0	; select bank0
  4835  077A  00B1               	movwf	??_LCDPutStr
  4836  077B  0831               	movf	??_LCDPutStr,w
  4837  077C  07B4               	addwf	LCDPutStr@i,f
  4838  077D                     l3896:
  4839                           
  4840                           ;lcd.c: 136:   while (str[i])
  4841  077D  0830               	movf	LCDPutStr@str+1,w
  4842  077E  00B2               	movwf	??_LCDPutStr+1
  4843  077F  082F               	movf	LCDPutStr@str,w
  4844  0780  00B1               	movwf	??_LCDPutStr
  4845  0781  0834               	movf	LCDPutStr@i,w
  4846  0782  0731               	addwf	??_LCDPutStr,w
  4847  0783  0084               	movwf	4
  4848  0784  0832               	movf	??_LCDPutStr+1,w
  4849  0785  1803               	skipnc
  4850  0786  0A32               	incf	??_LCDPutStr+1,w
  4851  0787  0085               	movwf	5
  4852  0788  0012               	moviw fsr0++
  4853  0789  1D03               	btfss	3,2
  4854  078A  2F8C               	goto	u3061
  4855  078B  2F8D               	goto	u3060
  4856  078C                     u3061:
  4857  078C  2F69               	goto	l3892
  4858  078D                     u3060:
  4859  078D                     l304:
  4860  078D  0008               	return
  4861  078E                     __end_of_LCDPutStr:
  4862                           
  4863                           	psect	text6
  4864  078E                     __ptext6:	
  4865 ;; *************** function _LCDGoto *****************
  4866 ;; Defined at:
  4867 ;;		line 143 in file "lcd.c"
  4868 ;; Parameters:    Size  Location     Type
  4869 ;;  pos             1    wreg     unsigned char 
  4870 ;;  ln              1   15[BANK0 ] unsigned char 
  4871 ;; Auto vars:     Size  Location     Type
  4872 ;;  pos             1   18[BANK0 ] unsigned char 
  4873 ;; Return value:  Size  Location     Type
  4874 ;;                  1    wreg      void 
  4875 ;; Registers used:
  4876 ;;		wreg, status,2, status,0, pclath, cstack
  4877 ;; Tracked objects:
  4878 ;;		On entry : 0/0
  4879 ;;		On exit  : 0/0
  4880 ;;		Unchanged: 0/0
  4881 ;; Data sizes:     COMMON   BANK0   BANK1   BANK2   BANK3   BANK4   BANK5   BANK6   BANK7   BANK8   BANK9  BANK10  BANK1
      +1  BANK12  BANK13  BANK14  BANK15  BANK16  BANK17  BANK18  BANK19  BANK20  BANK21  BANK22  BANK23  BANK24  BANK25
  4882 ;;      Params:         0       1       0       0       0       0       0       0       0       0       0       0       
      +0       0       0       0       0       0       0       0       0       0       0       0       0       0       0
  4883 ;;      Locals:         0       3       0       0       0       0       0       0       0       0       0       0       
      +0       0       0       0       0       0       0       0       0       0       0       0       0       0       0
  4884 ;;      Temps:          0       0       0       0       0       0       0       0       0       0       0       0       
      +0       0       0       0       0       0       0       0       0       0       0       0       0       0       0
  4885 ;;      Totals:         0       4       0       0       0       0       0       0       0       0       0       0       
      +0       0       0       0       0       0       0       0       0       0       0       0       0       0       0
  4886 ;;Total ram usage:        4 bytes
  4887 ;; Hardware stack levels used:    1
  4888 ;; Hardware stack levels required when called:   11
  4889 ;; This function calls:
  4890 ;;		_LCDPutCmd
  4891 ;; This function is called by:
  4892 ;;		_printMenu
  4893 ;;		_mainMenu
  4894 ;;		_cleanMenu
  4895 ;;		_cleanFullMenu
  4896 ;;		_idleScreen
  4897 ;;		_basicShoot
  4898 ;;		_printHeart
  4899 ;;		_printShield
  4900 ;; This function uses a non-reentrant model
  4901 ;;
  4902                           
  4903                           
  4904                           ;psect for function _LCDGoto
  4905  078E                     _LCDGoto:
  4906                           
  4907                           ;incstack = 0
  4908                           ; Regs used in _LCDGoto: [wreg+status,2+status,0+pclath+cstack]
  4909                           ;LCDGoto@pos stored from wreg
  4910  078E  0020               	movlb	0	; select bank0
  4911  078F  00B2               	movwf	LCDGoto@pos
  4912  0790                     l3898:
  4913                           
  4914                           ;lcd.c: 143: void LCDGoto(uint8_t pos, uint8_t ln);lcd.c: 144: {;lcd.c: 146:   if ((ln >
      +                           (2 - 1)) || (pos > (16 - 1)))
  4915  0790  3002               	movlw	2
  4916  0791  022F               	subwf	LCDGoto@ln,w
  4917  0792  1803               	skipnc
  4918  0793  2F95               	goto	u3071
  4919  0794  2F96               	goto	u3070
  4920  0795                     u3071:
  4921  0795  2FB5               	goto	l310
  4922  0796                     u3070:
  4923  0796                     l3900:
  4924  0796  3010               	movlw	16
  4925  0797  0232               	subwf	LCDGoto@pos,w
  4926  0798  1C03               	skipc
  4927  0799  2F9B               	goto	u3081
  4928  079A  2F9C               	goto	u3080
  4929  079B                     u3081:
  4930  079B  2F9D               	goto	l3902
  4931  079C                     u3080:
  4932  079C  2FB5               	goto	l310
  4933  079D                     l3902:
  4934                           
  4935                           ;lcd.c: 153:   LCDPutCmd((ln == 1) ? (0xC0 | pos) : (0x80 | pos));
  4936  079D  032F               	decf	LCDGoto@ln,w
  4937  079E  1903               	btfsc	3,2
  4938  079F  2FA1               	goto	u3091
  4939  07A0  2FA2               	goto	u3090
  4940  07A1                     u3091:
  4941  07A1  2FA8               	goto	l3906
  4942  07A2                     u3090:
  4943  07A2                     l3904:
  4944  07A2  3080               	movlw	128
  4945  07A3  0432               	iorwf	LCDGoto@pos,w
  4946  07A4  00B0               	movwf	_LCDGoto$493
  4947  07A5  3000               	movlw	0
  4948  07A6  00B1               	movwf	_LCDGoto$493+1
  4949  07A7  2FAD               	goto	l3908
  4950  07A8                     l3906:
  4951  07A8  30C0               	movlw	192
  4952  07A9  0432               	iorwf	LCDGoto@pos,w
  4953  07AA  00B0               	movwf	_LCDGoto$493
  4954  07AB  3000               	movlw	0
  4955  07AC  00B1               	movwf	_LCDGoto$493+1
  4956  07AD                     l3908:
  4957  07AD  0830               	movf	_LCDGoto$493,w
  4958  07AE  318F  2745  3187   	fcall	_LCDPutCmd
  4959  07B1                     l3910:
  4960                           
  4961                           ;lcd.c: 156:   _delay((unsigned long)((5)*(500000/4000.0)));
  4962  07B1  30D0               	movlw	208
  4963  07B2                     u3737:
  4964  07B2  0B89               	decfsz	9,f
  4965  07B3  2FB2               	goto	u3737
  4966  07B4  0000               	nop
  4967  07B5                     l310:
  4968  07B5  0008               	return
  4969  07B6                     __end_of_LCDGoto:
  4970                           
  4971                           	psect	text7
  4972  0DBD                     __ptext7:	
  4973 ;; *************** function _disableButton *****************
  4974 ;; Defined at:
  4975 ;;		line 124 in file "functions.c"
  4976 ;; Parameters:    Size  Location     Type
  4977 ;;  player          1    wreg     _Bool 
  4978 ;; Auto vars:     Size  Location     Type
  4979 ;;  player          1    8[BANK0 ] _Bool 
  4980 ;; Return value:  Size  Location     Type
  4981 ;;                  1    wreg      void 
  4982 ;; Registers used:
  4983 ;;		wreg, status,2, status,0
  4984 ;; Tracked objects:
  4985 ;;		On entry : 0/0
  4986 ;;		On exit  : 0/0
  4987 ;;		Unchanged: 0/0
  4988 ;; Data sizes:     COMMON   BANK0   BANK1   BANK2   BANK3   BANK4   BANK5   BANK6   BANK7   BANK8   BANK9  BANK10  BANK1
      +1  BANK12  BANK13  BANK14  BANK15  BANK16  BANK17  BANK18  BANK19  BANK20  BANK21  BANK22  BANK23  BANK24  BANK25
  4989 ;;      Params:         0       0       0       0       0       0       0       0       0       0       0       0       
      +0       0       0       0       0       0       0       0       0       0       0       0       0       0       0
  4990 ;;      Locals:         0       1       0       0       0       0       0       0       0       0       0       0       
      +0       0       0       0       0       0       0       0       0       0       0       0       0       0       0
  4991 ;;      Temps:          0       0       0       0       0       0       0       0       0       0       0       0       
      +0       0       0       0       0       0       0       0       0       0       0       0       0       0       0
  4992 ;;      Totals:         0       1       0       0       0       0       0       0       0       0       0       0       
      +0       0       0       0       0       0       0       0       0       0       0       0       0       0       0
  4993 ;;Total ram usage:        1 bytes
  4994 ;; Hardware stack levels used:    1
  4995 ;; Hardware stack levels required when called:    9
  4996 ;; This function calls:
  4997 ;;		Nothing
  4998 ;; This function is called by:
  4999 ;;		_main
  5000 ;; This function uses a non-reentrant model
  5001 ;;
  5002                           
  5003                           
  5004                           ;psect for function _disableButton
  5005  0DBD                     _disableButton:
  5006                           
  5007                           ;incstack = 0
  5008                           ; Regs used in _disableButton: [wreg+status,2+status,0]
  5009                           ;disableButton@player stored from wreg
  5010  0DBD  0020               	movlb	0	; select bank0
  5011  0DBE  00A8               	movwf	disableButton@player
  5012  0DBF                     l4226:
  5013                           
  5014                           ;functions.c: 124: void disableButton (_Bool player);functions.c: 135:     {;functions.c
      +                          : 136:     if (player == 1)
  5015  0DBF  0328               	decf	disableButton@player,w
  5016  0DC0  1D03               	btfss	3,2
  5017  0DC1  2DC3               	goto	u3291
  5018  0DC2  2DC4               	goto	u3290
  5019  0DC3                     u3291:
  5020  0DC3  2DC9               	goto	l355
  5021  0DC4                     u3290:
  5022  0DC4                     l4228:
  5023                           
  5024                           ;functions.c: 138:         {;functions.c: 140:         IOCANbits.IOCAN3 = 0;
  5025  0DC4  0027               	movlb	7	; select bank7
  5026  0DC5  1192               	bcf	18,3	;volatile
  5027                           
  5028                           ;functions.c: 142:         IOCANbits.IOCAN4 = 0;
  5029  0DC6  1212               	bcf	18,4	;volatile
  5030                           
  5031                           ;functions.c: 144:         IOCANbits.IOCAN5 = 0;
  5032  0DC7  1292               	bcf	18,5	;volatile
  5033                           
  5034                           ;functions.c: 145:         }
  5035  0DC8  2DCD               	goto	l357
  5036  0DC9                     l355:	
  5037                           ;functions.c: 146:     else
  5038                           
  5039                           
  5040                           ;functions.c: 148:         {;functions.c: 150:         IOCANbits.IOCAN0 = 0;
  5041  0DC9  0027               	movlb	7	; select bank7
  5042  0DCA  1012               	bcf	18,0	;volatile
  5043                           
  5044                           ;functions.c: 152:         IOCANbits.IOCAN1 = 0;
  5045  0DCB  1092               	bcf	18,1	;volatile
  5046                           
  5047                           ;functions.c: 154:         IOCANbits.IOCAN2 = 0;
  5048  0DCC  1112               	bcf	18,2	;volatile
  5049  0DCD                     l357:
  5050  0DCD  0008               	return
  5051  0DCE                     __end_of_disableButton:
  5052                           
  5053                           	psect	text8
  5054  068B                     __ptext8:	
  5055 ;; *************** function _createCustomCharacter *****************
  5056 ;; Defined at:
  5057 ;;		line 29 in file "functions.c"
  5058 ;; Parameters:    Size  Location     Type
  5059 ;;  Pattern         2   15[BANK0 ] PTR unsigned char 
  5060 ;;		 -> printShield@shield22(8), printShield@shield21(8), printShield@shield12(8), printShield@shield11(8), 
  5061 ;;		 -> printHeart@heart23(8), printHeart@heart22(8), printHeart@heart21(8), printHeart@heart13(8), 
  5062 ;;		 -> printHeart@heart12(8), printHeart@heart11(8), main@Pattern8(8), main@Pattern5(8), 
  5063 ;;		 -> main@Pattern4(8), main@Pattern3(8), main@Pattern2(8), main@Pattern1(8), 
  5064 ;;  Location        1   17[BANK0 ] const unsigned char 
  5065 ;; Auto vars:     Size  Location     Type
  5066 ;;  i               2   19[BANK0 ] int 
  5067 ;; Return value:  Size  Location     Type
  5068 ;;                  1    wreg      void 
  5069 ;; Registers used:
  5070 ;;		wreg, fsr1l, fsr1h, status,2, status,0, pclath, cstack
  5071 ;; Tracked objects:
  5072 ;;		On entry : 0/0
  5073 ;;		On exit  : 0/0
  5074 ;;		Unchanged: 0/0
  5075 ;; Data sizes:     COMMON   BANK0   BANK1   BANK2   BANK3   BANK4   BANK5   BANK6   BANK7   BANK8   BANK9  BANK10  BANK1
      +1  BANK12  BANK13  BANK14  BANK15  BANK16  BANK17  BANK18  BANK19  BANK20  BANK21  BANK22  BANK23  BANK24  BANK25
  5076 ;;      Params:         0       3       0       0       0       0       0       0       0       0       0       0       
      +0       0       0       0       0       0       0       0       0       0       0       0       0       0       0
  5077 ;;      Locals:         0       2       0       0       0       0       0       0       0       0       0       0       
      +0       0       0       0       0       0       0       0       0       0       0       0       0       0       0
  5078 ;;      Temps:          0       1       0       0       0       0       0       0       0       0       0       0       
      +0       0       0       0       0       0       0       0       0       0       0       0       0       0       0
  5079 ;;      Totals:         0       6       0       0       0       0       0       0       0       0       0       0       
      +0       0       0       0       0       0       0       0       0       0       0       0       0       0       0
  5080 ;;Total ram usage:        6 bytes
  5081 ;; Hardware stack levels used:    1
  5082 ;; Hardware stack levels required when called:   11
  5083 ;; This function calls:
  5084 ;;		_LCDPutChar
  5085 ;;		_LCDPutCmd
  5086 ;; This function is called by:
  5087 ;;		_main
  5088 ;;		_printHeart
  5089 ;;		_printShield
  5090 ;; This function uses a non-reentrant model
  5091 ;;
  5092                           
  5093                           
  5094                           ;psect for function _createCustomCharacter
  5095  068B                     _createCustomCharacter:
  5096  068B                     l4710:	
  5097                           ;incstack = 0
  5098                           ; Regs used in _createCustomCharacter: [wreg+fsr1l+fsr1h+status,2+status,0+pclath+cstack
      +                          ]
  5099                           
  5100  068B                     l4712:
  5101                           
  5102                           ;functions.c: 46:     LCDPutCmd (0x40+(Location*8));
  5103  068B  0020               	movlb	0	; select bank0
  5104  068C  0831               	movf	createCustomCharacter@Location,w
  5105  068D  00B2               	movwf	??_createCustomCharacter
  5106  068E  3002               	movlw	2
  5107  068F                     u3555:
  5108  068F  35B2               	lslf	??_createCustomCharacter,f
  5109  0690  3EFF               	addlw	-1
  5110  0691  1D03               	skipz
  5111  0692  2E8F               	goto	u3555
  5112  0693  3532               	lslf	??_createCustomCharacter,w
  5113  0694  3E40               	addlw	64
  5114  0695  318F  2745  3186   	fcall	_LCDPutCmd
  5115  0698                     l4714:
  5116                           
  5117                           ;functions.c: 48:     for (i=0; i<8; i++)
  5118  0698  0020               	movlb	0	; select bank0
  5119  0699  01B3               	clrf	createCustomCharacter@i
  5120  069A  01B4               	clrf	createCustomCharacter@i+1
  5121  069B                     l4720:
  5122                           
  5123                           ;functions.c: 50:         LCDPutChar (Pattern [ i ] );
  5124  069B  0020               	movlb	0	; select bank0
  5125  069C  0833               	movf	createCustomCharacter@i,w
  5126  069D  072F               	addwf	createCustomCharacter@Pattern,w
  5127  069E  0086               	movwf	6
  5128  069F  0834               	movf	createCustomCharacter@i+1,w
  5129  06A0  3D30               	addwfc	createCustomCharacter@Pattern+1,w
  5130  06A1  0087               	movwf	7
  5131  06A2  0801               	movf	1,w
  5132  06A3  3187  27DE  3186   	fcall	_LCDPutChar
  5133  06A6                     l4722:
  5134  06A6  3001               	movlw	1
  5135  06A7  0020               	movlb	0	; select bank0
  5136  06A8  07B3               	addwf	createCustomCharacter@i,f
  5137  06A9  3000               	movlw	0
  5138  06AA  3DB4               	addwfc	createCustomCharacter@i+1,f
  5139  06AB                     l4724:
  5140  06AB  0834               	movf	createCustomCharacter@i+1,w
  5141  06AC  3A80               	xorlw	128
  5142  06AD  00B2               	movwf	??_createCustomCharacter
  5143  06AE  3080               	movlw	128
  5144  06AF  0232               	subwf	??_createCustomCharacter,w
  5145  06B0  1D03               	skipz
  5146  06B1  2EB4               	goto	u3565
  5147  06B2  3008               	movlw	8
  5148  06B3  0233               	subwf	createCustomCharacter@i,w
  5149  06B4                     u3565:
  5150  06B4  1C03               	skipc
  5151  06B5  2EB7               	goto	u3561
  5152  06B6  2EB8               	goto	u3560
  5153  06B7                     u3561:
  5154  06B7  2E9B               	goto	l4720
  5155  06B8                     u3560:
  5156  06B8                     l338:
  5157  06B8  0008               	return
  5158  06B9                     __end_of_createCustomCharacter:
  5159                           
  5160                           	psect	text9
  5161  07DE                     __ptext9:	
  5162 ;; *************** function _LCDPutChar *****************
  5163 ;; Defined at:
  5164 ;;		line 101 in file "lcd.c"
  5165 ;; Parameters:    Size  Location     Type
  5166 ;;  ch              1    wreg     unsigned char 
  5167 ;; Auto vars:     Size  Location     Type
  5168 ;;  ch              1   14[BANK0 ] unsigned char 
  5169 ;; Return value:  Size  Location     Type
  5170 ;;                  1    wreg      void 
  5171 ;; Registers used:
  5172 ;;		wreg, status,2, status,0, pclath, cstack
  5173 ;; Tracked objects:
  5174 ;;		On entry : 0/0
  5175 ;;		On exit  : 0/0
  5176 ;;		Unchanged: 0/0
  5177 ;; Data sizes:     COMMON   BANK0   BANK1   BANK2   BANK3   BANK4   BANK5   BANK6   BANK7   BANK8   BANK9  BANK10  BANK1
      +1  BANK12  BANK13  BANK14  BANK15  BANK16  BANK17  BANK18  BANK19  BANK20  BANK21  BANK22  BANK23  BANK24  BANK25
  5178 ;;      Params:         0       0       0       0       0       0       0       0       0       0       0       0       
      +0       0       0       0       0       0       0       0       0       0       0       0       0       0       0
  5179 ;;      Locals:         0       1       0       0       0       0       0       0       0       0       0       0       
      +0       0       0       0       0       0       0       0       0       0       0       0       0       0       0
  5180 ;;      Temps:          0       2       0       0       0       0       0       0       0       0       0       0       
      +0       0       0       0       0       0       0       0       0       0       0       0       0       0       0
  5181 ;;      Totals:         0       3       0       0       0       0       0       0       0       0       0       0       
      +0       0       0       0       0       0       0       0       0       0       0       0       0       0       0
  5182 ;;Total ram usage:        3 bytes
  5183 ;; Hardware stack levels used:    1
  5184 ;; Hardware stack levels required when called:   10
  5185 ;; This function calls:
  5186 ;;		_LCDWriteNibble
  5187 ;; This function is called by:
  5188 ;;		_LCDPutStr
  5189 ;;		_createCustomCharacter
  5190 ;;		_idleScreen
  5191 ;;		_basicShoot
  5192 ;;		_printHeart
  5193 ;;		_printShield
  5194 ;; This function uses a non-reentrant model
  5195 ;;
  5196                           
  5197                           
  5198                           ;psect for function _LCDPutChar
  5199  07DE                     _LCDPutChar:
  5200                           
  5201                           ;incstack = 0
  5202                           ; Regs used in _LCDPutChar: [wreg+status,2+status,0+pclath+cstack]
  5203                           ;LCDPutChar@ch stored from wreg
  5204  07DE  0020               	movlb	0	; select bank0
  5205  07DF  00AE               	movwf	LCDPutChar@ch
  5206  07E0                     l3846:
  5207                           
  5208                           ;lcd.c: 101: void LCDPutChar(uint8_t ch);lcd.c: 102: {;lcd.c: 103:   _delay((unsigned lo
      +                          ng)((5)*(500000/4000.0)));
  5209  07E0  30D0               	movlw	208
  5210  07E1                     u3747:
  5211  07E1  0B89               	decfsz	9,f
  5212  07E2  2FE1               	goto	u3747
  5213  07E3  0000               	nop
  5214  07E4                     l3848:
  5215                           
  5216                           ;lcd.c: 106:   LCDWriteNibble(ch, 1);
  5217  07E4  0020               	movlb	0	; select bank0
  5218  07E5  01A8               	clrf	LCDWriteNibble@rs
  5219  07E6  0AA8               	incf	LCDWriteNibble@rs,f
  5220  07E7  082E               	movf	LCDPutChar@ch,w
  5221  07E8  318F  2725  3187   	fcall	_LCDWriteNibble
  5222  07EB                     l3850:
  5223                           
  5224                           ;lcd.c: 109:   ch = (uint8_t)(ch << 4);
  5225  07EB  0020               	movlb	0	; select bank0
  5226  07EC  082E               	movf	LCDPutChar@ch,w
  5227  07ED  00AC               	movwf	??_LCDPutChar
  5228  07EE  3003               	movlw	3
  5229  07EF                     u3045:
  5230  07EF  35AC               	lslf	??_LCDPutChar,f
  5231  07F0  3EFF               	addlw	-1
  5232  07F1  1D03               	skipz
  5233  07F2  2FEF               	goto	u3045
  5234  07F3  352C               	lslf	??_LCDPutChar,w
  5235  07F4  00AD               	movwf	??_LCDPutChar+1
  5236  07F5  082D               	movf	??_LCDPutChar+1,w
  5237  07F6  00AE               	movwf	LCDPutChar@ch
  5238  07F7                     l3852:
  5239                           
  5240                           ;lcd.c: 112:   LCDWriteNibble(ch, 1);
  5241  07F7  01A8               	clrf	LCDWriteNibble@rs
  5242  07F8  0AA8               	incf	LCDWriteNibble@rs,f
  5243  07F9  082E               	movf	LCDPutChar@ch,w
  5244  07FA  318F  2725  3187   	fcall	_LCDWriteNibble
  5245  07FD                     l295:
  5246  07FD  0008               	return
  5247  07FE                     __end_of_LCDPutChar:
  5248                           
  5249                           	psect	text10
  5250  0D90                     __ptext10:	
  5251 ;; *************** function _SYSTEM_Initialize *****************
  5252 ;; Defined at:
  5253 ;;		line 50 in file "mcc_generated_files/mcc.c"
  5254 ;; Parameters:    Size  Location     Type
  5255 ;;		None
  5256 ;; Auto vars:     Size  Location     Type
  5257 ;;		None
  5258 ;; Return value:  Size  Location     Type
  5259 ;;                  1    wreg      void 
  5260 ;; Registers used:
  5261 ;;		wreg, status,2, status,0, pclath, cstack
  5262 ;; Tracked objects:
  5263 ;;		On entry : 0/0
  5264 ;;		On exit  : 0/0
  5265 ;;		Unchanged: 0/0
  5266 ;; Data sizes:     COMMON   BANK0   BANK1   BANK2   BANK3   BANK4   BANK5   BANK6   BANK7   BANK8   BANK9  BANK10  BANK1
      +1  BANK12  BANK13  BANK14  BANK15  BANK16  BANK17  BANK18  BANK19  BANK20  BANK21  BANK22  BANK23  BANK24  BANK25
  5267 ;;      Params:         0       0       0       0       0       0       0       0       0       0       0       0       
      +0       0       0       0       0       0       0       0       0       0       0       0       0       0       0
  5268 ;;      Locals:         0       0       0       0       0       0       0       0       0       0       0       0       
      +0       0       0       0       0       0       0       0       0       0       0       0       0       0       0
  5269 ;;      Temps:          0       0       0       0       0       0       0       0       0       0       0       0       
      +0       0       0       0       0       0       0       0       0       0       0       0       0       0       0
  5270 ;;      Totals:         0       0       0       0       0       0       0       0       0       0       0       0       
      +0       0       0       0       0       0       0       0       0       0       0       0       0       0       0
  5271 ;;Total ram usage:        0 bytes
  5272 ;; Hardware stack levels used:    1
  5273 ;; Hardware stack levels required when called:   11
  5274 ;; This function calls:
  5275 ;;		_OSCILLATOR_Initialize
  5276 ;;		_PIN_MANAGER_Initialize
  5277 ;;		_TMR0_Initialize
  5278 ;;		_WDT_Initialize
  5279 ;; This function is called by:
  5280 ;;		_main
  5281 ;; This function uses a non-reentrant model
  5282 ;;
  5283                           
  5284                           
  5285                           ;psect for function _SYSTEM_Initialize
  5286  0D90                     _SYSTEM_Initialize:
  5287  0D90                     l4230:	
  5288                           ;incstack = 0
  5289                           ; Regs used in _SYSTEM_Initialize: [wreg+status,2+status,0+pclath+cstack]
  5290                           
  5291                           
  5292                           ;mcc_generated_files/mcc.c: 53:     PIN_MANAGER_Initialize();
  5293  0D90  3184  244B  318D   	fcall	_PIN_MANAGER_Initialize
  5294                           
  5295                           ;mcc_generated_files/mcc.c: 54:     OSCILLATOR_Initialize();
  5296  0D93  318D  254A  318D   	fcall	_OSCILLATOR_Initialize
  5297                           
  5298                           ;mcc_generated_files/mcc.c: 55:     WDT_Initialize();
  5299  0D96  318D  2540  318D   	fcall	_WDT_Initialize
  5300                           
  5301                           ;mcc_generated_files/mcc.c: 56:     TMR0_Initialize();
  5302  0D99  318D  25CE  318D   	fcall	_TMR0_Initialize
  5303  0D9C                     l253:
  5304  0D9C  0008               	return
  5305  0D9D                     __end_of_SYSTEM_Initialize:
  5306                           
  5307                           	psect	text11
  5308  0D40                     __ptext11:	
  5309 ;; *************** function _WDT_Initialize *****************
  5310 ;; Defined at:
  5311 ;;		line 69 in file "mcc_generated_files/mcc.c"
  5312 ;; Parameters:    Size  Location     Type
  5313 ;;		None
  5314 ;; Auto vars:     Size  Location     Type
  5315 ;;		None
  5316 ;; Return value:  Size  Location     Type
  5317 ;;                  1    wreg      void 
  5318 ;; Registers used:
  5319 ;;		wreg
  5320 ;; Tracked objects:
  5321 ;;		On entry : 0/0
  5322 ;;		On exit  : 0/0
  5323 ;;		Unchanged: 0/0
  5324 ;; Data sizes:     COMMON   BANK0   BANK1   BANK2   BANK3   BANK4   BANK5   BANK6   BANK7   BANK8   BANK9  BANK10  BANK1
      +1  BANK12  BANK13  BANK14  BANK15  BANK16  BANK17  BANK18  BANK19  BANK20  BANK21  BANK22  BANK23  BANK24  BANK25
  5325 ;;      Params:         0       0       0       0       0       0       0       0       0       0       0       0       
      +0       0       0       0       0       0       0       0       0       0       0       0       0       0       0
  5326 ;;      Locals:         0       0       0       0       0       0       0       0       0       0       0       0       
      +0       0       0       0       0       0       0       0       0       0       0       0       0       0       0
  5327 ;;      Temps:          0       0       0       0       0       0       0       0       0       0       0       0       
      +0       0       0       0       0       0       0       0       0       0       0       0       0       0       0
  5328 ;;      Totals:         0       0       0       0       0       0       0       0       0       0       0       0       
      +0       0       0       0       0       0       0       0       0       0       0       0       0       0       0
  5329 ;;Total ram usage:        0 bytes
  5330 ;; Hardware stack levels used:    1
  5331 ;; Hardware stack levels required when called:    9
  5332 ;; This function calls:
  5333 ;;		Nothing
  5334 ;; This function is called by:
  5335 ;;		_SYSTEM_Initialize
  5336 ;; This function uses a non-reentrant model
  5337 ;;
  5338                           
  5339                           
  5340                           ;psect for function _WDT_Initialize
  5341  0D40                     _WDT_Initialize:
  5342  0D40                     l4132:	
  5343                           ;incstack = 0
  5344                           ; Regs used in _WDT_Initialize: [wreg]
  5345                           
  5346                           
  5347                           ;mcc_generated_files/mcc.c: 72:     WDTCON = 0x16;
  5348  0D40  3016               	movlw	22
  5349  0D41  0021               	movlb	1	; select bank1
  5350  0D42  0097               	movwf	23	;volatile
  5351  0D43                     l259:
  5352  0D43  0008               	return
  5353  0D44                     __end_of_WDT_Initialize:
  5354                           
  5355                           	psect	text12
  5356  0DCE                     __ptext12:	
  5357 ;; *************** function _TMR0_Initialize *****************
  5358 ;; Defined at:
  5359 ;;		line 65 in file "mcc_generated_files/tmr0.c"
  5360 ;; Parameters:    Size  Location     Type
  5361 ;;		None
  5362 ;; Auto vars:     Size  Location     Type
  5363 ;;		None
  5364 ;; Return value:  Size  Location     Type
  5365 ;;                  1    wreg      void 
  5366 ;; Registers used:
  5367 ;;		wreg, status,2, status,0, pclath, cstack
  5368 ;; Tracked objects:
  5369 ;;		On entry : 0/0
  5370 ;;		On exit  : 0/0
  5371 ;;		Unchanged: 0/0
  5372 ;; Data sizes:     COMMON   BANK0   BANK1   BANK2   BANK3   BANK4   BANK5   BANK6   BANK7   BANK8   BANK9  BANK10  BANK1
      +1  BANK12  BANK13  BANK14  BANK15  BANK16  BANK17  BANK18  BANK19  BANK20  BANK21  BANK22  BANK23  BANK24  BANK25
  5373 ;;      Params:         0       0       0       0       0       0       0       0       0       0       0       0       
      +0       0       0       0       0       0       0       0       0       0       0       0       0       0       0
  5374 ;;      Locals:         0       0       0       0       0       0       0       0       0       0       0       0       
      +0       0       0       0       0       0       0       0       0       0       0       0       0       0       0
  5375 ;;      Temps:          0       1       0       0       0       0       0       0       0       0       0       0       
      +0       0       0       0       0       0       0       0       0       0       0       0       0       0       0
  5376 ;;      Totals:         0       1       0       0       0       0       0       0       0       0       0       0       
      +0       0       0       0       0       0       0       0       0       0       0       0       0       0       0
  5377 ;;Total ram usage:        1 bytes
  5378 ;; Hardware stack levels used:    1
  5379 ;; Hardware stack levels required when called:   10
  5380 ;; This function calls:
  5381 ;;		_TMR0_SetInterruptHandler
  5382 ;; This function is called by:
  5383 ;;		_SYSTEM_Initialize
  5384 ;; This function uses a non-reentrant model
  5385 ;;
  5386                           
  5387                           
  5388                           ;psect for function _TMR0_Initialize
  5389  0DCE                     _TMR0_Initialize:
  5390  0DCE                     l4134:	
  5391                           ;incstack = 0
  5392                           ; Regs used in _TMR0_Initialize: [wreg+status,2+status,0+pclath+cstack]
  5393                           
  5394                           
  5395                           ;mcc_generated_files/tmr0.c: 70:     OPTION_REG = (uint8_t)((OPTION_REG & 0xC0) | (0xD7 
      +                          & 0x3F));
  5396  0DCE  0021               	movlb	1	; select bank1
  5397  0DCF  0815               	movf	21,w	;volatile
  5398  0DD0  39C0               	andlw	192
  5399  0DD1  3817               	iorlw	23
  5400  0DD2  0095               	movwf	21	;volatile
  5401  0DD3                     l4136:
  5402                           
  5403                           ;mcc_generated_files/tmr0.c: 73:     TMR0 = 0xFE;
  5404  0DD3  30FE               	movlw	254
  5405  0DD4  0020               	movlb	0	; select bank0
  5406  0DD5  0095               	movwf	21	;volatile
  5407  0DD6                     l4138:
  5408                           
  5409                           ;mcc_generated_files/tmr0.c: 76:     timer0ReloadVal= 254;
  5410  0DD6  30FE               	movlw	254
  5411  0DD7  00AA               	movwf	??_TMR0_Initialize
  5412  0DD8  082A               	movf	??_TMR0_Initialize,w
  5413  0DD9  0021               	movlb	1	; select bank1
  5414  0DDA  00EA               	movwf	_timer0ReloadVal^(0+128)	;volatile
  5415  0DDB                     l4140:
  5416                           
  5417                           ;mcc_generated_files/tmr0.c: 79:     INTCONbits.TMR0IF = 0;
  5418  0DDB  110B               	bcf	11,2	;volatile
  5419  0DDC                     l4142:
  5420                           
  5421                           ;mcc_generated_files/tmr0.c: 82:     INTCONbits.TMR0IE = 1;
  5422  0DDC  168B               	bsf	11,5	;volatile
  5423  0DDD                     l4144:
  5424                           
  5425                           ;mcc_generated_files/tmr0.c: 85:     TMR0_SetInterruptHandler(TMR0_DefaultInterruptHandl
      +                          er);
  5426  0DDD  30FF               	movlw	low _TMR0_DefaultInterruptHandler
  5427  0DDE  0020               	movlb	0	; select bank0
  5428  0DDF  00A8               	movwf	TMR0_SetInterruptHandler@InterruptHandler
  5429  0DE0  3007               	movlw	high _TMR0_DefaultInterruptHandler
  5430  0DE1  00A9               	movwf	TMR0_SetInterruptHandler@InterruptHandler+1
  5431  0DE2  318D  2587  318D   	fcall	_TMR0_SetInterruptHandler
  5432  0DE5                     l554:
  5433  0DE5  0008               	return
  5434  0DE6                     __end_of_TMR0_Initialize:
  5435                           
  5436                           	psect	text13
  5437  0D87                     __ptext13:	
  5438 ;; *************** function _TMR0_SetInterruptHandler *****************
  5439 ;; Defined at:
  5440 ;;		line 144 in file "mcc_generated_files/tmr0.c"
  5441 ;; Parameters:    Size  Location     Type
  5442 ;;  InterruptHan    2    8[BANK0 ] PTR FTN()void 
  5443 ;;		 -> TMR0_DefaultInterruptHandler(1), 
  5444 ;; Auto vars:     Size  Location     Type
  5445 ;;		None
  5446 ;; Return value:  Size  Location     Type
  5447 ;;                  1    wreg      void 
  5448 ;; Registers used:
  5449 ;;		wreg
  5450 ;; Tracked objects:
  5451 ;;		On entry : 0/0
  5452 ;;		On exit  : 0/0
  5453 ;;		Unchanged: 0/0
  5454 ;; Data sizes:     COMMON   BANK0   BANK1   BANK2   BANK3   BANK4   BANK5   BANK6   BANK7   BANK8   BANK9  BANK10  BANK1
      +1  BANK12  BANK13  BANK14  BANK15  BANK16  BANK17  BANK18  BANK19  BANK20  BANK21  BANK22  BANK23  BANK24  BANK25
  5455 ;;      Params:         0       2       0       0       0       0       0       0       0       0       0       0       
      +0       0       0       0       0       0       0       0       0       0       0       0       0       0       0
  5456 ;;      Locals:         0       0       0       0       0       0       0       0       0       0       0       0       
      +0       0       0       0       0       0       0       0       0       0       0       0       0       0       0
  5457 ;;      Temps:          0       0       0       0       0       0       0       0       0       0       0       0       
      +0       0       0       0       0       0       0       0       0       0       0       0       0       0       0
  5458 ;;      Totals:         0       2       0       0       0       0       0       0       0       0       0       0       
      +0       0       0       0       0       0       0       0       0       0       0       0       0       0       0
  5459 ;;Total ram usage:        2 bytes
  5460 ;; Hardware stack levels used:    1
  5461 ;; Hardware stack levels required when called:    9
  5462 ;; This function calls:
  5463 ;;		Nothing
  5464 ;; This function is called by:
  5465 ;;		_TMR0_Initialize
  5466 ;; This function uses a non-reentrant model
  5467 ;;
  5468                           
  5469                           
  5470                           ;psect for function _TMR0_SetInterruptHandler
  5471  0D87                     _TMR0_SetInterruptHandler:
  5472  0D87                     l3912:	
  5473                           ;incstack = 0
  5474                           ; Regs used in _TMR0_SetInterruptHandler: [wreg]
  5475                           
  5476                           
  5477                           ;mcc_generated_files/tmr0.c: 145:     TMR0_InterruptHandler = InterruptHandler;
  5478  0D87  0020               	movlb	0	; select bank0
  5479  0D88  0829               	movf	TMR0_SetInterruptHandler@InterruptHandler+1,w
  5480  0D89  0021               	movlb	1	; select bank1
  5481  0D8A  00DD               	movwf	(_TMR0_InterruptHandler+1)^(0+128)
  5482  0D8B  0020               	movlb	0	; select bank0
  5483  0D8C  0828               	movf	TMR0_SetInterruptHandler@InterruptHandler,w
  5484  0D8D  0021               	movlb	1	; select bank1
  5485  0D8E  00DC               	movwf	_TMR0_InterruptHandler^(0+128)
  5486  0D8F                     l577:
  5487  0D8F  0008               	return
  5488  0D90                     __end_of_TMR0_SetInterruptHandler:
  5489                           
  5490                           	psect	text14
  5491  044B                     __ptext14:	
  5492 ;; *************** function _PIN_MANAGER_Initialize *****************
  5493 ;; Defined at:
  5494 ;;		line 65 in file "mcc_generated_files/pin_manager.c"
  5495 ;; Parameters:    Size  Location     Type
  5496 ;;		None
  5497 ;; Auto vars:     Size  Location     Type
  5498 ;;		None
  5499 ;; Return value:  Size  Location     Type
  5500 ;;                  1    wreg      void 
  5501 ;; Registers used:
  5502 ;;		wreg, status,2, status,0, pclath, cstack
  5503 ;; Tracked objects:
  5504 ;;		On entry : 0/0
  5505 ;;		On exit  : 0/0
  5506 ;;		Unchanged: 0/0
  5507 ;; Data sizes:     COMMON   BANK0   BANK1   BANK2   BANK3   BANK4   BANK5   BANK6   BANK7   BANK8   BANK9  BANK10  BANK1
      +1  BANK12  BANK13  BANK14  BANK15  BANK16  BANK17  BANK18  BANK19  BANK20  BANK21  BANK22  BANK23  BANK24  BANK25
  5508 ;;      Params:         0       0       0       0       0       0       0       0       0       0       0       0       
      +0       0       0       0       0       0       0       0       0       0       0       0       0       0       0
  5509 ;;      Locals:         0       0       0       0       0       0       0       0       0       0       0       0       
      +0       0       0       0       0       0       0       0       0       0       0       0       0       0       0
  5510 ;;      Temps:          0       0       0       0       0       0       0       0       0       0       0       0       
      +0       0       0       0       0       0       0       0       0       0       0       0       0       0       0
  5511 ;;      Totals:         0       0       0       0       0       0       0       0       0       0       0       0       
      +0       0       0       0       0       0       0       0       0       0       0       0       0       0       0
  5512 ;;Total ram usage:        0 bytes
  5513 ;; Hardware stack levels used:    1
  5514 ;; Hardware stack levels required when called:   10
  5515 ;; This function calls:
  5516 ;;		_IOCAF0_SetInterruptHandler
  5517 ;;		_IOCAF1_SetInterruptHandler
  5518 ;;		_IOCAF2_SetInterruptHandler
  5519 ;;		_IOCAF3_SetInterruptHandler
  5520 ;;		_IOCAF4_SetInterruptHandler
  5521 ;;		_IOCAF5_SetInterruptHandler
  5522 ;; This function is called by:
  5523 ;;		_SYSTEM_Initialize
  5524 ;; This function uses a non-reentrant model
  5525 ;;
  5526                           
  5527                           
  5528                           ;psect for function _PIN_MANAGER_Initialize
  5529  044B                     _PIN_MANAGER_Initialize:
  5530  044B                     l3914:	
  5531                           ;incstack = 0
  5532                           ; Regs used in _PIN_MANAGER_Initialize: [wreg+status,2+status,0+pclath+cstack]
  5533                           
  5534                           
  5535                           ;mcc_generated_files/pin_manager.c: 70:     LATA = 0x00;
  5536  044B  0022               	movlb	2	; select bank2
  5537  044C  018C               	clrf	12	;volatile
  5538                           
  5539                           ;mcc_generated_files/pin_manager.c: 71:     LATB = 0x00;
  5540  044D  018D               	clrf	13	;volatile
  5541                           
  5542                           ;mcc_generated_files/pin_manager.c: 72:     LATC = 0x00;
  5543  044E  018E               	clrf	14	;volatile
  5544  044F                     l3916:
  5545                           
  5546                           ;mcc_generated_files/pin_manager.c: 77:     TRISE = 0x08;
  5547  044F  3008               	movlw	8
  5548  0450  0021               	movlb	1	; select bank1
  5549  0451  0090               	movwf	16	;volatile
  5550  0452                     l3918:
  5551                           
  5552                           ;mcc_generated_files/pin_manager.c: 78:     TRISA = 0xFF;
  5553  0452  30FF               	movlw	255
  5554  0453  008C               	movwf	12	;volatile
  5555                           
  5556                           ;mcc_generated_files/pin_manager.c: 79:     TRISB = 0x00;
  5557  0454  018D               	clrf	13	;volatile
  5558  0455                     l3920:
  5559                           
  5560                           ;mcc_generated_files/pin_manager.c: 80:     TRISC = 0xFF;
  5561  0455  30FF               	movlw	255
  5562  0456  008E               	movwf	14	;volatile
  5563  0457                     l3922:
  5564                           
  5565                           ;mcc_generated_files/pin_manager.c: 85:     ANSELC = 0xFC;
  5566  0457  30FC               	movlw	252
  5567  0458  0023               	movlb	3	; select bank3
  5568  0459  008E               	movwf	14	;volatile
  5569                           
  5570                           ;mcc_generated_files/pin_manager.c: 86:     ANSELB = 0x00;
  5571  045A  018D               	clrf	13	;volatile
  5572                           
  5573                           ;mcc_generated_files/pin_manager.c: 87:     ANSELA = 0x00;
  5574  045B  018C               	clrf	12	;volatile
  5575  045C                     l3924:
  5576                           
  5577                           ;mcc_generated_files/pin_manager.c: 92:     WPUE = 0x08;
  5578  045C  3008               	movlw	8
  5579  045D  0024               	movlb	4	; select bank4
  5580  045E  0090               	movwf	16	;volatile
  5581  045F                     l3926:
  5582                           
  5583                           ;mcc_generated_files/pin_manager.c: 93:     WPUB = 0x00;
  5584  045F  018D               	clrf	13	;volatile
  5585                           
  5586                           ;mcc_generated_files/pin_manager.c: 94:     WPUA = 0x3F;
  5587  0460  303F               	movlw	63
  5588  0461  008C               	movwf	12	;volatile
  5589  0462                     l3928:
  5590                           
  5591                           ;mcc_generated_files/pin_manager.c: 95:     WPUC = 0x00;
  5592  0462  018E               	clrf	14	;volatile
  5593  0463                     l3930:
  5594                           
  5595                           ;mcc_generated_files/pin_manager.c: 96:     OPTION_REGbits.nWPUEN = 0;
  5596  0463  0021               	movlb	1	; select bank1
  5597  0464  1395               	bcf	21,7	;volatile
  5598  0465                     l3932:
  5599                           
  5600                           ;mcc_generated_files/pin_manager.c: 101:     ODCONA = 0x00;
  5601  0465  0025               	movlb	5	; select bank5
  5602  0466  018C               	clrf	12	;volatile
  5603  0467                     l3934:
  5604                           
  5605                           ;mcc_generated_files/pin_manager.c: 102:     ODCONB = 0x00;
  5606  0467  018D               	clrf	13	;volatile
  5607  0468                     l3936:
  5608                           
  5609                           ;mcc_generated_files/pin_manager.c: 103:     ODCONC = 0x00;
  5610  0468  018E               	clrf	14	;volatile
  5611                           
  5612                           ;mcc_generated_files/pin_manager.c: 108:     SLRCONA = 0xFF;
  5613  0469  30FF               	movlw	255
  5614  046A  0026               	movlb	6	; select bank6
  5615  046B  008C               	movwf	12	;volatile
  5616                           
  5617                           ;mcc_generated_files/pin_manager.c: 109:     SLRCONB = 0xFF;
  5618  046C  30FF               	movlw	255
  5619  046D  008D               	movwf	13	;volatile
  5620                           
  5621                           ;mcc_generated_files/pin_manager.c: 110:     SLRCONC = 0xFF;
  5622  046E  30FF               	movlw	255
  5623  046F  008E               	movwf	14	;volatile
  5624                           
  5625                           ;mcc_generated_files/pin_manager.c: 115:     INLVLA = 0xFF;
  5626  0470  30FF               	movlw	255
  5627  0471  0027               	movlb	7	; select bank7
  5628  0472  008C               	movwf	12	;volatile
  5629                           
  5630                           ;mcc_generated_files/pin_manager.c: 116:     INLVLB = 0xFF;
  5631  0473  30FF               	movlw	255
  5632  0474  008D               	movwf	13	;volatile
  5633                           
  5634                           ;mcc_generated_files/pin_manager.c: 117:     INLVLC = 0xFF;
  5635  0475  30FF               	movlw	255
  5636  0476  008E               	movwf	14	;volatile
  5637                           
  5638                           ;mcc_generated_files/pin_manager.c: 118:     INLVLE = 0x08;
  5639  0477  3008               	movlw	8
  5640  0478  0090               	movwf	16	;volatile
  5641  0479                     l3938:
  5642                           
  5643                           ;mcc_generated_files/pin_manager.c: 125:     IOCAFbits.IOCAF0 = 0;
  5644  0479  1013               	bcf	19,0	;volatile
  5645  047A                     l3940:
  5646                           
  5647                           ;mcc_generated_files/pin_manager.c: 127:     IOCAFbits.IOCAF1 = 0;
  5648  047A  1093               	bcf	19,1	;volatile
  5649  047B                     l3942:
  5650                           
  5651                           ;mcc_generated_files/pin_manager.c: 129:     IOCAFbits.IOCAF2 = 0;
  5652  047B  1113               	bcf	19,2	;volatile
  5653  047C                     l3944:
  5654                           
  5655                           ;mcc_generated_files/pin_manager.c: 131:     IOCAFbits.IOCAF3 = 0;
  5656  047C  1193               	bcf	19,3	;volatile
  5657  047D                     l3946:
  5658                           
  5659                           ;mcc_generated_files/pin_manager.c: 133:     IOCAFbits.IOCAF4 = 0;
  5660  047D  1213               	bcf	19,4	;volatile
  5661  047E                     l3948:
  5662                           
  5663                           ;mcc_generated_files/pin_manager.c: 135:     IOCAFbits.IOCAF5 = 0;
  5664  047E  1293               	bcf	19,5	;volatile
  5665  047F                     l3950:
  5666                           
  5667                           ;mcc_generated_files/pin_manager.c: 137:     IOCANbits.IOCAN0 = 1;
  5668  047F  1412               	bsf	18,0	;volatile
  5669  0480                     l3952:
  5670                           
  5671                           ;mcc_generated_files/pin_manager.c: 139:     IOCANbits.IOCAN1 = 1;
  5672  0480  1492               	bsf	18,1	;volatile
  5673  0481                     l3954:
  5674                           
  5675                           ;mcc_generated_files/pin_manager.c: 141:     IOCANbits.IOCAN2 = 1;
  5676  0481  1512               	bsf	18,2	;volatile
  5677  0482                     l3956:
  5678                           
  5679                           ;mcc_generated_files/pin_manager.c: 143:     IOCANbits.IOCAN3 = 1;
  5680  0482  1592               	bsf	18,3	;volatile
  5681  0483                     l3958:
  5682                           
  5683                           ;mcc_generated_files/pin_manager.c: 145:     IOCANbits.IOCAN4 = 1;
  5684  0483  1612               	bsf	18,4	;volatile
  5685  0484                     l3960:
  5686                           
  5687                           ;mcc_generated_files/pin_manager.c: 147:     IOCANbits.IOCAN5 = 1;
  5688  0484  1692               	bsf	18,5	;volatile
  5689  0485                     l3962:
  5690                           
  5691                           ;mcc_generated_files/pin_manager.c: 149:     IOCAPbits.IOCAP0 = 1;
  5692  0485  1411               	bsf	17,0	;volatile
  5693  0486                     l3964:
  5694                           
  5695                           ;mcc_generated_files/pin_manager.c: 151:     IOCAPbits.IOCAP1 = 0;
  5696  0486  1091               	bcf	17,1	;volatile
  5697  0487                     l3966:
  5698                           
  5699                           ;mcc_generated_files/pin_manager.c: 153:     IOCAPbits.IOCAP2 = 0;
  5700  0487  1111               	bcf	17,2	;volatile
  5701  0488                     l3968:
  5702                           
  5703                           ;mcc_generated_files/pin_manager.c: 155:     IOCAPbits.IOCAP3 = 1;
  5704  0488  1591               	bsf	17,3	;volatile
  5705  0489                     l3970:
  5706                           
  5707                           ;mcc_generated_files/pin_manager.c: 157:     IOCAPbits.IOCAP4 = 0;
  5708  0489  1211               	bcf	17,4	;volatile
  5709  048A                     l3972:
  5710                           
  5711                           ;mcc_generated_files/pin_manager.c: 159:     IOCAPbits.IOCAP5 = 0;
  5712  048A  1291               	bcf	17,5	;volatile
  5713  048B                     l3974:
  5714                           
  5715                           ;mcc_generated_files/pin_manager.c: 164:     IOCAF0_SetInterruptHandler(IOCAF0_DefaultIn
      +                          terruptHandler);
  5716  048B  303C               	movlw	low _IOCAF0_DefaultInterruptHandler
  5717  048C  0020               	movlb	0	; select bank0
  5718  048D  00A8               	movwf	IOCAF0_SetInterruptHandler@InterruptHandler
  5719  048E  300D               	movlw	high _IOCAF0_DefaultInterruptHandler
  5720  048F  00A9               	movwf	IOCAF0_SetInterruptHandler@InterruptHandler+1
  5721  0490  318D  2551  3184   	fcall	_IOCAF0_SetInterruptHandler
  5722  0493                     l3976:
  5723                           
  5724                           ;mcc_generated_files/pin_manager.c: 165:     IOCAF1_SetInterruptHandler(IOCAF1_DefaultIn
      +                          terruptHandler);
  5725  0493  303D               	movlw	low _IOCAF1_DefaultInterruptHandler
  5726  0494  0020               	movlb	0	; select bank0
  5727  0495  00A8               	movwf	IOCAF1_SetInterruptHandler@InterruptHandler
  5728  0496  300D               	movlw	high _IOCAF1_DefaultInterruptHandler
  5729  0497  00A9               	movwf	IOCAF1_SetInterruptHandler@InterruptHandler+1
  5730  0498  318D  255A  3184   	fcall	_IOCAF1_SetInterruptHandler
  5731  049B                     l3978:
  5732                           
  5733                           ;mcc_generated_files/pin_manager.c: 166:     IOCAF2_SetInterruptHandler(IOCAF2_DefaultIn
      +                          terruptHandler);
  5734  049B  303E               	movlw	low _IOCAF2_DefaultInterruptHandler
  5735  049C  0020               	movlb	0	; select bank0
  5736  049D  00A8               	movwf	IOCAF2_SetInterruptHandler@InterruptHandler
  5737  049E  300D               	movlw	high _IOCAF2_DefaultInterruptHandler
  5738  049F  00A9               	movwf	IOCAF2_SetInterruptHandler@InterruptHandler+1
  5739  04A0  318D  2563  3184   	fcall	_IOCAF2_SetInterruptHandler
  5740  04A3                     l3980:
  5741                           
  5742                           ;mcc_generated_files/pin_manager.c: 167:     IOCAF3_SetInterruptHandler(IOCAF3_DefaultIn
      +                          terruptHandler);
  5743  04A3  303F               	movlw	low _IOCAF3_DefaultInterruptHandler
  5744  04A4  0020               	movlb	0	; select bank0
  5745  04A5  00A8               	movwf	IOCAF3_SetInterruptHandler@InterruptHandler
  5746  04A6  300D               	movlw	high _IOCAF3_DefaultInterruptHandler
  5747  04A7  00A9               	movwf	IOCAF3_SetInterruptHandler@InterruptHandler+1
  5748  04A8  318D  256C  3184   	fcall	_IOCAF3_SetInterruptHandler
  5749  04AB                     l3982:
  5750                           
  5751                           ;mcc_generated_files/pin_manager.c: 168:     IOCAF4_SetInterruptHandler(IOCAF4_DefaultIn
      +                          terruptHandler);
  5752  04AB  3002               	movlw	low _IOCAF4_DefaultInterruptHandler
  5753  04AC  0020               	movlb	0	; select bank0
  5754  04AD  00A8               	movwf	IOCAF4_SetInterruptHandler@InterruptHandler
  5755  04AE  3000               	movlw	high _IOCAF4_DefaultInterruptHandler
  5756  04AF  00A9               	movwf	IOCAF4_SetInterruptHandler@InterruptHandler+1
  5757  04B0  318D  2575  3184   	fcall	_IOCAF4_SetInterruptHandler
  5758  04B3                     l3984:
  5759                           
  5760                           ;mcc_generated_files/pin_manager.c: 169:     IOCAF5_SetInterruptHandler(IOCAF5_DefaultIn
      +                          terruptHandler);
  5761  04B3  3003               	movlw	low _IOCAF5_DefaultInterruptHandler
  5762  04B4  0020               	movlb	0	; select bank0
  5763  04B5  00A8               	movwf	IOCAF5_SetInterruptHandler@InterruptHandler
  5764  04B6  3000               	movlw	high _IOCAF5_DefaultInterruptHandler
  5765  04B7  00A9               	movwf	IOCAF5_SetInterruptHandler@InterruptHandler+1
  5766  04B8  318D  257E  3184   	fcall	_IOCAF5_SetInterruptHandler
  5767  04BB                     l3986:
  5768                           
  5769                           ;mcc_generated_files/pin_manager.c: 172:     INTCONbits.IOCIE = 1;
  5770  04BB  158B               	bsf	11,3	;volatile
  5771  04BC                     l125:
  5772  04BC  0008               	return
  5773  04BD                     __end_of_PIN_MANAGER_Initialize:
  5774                           
  5775                           	psect	text15
  5776  0D7E                     __ptext15:	
  5777 ;; *************** function _IOCAF5_SetInterruptHandler *****************
  5778 ;; Defined at:
  5779 ;;		line 475 in file "mcc_generated_files/pin_manager.c"
  5780 ;; Parameters:    Size  Location     Type
  5781 ;;  InterruptHan    2    8[BANK0 ] PTR FTN()void 
  5782 ;;		 -> IOCAF5_DefaultInterruptHandler(1), 
  5783 ;; Auto vars:     Size  Location     Type
  5784 ;;		None
  5785 ;; Return value:  Size  Location     Type
  5786 ;;                  1    wreg      void 
  5787 ;; Registers used:
  5788 ;;		wreg
  5789 ;; Tracked objects:
  5790 ;;		On entry : 0/0
  5791 ;;		On exit  : 0/0
  5792 ;;		Unchanged: 0/0
  5793 ;; Data sizes:     COMMON   BANK0   BANK1   BANK2   BANK3   BANK4   BANK5   BANK6   BANK7   BANK8   BANK9  BANK10  BANK1
      +1  BANK12  BANK13  BANK14  BANK15  BANK16  BANK17  BANK18  BANK19  BANK20  BANK21  BANK22  BANK23  BANK24  BANK25
  5794 ;;      Params:         0       2       0       0       0       0       0       0       0       0       0       0       
      +0       0       0       0       0       0       0       0       0       0       0       0       0       0       0
  5795 ;;      Locals:         0       0       0       0       0       0       0       0       0       0       0       0       
      +0       0       0       0       0       0       0       0       0       0       0       0       0       0       0
  5796 ;;      Temps:          0       0       0       0       0       0       0       0       0       0       0       0       
      +0       0       0       0       0       0       0       0       0       0       0       0       0       0       0
  5797 ;;      Totals:         0       2       0       0       0       0       0       0       0       0       0       0       
      +0       0       0       0       0       0       0       0       0       0       0       0       0       0       0
  5798 ;;Total ram usage:        2 bytes
  5799 ;; Hardware stack levels used:    1
  5800 ;; Hardware stack levels required when called:    9
  5801 ;; This function calls:
  5802 ;;		Nothing
  5803 ;; This function is called by:
  5804 ;;		_PIN_MANAGER_Initialize
  5805 ;; This function uses a non-reentrant model
  5806 ;;
  5807                           
  5808                           
  5809                           ;psect for function _IOCAF5_SetInterruptHandler
  5810  0D7E                     _IOCAF5_SetInterruptHandler:
  5811  0D7E                     l3874:	
  5812                           ;incstack = 0
  5813                           ; Regs used in _IOCAF5_SetInterruptHandler: [wreg]
  5814                           
  5815                           
  5816                           ;mcc_generated_files/pin_manager.c: 476:     IOCAF5_InterruptHandler = InterruptHandler;
  5817  0D7E  0020               	movlb	0	; select bank0
  5818  0D7F  0829               	movf	IOCAF5_SetInterruptHandler@InterruptHandler+1,w
  5819  0D80  0021               	movlb	1	; select bank1
  5820  0D81  00DF               	movwf	(_IOCAF5_InterruptHandler+1)^(0+128)
  5821  0D82  0020               	movlb	0	; select bank0
  5822  0D83  0828               	movf	IOCAF5_SetInterruptHandler@InterruptHandler,w
  5823  0D84  0021               	movlb	1	; select bank1
  5824  0D85  00DE               	movwf	_IOCAF5_InterruptHandler^(0+128)
  5825  0D86                     l231:
  5826  0D86  0008               	return
  5827  0D87                     __end_of_IOCAF5_SetInterruptHandler:
  5828                           
  5829                           	psect	text16
  5830  0D75                     __ptext16:	
  5831 ;; *************** function _IOCAF4_SetInterruptHandler *****************
  5832 ;; Defined at:
  5833 ;;		line 425 in file "mcc_generated_files/pin_manager.c"
  5834 ;; Parameters:    Size  Location     Type
  5835 ;;  InterruptHan    2    8[BANK0 ] PTR FTN()void 
  5836 ;;		 -> IOCAF4_DefaultInterruptHandler(1), 
  5837 ;; Auto vars:     Size  Location     Type
  5838 ;;		None
  5839 ;; Return value:  Size  Location     Type
  5840 ;;                  1    wreg      void 
  5841 ;; Registers used:
  5842 ;;		wreg
  5843 ;; Tracked objects:
  5844 ;;		On entry : 0/0
  5845 ;;		On exit  : 0/0
  5846 ;;		Unchanged: 0/0
  5847 ;; Data sizes:     COMMON   BANK0   BANK1   BANK2   BANK3   BANK4   BANK5   BANK6   BANK7   BANK8   BANK9  BANK10  BANK1
      +1  BANK12  BANK13  BANK14  BANK15  BANK16  BANK17  BANK18  BANK19  BANK20  BANK21  BANK22  BANK23  BANK24  BANK25
  5848 ;;      Params:         0       2       0       0       0       0       0       0       0       0       0       0       
      +0       0       0       0       0       0       0       0       0       0       0       0       0       0       0
  5849 ;;      Locals:         0       0       0       0       0       0       0       0       0       0       0       0       
      +0       0       0       0       0       0       0       0       0       0       0       0       0       0       0
  5850 ;;      Temps:          0       0       0       0       0       0       0       0       0       0       0       0       
      +0       0       0       0       0       0       0       0       0       0       0       0       0       0       0
  5851 ;;      Totals:         0       2       0       0       0       0       0       0       0       0       0       0       
      +0       0       0       0       0       0       0       0       0       0       0       0       0       0       0
  5852 ;;Total ram usage:        2 bytes
  5853 ;; Hardware stack levels used:    1
  5854 ;; Hardware stack levels required when called:    9
  5855 ;; This function calls:
  5856 ;;		Nothing
  5857 ;; This function is called by:
  5858 ;;		_PIN_MANAGER_Initialize
  5859 ;; This function uses a non-reentrant model
  5860 ;;
  5861                           
  5862                           
  5863                           ;psect for function _IOCAF4_SetInterruptHandler
  5864  0D75                     _IOCAF4_SetInterruptHandler:
  5865  0D75                     l3872:	
  5866                           ;incstack = 0
  5867                           ; Regs used in _IOCAF4_SetInterruptHandler: [wreg]
  5868                           
  5869                           
  5870                           ;mcc_generated_files/pin_manager.c: 426:     IOCAF4_InterruptHandler = InterruptHandler;
  5871  0D75  0020               	movlb	0	; select bank0
  5872  0D76  0829               	movf	IOCAF4_SetInterruptHandler@InterruptHandler+1,w
  5873  0D77  0021               	movlb	1	; select bank1
  5874  0D78  00E1               	movwf	(_IOCAF4_InterruptHandler+1)^(0+128)
  5875  0D79  0020               	movlb	0	; select bank0
  5876  0D7A  0828               	movf	IOCAF4_SetInterruptHandler@InterruptHandler,w
  5877  0D7B  0021               	movlb	1	; select bank1
  5878  0D7C  00E0               	movwf	_IOCAF4_InterruptHandler^(0+128)
  5879  0D7D                     l214:
  5880  0D7D  0008               	return
  5881  0D7E                     __end_of_IOCAF4_SetInterruptHandler:
  5882                           
  5883                           	psect	text17
  5884  0D6C                     __ptext17:	
  5885 ;; *************** function _IOCAF3_SetInterruptHandler *****************
  5886 ;; Defined at:
  5887 ;;		line 383 in file "mcc_generated_files/pin_manager.c"
  5888 ;; Parameters:    Size  Location     Type
  5889 ;;  InterruptHan    2    8[BANK0 ] PTR FTN()void 
  5890 ;;		 -> IOCAF3_DefaultInterruptHandler(1), 
  5891 ;; Auto vars:     Size  Location     Type
  5892 ;;		None
  5893 ;; Return value:  Size  Location     Type
  5894 ;;                  1    wreg      void 
  5895 ;; Registers used:
  5896 ;;		wreg
  5897 ;; Tracked objects:
  5898 ;;		On entry : 0/0
  5899 ;;		On exit  : 0/0
  5900 ;;		Unchanged: 0/0
  5901 ;; Data sizes:     COMMON   BANK0   BANK1   BANK2   BANK3   BANK4   BANK5   BANK6   BANK7   BANK8   BANK9  BANK10  BANK1
      +1  BANK12  BANK13  BANK14  BANK15  BANK16  BANK17  BANK18  BANK19  BANK20  BANK21  BANK22  BANK23  BANK24  BANK25
  5902 ;;      Params:         0       2       0       0       0       0       0       0       0       0       0       0       
      +0       0       0       0       0       0       0       0       0       0       0       0       0       0       0
  5903 ;;      Locals:         0       0       0       0       0       0       0       0       0       0       0       0       
      +0       0       0       0       0       0       0       0       0       0       0       0       0       0       0
  5904 ;;      Temps:          0       0       0       0       0       0       0       0       0       0       0       0       
      +0       0       0       0       0       0       0       0       0       0       0       0       0       0       0
  5905 ;;      Totals:         0       2       0       0       0       0       0       0       0       0       0       0       
      +0       0       0       0       0       0       0       0       0       0       0       0       0       0       0
  5906 ;;Total ram usage:        2 bytes
  5907 ;; Hardware stack levels used:    1
  5908 ;; Hardware stack levels required when called:    9
  5909 ;; This function calls:
  5910 ;;		Nothing
  5911 ;; This function is called by:
  5912 ;;		_PIN_MANAGER_Initialize
  5913 ;; This function uses a non-reentrant model
  5914 ;;
  5915                           
  5916                           
  5917                           ;psect for function _IOCAF3_SetInterruptHandler
  5918  0D6C                     _IOCAF3_SetInterruptHandler:
  5919  0D6C                     l3870:	
  5920                           ;incstack = 0
  5921                           ; Regs used in _IOCAF3_SetInterruptHandler: [wreg]
  5922                           
  5923                           
  5924                           ;mcc_generated_files/pin_manager.c: 384:     IOCAF3_InterruptHandler = InterruptHandler;
  5925  0D6C  0020               	movlb	0	; select bank0
  5926  0D6D  0829               	movf	IOCAF3_SetInterruptHandler@InterruptHandler+1,w
  5927  0D6E  0021               	movlb	1	; select bank1
  5928  0D6F  00E3               	movwf	(_IOCAF3_InterruptHandler+1)^(0+128)
  5929  0D70  0020               	movlb	0	; select bank0
  5930  0D71  0828               	movf	IOCAF3_SetInterruptHandler@InterruptHandler,w
  5931  0D72  0021               	movlb	1	; select bank1
  5932  0D73  00E2               	movwf	_IOCAF3_InterruptHandler^(0+128)
  5933  0D74                     l198:
  5934  0D74  0008               	return
  5935  0D75                     __end_of_IOCAF3_SetInterruptHandler:
  5936                           
  5937                           	psect	text18
  5938  0D63                     __ptext18:	
  5939 ;; *************** function _IOCAF2_SetInterruptHandler *****************
  5940 ;; Defined at:
  5941 ;;		line 341 in file "mcc_generated_files/pin_manager.c"
  5942 ;; Parameters:    Size  Location     Type
  5943 ;;  InterruptHan    2    8[BANK0 ] PTR FTN()void 
  5944 ;;		 -> IOCAF2_DefaultInterruptHandler(1), 
  5945 ;; Auto vars:     Size  Location     Type
  5946 ;;		None
  5947 ;; Return value:  Size  Location     Type
  5948 ;;                  1    wreg      void 
  5949 ;; Registers used:
  5950 ;;		wreg
  5951 ;; Tracked objects:
  5952 ;;		On entry : 0/0
  5953 ;;		On exit  : 0/0
  5954 ;;		Unchanged: 0/0
  5955 ;; Data sizes:     COMMON   BANK0   BANK1   BANK2   BANK3   BANK4   BANK5   BANK6   BANK7   BANK8   BANK9  BANK10  BANK1
      +1  BANK12  BANK13  BANK14  BANK15  BANK16  BANK17  BANK18  BANK19  BANK20  BANK21  BANK22  BANK23  BANK24  BANK25
  5956 ;;      Params:         0       2       0       0       0       0       0       0       0       0       0       0       
      +0       0       0       0       0       0       0       0       0       0       0       0       0       0       0
  5957 ;;      Locals:         0       0       0       0       0       0       0       0       0       0       0       0       
      +0       0       0       0       0       0       0       0       0       0       0       0       0       0       0
  5958 ;;      Temps:          0       0       0       0       0       0       0       0       0       0       0       0       
      +0       0       0       0       0       0       0       0       0       0       0       0       0       0       0
  5959 ;;      Totals:         0       2       0       0       0       0       0       0       0       0       0       0       
      +0       0       0       0       0       0       0       0       0       0       0       0       0       0       0
  5960 ;;Total ram usage:        2 bytes
  5961 ;; Hardware stack levels used:    1
  5962 ;; Hardware stack levels required when called:    9
  5963 ;; This function calls:
  5964 ;;		Nothing
  5965 ;; This function is called by:
  5966 ;;		_PIN_MANAGER_Initialize
  5967 ;; This function uses a non-reentrant model
  5968 ;;
  5969                           
  5970                           
  5971                           ;psect for function _IOCAF2_SetInterruptHandler
  5972  0D63                     _IOCAF2_SetInterruptHandler:
  5973  0D63                     l3868:	
  5974                           ;incstack = 0
  5975                           ; Regs used in _IOCAF2_SetInterruptHandler: [wreg]
  5976                           
  5977                           
  5978                           ;mcc_generated_files/pin_manager.c: 342:     IOCAF2_InterruptHandler = InterruptHandler;
  5979  0D63  0020               	movlb	0	; select bank0
  5980  0D64  0829               	movf	IOCAF2_SetInterruptHandler@InterruptHandler+1,w
  5981  0D65  0021               	movlb	1	; select bank1
  5982  0D66  00E5               	movwf	(_IOCAF2_InterruptHandler+1)^(0+128)
  5983  0D67  0020               	movlb	0	; select bank0
  5984  0D68  0828               	movf	IOCAF2_SetInterruptHandler@InterruptHandler,w
  5985  0D69  0021               	movlb	1	; select bank1
  5986  0D6A  00E4               	movwf	_IOCAF2_InterruptHandler^(0+128)
  5987  0D6B                     l182:
  5988  0D6B  0008               	return
  5989  0D6C                     __end_of_IOCAF2_SetInterruptHandler:
  5990                           
  5991                           	psect	text19
  5992  0D5A                     __ptext19:	
  5993 ;; *************** function _IOCAF1_SetInterruptHandler *****************
  5994 ;; Defined at:
  5995 ;;		line 289 in file "mcc_generated_files/pin_manager.c"
  5996 ;; Parameters:    Size  Location     Type
  5997 ;;  InterruptHan    2    8[BANK0 ] PTR FTN()void 
  5998 ;;		 -> IOCAF1_DefaultInterruptHandler(1), 
  5999 ;; Auto vars:     Size  Location     Type
  6000 ;;		None
  6001 ;; Return value:  Size  Location     Type
  6002 ;;                  1    wreg      void 
  6003 ;; Registers used:
  6004 ;;		wreg
  6005 ;; Tracked objects:
  6006 ;;		On entry : 0/0
  6007 ;;		On exit  : 0/0
  6008 ;;		Unchanged: 0/0
  6009 ;; Data sizes:     COMMON   BANK0   BANK1   BANK2   BANK3   BANK4   BANK5   BANK6   BANK7   BANK8   BANK9  BANK10  BANK1
      +1  BANK12  BANK13  BANK14  BANK15  BANK16  BANK17  BANK18  BANK19  BANK20  BANK21  BANK22  BANK23  BANK24  BANK25
  6010 ;;      Params:         0       2       0       0       0       0       0       0       0       0       0       0       
      +0       0       0       0       0       0       0       0       0       0       0       0       0       0       0
  6011 ;;      Locals:         0       0       0       0       0       0       0       0       0       0       0       0       
      +0       0       0       0       0       0       0       0       0       0       0       0       0       0       0
  6012 ;;      Temps:          0       0       0       0       0       0       0       0       0       0       0       0       
      +0       0       0       0       0       0       0       0       0       0       0       0       0       0       0
  6013 ;;      Totals:         0       2       0       0       0       0       0       0       0       0       0       0       
      +0       0       0       0       0       0       0       0       0       0       0       0       0       0       0
  6014 ;;Total ram usage:        2 bytes
  6015 ;; Hardware stack levels used:    1
  6016 ;; Hardware stack levels required when called:    9
  6017 ;; This function calls:
  6018 ;;		Nothing
  6019 ;; This function is called by:
  6020 ;;		_PIN_MANAGER_Initialize
  6021 ;; This function uses a non-reentrant model
  6022 ;;
  6023                           
  6024                           
  6025                           ;psect for function _IOCAF1_SetInterruptHandler
  6026  0D5A                     _IOCAF1_SetInterruptHandler:
  6027  0D5A                     l3866:	
  6028                           ;incstack = 0
  6029                           ; Regs used in _IOCAF1_SetInterruptHandler: [wreg]
  6030                           
  6031                           
  6032                           ;mcc_generated_files/pin_manager.c: 290:     IOCAF1_InterruptHandler = InterruptHandler;
  6033  0D5A  0020               	movlb	0	; select bank0
  6034  0D5B  0829               	movf	IOCAF1_SetInterruptHandler@InterruptHandler+1,w
  6035  0D5C  0021               	movlb	1	; select bank1
  6036  0D5D  00E7               	movwf	(_IOCAF1_InterruptHandler+1)^(0+128)
  6037  0D5E  0020               	movlb	0	; select bank0
  6038  0D5F  0828               	movf	IOCAF1_SetInterruptHandler@InterruptHandler,w
  6039  0D60  0021               	movlb	1	; select bank1
  6040  0D61  00E6               	movwf	_IOCAF1_InterruptHandler^(0+128)
  6041  0D62                     l165:
  6042  0D62  0008               	return
  6043  0D63                     __end_of_IOCAF1_SetInterruptHandler:
  6044                           
  6045                           	psect	text20
  6046  0D51                     __ptext20:	
  6047 ;; *************** function _IOCAF0_SetInterruptHandler *****************
  6048 ;; Defined at:
  6049 ;;		line 244 in file "mcc_generated_files/pin_manager.c"
  6050 ;; Parameters:    Size  Location     Type
  6051 ;;  InterruptHan    2    8[BANK0 ] PTR FTN()void 
  6052 ;;		 -> IOCAF0_DefaultInterruptHandler(1), 
  6053 ;; Auto vars:     Size  Location     Type
  6054 ;;		None
  6055 ;; Return value:  Size  Location     Type
  6056 ;;                  1    wreg      void 
  6057 ;; Registers used:
  6058 ;;		wreg
  6059 ;; Tracked objects:
  6060 ;;		On entry : 0/0
  6061 ;;		On exit  : 0/0
  6062 ;;		Unchanged: 0/0
  6063 ;; Data sizes:     COMMON   BANK0   BANK1   BANK2   BANK3   BANK4   BANK5   BANK6   BANK7   BANK8   BANK9  BANK10  BANK1
      +1  BANK12  BANK13  BANK14  BANK15  BANK16  BANK17  BANK18  BANK19  BANK20  BANK21  BANK22  BANK23  BANK24  BANK25
  6064 ;;      Params:         0       2       0       0       0       0       0       0       0       0       0       0       
      +0       0       0       0       0       0       0       0       0       0       0       0       0       0       0
  6065 ;;      Locals:         0       0       0       0       0       0       0       0       0       0       0       0       
      +0       0       0       0       0       0       0       0       0       0       0       0       0       0       0
  6066 ;;      Temps:          0       0       0       0       0       0       0       0       0       0       0       0       
      +0       0       0       0       0       0       0       0       0       0       0       0       0       0       0
  6067 ;;      Totals:         0       2       0       0       0       0       0       0       0       0       0       0       
      +0       0       0       0       0       0       0       0       0       0       0       0       0       0       0
  6068 ;;Total ram usage:        2 bytes
  6069 ;; Hardware stack levels used:    1
  6070 ;; Hardware stack levels required when called:    9
  6071 ;; This function calls:
  6072 ;;		Nothing
  6073 ;; This function is called by:
  6074 ;;		_PIN_MANAGER_Initialize
  6075 ;; This function uses a non-reentrant model
  6076 ;;
  6077                           
  6078                           
  6079                           ;psect for function _IOCAF0_SetInterruptHandler
  6080  0D51                     _IOCAF0_SetInterruptHandler:
  6081  0D51                     l3864:	
  6082                           ;incstack = 0
  6083                           ; Regs used in _IOCAF0_SetInterruptHandler: [wreg]
  6084                           
  6085                           
  6086                           ;mcc_generated_files/pin_manager.c: 245:     IOCAF0_InterruptHandler = InterruptHandler;
  6087  0D51  0020               	movlb	0	; select bank0
  6088  0D52  0829               	movf	IOCAF0_SetInterruptHandler@InterruptHandler+1,w
  6089  0D53  0021               	movlb	1	; select bank1
  6090  0D54  00E9               	movwf	(_IOCAF0_InterruptHandler+1)^(0+128)
  6091  0D55  0020               	movlb	0	; select bank0
  6092  0D56  0828               	movf	IOCAF0_SetInterruptHandler@InterruptHandler,w
  6093  0D57  0021               	movlb	1	; select bank1
  6094  0D58  00E8               	movwf	_IOCAF0_InterruptHandler^(0+128)
  6095  0D59                     l148:
  6096  0D59  0008               	return
  6097  0D5A                     __end_of_IOCAF0_SetInterruptHandler:
  6098                           
  6099                           	psect	text21
  6100  0D4A                     __ptext21:	
  6101 ;; *************** function _OSCILLATOR_Initialize *****************
  6102 ;; Defined at:
  6103 ;;		line 59 in file "mcc_generated_files/mcc.c"
  6104 ;; Parameters:    Size  Location     Type
  6105 ;;		None
  6106 ;; Auto vars:     Size  Location     Type
  6107 ;;		None
  6108 ;; Return value:  Size  Location     Type
  6109 ;;                  1    wreg      void 
  6110 ;; Registers used:
  6111 ;;		wreg, status,2
  6112 ;; Tracked objects:
  6113 ;;		On entry : 0/0
  6114 ;;		On exit  : 0/0
  6115 ;;		Unchanged: 0/0
  6116 ;; Data sizes:     COMMON   BANK0   BANK1   BANK2   BANK3   BANK4   BANK5   BANK6   BANK7   BANK8   BANK9  BANK10  BANK1
      +1  BANK12  BANK13  BANK14  BANK15  BANK16  BANK17  BANK18  BANK19  BANK20  BANK21  BANK22  BANK23  BANK24  BANK25
  6117 ;;      Params:         0       0       0       0       0       0       0       0       0       0       0       0       
      +0       0       0       0       0       0       0       0       0       0       0       0       0       0       0
  6118 ;;      Locals:         0       0       0       0       0       0       0       0       0       0       0       0       
      +0       0       0       0       0       0       0       0       0       0       0       0       0       0       0
  6119 ;;      Temps:          0       0       0       0       0       0       0       0       0       0       0       0       
      +0       0       0       0       0       0       0       0       0       0       0       0       0       0       0
  6120 ;;      Totals:         0       0       0       0       0       0       0       0       0       0       0       0       
      +0       0       0       0       0       0       0       0       0       0       0       0       0       0       0
  6121 ;;Total ram usage:        0 bytes
  6122 ;; Hardware stack levels used:    1
  6123 ;; Hardware stack levels required when called:    9
  6124 ;; This function calls:
  6125 ;;		Nothing
  6126 ;; This function is called by:
  6127 ;;		_SYSTEM_Initialize
  6128 ;; This function uses a non-reentrant model
  6129 ;;
  6130                           
  6131                           
  6132                           ;psect for function _OSCILLATOR_Initialize
  6133  0D4A                     _OSCILLATOR_Initialize:
  6134  0D4A                     l4126:	
  6135                           ;incstack = 0
  6136                           ; Regs used in _OSCILLATOR_Initialize: [wreg+status,2]
  6137                           
  6138                           
  6139                           ;mcc_generated_files/mcc.c: 62:     OSCCON = 0x3A;
  6140  0D4A  303A               	movlw	58
  6141  0D4B  0021               	movlb	1	; select bank1
  6142  0D4C  0099               	movwf	25	;volatile
  6143  0D4D                     l4128:
  6144                           
  6145                           ;mcc_generated_files/mcc.c: 64:     OSCTUNE = 0x00;
  6146  0D4D  0198               	clrf	24	;volatile
  6147  0D4E                     l4130:
  6148                           
  6149                           ;mcc_generated_files/mcc.c: 66:     BORCON = 0x00;
  6150  0D4E  0022               	movlb	2	; select bank2
  6151  0D4F  0196               	clrf	22	;volatile
  6152  0D50                     l256:
  6153  0D50  0008               	return
  6154  0D51                     __end_of_OSCILLATOR_Initialize:
  6155                           
  6156                           	psect	text22
  6157  0F68                     __ptext22:	
  6158 ;; *************** function _LCD_Initialize *****************
  6159 ;; Defined at:
  6160 ;;		line 46 in file "lcd.c"
  6161 ;; Parameters:    Size  Location     Type
  6162 ;;		None
  6163 ;; Auto vars:     Size  Location     Type
  6164 ;;		None
  6165 ;; Return value:  Size  Location     Type
  6166 ;;                  1    wreg      void 
  6167 ;; Registers used:
  6168 ;;		wreg, status,2, status,0, pclath, cstack
  6169 ;; Tracked objects:
  6170 ;;		On entry : 0/0
  6171 ;;		On exit  : 0/0
  6172 ;;		Unchanged: 0/0
  6173 ;; Data sizes:     COMMON   BANK0   BANK1   BANK2   BANK3   BANK4   BANK5   BANK6   BANK7   BANK8   BANK9  BANK10  BANK1
      +1  BANK12  BANK13  BANK14  BANK15  BANK16  BANK17  BANK18  BANK19  BANK20  BANK21  BANK22  BANK23  BANK24  BANK25
  6174 ;;      Params:         0       0       0       0       0       0       0       0       0       0       0       0       
      +0       0       0       0       0       0       0       0       0       0       0       0       0       0       0
  6175 ;;      Locals:         0       0       0       0       0       0       0       0       0       0       0       0       
      +0       0       0       0       0       0       0       0       0       0       0       0       0       0       0
  6176 ;;      Temps:          0       1       0       0       0       0       0       0       0       0       0       0       
      +0       0       0       0       0       0       0       0       0       0       0       0       0       0       0
  6177 ;;      Totals:         0       1       0       0       0       0       0       0       0       0       0       0       
      +0       0       0       0       0       0       0       0       0       0       0       0       0       0       0
  6178 ;;Total ram usage:        1 bytes
  6179 ;; Hardware stack levels used:    1
  6180 ;; Hardware stack levels required when called:   11
  6181 ;; This function calls:
  6182 ;;		_LCDPutCmd
  6183 ;; This function is called by:
  6184 ;;		_main
  6185 ;; This function uses a non-reentrant model
  6186 ;;
  6187                           
  6188                           
  6189                           ;psect for function _LCD_Initialize
  6190  0F68                     _LCD_Initialize:
  6191  0F68                     l4232:	
  6192                           ;incstack = 0
  6193                           ; Regs used in _LCD_Initialize: [wreg+status,2+status,0+pclath+cstack]
  6194                           
  6195                           
  6196                           ;lcd.c: 49:   PORTB = 0;
  6197  0F68  0020               	movlb	0	; select bank0
  6198  0F69  018D               	clrf	13	;volatile
  6199                           
  6200                           ;lcd.c: 51:   TRISB = 0x00;
  6201  0F6A  0021               	movlb	1	; select bank1
  6202  0F6B  018D               	clrf	13	;volatile
  6203  0F6C                     l4234:
  6204                           
  6205                           ;lcd.c: 54:   PORTBbits.RB7 = 1;
  6206  0F6C  0020               	movlb	0	; select bank0
  6207  0F6D  178D               	bsf	13,7	;volatile
  6208  0F6E                     l4236:
  6209                           
  6210                           ;lcd.c: 57:   _delay((unsigned long)((15)*(500000/4000.0)));
  6211  0F6E  3003               	movlw	3
  6212  0F6F  0020               	movlb	0	; select bank0
  6213  0F70  00AF               	movwf	??_LCD_Initialize
  6214  0F71  306E               	movlw	110
  6215  0F72                     u3757:
  6216  0F72  0B89               	decfsz	9,f
  6217  0F73  2F72               	goto	u3757
  6218  0F74  0BAF               	decfsz	??_LCD_Initialize,f
  6219  0F75  2F72               	goto	u3757
  6220  0F76                     l4238:
  6221                           
  6222                           ;lcd.c: 60:   LCDPutCmd(0x32);
  6223  0F76  3032               	movlw	50
  6224  0F77  318F  2745  318F   	fcall	_LCDPutCmd
  6225  0F7A                     l4240:
  6226                           
  6227                           ;lcd.c: 63:   LCDPutCmd(0x28);
  6228  0F7A  3028               	movlw	40
  6229  0F7B  318F  2745  318F   	fcall	_LCDPutCmd
  6230  0F7E                     l4242:
  6231                           
  6232                           ;lcd.c: 66:   LCDPutCmd(0x0C);
  6233  0F7E  300C               	movlw	12
  6234  0F7F  318F  2745  318F   	fcall	_LCDPutCmd
  6235  0F82                     l4244:
  6236                           
  6237                           ;lcd.c: 68:   LCDPutCmd(0x01);
  6238  0F82  3001               	movlw	1
  6239  0F83  318F  2745  318F   	fcall	_LCDPutCmd
  6240  0F86                     l4246:
  6241                           
  6242                           ;lcd.c: 71:   LCDPutCmd(0x06);
  6243  0F86  3006               	movlw	6
  6244  0F87  318F  2745  318F   	fcall	_LCDPutCmd
  6245  0F8A                     l289:
  6246  0F8A  0008               	return
  6247  0F8B                     __end_of_LCD_Initialize:
  6248                           
  6249                           	psect	text23
  6250  0F45                     __ptext23:	
  6251 ;; *************** function _LCDPutCmd *****************
  6252 ;; Defined at:
  6253 ;;		line 115 in file "lcd.c"
  6254 ;; Parameters:    Size  Location     Type
  6255 ;;  ch              1    wreg     unsigned char 
  6256 ;; Auto vars:     Size  Location     Type
  6257 ;;  ch              1   14[BANK0 ] unsigned char 
  6258 ;; Return value:  Size  Location     Type
  6259 ;;                  1    wreg      void 
  6260 ;; Registers used:
  6261 ;;		wreg, status,2, status,0, pclath, cstack
  6262 ;; Tracked objects:
  6263 ;;		On entry : 0/0
  6264 ;;		On exit  : 0/0
  6265 ;;		Unchanged: 0/0
  6266 ;; Data sizes:     COMMON   BANK0   BANK1   BANK2   BANK3   BANK4   BANK5   BANK6   BANK7   BANK8   BANK9  BANK10  BANK1
      +1  BANK12  BANK13  BANK14  BANK15  BANK16  BANK17  BANK18  BANK19  BANK20  BANK21  BANK22  BANK23  BANK24  BANK25
  6267 ;;      Params:         0       0       0       0       0       0       0       0       0       0       0       0       
      +0       0       0       0       0       0       0       0       0       0       0       0       0       0       0
  6268 ;;      Locals:         0       1       0       0       0       0       0       0       0       0       0       0       
      +0       0       0       0       0       0       0       0       0       0       0       0       0       0       0
  6269 ;;      Temps:          0       2       0       0       0       0       0       0       0       0       0       0       
      +0       0       0       0       0       0       0       0       0       0       0       0       0       0       0
  6270 ;;      Totals:         0       3       0       0       0       0       0       0       0       0       0       0       
      +0       0       0       0       0       0       0       0       0       0       0       0       0       0       0
  6271 ;;Total ram usage:        3 bytes
  6272 ;; Hardware stack levels used:    1
  6273 ;; Hardware stack levels required when called:   10
  6274 ;; This function calls:
  6275 ;;		_LCDWriteNibble
  6276 ;; This function is called by:
  6277 ;;		_LCD_Initialize
  6278 ;;		_LCDGoto
  6279 ;;		_createCustomCharacter
  6280 ;; This function uses a non-reentrant model
  6281 ;;
  6282                           
  6283                           
  6284                           ;psect for function _LCDPutCmd
  6285  0F45                     _LCDPutCmd:
  6286                           
  6287                           ;incstack = 0
  6288                           ; Regs used in _LCDPutCmd: [wreg+status,2+status,0+pclath+cstack]
  6289                           ;LCDPutCmd@ch stored from wreg
  6290  0F45  0020               	movlb	0	; select bank0
  6291  0F46  00AE               	movwf	LCDPutCmd@ch
  6292  0F47                     l3836:
  6293                           
  6294                           ;lcd.c: 115: void LCDPutCmd(uint8_t ch);lcd.c: 116: {;lcd.c: 117:   _delay((unsigned lon
      +                          g)((5)*(500000/4000.0)));
  6295  0F47  30D0               	movlw	208
  6296  0F48                     u3767:
  6297  0F48  0B89               	decfsz	9,f
  6298  0F49  2F48               	goto	u3767
  6299  0F4A  0000               	nop
  6300  0F4B                     l3838:
  6301                           
  6302                           ;lcd.c: 120:   LCDWriteNibble(ch, 0);
  6303  0F4B  0020               	movlb	0	; select bank0
  6304  0F4C  01A8               	clrf	LCDWriteNibble@rs
  6305  0F4D  082E               	movf	LCDPutCmd@ch,w
  6306  0F4E  318F  2725  318F   	fcall	_LCDWriteNibble
  6307  0F51                     l3840:
  6308                           
  6309                           ;lcd.c: 123:   ch = (uint8_t)(ch << 4);
  6310  0F51  0020               	movlb	0	; select bank0
  6311  0F52  082E               	movf	LCDPutCmd@ch,w
  6312  0F53  00AC               	movwf	??_LCDPutCmd
  6313  0F54  3003               	movlw	3
  6314  0F55                     u3035:
  6315  0F55  35AC               	lslf	??_LCDPutCmd,f
  6316  0F56  3EFF               	addlw	-1
  6317  0F57  1D03               	skipz
  6318  0F58  2F55               	goto	u3035
  6319  0F59  352C               	lslf	??_LCDPutCmd,w
  6320  0F5A  00AD               	movwf	??_LCDPutCmd+1
  6321  0F5B  082D               	movf	??_LCDPutCmd+1,w
  6322  0F5C  00AE               	movwf	LCDPutCmd@ch
  6323  0F5D                     l3842:
  6324                           
  6325                           ;lcd.c: 125:   _delay((unsigned long)((1)*(500000/4000.0)));
  6326  0F5D  3029               	movlw	41
  6327  0F5E                     u3777:
  6328  0F5E  0B89               	decfsz	9,f
  6329  0F5F  2F5E               	goto	u3777
  6330  0F60  3200               	nop2
  6331  0F61                     l3844:
  6332                           
  6333                           ;lcd.c: 128:   LCDWriteNibble(ch, 0);
  6334  0F61  0020               	movlb	0	; select bank0
  6335  0F62  01A8               	clrf	LCDWriteNibble@rs
  6336  0F63  082E               	movf	LCDPutCmd@ch,w
  6337  0F64  318F  2725  318F   	fcall	_LCDWriteNibble
  6338  0F67                     l298:
  6339  0F67  0008               	return
  6340  0F68                     __end_of_LCDPutCmd:
  6341                           
  6342                           	psect	text24
  6343  0F25                     __ptext24:	
  6344 ;; *************** function _LCDWriteNibble *****************
  6345 ;; Defined at:
  6346 ;;		line 74 in file "lcd.c"
  6347 ;; Parameters:    Size  Location     Type
  6348 ;;  ch              1    wreg     unsigned char 
  6349 ;;  rs              1    8[BANK0 ] unsigned char 
  6350 ;; Auto vars:     Size  Location     Type
  6351 ;;  ch              1   11[BANK0 ] unsigned char 
  6352 ;; Return value:  Size  Location     Type
  6353 ;;                  1    wreg      void 
  6354 ;; Registers used:
  6355 ;;		wreg, status,2, status,0
  6356 ;; Tracked objects:
  6357 ;;		On entry : 0/0
  6358 ;;		On exit  : 0/0
  6359 ;;		Unchanged: 0/0
  6360 ;; Data sizes:     COMMON   BANK0   BANK1   BANK2   BANK3   BANK4   BANK5   BANK6   BANK7   BANK8   BANK9  BANK10  BANK1
      +1  BANK12  BANK13  BANK14  BANK15  BANK16  BANK17  BANK18  BANK19  BANK20  BANK21  BANK22  BANK23  BANK24  BANK25
  6361 ;;      Params:         0       1       0       0       0       0       0       0       0       0       0       0       
      +0       0       0       0       0       0       0       0       0       0       0       0       0       0       0
  6362 ;;      Locals:         0       1       0       0       0       0       0       0       0       0       0       0       
      +0       0       0       0       0       0       0       0       0       0       0       0       0       0       0
  6363 ;;      Temps:          0       2       0       0       0       0       0       0       0       0       0       0       
      +0       0       0       0       0       0       0       0       0       0       0       0       0       0       0
  6364 ;;      Totals:         0       4       0       0       0       0       0       0       0       0       0       0       
      +0       0       0       0       0       0       0       0       0       0       0       0       0       0       0
  6365 ;;Total ram usage:        4 bytes
  6366 ;; Hardware stack levels used:    1
  6367 ;; Hardware stack levels required when called:    9
  6368 ;; This function calls:
  6369 ;;		Nothing
  6370 ;; This function is called by:
  6371 ;;		_LCDPutChar
  6372 ;;		_LCDPutCmd
  6373 ;; This function uses a non-reentrant model
  6374 ;;
  6375                           
  6376                           
  6377                           ;psect for function _LCDWriteNibble
  6378  0F25                     _LCDWriteNibble:
  6379                           
  6380                           ;incstack = 0
  6381                           ; Regs used in _LCDWriteNibble: [wreg+status,2+status,0]
  6382                           ;LCDWriteNibble@ch stored from wreg
  6383  0F25  0020               	movlb	0	; select bank0
  6384  0F26  00AB               	movwf	LCDWriteNibble@ch
  6385  0F27                     l3788:
  6386                           
  6387                           ;lcd.c: 74: void LCDWriteNibble(uint8_t ch, uint8_t rs);lcd.c: 75: {;lcd.c: 77:   ch = (
      +                          ch >> 4);
  6388  0F27  082B               	movf	LCDWriteNibble@ch,w
  6389  0F28  00A9               	movwf	??_LCDWriteNibble
  6390  0F29  3004               	movlw	4
  6391  0F2A                     u3025:
  6392  0F2A  36A9               	lsrf	??_LCDWriteNibble,f
  6393  0F2B  0B89               	decfsz	9,f
  6394  0F2C  2F2A               	goto	u3025
  6395  0F2D  0829               	movf	??_LCDWriteNibble,w
  6396  0F2E  00AA               	movwf	??_LCDWriteNibble+1
  6397  0F2F  082A               	movf	??_LCDWriteNibble+1,w
  6398  0F30  00AB               	movwf	LCDWriteNibble@ch
  6399  0F31                     l3790:
  6400                           
  6401                           ;lcd.c: 80:   ch = (ch & 0x0F);
  6402  0F31  082B               	movf	LCDWriteNibble@ch,w
  6403  0F32  390F               	andlw	15
  6404  0F33  00A9               	movwf	??_LCDWriteNibble
  6405  0F34  0829               	movf	??_LCDWriteNibble,w
  6406  0F35  00AB               	movwf	LCDWriteNibble@ch
  6407  0F36                     l3792:
  6408                           
  6409                           ;lcd.c: 83:   PORTB = (PORTB & 0xF0);
  6410  0F36  080D               	movf	13,w	;volatile
  6411  0F37  39F0               	andlw	240
  6412  0F38  008D               	movwf	13	;volatile
  6413                           
  6414                           ;lcd.c: 86:   PORTB = (PORTB | ch);
  6415  0F39  080D               	movf	13,w	;volatile
  6416  0F3A  042B               	iorwf	LCDWriteNibble@ch,w
  6417  0F3B  008D               	movwf	13	;volatile
  6418  0F3C                     l3794:
  6419                           
  6420                           ;lcd.c: 89:   PORTBbits.RB5 = rs;
  6421  0F3C  0C28               	rrf	LCDWriteNibble@rs,w
  6422  0F3D  1C03               	skipc
  6423  0F3E  128D               	bcf	13,5	;volatile
  6424  0F3F  1803               	skipnc
  6425  0F40  168D               	bsf	13,5	;volatile
  6426  0F41                     l3796:
  6427                           
  6428                           ;lcd.c: 92:   PORTBbits.RB6 = 0;
  6429  0F41  130D               	bcf	13,6	;volatile
  6430  0F42                     l3798:
  6431                           
  6432                           ;lcd.c: 95:   PORTBbits.RB4 = 1;
  6433  0F42  160D               	bsf	13,4	;volatile
  6434  0F43                     l3800:
  6435                           
  6436                           ;lcd.c: 98:   PORTBbits.RB4 = 0;
  6437  0F43  120D               	bcf	13,4	;volatile
  6438  0F44                     l292:
  6439  0F44  0008               	return
  6440  0F45                     __end_of_LCDWriteNibble:
  6441                           
  6442                           	psect	intentry
  6443  0004                     __pintentry:	
  6444 ;; *************** function _INTERRUPT_InterruptManager *****************
  6445 ;; Defined at:
  6446 ;;		line 52 in file "mcc_generated_files/interrupt_manager.c"
  6447 ;; Parameters:    Size  Location     Type
  6448 ;;		None
  6449 ;; Auto vars:     Size  Location     Type
  6450 ;;		None
  6451 ;; Return value:  Size  Location     Type
  6452 ;;                  1    wreg      void 
  6453 ;; Registers used:
  6454 ;;		wreg, fsr0l, fsr0h, status,2, status,0, pclath, cstack
  6455 ;; Tracked objects:
  6456 ;;		On entry : 0/0
  6457 ;;		On exit  : 0/0
  6458 ;;		Unchanged: 0/0
  6459 ;; Data sizes:     COMMON   BANK0   BANK1   BANK2   BANK3   BANK4   BANK5   BANK6   BANK7   BANK8   BANK9  BANK10  BANK1
      +1  BANK12  BANK13  BANK14  BANK15  BANK16  BANK17  BANK18  BANK19  BANK20  BANK21  BANK22  BANK23  BANK24  BANK25
  6460 ;;      Params:         0       0       0       0       0       0       0       0       0       0       0       0       
      +0       0       0       0       0       0       0       0       0       0       0       0       0       0       0
  6461 ;;      Locals:         0       0       0       0       0       0       0       0       0       0       0       0       
      +0       0       0       0       0       0       0       0       0       0       0       0       0       0       0
  6462 ;;      Temps:          1       0       0       0       0       0       0       0       0       0       0       0       
      +0       0       0       0       0       0       0       0       0       0       0       0       0       0       0
  6463 ;;      Totals:         1       0       0       0       0       0       0       0       0       0       0       0       
      +0       0       0       0       0       0       0       0       0       0       0       0       0       0       0
  6464 ;;Total ram usage:        1 bytes
  6465 ;; Hardware stack levels used:    1
  6466 ;; Hardware stack levels required when called:    8
  6467 ;; This function calls:
  6468 ;;		_PIN_MANAGER_IOC
  6469 ;;		_TMR0_ISR
  6470 ;; This function is called by:
  6471 ;;		Interrupt level 1
  6472 ;; This function uses a non-reentrant model
  6473 ;;
  6474                           
  6475  0004                     _INTERRUPT_InterruptManager:
  6476                           
  6477                           ;incstack = 0
  6478  0004  147E               	bsf	int$flags,0	;set compiler interrupt flag (level 1)
  6479                           
  6480                           ; Regs used in _INTERRUPT_InterruptManager: [wreg-fsr0h+status,2+status,0+pclath+cstack]
  6481  0005  3180               	pagesel	$
  6482  0006                     i1l4264:
  6483                           
  6484                           ;mcc_generated_files/interrupt_manager.c: 55:     if(INTCONbits.TMR0IE == 1 && INTCONbit
      +                          s.TMR0IF == 1)
  6485  0006  1E8B               	btfss	11,5	;volatile
  6486  0007  2809               	goto	u332_21
  6487  0008  280A               	goto	u332_20
  6488  0009                     u332_21:
  6489  0009  2812               	goto	i1l272
  6490  000A                     u332_20:
  6491  000A                     i1l4266:
  6492  000A  1D0B               	btfss	11,2	;volatile
  6493  000B  280D               	goto	u333_21
  6494  000C  280E               	goto	u333_20
  6495  000D                     u333_21:
  6496  000D  2812               	goto	i1l272
  6497  000E                     u333_20:
  6498  000E                     i1l4268:
  6499                           
  6500                           ;mcc_generated_files/interrupt_manager.c: 56:     {;mcc_generated_files/interrupt_manage
      +                          r.c: 57:         TMR0_ISR();
  6501  000E  318E  261A  3180   	fcall	_TMR0_ISR
  6502                           
  6503                           ;mcc_generated_files/interrupt_manager.c: 58:     }
  6504  0011  2825               	goto	i1l276
  6505  0012                     i1l272:	
  6506                           ;mcc_generated_files/interrupt_manager.c: 59:     else if(INTCONbits.IOCIE == 1 && INTCO
      +                          Nbits.IOCIF == 1)
  6507                           
  6508  0012  1D8B               	btfss	11,3	;volatile
  6509  0013  2815               	goto	u334_21
  6510  0014  2816               	goto	u334_20
  6511  0015                     u334_21:
  6512  0015  2825               	goto	i1l276
  6513  0016                     u334_20:
  6514  0016                     i1l4270:
  6515  0016  1C0B               	btfss	11,0	;volatile
  6516  0017  2819               	goto	u335_21
  6517  0018  281A               	goto	u335_20
  6518  0019                     u335_21:
  6519  0019  2825               	goto	i1l276
  6520  001A                     u335_20:
  6521  001A                     i1l4272:
  6522                           
  6523                           ;mcc_generated_files/interrupt_manager.c: 60:     {;mcc_generated_files/interrupt_manage
      +                          r.c: 61:         _delay((unsigned long)((80)*(500000/4000.0)));
  6524  001A  300D               	movlw	13
  6525  001B  00FD               	movwf	??_INTERRUPT_InterruptManager
  6526  001C  30FC               	movlw	252
  6527  001D                     u378_27:
  6528  001D  0B89               	decfsz	9,f
  6529  001E  281D               	goto	u378_27
  6530  001F  0BFD               	decfsz	??_INTERRUPT_InterruptManager,f
  6531  0020  281D               	goto	u378_27
  6532  0021                     i1l4274:
  6533                           
  6534                           ;mcc_generated_files/interrupt_manager.c: 62:         PIN_MANAGER_IOC();
  6535  0021  3186  265A  3180   	fcall	_PIN_MANAGER_IOC
  6536  0024                     i1l4276:
  6537                           
  6538                           ;mcc_generated_files/interrupt_manager.c: 64:         INTCONbits.IOCIF = 0;
  6539  0024  100B               	bcf	11,0	;volatile
  6540  0025                     i1l276:	
  6541                           ;mcc_generated_files/interrupt_manager.c: 65:     }
  6542                           
  6543  0025  107E               	bcf	int$flags,0	;clear compiler interrupt flag (level 1)
  6544  0026  0009               	retfie
  6545  0027                     __end_of_INTERRUPT_InterruptManager:
  6546                           
  6547                           	psect	text26
  6548  0E1A                     __ptext26:	
  6549 ;; *************** function _TMR0_ISR *****************
  6550 ;; Defined at:
  6551 ;;		line 109 in file "mcc_generated_files/tmr0.c"
  6552 ;; Parameters:    Size  Location     Type
  6553 ;;		None
  6554 ;; Auto vars:     Size  Location     Type
  6555 ;;		None
  6556 ;; Return value:  Size  Location     Type
  6557 ;;                  1    wreg      void 
  6558 ;; Registers used:
  6559 ;;		wreg, status,2, status,0, pclath, cstack
  6560 ;; Tracked objects:
  6561 ;;		On entry : 0/0
  6562 ;;		On exit  : 0/0
  6563 ;;		Unchanged: 0/0
  6564 ;; Data sizes:     COMMON   BANK0   BANK1   BANK2   BANK3   BANK4   BANK5   BANK6   BANK7   BANK8   BANK9  BANK10  BANK1
      +1  BANK12  BANK13  BANK14  BANK15  BANK16  BANK17  BANK18  BANK19  BANK20  BANK21  BANK22  BANK23  BANK24  BANK25
  6565 ;;      Params:         0       0       0       0       0       0       0       0       0       0       0       0       
      +0       0       0       0       0       0       0       0       0       0       0       0       0       0       0
  6566 ;;      Locals:         0       0       0       0       0       0       0       0       0       0       0       0       
      +0       0       0       0       0       0       0       0       0       0       0       0       0       0       0
  6567 ;;      Temps:          0       0       0       0       0       0       0       0       0       0       0       0       
      +0       0       0       0       0       0       0       0       0       0       0       0       0       0       0
  6568 ;;      Totals:         0       0       0       0       0       0       0       0       0       0       0       0       
      +0       0       0       0       0       0       0       0       0       0       0       0       0       0       0
  6569 ;;Total ram usage:        0 bytes
  6570 ;; Hardware stack levels used:    1
  6571 ;; Hardware stack levels required when called:    2
  6572 ;; This function calls:
  6573 ;;		_TMR0_CallBack
  6574 ;; This function is called by:
  6575 ;;		_INTERRUPT_InterruptManager
  6576 ;; This function uses a non-reentrant model
  6577 ;;
  6578                           
  6579                           
  6580                           ;psect for function _TMR0_ISR
  6581  0E1A                     _TMR0_ISR:
  6582  0E1A                     i1l2900:	
  6583                           ;incstack = 0
  6584                           ; Regs used in _TMR0_ISR: [wreg+status,2+status,0+pclath+cstack]
  6585                           
  6586                           
  6587                           ;mcc_generated_files/tmr0.c: 111:     static volatile uint16_t CountCallBack = 0;;mcc_ge
      +                          nerated_files/tmr0.c: 114:     INTCONbits.TMR0IF = 0;
  6588  0E1A  110B               	bcf	11,2	;volatile
  6589  0E1B                     i1l2902:
  6590                           
  6591                           ;mcc_generated_files/tmr0.c: 116:     TMR0 = timer0ReloadVal;
  6592  0E1B  0021               	movlb	1	; select bank1
  6593  0E1C  086A               	movf	_timer0ReloadVal^(0+128),w	;volatile
  6594  0E1D  0020               	movlb	0	; select bank0
  6595  0E1E  0095               	movwf	21	;volatile
  6596                           
  6597                           ;mcc_generated_files/tmr0.c: 119:     if (++CountCallBack >= 25)
  6598  0E1F  3001               	movlw	1
  6599  0E20  0021               	movlb	1	; select bank1
  6600  0E21  07EB               	addwf	TMR0_ISR@CountCallBack^(0+128),f	;volatile
  6601  0E22  3000               	movlw	0
  6602  0E23  3DEC               	addwfc	(TMR0_ISR@CountCallBack+1)^(0+128),f	;volatile
  6603  0E24  3000               	movlw	0
  6604  0E25  026C               	subwf	(TMR0_ISR@CountCallBack+1)^(0+128),w	;volatile
  6605  0E26  3019               	movlw	25
  6606  0E27  1903               	skipnz
  6607  0E28  026B               	subwf	TMR0_ISR@CountCallBack^(0+128),w	;volatile
  6608  0E29  1C03               	skipc
  6609  0E2A  2E2C               	goto	u192_21
  6610  0E2B  2E2D               	goto	u192_20
  6611  0E2C                     u192_21:
  6612  0E2C  2E33               	goto	i1l569
  6613  0E2D                     u192_20:
  6614  0E2D                     i1l2904:
  6615                           
  6616                           ;mcc_generated_files/tmr0.c: 120:     {;mcc_generated_files/tmr0.c: 122:         TMR0_Ca
      +                          llBack();
  6617  0E2D  3185  250B  318E   	fcall	_TMR0_CallBack
  6618  0E30                     i1l2906:
  6619                           
  6620                           ;mcc_generated_files/tmr0.c: 125:         CountCallBack = 0;
  6621  0E30  0021               	movlb	1	; select bank1
  6622  0E31  01EB               	clrf	TMR0_ISR@CountCallBack^(0+128)	;volatile
  6623  0E32  01EC               	clrf	(TMR0_ISR@CountCallBack+1)^(0+128)	;volatile
  6624  0E33                     i1l569:
  6625  0E33  0008               	return
  6626  0E34                     __end_of_TMR0_ISR:
  6627                           
  6628                           	psect	text27
  6629  050B                     __ptext27:	
  6630 ;; *************** function _TMR0_CallBack *****************
  6631 ;; Defined at:
  6632 ;;		line 131 in file "mcc_generated_files/tmr0.c"
  6633 ;; Parameters:    Size  Location     Type
  6634 ;;		None
  6635 ;; Auto vars:     Size  Location     Type
  6636 ;;		None
  6637 ;; Return value:  Size  Location     Type
  6638 ;;                  1    wreg      void 
  6639 ;; Registers used:
  6640 ;;		wreg, status,2, status,0, pclath, cstack
  6641 ;; Tracked objects:
  6642 ;;		On entry : 0/0
  6643 ;;		On exit  : 0/0
  6644 ;;		Unchanged: 0/0
  6645 ;; Data sizes:     COMMON   BANK0   BANK1   BANK2   BANK3   BANK4   BANK5   BANK6   BANK7   BANK8   BANK9  BANK10  BANK1
      +1  BANK12  BANK13  BANK14  BANK15  BANK16  BANK17  BANK18  BANK19  BANK20  BANK21  BANK22  BANK23  BANK24  BANK25
  6646 ;;      Params:         0       0       0       0       0       0       0       0       0       0       0       0       
      +0       0       0       0       0       0       0       0       0       0       0       0       0       0       0
  6647 ;;      Locals:         0       0       0       0       0       0       0       0       0       0       0       0       
      +0       0       0       0       0       0       0       0       0       0       0       0       0       0       0
  6648 ;;      Temps:          0       0       0       0       0       0       0       0       0       0       0       0       
      +0       0       0       0       0       0       0       0       0       0       0       0       0       0       0
  6649 ;;      Totals:         0       0       0       0       0       0       0       0       0       0       0       0       
      +0       0       0       0       0       0       0       0       0       0       0       0       0       0       0
  6650 ;;Total ram usage:        0 bytes
  6651 ;; Hardware stack levels used:    1
  6652 ;; Hardware stack levels required when called:    1
  6653 ;; This function calls:
  6654 ;;		Absolute function
  6655 ;;		_TMR0_DefaultInterruptHandler
  6656 ;;		___fladd
  6657 ;;		___fleq
  6658 ;; This function is called by:
  6659 ;;		_TMR0_ISR
  6660 ;; This function uses a non-reentrant model
  6661 ;;
  6662                           
  6663                           
  6664                           ;psect for function _TMR0_CallBack
  6665  050B                     _TMR0_CallBack:
  6666  050B                     i1l2852:	
  6667                           ;incstack = 0
  6668                           ; Regs used in _TMR0_CallBack: [wreg+status,2+status,0+pclath+cstack]
  6669                           
  6670                           
  6671                           ;mcc_generated_files/tmr0.c: 133:     counter+=0.1;
  6672  050B  303D               	movlw	61
  6673  050C  00F3               	movwf	___fladd@b+3
  6674  050D  30CC               	movlw	204
  6675  050E  00F2               	movwf	___fladd@b+2
  6676  050F  30CC               	movlw	204
  6677  0510  00F1               	movwf	___fladd@b+1
  6678  0511  30CD               	movlw	205
  6679  0512  00F0               	movwf	___fladd@b
  6680  0513  0020               	movlb	0	; select bank0
  6681  0514  083B               	movf	_counter+3,w
  6682  0515  00F7               	movwf	___fladd@a+3
  6683  0516  083A               	movf	_counter+2,w
  6684  0517  00F6               	movwf	___fladd@a+2
  6685  0518  0839               	movf	_counter+1,w
  6686  0519  00F5               	movwf	___fladd@a+1
  6687  051A  0838               	movf	_counter,w
  6688  051B  00F4               	movwf	___fladd@a
  6689  051C  3180  2056  3185   	fcall	___fladd
  6690  051F  0873               	movf	?___fladd+3,w
  6691  0520  0020               	movlb	0	; select bank0
  6692  0521  00BB               	movwf	_counter+3
  6693  0522  0872               	movf	?___fladd+2,w
  6694  0523  00BA               	movwf	_counter+2
  6695  0524  0871               	movf	?___fladd+1,w
  6696  0525  00B9               	movwf	_counter+1
  6697  0526  0870               	movf	?___fladd,w
  6698  0527  00B8               	movwf	_counter
  6699                           
  6700                           ;mcc_generated_files/tmr0.c: 134:     if (counter == 5)
  6701  0528  083B               	movf	_counter+3,w
  6702  0529  00F3               	movwf	___fleq@ff1+3
  6703  052A  083A               	movf	_counter+2,w
  6704  052B  00F2               	movwf	___fleq@ff1+2
  6705  052C  0839               	movf	_counter+1,w
  6706  052D  00F1               	movwf	___fleq@ff1+1
  6707  052E  0838               	movf	_counter,w
  6708  052F  00F0               	movwf	___fleq@ff1
  6709  0530  3040               	movlw	64
  6710  0531  00F7               	movwf	___fleq@ff2+3
  6711  0532  30A0               	movlw	160
  6712  0533  00F6               	movwf	___fleq@ff2+2
  6713  0534  3000               	movlw	0
  6714  0535  00F5               	movwf	___fleq@ff2+1
  6715  0536  3000               	movlw	0
  6716  0537  00F4               	movwf	___fleq@ff2
  6717  0538  3184  24BD  3185   	fcall	___fleq
  6718  053B  1C03               	btfss	3,0
  6719  053C  2D3E               	goto	u182_21
  6720  053D  2D3F               	goto	u182_20
  6721  053E                     u182_21:
  6722  053E  2D48               	goto	i1l2856
  6723  053F                     u182_20:
  6724  053F                     i1l2854:
  6725                           
  6726                           ;mcc_generated_files/tmr0.c: 135:     {;mcc_generated_files/tmr0.c: 136:         counter
      +                          =0;
  6727  053F  3000               	movlw	0
  6728  0540  0020               	movlb	0	; select bank0
  6729  0541  00BB               	movwf	_counter+3
  6730  0542  3000               	movlw	0
  6731  0543  00BA               	movwf	_counter+2
  6732  0544  3000               	movlw	0
  6733  0545  00B9               	movwf	_counter+1
  6734  0546  3000               	movlw	0
  6735  0547  00B8               	movwf	_counter
  6736  0548                     i1l2856:
  6737                           
  6738                           ;mcc_generated_files/tmr0.c: 138:     if(TMR0_InterruptHandler)
  6739  0548  0021               	movlb	1	; select bank1
  6740  0549  085C               	movf	_TMR0_InterruptHandler^(0+128),w
  6741  054A  045D               	iorwf	(_TMR0_InterruptHandler+1)^(0+128),w
  6742  054B  1903               	btfsc	3,2
  6743  054C  2D4E               	goto	u183_21
  6744  054D  2D4F               	goto	u183_20
  6745  054E                     u183_21:
  6746  054E  2D54               	goto	i1l574
  6747  054F                     u183_20:
  6748  054F                     i1l2858:
  6749                           
  6750                           ;mcc_generated_files/tmr0.c: 139:     {;mcc_generated_files/tmr0.c: 140:         TMR0_In
      +                          terruptHandler();
  6751  054F  085D               	movf	(_TMR0_InterruptHandler+1)^(0+128),w
  6752  0550  008A               	movwf	10
  6753  0551  085C               	movf	_TMR0_InterruptHandler^(0+128),w
  6754  0552  000A               	callw
  6755  0553  3185               	pagesel	$
  6756  0554                     i1l574:
  6757  0554  0008               	return
  6758  0555                     __end_of_TMR0_CallBack:
  6759                           
  6760                           	psect	text28
  6761  04BD                     __ptext28:	
  6762 ;; *************** function ___fleq *****************
  6763 ;; Defined at:
  6764 ;;		line 4 in file "C:\Program Files\Microchip\xc8\v2.31\pic\sources\c99\common\fleq.c"
  6765 ;; Parameters:    Size  Location     Type
  6766 ;;  ff1             4    0[COMMON] void 
  6767 ;;  ff2             4    4[COMMON] void 
  6768 ;; Auto vars:     Size  Location     Type
  6769 ;;		None
  6770 ;; Return value:  Size  Location     Type
  6771 ;;		None               void
  6772 ;; Registers used:
  6773 ;;		wreg, status,2, status,0
  6774 ;; Tracked objects:
  6775 ;;		On entry : 0/0
  6776 ;;		On exit  : 0/0
  6777 ;;		Unchanged: 0/0
  6778 ;; Data sizes:     COMMON   BANK0   BANK1   BANK2   BANK3   BANK4   BANK5   BANK6   BANK7   BANK8   BANK9  BANK10  BANK1
      +1  BANK12  BANK13  BANK14  BANK15  BANK16  BANK17  BANK18  BANK19  BANK20  BANK21  BANK22  BANK23  BANK24  BANK25
  6779 ;;      Params:         8       0       0       0       0       0       0       0       0       0       0       0       
      +0       0       0       0       0       0       0       0       0       0       0       0       0       0       0
  6780 ;;      Locals:         0       0       0       0       0       0       0       0       0       0       0       0       
      +0       0       0       0       0       0       0       0       0       0       0       0       0       0       0
  6781 ;;      Temps:          4       0       0       0       0       0       0       0       0       0       0       0       
      +0       0       0       0       0       0       0       0       0       0       0       0       0       0       0
  6782 ;;      Totals:        12       0       0       0       0       0       0       0       0       0       0       0       
      +0       0       0       0       0       0       0       0       0       0       0       0       0       0       0
  6783 ;;Total ram usage:       12 bytes
  6784 ;; Hardware stack levels used:    1
  6785 ;; This function calls:
  6786 ;;		Nothing
  6787 ;; This function is called by:
  6788 ;;		_TMR0_CallBack
  6789 ;; This function uses a non-reentrant model
  6790 ;;
  6791                           
  6792                           
  6793                           ;psect for function ___fleq
  6794  04BD                     ___fleq:
  6795  04BD                     i1l2364:	
  6796                           ;incstack = 0
  6797                           ; Regs used in ___fleq: [wreg+status,2+status,0]
  6798                           
  6799  04BD  3000               	movlw	0
  6800  04BE  0570               	andwf	___fleq@ff1,w
  6801  04BF  00F8               	movwf	??___fleq
  6802  04C0  3000               	movlw	0
  6803  04C1  0571               	andwf	___fleq@ff1+1,w
  6804  04C2  00F9               	movwf	??___fleq+1
  6805  04C3  3080               	movlw	128
  6806  04C4  0572               	andwf	___fleq@ff1+2,w
  6807  04C5  00FA               	movwf	??___fleq+2
  6808  04C6  307F               	movlw	127
  6809  04C7  0573               	andwf	___fleq@ff1+3,w
  6810  04C8  00FB               	movwf	??___fleq+3
  6811  04C9  087B               	movf	??___fleq+3,w
  6812  04CA  047A               	iorwf	??___fleq+2,w
  6813  04CB  0479               	iorwf	??___fleq+1,w
  6814  04CC  0478               	iorwf	??___fleq,w
  6815  04CD  1D03               	skipz
  6816  04CE  2CD0               	goto	u123_21
  6817  04CF  2CD1               	goto	u123_20
  6818  04D0                     u123_21:
  6819  04D0  2CD9               	goto	i1l817
  6820  04D1                     u123_20:
  6821  04D1                     i1l2366:
  6822  04D1  3000               	movlw	0
  6823  04D2  00F3               	movwf	___fleq@ff1+3
  6824  04D3  3000               	movlw	0
  6825  04D4  00F2               	movwf	___fleq@ff1+2
  6826  04D5  3000               	movlw	0
  6827  04D6  00F1               	movwf	___fleq@ff1+1
  6828  04D7  3000               	movlw	0
  6829  04D8  00F0               	movwf	___fleq@ff1
  6830  04D9                     i1l817:
  6831  04D9  3000               	movlw	0
  6832  04DA  0574               	andwf	___fleq@ff2,w
  6833  04DB  00F8               	movwf	??___fleq
  6834  04DC  3000               	movlw	0
  6835  04DD  0575               	andwf	___fleq@ff2+1,w
  6836  04DE  00F9               	movwf	??___fleq+1
  6837  04DF  3080               	movlw	128
  6838  04E0  0576               	andwf	___fleq@ff2+2,w
  6839  04E1  00FA               	movwf	??___fleq+2
  6840  04E2  307F               	movlw	127
  6841  04E3  0577               	andwf	___fleq@ff2+3,w
  6842  04E4  00FB               	movwf	??___fleq+3
  6843  04E5  087B               	movf	??___fleq+3,w
  6844  04E6  047A               	iorwf	??___fleq+2,w
  6845  04E7  0479               	iorwf	??___fleq+1,w
  6846  04E8  0478               	iorwf	??___fleq,w
  6847  04E9  1D03               	skipz
  6848  04EA  2CEC               	goto	u124_21
  6849  04EB  2CED               	goto	u124_20
  6850  04EC                     u124_21:
  6851  04EC  2CF5               	goto	i1l818
  6852  04ED                     u124_20:
  6853  04ED                     i1l2368:
  6854  04ED  3000               	movlw	0
  6855  04EE  00F7               	movwf	___fleq@ff2+3
  6856  04EF  3000               	movlw	0
  6857  04F0  00F6               	movwf	___fleq@ff2+2
  6858  04F1  3000               	movlw	0
  6859  04F2  00F5               	movwf	___fleq@ff2+1
  6860  04F3  3000               	movlw	0
  6861  04F4  00F4               	movwf	___fleq@ff2
  6862  04F5                     i1l818:
  6863  04F5  0877               	movf	___fleq@ff2+3,w
  6864  04F6  0673               	xorwf	___fleq@ff1+3,w
  6865  04F7  1D03               	skipz
  6866  04F8  2D03               	goto	u125_25
  6867  04F9  0876               	movf	___fleq@ff2+2,w
  6868  04FA  0672               	xorwf	___fleq@ff1+2,w
  6869  04FB  1D03               	skipz
  6870  04FC  2D03               	goto	u125_25
  6871  04FD  0875               	movf	___fleq@ff2+1,w
  6872  04FE  0671               	xorwf	___fleq@ff1+1,w
  6873  04FF  1D03               	skipz
  6874  0500  2D03               	goto	u125_25
  6875  0501  0874               	movf	___fleq@ff2,w
  6876  0502  0670               	xorwf	___fleq@ff1,w
  6877  0503                     u125_25:
  6878  0503  1903               	skipnz
  6879  0504  2D06               	goto	u125_21
  6880  0505  2D07               	goto	u125_20
  6881  0506                     u125_21:
  6882  0506  2D09               	goto	i1l2372
  6883  0507                     u125_20:
  6884  0507                     i1l2370:
  6885  0507  1003               	clrc
  6886  0508  2D0A               	goto	i1l823
  6887  0509                     i1l2372:
  6888  0509  1403               	setc
  6889  050A                     i1l823:
  6890  050A  0008               	return
  6891  050B                     __end_of___fleq:
  6892                           
  6893                           	psect	text29
  6894  0056                     __ptext29:	
  6895 ;; *************** function ___fladd *****************
  6896 ;; Defined at:
  6897 ;;		line 10 in file "C:\Program Files\Microchip\xc8\v2.31\pic\sources\c99\common\sprcadd.c"
  6898 ;; Parameters:    Size  Location     Type
  6899 ;;  b               4    0[COMMON] void 
  6900 ;;  a               4    4[COMMON] void 
  6901 ;; Auto vars:     Size  Location     Type
  6902 ;;  grs             1   11[COMMON] unsigned char 
  6903 ;;  bexp            1   10[COMMON] unsigned char 
  6904 ;;  aexp            1    9[COMMON] unsigned char 
  6905 ;;  signs           1    8[COMMON] unsigned char 
  6906 ;; Return value:  Size  Location     Type
  6907 ;;                  4    0[COMMON] unsigned char 
  6908 ;; Registers used:
  6909 ;;		wreg, status,2, status,0
  6910 ;; Tracked objects:
  6911 ;;		On entry : 0/0
  6912 ;;		On exit  : 0/0
  6913 ;;		Unchanged: 0/0
  6914 ;; Data sizes:     COMMON   BANK0   BANK1   BANK2   BANK3   BANK4   BANK5   BANK6   BANK7   BANK8   BANK9  BANK10  BANK1
      +1  BANK12  BANK13  BANK14  BANK15  BANK16  BANK17  BANK18  BANK19  BANK20  BANK21  BANK22  BANK23  BANK24  BANK25
  6915 ;;      Params:         8       0       0       0       0       0       0       0       0       0       0       0       
      +0       0       0       0       0       0       0       0       0       0       0       0       0       0       0
  6916 ;;      Locals:         4       0       0       0       0       0       0       0       0       0       0       0       
      +0       0       0       0       0       0       0       0       0       0       0       0       0       0       0
  6917 ;;      Temps:          0       8       0       0       0       0       0       0       0       0       0       0       
      +0       0       0       0       0       0       0       0       0       0       0       0       0       0       0
  6918 ;;      Totals:        12       8       0       0       0       0       0       0       0       0       0       0       
      +0       0       0       0       0       0       0       0       0       0       0       0       0       0       0
  6919 ;;Total ram usage:       20 bytes
  6920 ;; Hardware stack levels used:    1
  6921 ;; This function calls:
  6922 ;;		Nothing
  6923 ;; This function is called by:
  6924 ;;		_TMR0_CallBack
  6925 ;;		_taylorSine
  6926 ;; This function uses a non-reentrant model
  6927 ;;
  6928                           
  6929                           
  6930                           ;psect for function ___fladd
  6931  0056                     ___fladd:
  6932  0056                     i1l2376:	
  6933                           ;incstack = 0
  6934                           ; Regs used in ___fladd: [wreg+status,2+status,0]
  6935                           
  6936  0056  0873               	movf	___fladd@b+3,w
  6937  0057  3980               	andlw	128
  6938  0058  0020               	movlb	0	; select bank0
  6939  0059  00A0               	movwf	??___fladd
  6940  005A  0820               	movf	??___fladd,w
  6941  005B  00F8               	movwf	___fladd@signs
  6942  005C                     i1l2378:
  6943  005C  3573               	lslf	___fladd@b+3,w
  6944  005D  00A0               	movwf	??___fladd
  6945  005E  0820               	movf	??___fladd,w
  6946  005F  00FA               	movwf	___fladd@bexp
  6947  0060                     i1l2380:
  6948  0060  1FF2               	btfss	___fladd@b+2,7
  6949  0061  2863               	goto	u126_21
  6950  0062  2864               	goto	u126_20
  6951  0063                     u126_21:
  6952  0063  2865               	goto	i1l2384
  6953  0064                     u126_20:
  6954  0064                     i1l2382:
  6955  0064  147A               	bsf	___fladd@bexp,0
  6956  0065                     i1l2384:
  6957  0065  087A               	movf	___fladd@bexp,w
  6958  0066  1903               	btfsc	3,2
  6959  0067  2869               	goto	u127_21
  6960  0068  286A               	goto	u127_20
  6961  0069                     u127_21:
  6962  0069  287A               	goto	i1l2394
  6963  006A                     u127_20:
  6964  006A                     i1l2386:
  6965  006A  0A7A               	incf	___fladd@bexp,w
  6966  006B  1D03               	btfss	3,2
  6967  006C  286E               	goto	u128_21
  6968  006D  286F               	goto	u128_20
  6969  006E                     u128_21:
  6970  006E  2877               	goto	i1l2390
  6971  006F                     u128_20:
  6972  006F                     i1l2388:
  6973  006F  3000               	movlw	0
  6974  0070  00F3               	movwf	___fladd@b+3
  6975  0071  3000               	movlw	0
  6976  0072  00F2               	movwf	___fladd@b+2
  6977  0073  3000               	movlw	0
  6978  0074  00F1               	movwf	___fladd@b+1
  6979  0075  3000               	movlw	0
  6980  0076  00F0               	movwf	___fladd@b
  6981  0077                     i1l2390:
  6982  0077  17F2               	bsf	___fladd@b+2,7
  6983  0078                     i1l2392:
  6984  0078  01F3               	clrf	___fladd@b+3
  6985  0079  2882               	goto	i1l2396
  6986  007A                     i1l2394:
  6987  007A  3000               	movlw	0
  6988  007B  00F3               	movwf	___fladd@b+3
  6989  007C  3000               	movlw	0
  6990  007D  00F2               	movwf	___fladd@b+2
  6991  007E  3000               	movlw	0
  6992  007F  00F1               	movwf	___fladd@b+1
  6993  0080  3000               	movlw	0
  6994  0081  00F0               	movwf	___fladd@b
  6995  0082                     i1l2396:
  6996  0082  0877               	movf	___fladd@a+3,w
  6997  0083  3980               	andlw	128
  6998  0084  00A0               	movwf	??___fladd
  6999  0085  0820               	movf	??___fladd,w
  7000  0086  00F9               	movwf	___fladd@aexp
  7001  0087                     i1l2398:
  7002  0087  0879               	movf	___fladd@aexp,w
  7003  0088  0678               	xorwf	___fladd@signs,w
  7004  0089  1903               	skipnz
  7005  008A  288C               	goto	u129_21
  7006  008B  288D               	goto	u129_20
  7007  008C                     u129_21:
  7008  008C  288E               	goto	i1l2402
  7009  008D                     u129_20:
  7010  008D                     i1l2400:
  7011  008D  1778               	bsf	___fladd@signs,6
  7012  008E                     i1l2402:
  7013  008E  3577               	lslf	___fladd@a+3,w
  7014  008F  00A0               	movwf	??___fladd
  7015  0090  0820               	movf	??___fladd,w
  7016  0091  00F9               	movwf	___fladd@aexp
  7017  0092                     i1l2404:
  7018  0092  1FF6               	btfss	___fladd@a+2,7
  7019  0093  2895               	goto	u130_21
  7020  0094  2896               	goto	u130_20
  7021  0095                     u130_21:
  7022  0095  2897               	goto	i1l2408
  7023  0096                     u130_20:
  7024  0096                     i1l2406:
  7025  0096  1479               	bsf	___fladd@aexp,0
  7026  0097                     i1l2408:
  7027  0097  0879               	movf	___fladd@aexp,w
  7028  0098  1903               	btfsc	3,2
  7029  0099  289B               	goto	u131_21
  7030  009A  289C               	goto	u131_20
  7031  009B                     u131_21:
  7032  009B  28AC               	goto	i1l2418
  7033  009C                     u131_20:
  7034  009C                     i1l2410:
  7035  009C  0A79               	incf	___fladd@aexp,w
  7036  009D  1D03               	btfss	3,2
  7037  009E  28A0               	goto	u132_21
  7038  009F  28A1               	goto	u132_20
  7039  00A0                     u132_21:
  7040  00A0  28A9               	goto	i1l2414
  7041  00A1                     u132_20:
  7042  00A1                     i1l2412:
  7043  00A1  3000               	movlw	0
  7044  00A2  00F7               	movwf	___fladd@a+3
  7045  00A3  3000               	movlw	0
  7046  00A4  00F6               	movwf	___fladd@a+2
  7047  00A5  3000               	movlw	0
  7048  00A6  00F5               	movwf	___fladd@a+1
  7049  00A7  3000               	movlw	0
  7050  00A8  00F4               	movwf	___fladd@a
  7051  00A9                     i1l2414:
  7052  00A9  17F6               	bsf	___fladd@a+2,7
  7053  00AA                     i1l2416:
  7054  00AA  01F7               	clrf	___fladd@a+3
  7055  00AB  28B4               	goto	i1l949
  7056  00AC                     i1l2418:
  7057  00AC  3000               	movlw	0
  7058  00AD  00F7               	movwf	___fladd@a+3
  7059  00AE  3000               	movlw	0
  7060  00AF  00F6               	movwf	___fladd@a+2
  7061  00B0  3000               	movlw	0
  7062  00B1  00F5               	movwf	___fladd@a+1
  7063  00B2  3000               	movlw	0
  7064  00B3  00F4               	movwf	___fladd@a
  7065  00B4                     i1l949:
  7066  00B4  087A               	movf	___fladd@bexp,w
  7067  00B5  0279               	subwf	___fladd@aexp,w
  7068  00B6  1803               	skipnc
  7069  00B7  28B9               	goto	u133_21
  7070  00B8  28BA               	goto	u133_20
  7071  00B9                     u133_21:
  7072  00B9  28FE               	goto	i1l2454
  7073  00BA                     u133_20:
  7074  00BA                     i1l2420:
  7075  00BA  1F78               	btfss	___fladd@signs,6
  7076  00BB  28BD               	goto	u134_21
  7077  00BC  28BE               	goto	u134_20
  7078  00BD                     u134_21:
  7079  00BD  28C2               	goto	i1l2424
  7080  00BE                     u134_20:
  7081  00BE                     i1l2422:
  7082  00BE  3080               	movlw	128
  7083  00BF  00A0               	movwf	??___fladd
  7084  00C0  0820               	movf	??___fladd,w
  7085  00C1  06F8               	xorwf	___fladd@signs,f
  7086  00C2                     i1l2424:
  7087  00C2  087A               	movf	___fladd@bexp,w
  7088  00C3  00A0               	movwf	??___fladd
  7089  00C4  0820               	movf	??___fladd,w
  7090  00C5  00FB               	movwf	___fladd@grs
  7091  00C6                     i1l2426:
  7092  00C6  0879               	movf	___fladd@aexp,w
  7093  00C7  00A0               	movwf	??___fladd
  7094  00C8  0820               	movf	??___fladd,w
  7095  00C9  00FA               	movwf	___fladd@bexp
  7096  00CA                     i1l2428:
  7097  00CA  087B               	movf	___fladd@grs,w
  7098  00CB  00A0               	movwf	??___fladd
  7099  00CC  0820               	movf	??___fladd,w
  7100  00CD  00F9               	movwf	___fladd@aexp
  7101  00CE                     i1l2430:
  7102  00CE  0870               	movf	___fladd@b,w
  7103  00CF  00A0               	movwf	??___fladd
  7104  00D0  0820               	movf	??___fladd,w
  7105  00D1  00FB               	movwf	___fladd@grs
  7106  00D2                     i1l2432:
  7107  00D2  0874               	movf	___fladd@a,w
  7108  00D3  00A0               	movwf	??___fladd
  7109  00D4  0820               	movf	??___fladd,w
  7110  00D5  00F0               	movwf	___fladd@b
  7111  00D6                     i1l2434:
  7112  00D6  087B               	movf	___fladd@grs,w
  7113  00D7  00A0               	movwf	??___fladd
  7114  00D8  0820               	movf	??___fladd,w
  7115  00D9  00F4               	movwf	___fladd@a
  7116  00DA                     i1l2436:
  7117  00DA  0871               	movf	___fladd@b+1,w
  7118  00DB  00A0               	movwf	??___fladd
  7119  00DC  0820               	movf	??___fladd,w
  7120  00DD  00FB               	movwf	___fladd@grs
  7121  00DE                     i1l2438:
  7122  00DE  0875               	movf	___fladd@a+1,w
  7123  00DF  00A0               	movwf	??___fladd
  7124  00E0  0820               	movf	??___fladd,w
  7125  00E1  00F1               	movwf	___fladd@b+1
  7126  00E2                     i1l2440:
  7127  00E2  087B               	movf	___fladd@grs,w
  7128  00E3  00A0               	movwf	??___fladd
  7129  00E4  0820               	movf	??___fladd,w
  7130  00E5  00F5               	movwf	___fladd@a+1
  7131  00E6                     i1l2442:
  7132  00E6  0872               	movf	___fladd@b+2,w
  7133  00E7  00A0               	movwf	??___fladd
  7134  00E8  0820               	movf	??___fladd,w
  7135  00E9  00FB               	movwf	___fladd@grs
  7136  00EA                     i1l2444:
  7137  00EA  0876               	movf	___fladd@a+2,w
  7138  00EB  00A0               	movwf	??___fladd
  7139  00EC  0820               	movf	??___fladd,w
  7140  00ED  00F2               	movwf	___fladd@b+2
  7141  00EE                     i1l2446:
  7142  00EE  087B               	movf	___fladd@grs,w
  7143  00EF  00A0               	movwf	??___fladd
  7144  00F0  0820               	movf	??___fladd,w
  7145  00F1  00F6               	movwf	___fladd@a+2
  7146  00F2                     i1l2448:
  7147  00F2  0873               	movf	___fladd@b+3,w
  7148  00F3  00A0               	movwf	??___fladd
  7149  00F4  0820               	movf	??___fladd,w
  7150  00F5  00FB               	movwf	___fladd@grs
  7151  00F6                     i1l2450:
  7152  00F6  0877               	movf	___fladd@a+3,w
  7153  00F7  00A0               	movwf	??___fladd
  7154  00F8  0820               	movf	??___fladd,w
  7155  00F9  00F3               	movwf	___fladd@b+3
  7156  00FA                     i1l2452:
  7157  00FA  087B               	movf	___fladd@grs,w
  7158  00FB  00A0               	movwf	??___fladd
  7159  00FC  0820               	movf	??___fladd,w
  7160  00FD  00F7               	movwf	___fladd@a+3
  7161  00FE                     i1l2454:
  7162  00FE  01FB               	clrf	___fladd@grs
  7163  00FF                     i1l2456:
  7164  00FF  0879               	movf	___fladd@aexp,w
  7165  0100  00A0               	movwf	??___fladd
  7166  0101  01A1               	clrf	??___fladd+1
  7167  0102  0821               	movf	??___fladd+1,w
  7168  0103  00A3               	movwf	??___fladd+3
  7169  0104  087A               	movf	___fladd@bexp,w
  7170  0105  0220               	subwf	??___fladd,w
  7171  0106  00A2               	movwf	??___fladd+2
  7172  0107  1C03               	skipc
  7173  0108  03A3               	decf	??___fladd+3,f
  7174  0109  0823               	movf	??___fladd+3,w
  7175  010A  3A80               	xorlw	128
  7176  010B  00A4               	movwf	??___fladd+4
  7177  010C  3080               	movlw	128
  7178  010D  0224               	subwf	??___fladd+4,w
  7179  010E  1D03               	skipz
  7180  010F  2912               	goto	u135_25
  7181  0110  301A               	movlw	26
  7182  0111  0222               	subwf	??___fladd+2,w
  7183  0112                     u135_25:
  7184  0112  1C03               	skipc
  7185  0113  2915               	goto	u135_21
  7186  0114  2916               	goto	u135_20
  7187  0115                     u135_21:
  7188  0115  2950               	goto	i1l2472
  7189  0116                     u135_20:
  7190  0116                     i1l2458:
  7191  0116  0873               	movf	___fladd@b+3,w
  7192  0117  0472               	iorwf	___fladd@b+2,w
  7193  0118  0471               	iorwf	___fladd@b+1,w
  7194  0119  0470               	iorwf	___fladd@b,w
  7195  011A  1D03               	skipz
  7196  011B  291D               	goto	u136_21
  7197  011C  291F               	goto	u136_20
  7198  011D                     u136_21:
  7199  011D  3001               	movlw	1
  7200  011E  2920               	goto	u137_20
  7201  011F                     u136_20:
  7202  011F  3000               	movlw	0
  7203  0120                     u137_20:
  7204  0120  0020               	movlb	0	; select bank0
  7205  0121  00A0               	movwf	??___fladd
  7206  0122  0820               	movf	??___fladd,w
  7207  0123  00FB               	movwf	___fladd@grs
  7208  0124  3000               	movlw	0
  7209  0125  00F3               	movwf	___fladd@b+3
  7210  0126  3000               	movlw	0
  7211  0127  00F2               	movwf	___fladd@b+2
  7212  0128  3000               	movlw	0
  7213  0129  00F1               	movwf	___fladd@b+1
  7214  012A  3000               	movlw	0
  7215  012B  00F0               	movwf	___fladd@b
  7216  012C  0879               	movf	___fladd@aexp,w
  7217  012D  00A0               	movwf	??___fladd
  7218  012E  0820               	movf	??___fladd,w
  7219  012F  00FA               	movwf	___fladd@bexp
  7220  0130  2956               	goto	i1l953
  7221  0131                     i1l955:
  7222  0131  1C7B               	btfss	___fladd@grs,0
  7223  0132  2934               	goto	u138_21
  7224  0133  2935               	goto	u138_20
  7225  0134                     u138_21:
  7226  0134  293C               	goto	i1l2462
  7227  0135                     u138_20:
  7228  0135                     i1l2460:
  7229  0135  367B               	lsrf	___fladd@grs,w
  7230  0136  3801               	iorlw	1
  7231  0137  0020               	movlb	0	; select bank0
  7232  0138  00A0               	movwf	??___fladd
  7233  0139  0820               	movf	??___fladd,w
  7234  013A  00FB               	movwf	___fladd@grs
  7235  013B  293E               	goto	i1l2464
  7236  013C                     i1l2462:
  7237  013C  1003               	clrc
  7238  013D  0CFB               	rrf	___fladd@grs,f
  7239  013E                     i1l2464:
  7240  013E  1C70               	btfss	___fladd@b,0
  7241  013F  2941               	goto	u139_21
  7242  0140  2942               	goto	u139_20
  7243  0141                     u139_21:
  7244  0141  2943               	goto	i1l2468
  7245  0142                     u139_20:
  7246  0142                     i1l2466:
  7247  0142  17FB               	bsf	___fladd@grs,7
  7248  0143                     i1l2468:
  7249  0143  3001               	movlw	1
  7250  0144  0020               	movlb	0	; select bank0
  7251  0145  00A0               	movwf	??___fladd
  7252  0146                     u140_25:
  7253  0146  37F3               	asrf	___fladd@b+3,f
  7254  0147  0CF2               	rrf	___fladd@b+2,f
  7255  0148  0CF1               	rrf	___fladd@b+1,f
  7256  0149  0CF0               	rrf	___fladd@b,f
  7257  014A  0BA0               	decfsz	??___fladd& (0+127),f
  7258  014B  2946               	goto	u140_25
  7259  014C                     i1l2470:
  7260  014C  3001               	movlw	1
  7261  014D  00A0               	movwf	??___fladd
  7262  014E  0820               	movf	??___fladd,w
  7263  014F  07FA               	addwf	___fladd@bexp,f
  7264  0150                     i1l2472:
  7265  0150  0879               	movf	___fladd@aexp,w
  7266  0151  027A               	subwf	___fladd@bexp,w
  7267  0152  1C03               	skipc
  7268  0153  2955               	goto	u141_21
  7269  0154  2956               	goto	u141_20
  7270  0155                     u141_21:
  7271  0155  2931               	goto	i1l955
  7272  0156                     u141_20:
  7273  0156                     i1l953:
  7274  0156  1B78               	btfsc	___fladd@signs,6
  7275  0157  2959               	goto	u142_21
  7276  0158  295A               	goto	u142_20
  7277  0159                     u142_21:
  7278  0159  2994               	goto	i1l2498
  7279  015A                     u142_20:
  7280  015A                     i1l2474:
  7281  015A  087A               	movf	___fladd@bexp,w
  7282  015B  1D03               	btfss	3,2
  7283  015C  295E               	goto	u143_21
  7284  015D  295F               	goto	u143_20
  7285  015E                     u143_21:
  7286  015E  2968               	goto	i1l2480
  7287  015F                     u143_20:
  7288  015F                     i1l2476:
  7289  015F  3000               	movlw	0
  7290  0160  00F3               	movwf	?___fladd+3
  7291  0161  3000               	movlw	0
  7292  0162  00F2               	movwf	?___fladd+2
  7293  0163  3000               	movlw	0
  7294  0164  00F1               	movwf	?___fladd+1
  7295  0165  3000               	movlw	0
  7296  0166  00F0               	movwf	?___fladd
  7297  0167  2A94               	goto	i1l962
  7298  0168                     i1l2480:
  7299  0168  0874               	movf	___fladd@a,w
  7300  0169  07F0               	addwf	___fladd@b,f
  7301  016A  0875               	movf	___fladd@a+1,w
  7302  016B  3DF1               	addwfc	___fladd@b+1,f
  7303  016C  0876               	movf	___fladd@a+2,w
  7304  016D  3DF2               	addwfc	___fladd@b+2,f
  7305  016E  0877               	movf	___fladd@a+3,w
  7306  016F  3DF3               	addwfc	___fladd@b+3,f
  7307  0170                     i1l2482:
  7308  0170  1C73               	btfss	___fladd@b+3,0
  7309  0171  2973               	goto	u144_21
  7310  0172  2974               	goto	u144_20
  7311  0173                     u144_21:
  7312  0173  2A21               	goto	i1l2532
  7313  0174                     u144_20:
  7314  0174                     i1l2484:
  7315  0174  1C7B               	btfss	___fladd@grs,0
  7316  0175  2977               	goto	u145_21
  7317  0176  2978               	goto	u145_20
  7318  0177                     u145_21:
  7319  0177  297F               	goto	i1l2488
  7320  0178                     u145_20:
  7321  0178                     i1l2486:
  7322  0178  367B               	lsrf	___fladd@grs,w
  7323  0179  3801               	iorlw	1
  7324  017A  0020               	movlb	0	; select bank0
  7325  017B  00A0               	movwf	??___fladd
  7326  017C  0820               	movf	??___fladd,w
  7327  017D  00FB               	movwf	___fladd@grs
  7328  017E  2981               	goto	i1l2490
  7329  017F                     i1l2488:
  7330  017F  1003               	clrc
  7331  0180  0CFB               	rrf	___fladd@grs,f
  7332  0181                     i1l2490:
  7333  0181  1C70               	btfss	___fladd@b,0
  7334  0182  2984               	goto	u146_21
  7335  0183  2985               	goto	u146_20
  7336  0184                     u146_21:
  7337  0184  2986               	goto	i1l2494
  7338  0185                     u146_20:
  7339  0185                     i1l2492:
  7340  0185  17FB               	bsf	___fladd@grs,7
  7341  0186                     i1l2494:
  7342  0186  3001               	movlw	1
  7343  0187  0020               	movlb	0	; select bank0
  7344  0188  00A0               	movwf	??___fladd
  7345  0189                     u147_25:
  7346  0189  37F3               	asrf	___fladd@b+3,f
  7347  018A  0CF2               	rrf	___fladd@b+2,f
  7348  018B  0CF1               	rrf	___fladd@b+1,f
  7349  018C  0CF0               	rrf	___fladd@b,f
  7350  018D  0BA0               	decfsz	??___fladd& (0+127),f
  7351  018E  2989               	goto	u147_25
  7352  018F                     i1l2496:
  7353  018F  3001               	movlw	1
  7354  0190  00A0               	movwf	??___fladd
  7355  0191  0820               	movf	??___fladd,w
  7356  0192  07FA               	addwf	___fladd@bexp,f
  7357  0193  2A21               	goto	i1l2532
  7358  0194                     i1l2498:
  7359  0194  0873               	movf	___fladd@b+3,w
  7360  0195  3A80               	xorlw	128
  7361  0196  0020               	movlb	0	; select bank0
  7362  0197  00A0               	movwf	??___fladd
  7363  0198  0877               	movf	___fladd@a+3,w
  7364  0199  3A80               	xorlw	128
  7365  019A  0220               	subwf	??___fladd,w
  7366  019B  1D03               	skipz
  7367  019C  29A7               	goto	u148_23
  7368  019D  0876               	movf	___fladd@a+2,w
  7369  019E  0272               	subwf	___fladd@b+2,w
  7370  019F  1D03               	skipz
  7371  01A0  29A7               	goto	u148_23
  7372  01A1  0875               	movf	___fladd@a+1,w
  7373  01A2  0271               	subwf	___fladd@b+1,w
  7374  01A3  1D03               	skipz
  7375  01A4  29A7               	goto	u148_23
  7376  01A5  0874               	movf	___fladd@a,w
  7377  01A6  0270               	subwf	___fladd@b,w
  7378  01A7                     u148_23:
  7379  01A7  1803               	skipnc
  7380  01A8  29AA               	goto	u148_21
  7381  01A9  29AB               	goto	u148_20
  7382  01AA                     u148_21:
  7383  01AA  29E3               	goto	i1l2508
  7384  01AB                     u148_20:
  7385  01AB                     i1l2500:
  7386  01AB  30FF               	movlw	255
  7387  01AC  00A0               	movwf	??___fladd
  7388  01AD  30FF               	movlw	255
  7389  01AE  00A1               	movwf	??___fladd+1
  7390  01AF  30FF               	movlw	255
  7391  01B0  00A2               	movwf	??___fladd+2
  7392  01B1  30FF               	movlw	255
  7393  01B2  00A3               	movwf	??___fladd+3
  7394  01B3  0870               	movf	___fladd@b,w
  7395  01B4  0274               	subwf	___fladd@a,w
  7396  01B5  00A4               	movwf	??___fladd+4
  7397  01B6  0871               	movf	___fladd@b+1,w
  7398  01B7  3B75               	subwfb	___fladd@a+1,w
  7399  01B8  00A5               	movwf	??___fladd+5
  7400  01B9  0872               	movf	___fladd@b+2,w
  7401  01BA  3B76               	subwfb	___fladd@a+2,w
  7402  01BB  00A6               	movwf	??___fladd+6
  7403  01BC  0873               	movf	___fladd@b+3,w
  7404  01BD  3B77               	subwfb	___fladd@a+3,w
  7405  01BE  00A7               	movwf	??___fladd+7
  7406  01BF  0824               	movf	??___fladd+4,w
  7407  01C0  07A0               	addwf	??___fladd,f
  7408  01C1  0825               	movf	??___fladd+5,w
  7409  01C2  3DA1               	addwfc	??___fladd+1,f
  7410  01C3  0826               	movf	??___fladd+6,w
  7411  01C4  3DA2               	addwfc	??___fladd+2,f
  7412  01C5  0827               	movf	??___fladd+7,w
  7413  01C6  3DA3               	addwfc	??___fladd+3,f
  7414  01C7  0823               	movf	??___fladd+3,w
  7415  01C8  00F3               	movwf	___fladd@b+3
  7416  01C9  0822               	movf	??___fladd+2,w
  7417  01CA  00F2               	movwf	___fladd@b+2
  7418  01CB  0821               	movf	??___fladd+1,w
  7419  01CC  00F1               	movwf	___fladd@b+1
  7420  01CD  0820               	movf	??___fladd,w
  7421  01CE  00F0               	movwf	___fladd@b
  7422  01CF                     i1l2502:
  7423  01CF  3080               	movlw	128
  7424  01D0  00A0               	movwf	??___fladd
  7425  01D1  0820               	movf	??___fladd,w
  7426  01D2  06F8               	xorwf	___fladd@signs,f
  7427  01D3  09FB               	comf	___fladd@grs,f
  7428  01D4  0AFB               	incf	___fladd@grs,f
  7429  01D5                     i1l2504:
  7430  01D5  087B               	movf	___fladd@grs,w
  7431  01D6  1D03               	btfss	3,2
  7432  01D7  29D9               	goto	u149_21
  7433  01D8  29DA               	goto	u149_20
  7434  01D9                     u149_21:
  7435  01D9  29EB               	goto	i1l970
  7436  01DA                     u149_20:
  7437  01DA                     i1l2506:
  7438  01DA  3001               	movlw	1
  7439  01DB  07F0               	addwf	___fladd@b,f
  7440  01DC  3000               	movlw	0
  7441  01DD  3DF1               	addwfc	___fladd@b+1,f
  7442  01DE  3000               	movlw	0
  7443  01DF  3DF2               	addwfc	___fladd@b+2,f
  7444  01E0  3000               	movlw	0
  7445  01E1  3DF3               	addwfc	___fladd@b+3,f
  7446  01E2  29EB               	goto	i1l970
  7447  01E3                     i1l2508:
  7448  01E3  0874               	movf	___fladd@a,w
  7449  01E4  02F0               	subwf	___fladd@b,f
  7450  01E5  0875               	movf	___fladd@a+1,w
  7451  01E6  3BF1               	subwfb	___fladd@b+1,f
  7452  01E7  0876               	movf	___fladd@a+2,w
  7453  01E8  3BF2               	subwfb	___fladd@b+2,f
  7454  01E9  0877               	movf	___fladd@a+3,w
  7455  01EA  3BF3               	subwfb	___fladd@b+3,f
  7456  01EB                     i1l970:
  7457  01EB  0873               	movf	___fladd@b+3,w
  7458  01EC  0472               	iorwf	___fladd@b+2,w
  7459  01ED  0471               	iorwf	___fladd@b+1,w
  7460  01EE  0470               	iorwf	___fladd@b,w
  7461  01EF  1D03               	skipz
  7462  01F0  29F2               	goto	u150_21
  7463  01F1  29F3               	goto	u150_20
  7464  01F2                     u150_21:
  7465  01F2  2A1D               	goto	i1l2530
  7466  01F3                     u150_20:
  7467  01F3                     i1l2510:
  7468  01F3  087B               	movf	___fladd@grs,w
  7469  01F4  1D03               	btfss	3,2
  7470  01F5  29F7               	goto	u151_21
  7471  01F6  29F8               	goto	u151_20
  7472  01F7                     u151_21:
  7473  01F7  2A1D               	goto	i1l2530
  7474  01F8                     u151_20:
  7475  01F8                     i1l2512:
  7476  01F8  3000               	movlw	0
  7477  01F9  00F3               	movwf	?___fladd+3
  7478  01FA  3000               	movlw	0
  7479  01FB  00F2               	movwf	?___fladd+2
  7480  01FC  3000               	movlw	0
  7481  01FD  00F1               	movwf	?___fladd+1
  7482  01FE  3000               	movlw	0
  7483  01FF  00F0               	movwf	?___fladd
  7484  0200  2A94               	goto	i1l962
  7485  0201                     i1l2516:
  7486  0201  3001               	movlw	1
  7487  0202                     u152_25:
  7488  0202  35F0               	lslf	___fladd@b,f
  7489  0203  0DF1               	rlf	___fladd@b+1,f
  7490  0204  0DF2               	rlf	___fladd@b+2,f
  7491  0205  0DF3               	rlf	___fladd@b+3,f
  7492  0206  0B89               	decfsz	9,f
  7493  0207  2A02               	goto	u152_25
  7494  0208                     i1l2518:
  7495  0208  1FFB               	btfss	___fladd@grs,7
  7496  0209  2A0B               	goto	u153_21
  7497  020A  2A0C               	goto	u153_20
  7498  020B                     u153_21:
  7499  020B  2A0D               	goto	i1l974
  7500  020C                     u153_20:
  7501  020C                     i1l2520:
  7502  020C  1470               	bsf	___fladd@b,0
  7503  020D                     i1l974:
  7504  020D  1C7B               	btfss	___fladd@grs,0
  7505  020E  2A10               	goto	u154_21
  7506  020F  2A11               	goto	u154_20
  7507  0210                     u154_21:
  7508  0210  2A14               	goto	i1l2524
  7509  0211                     u154_20:
  7510  0211                     i1l2522:
  7511  0211  1403               	setc
  7512  0212  0DFB               	rlf	___fladd@grs,f
  7513  0213  2A16               	goto	i1l2526
  7514  0214                     i1l2524:
  7515  0214  1003               	clrc
  7516  0215  0DFB               	rlf	___fladd@grs,f
  7517  0216                     i1l2526:
  7518  0216  087A               	movf	___fladd@bexp,w
  7519  0217  1903               	btfsc	3,2
  7520  0218  2A1A               	goto	u155_21
  7521  0219  2A1B               	goto	u155_20
  7522  021A                     u155_21:
  7523  021A  2A1D               	goto	i1l2530
  7524  021B                     u155_20:
  7525  021B                     i1l2528:
  7526  021B  3001               	movlw	1
  7527  021C  02FA               	subwf	___fladd@bexp,f
  7528  021D                     i1l2530:
  7529  021D  1FF2               	btfss	___fladd@b+2,7
  7530  021E  2A20               	goto	u156_21
  7531  021F  2A21               	goto	u156_20
  7532  0220                     u156_21:
  7533  0220  2A01               	goto	i1l2516
  7534  0221                     u156_20:
  7535  0221                     i1l2532:
  7536  0221  01F9               	clrf	___fladd@aexp
  7537  0222                     i1l2534:
  7538  0222  1FFB               	btfss	___fladd@grs,7
  7539  0223  2A25               	goto	u157_21
  7540  0224  2A26               	goto	u157_20
  7541  0225                     u157_21:
  7542  0225  2A34               	goto	i1l2542
  7543  0226                     u157_20:
  7544  0226                     i1l2536:
  7545  0226  087B               	movf	___fladd@grs,w
  7546  0227  397F               	andlw	127
  7547  0228  1903               	btfsc	3,2
  7548  0229  2A2B               	goto	u158_21
  7549  022A  2A2C               	goto	u158_20
  7550  022B                     u158_21:
  7551  022B  2A2F               	goto	i1l980
  7552  022C                     u158_20:
  7553  022C                     i1l2538:
  7554  022C  01F9               	clrf	___fladd@aexp
  7555  022D  0AF9               	incf	___fladd@aexp,f
  7556  022E  2A34               	goto	i1l2542
  7557  022F                     i1l980:
  7558  022F  1C70               	btfss	___fladd@b,0
  7559  0230  2A32               	goto	u159_21
  7560  0231  2A33               	goto	u159_20
  7561  0232                     u159_21:
  7562  0232  2A34               	goto	i1l2542
  7563  0233                     u159_20:
  7564  0233  2A2C               	goto	i1l2538
  7565  0234                     i1l2542:
  7566  0234  0879               	movf	___fladd@aexp,w
  7567  0235  1903               	btfsc	3,2
  7568  0236  2A38               	goto	u160_21
  7569  0237  2A39               	goto	u160_20
  7570  0238                     u160_21:
  7571  0238  2A67               	goto	i1l983
  7572  0239                     u160_20:
  7573  0239                     i1l2544:
  7574  0239  3001               	movlw	1
  7575  023A  07F0               	addwf	___fladd@b,f
  7576  023B  3000               	movlw	0
  7577  023C  3DF1               	addwfc	___fladd@b+1,f
  7578  023D  3000               	movlw	0
  7579  023E  3DF2               	addwfc	___fladd@b+2,f
  7580  023F  3000               	movlw	0
  7581  0240  3DF3               	addwfc	___fladd@b+3,f
  7582  0241                     i1l2546:
  7583  0241  1C73               	btfss	___fladd@b+3,0
  7584  0242  2A44               	goto	u161_21
  7585  0243  2A45               	goto	u161_20
  7586  0244                     u161_21:
  7587  0244  2A67               	goto	i1l983
  7588  0245                     u161_20:
  7589  0245                     i1l2548:
  7590  0245  0870               	movf	___fladd@b,w
  7591  0246  0020               	movlb	0	; select bank0
  7592  0247  00A0               	movwf	??___fladd
  7593  0248  0871               	movf	___fladd@b+1,w
  7594  0249  00A1               	movwf	??___fladd+1
  7595  024A  0872               	movf	___fladd@b+2,w
  7596  024B  00A2               	movwf	??___fladd+2
  7597  024C  0873               	movf	___fladd@b+3,w
  7598  024D  00A3               	movwf	??___fladd+3
  7599  024E  3001               	movlw	1
  7600  024F  00A4               	movwf	??___fladd+4
  7601  0250                     u162_25:
  7602  0250  37A3               	asrf	??___fladd+3,f
  7603  0251  0CA2               	rrf	??___fladd+2,f
  7604  0252  0CA1               	rrf	??___fladd+1,f
  7605  0253  0CA0               	rrf	??___fladd,f
  7606  0254                     u162_20:
  7607  0254  0BA4               	decfsz	??___fladd+4,f
  7608  0255  2A50               	goto	u162_25
  7609  0256  0823               	movf	??___fladd+3,w
  7610  0257  00F3               	movwf	___fladd@b+3
  7611  0258  0822               	movf	??___fladd+2,w
  7612  0259  00F2               	movwf	___fladd@b+2
  7613  025A  0821               	movf	??___fladd+1,w
  7614  025B  00F1               	movwf	___fladd@b+1
  7615  025C  0820               	movf	??___fladd,w
  7616  025D  00F0               	movwf	___fladd@b
  7617  025E  0A7A               	incf	___fladd@bexp,w
  7618  025F  1903               	btfsc	3,2
  7619  0260  2A62               	goto	u163_21
  7620  0261  2A63               	goto	u163_20
  7621  0262                     u163_21:
  7622  0262  2A67               	goto	i1l983
  7623  0263                     u163_20:
  7624  0263                     i1l2550:
  7625  0263  3001               	movlw	1
  7626  0264  00A0               	movwf	??___fladd
  7627  0265  0820               	movf	??___fladd,w
  7628  0266  07FA               	addwf	___fladd@bexp,f
  7629  0267                     i1l983:
  7630  0267  0A7A               	incf	___fladd@bexp,w
  7631  0268  1903               	btfsc	3,2
  7632  0269  2A6B               	goto	u164_21
  7633  026A  2A6C               	goto	u164_20
  7634  026B                     u164_21:
  7635  026B  2A71               	goto	i1l2554
  7636  026C                     u164_20:
  7637  026C                     i1l2552:
  7638  026C  087A               	movf	___fladd@bexp,w
  7639  026D  1D03               	btfss	3,2
  7640  026E  2A70               	goto	u165_21
  7641  026F  2A71               	goto	u165_20
  7642  0270                     u165_21:
  7643  0270  2A7F               	goto	i1l2560
  7644  0271                     u165_20:
  7645  0271                     i1l2554:
  7646  0271  3000               	movlw	0
  7647  0272  00F3               	movwf	___fladd@b+3
  7648  0273  3000               	movlw	0
  7649  0274  00F2               	movwf	___fladd@b+2
  7650  0275  3000               	movlw	0
  7651  0276  00F1               	movwf	___fladd@b+1
  7652  0277  3000               	movlw	0
  7653  0278  00F0               	movwf	___fladd@b
  7654  0279                     i1l2556:
  7655  0279  087A               	movf	___fladd@bexp,w
  7656  027A  1D03               	btfss	3,2
  7657  027B  2A7D               	goto	u166_21
  7658  027C  2A7E               	goto	u166_20
  7659  027D                     u166_21:
  7660  027D  2A7F               	goto	i1l2560
  7661  027E                     u166_20:
  7662  027E                     i1l2558:
  7663  027E  01F8               	clrf	___fladd@signs
  7664  027F                     i1l2560:
  7665  027F  1C7A               	btfss	___fladd@bexp,0
  7666  0280  2A82               	goto	u167_21
  7667  0281  2A83               	goto	u167_20
  7668  0282                     u167_21:
  7669  0282  2A85               	goto	i1l2564
  7670  0283                     u167_20:
  7671  0283                     i1l2562:
  7672  0283  17F2               	bsf	___fladd@b+2,7
  7673  0284  2A8A               	goto	i1l991
  7674  0285                     i1l2564:
  7675  0285  307F               	movlw	127
  7676  0286  0020               	movlb	0	; select bank0
  7677  0287  00A0               	movwf	??___fladd
  7678  0288  0820               	movf	??___fladd,w
  7679  0289  05F2               	andwf	___fladd@b+2,f
  7680  028A                     i1l991:
  7681  028A  367A               	lsrf	___fladd@bexp,w
  7682  028B  0020               	movlb	0	; select bank0
  7683  028C  00A0               	movwf	??___fladd
  7684  028D  0820               	movf	??___fladd,w
  7685  028E  00F3               	movwf	___fladd@b+3
  7686  028F                     i1l2566:
  7687  028F  1FF8               	btfss	___fladd@signs,7
  7688  0290  2A92               	goto	u168_21
  7689  0291  2A93               	goto	u168_20
  7690  0292                     u168_21:
  7691  0292  2A94               	goto	i1l992
  7692  0293                     u168_20:
  7693  0293                     i1l2568:
  7694  0293  17F3               	bsf	___fladd@b+3,7
  7695  0294                     i1l992:
  7696  0294                     i1l962:
  7697  0294  0008               	return
  7698  0295                     __end_of___fladd:
  7699                           
  7700                           	psect	text30
  7701  07FF                     __ptext30:	
  7702 ;; *************** function _TMR0_DefaultInterruptHandler *****************
  7703 ;; Defined at:
  7704 ;;		line 148 in file "mcc_generated_files/tmr0.c"
  7705 ;; Parameters:    Size  Location     Type
  7706 ;;		None
  7707 ;; Auto vars:     Size  Location     Type
  7708 ;;		None
  7709 ;; Return value:  Size  Location     Type
  7710 ;;                  1    wreg      void 
  7711 ;; Registers used:
  7712 ;;		None
  7713 ;; Tracked objects:
  7714 ;;		On entry : 0/0
  7715 ;;		On exit  : 0/0
  7716 ;;		Unchanged: 0/0
  7717 ;; Data sizes:     COMMON   BANK0   BANK1   BANK2   BANK3   BANK4   BANK5   BANK6   BANK7   BANK8   BANK9  BANK10  BANK1
      +1  BANK12  BANK13  BANK14  BANK15  BANK16  BANK17  BANK18  BANK19  BANK20  BANK21  BANK22  BANK23  BANK24  BANK25
  7718 ;;      Params:         0       0       0       0       0       0       0       0       0       0       0       0       
      +0       0       0       0       0       0       0       0       0       0       0       0       0       0       0
  7719 ;;      Locals:         0       0       0       0       0       0       0       0       0       0       0       0       
      +0       0       0       0       0       0       0       0       0       0       0       0       0       0       0
  7720 ;;      Temps:          0       0       0       0       0       0       0       0       0       0       0       0       
      +0       0       0       0       0       0       0       0       0       0       0       0       0       0       0
  7721 ;;      Totals:         0       0       0       0       0       0       0       0       0       0       0       0       
      +0       0       0       0       0       0       0       0       0       0       0       0       0       0       0
  7722 ;;Total ram usage:        0 bytes
  7723 ;; Hardware stack levels used:    1
  7724 ;; This function calls:
  7725 ;;		Nothing
  7726 ;; This function is called by:
  7727 ;;		_TMR0_Initialize
  7728 ;;		_TMR0_CallBack
  7729 ;; This function uses a non-reentrant model
  7730 ;;
  7731                           
  7732                           
  7733                           ;psect for function _TMR0_DefaultInterruptHandler
  7734  07FF                     _TMR0_DefaultInterruptHandler:
  7735  07FF                     i1l580:	
  7736                           ;incstack = 0
  7737                           ; Regs used in _TMR0_DefaultInterruptHandler: []
  7738                           
  7739  07FF  0008               	return
  7740  0800                     __end_of_TMR0_DefaultInterruptHandler:
  7741                           
  7742                           	psect	text31
  7743  065A                     __ptext31:	
  7744 ;; *************** function _PIN_MANAGER_IOC *****************
  7745 ;; Defined at:
  7746 ;;		line 176 in file "mcc_generated_files/pin_manager.c"
  7747 ;; Parameters:    Size  Location     Type
  7748 ;;		None
  7749 ;; Auto vars:     Size  Location     Type
  7750 ;;		None
  7751 ;; Return value:  Size  Location     Type
  7752 ;;                  1    wreg      void 
  7753 ;; Registers used:
  7754 ;;		wreg, fsr0l, fsr0h, status,2, status,0, pclath, cstack
  7755 ;; Tracked objects:
  7756 ;;		On entry : 0/0
  7757 ;;		On exit  : 0/0
  7758 ;;		Unchanged: 0/0
  7759 ;; Data sizes:     COMMON   BANK0   BANK1   BANK2   BANK3   BANK4   BANK5   BANK6   BANK7   BANK8   BANK9  BANK10  BANK1
      +1  BANK12  BANK13  BANK14  BANK15  BANK16  BANK17  BANK18  BANK19  BANK20  BANK21  BANK22  BANK23  BANK24  BANK25
  7760 ;;      Params:         0       0       0       0       0       0       0       0       0       0       0       0       
      +0       0       0       0       0       0       0       0       0       0       0       0       0       0       0
  7761 ;;      Locals:         0       0       0       0       0       0       0       0       0       0       0       0       
      +0       0       0       0       0       0       0       0       0       0       0       0       0       0       0
  7762 ;;      Temps:          0       0       0       0       0       0       0       0       0       0       0       0       
      +0       0       0       0       0       0       0       0       0       0       0       0       0       0       0
  7763 ;;      Totals:         0       0       0       0       0       0       0       0       0       0       0       0       
      +0       0       0       0       0       0       0       0       0       0       0       0       0       0       0
  7764 ;;Total ram usage:        0 bytes
  7765 ;; Hardware stack levels used:    1
  7766 ;; Hardware stack levels required when called:    7
  7767 ;; This function calls:
  7768 ;;		_IOCAF0_ISR
  7769 ;;		_IOCAF1_ISR
  7770 ;;		_IOCAF2_ISR
  7771 ;;		_IOCAF3_ISR
  7772 ;;		_IOCAF4_ISR
  7773 ;;		_IOCAF5_ISR
  7774 ;; This function is called by:
  7775 ;;		_INTERRUPT_InterruptManager
  7776 ;; This function uses a non-reentrant model
  7777 ;;
  7778                           
  7779                           
  7780                           ;psect for function _PIN_MANAGER_IOC
  7781  065A                     _PIN_MANAGER_IOC:
  7782  065A                     i1l4192:	
  7783                           ;incstack = 0
  7784                           ; Regs used in _PIN_MANAGER_IOC: [wreg-fsr0h+status,2+status,0+pclath+cstack]
  7785                           
  7786                           
  7787                           ;mcc_generated_files/pin_manager.c: 179:     if(IOCAFbits.IOCAF0 == 1)
  7788  065A  0027               	movlb	7	; select bank7
  7789  065B  1C13               	btfss	19,0	;volatile
  7790  065C  2E5E               	goto	u322_21
  7791  065D  2E5F               	goto	u322_20
  7792  065E                     u322_21:
  7793  065E  2E62               	goto	i1l4196
  7794  065F                     u322_20:
  7795  065F                     i1l4194:
  7796                           
  7797                           ;mcc_generated_files/pin_manager.c: 180:     {;mcc_generated_files/pin_manager.c: 181:  
      +                                 IOCAF0_ISR();
  7798  065F  3187  273B  3186   	fcall	_IOCAF0_ISR
  7799  0662                     i1l4196:
  7800                           
  7801                           ;mcc_generated_files/pin_manager.c: 184:     if(IOCAFbits.IOCAF1 == 1)
  7802  0662  0027               	movlb	7	; select bank7
  7803  0663  1C93               	btfss	19,1	;volatile
  7804  0664  2E66               	goto	u323_21
  7805  0665  2E67               	goto	u323_20
  7806  0666                     u323_21:
  7807  0666  2E6A               	goto	i1l4200
  7808  0667                     u323_20:
  7809  0667                     i1l4198:
  7810                           
  7811                           ;mcc_generated_files/pin_manager.c: 185:     {;mcc_generated_files/pin_manager.c: 186:  
      +                                 IOCAF1_ISR();
  7812  0667  3186  26B9  3186   	fcall	_IOCAF1_ISR
  7813  066A                     i1l4200:
  7814                           
  7815                           ;mcc_generated_files/pin_manager.c: 189:     if(IOCAFbits.IOCAF2 == 1)
  7816  066A  0027               	movlb	7	; select bank7
  7817  066B  1D13               	btfss	19,2	;volatile
  7818  066C  2E6E               	goto	u324_21
  7819  066D  2E6F               	goto	u324_20
  7820  066E                     u324_21:
  7821  066E  2E72               	goto	i1l4204
  7822  066F                     u324_20:
  7823  066F                     i1l4202:
  7824                           
  7825                           ;mcc_generated_files/pin_manager.c: 190:     {;mcc_generated_files/pin_manager.c: 191:  
      +                                 IOCAF2_ISR();
  7826  066F  3185  259D  3186   	fcall	_IOCAF2_ISR
  7827  0672                     i1l4204:
  7828                           
  7829                           ;mcc_generated_files/pin_manager.c: 194:     if(IOCAFbits.IOCAF3 == 1)
  7830  0672  0027               	movlb	7	; select bank7
  7831  0673  1D93               	btfss	19,3	;volatile
  7832  0674  2E76               	goto	u325_21
  7833  0675  2E77               	goto	u325_20
  7834  0676                     u325_21:
  7835  0676  2E7A               	goto	i1l4208
  7836  0677                     u325_20:
  7837  0677                     i1l4206:
  7838                           
  7839                           ;mcc_generated_files/pin_manager.c: 195:     {;mcc_generated_files/pin_manager.c: 196:  
      +                                 IOCAF3_ISR();
  7840  0677  3187  2710  3186   	fcall	_IOCAF3_ISR
  7841  067A                     i1l4208:
  7842                           
  7843                           ;mcc_generated_files/pin_manager.c: 199:     if(IOCAFbits.IOCAF4 == 1)
  7844  067A  0027               	movlb	7	; select bank7
  7845  067B  1E13               	btfss	19,4	;volatile
  7846  067C  2E7E               	goto	u326_21
  7847  067D  2E7F               	goto	u326_20
  7848  067E                     u326_21:
  7849  067E  2E82               	goto	i1l4212
  7850  067F                     u326_20:
  7851  067F                     i1l4210:
  7852                           
  7853                           ;mcc_generated_files/pin_manager.c: 200:     {;mcc_generated_files/pin_manager.c: 201:  
      +                                 IOCAF4_ISR();
  7854  067F  3186  26E5  3186   	fcall	_IOCAF4_ISR
  7855  0682                     i1l4212:
  7856                           
  7857                           ;mcc_generated_files/pin_manager.c: 204:     if(IOCAFbits.IOCAF5 == 1)
  7858  0682  0027               	movlb	7	; select bank7
  7859  0683  1E93               	btfss	19,5	;volatile
  7860  0684  2E86               	goto	u327_21
  7861  0685  2E87               	goto	u327_20
  7862  0686                     u327_21:
  7863  0686  2E8A               	goto	i1l134
  7864  0687                     u327_20:
  7865  0687                     i1l4214:
  7866                           
  7867                           ;mcc_generated_files/pin_manager.c: 205:     {;mcc_generated_files/pin_manager.c: 206:  
      +                                 IOCAF5_ISR();
  7868  0687  3185  25E0  3186   	fcall	_IOCAF5_ISR
  7869  068A                     i1l134:
  7870  068A  0008               	return
  7871  068B                     __end_of_PIN_MANAGER_IOC:
  7872                           
  7873                           	psect	text32
  7874  05E0                     __ptext32:	
  7875 ;; *************** function _IOCAF5_ISR *****************
  7876 ;; Defined at:
  7877 ;;		line 440 in file "mcc_generated_files/pin_manager.c"
  7878 ;; Parameters:    Size  Location     Type
  7879 ;;		None
  7880 ;; Auto vars:     Size  Location     Type
  7881 ;;		None
  7882 ;; Return value:  Size  Location     Type
  7883 ;;                  1    wreg      void 
  7884 ;; Registers used:
  7885 ;;		wreg, fsr0l, fsr0h, status,2, status,0, pclath, cstack
  7886 ;; Tracked objects:
  7887 ;;		On entry : 0/0
  7888 ;;		On exit  : 0/0
  7889 ;;		Unchanged: 0/0
  7890 ;; Data sizes:     COMMON   BANK0   BANK1   BANK2   BANK3   BANK4   BANK5   BANK6   BANK7   BANK8   BANK9  BANK10  BANK1
      +1  BANK12  BANK13  BANK14  BANK15  BANK16  BANK17  BANK18  BANK19  BANK20  BANK21  BANK22  BANK23  BANK24  BANK25
  7891 ;;      Params:         0       0       0       0       0       0       0       0       0       0       0       0       
      +0       0       0       0       0       0       0       0       0       0       0       0       0       0       0
  7892 ;;      Locals:         0       0       0       0       0       0       0       0       0       0       0       0       
      +0       0       0       0       0       0       0       0       0       0       0       0       0       0       0
  7893 ;;      Temps:          0       2       0       0       0       0       0       0       0       0       0       0       
      +0       0       0       0       0       0       0       0       0       0       0       0       0       0       0
  7894 ;;      Totals:         0       2       0       0       0       0       0       0       0       0       0       0       
      +0       0       0       0       0       0       0       0       0       0       0       0       0       0       0
  7895 ;;Total ram usage:        2 bytes
  7896 ;; Hardware stack levels used:    1
  7897 ;; Hardware stack levels required when called:    6
  7898 ;; This function calls:
  7899 ;;		Absolute function
  7900 ;;		_IOCAF5_DefaultInterruptHandler
  7901 ;;		_enableButton
  7902 ;;		_startFight
  7903 ;;		i1_disableButton
  7904 ;; This function is called by:
  7905 ;;		_PIN_MANAGER_IOC
  7906 ;; This function uses a non-reentrant model
  7907 ;;
  7908                           
  7909                           
  7910                           ;psect for function _IOCAF5_ISR
  7911  05E0                     _IOCAF5_ISR:
  7912  05E0                     i1l4098:	
  7913                           ;incstack = 0
  7914                           ; Regs used in _IOCAF5_ISR: [wreg-fsr0h+status,2+status,0+pclath+cstack]
  7915                           
  7916                           
  7917                           ;mcc_generated_files/pin_manager.c: 445:     if(IOCAF5_InterruptHandler)
  7918  05E0  0021               	movlb	1	; select bank1
  7919  05E1  085E               	movf	_IOCAF5_InterruptHandler^(0+128),w
  7920  05E2  045F               	iorwf	(_IOCAF5_InterruptHandler+1)^(0+128),w
  7921  05E3  1903               	btfsc	3,2
  7922  05E4  2DE6               	goto	u320_21
  7923  05E5  2DE7               	goto	u320_20
  7924  05E6                     u320_21:
  7925  05E6  2DEC               	goto	i1l4102
  7926  05E7                     u320_20:
  7927  05E7                     i1l4100:
  7928                           
  7929                           ;mcc_generated_files/pin_manager.c: 446:     {;mcc_generated_files/pin_manager.c: 447:  
      +                                 IOCAF5_InterruptHandler();
  7930  05E7  085F               	movf	(_IOCAF5_InterruptHandler+1)^(0+128),w
  7931  05E8  008A               	movwf	10
  7932  05E9  085E               	movf	_IOCAF5_InterruptHandler^(0+128),w
  7933  05EA  000A               	callw
  7934  05EB  3185               	pagesel	$
  7935  05EC                     i1l4102:
  7936                           
  7937                           ;mcc_generated_files/pin_manager.c: 449:     if (inGame){
  7938  05EC  0020               	movlb	0	; select bank0
  7939  05ED  0840               	movf	_inGame,w
  7940  05EE  1903               	btfsc	3,2
  7941  05EF  2DF1               	goto	u321_21
  7942  05F0  2DF2               	goto	u321_20
  7943  05F1                     u321_21:
  7944  05F1  2E0B               	goto	i1l4120
  7945  05F2                     u321_20:
  7946  05F2  2E1B               	goto	i1l222
  7947  05F3                     i1l4106:
  7948                           
  7949                           ;mcc_generated_files/pin_manager.c: 454:             ship2 = 0;
  7950  05F3  01BD               	clrf	_ship2
  7951  05F4                     i1l4108:
  7952                           
  7953                           ;mcc_generated_files/pin_manager.c: 455:             disableButton(1);
  7954  05F4  3001               	movlw	1
  7955  05F5  318D  25AD  3185   	fcall	i1_disableButton
  7956  05F8                     i1l4110:
  7957                           
  7958                           ;mcc_generated_files/pin_manager.c: 456:             enableButton(0);
  7959  05F8  3000               	movlw	0
  7960  05F9  318D  259D  3185   	fcall	_enableButton
  7961  05FC                     i1l4112:
  7962                           
  7963                           ;mcc_generated_files/pin_manager.c: 457:             startFight();
  7964  05FC  3187  27B6  3185   	fcall	_startFight
  7965                           
  7966                           ;mcc_generated_files/pin_manager.c: 458:         break;
  7967  05FF  2E1B               	goto	i1l222
  7968  0600                     i1l226:	
  7969                           ;mcc_generated_files/pin_manager.c: 459:         case 3:
  7970                           
  7971                           
  7972                           ;mcc_generated_files/pin_manager.c: 460:             ship2 = 1;
  7973  0600  01BD               	clrf	_ship2
  7974  0601  0ABD               	incf	_ship2,f
  7975  0602                     i1l4114:
  7976                           
  7977                           ;mcc_generated_files/pin_manager.c: 461:             disableButton(1);
  7978  0602  3001               	movlw	1
  7979  0603  318D  25AD  3185   	fcall	i1_disableButton
  7980                           
  7981                           ;mcc_generated_files/pin_manager.c: 462:             enableButton(0);
  7982  0606  3000               	movlw	0
  7983  0607  318D  259D  3185   	fcall	_enableButton
  7984  060A  2DFC               	goto	i1l4112
  7985  060B                     i1l4120:
  7986  060B  083F               	movf	_mainState,w
  7987  060C  00A4               	movwf	??_IOCAF5_ISR
  7988  060D  01A5               	clrf	??_IOCAF5_ISR+1
  7989                           
  7990                           ; Switch on 2 bytes has been partitioned into a top level switch of size 1, and 1 sub-sw
      +                          itches
  7991                           ; Switch size 1, requested type "simple"
  7992                           ; Number of cases is 1, Range of values is 0 to 0
  7993                           ; switch strategies available:
  7994                           ; Name         Instructions Cycles
  7995                           ; simple_byte            4     3 (average)
  7996                           ; direct_byte            8     6 (fixed)
  7997                           ; jumptable            260     6 (fixed)
  7998                           ;	Chosen strategy is simple_byte
  7999  060E  0825               	movf	??_IOCAF5_ISR+1,w
  8000  060F  3A00               	xorlw	0	; case 0
  8001  0610  1903               	skipnz
  8002  0611  2E13               	goto	i1l5124
  8003  0612  2E1B               	goto	i1l222
  8004  0613                     i1l5124:
  8005                           
  8006                           ; Switch size 1, requested type "simple"
  8007                           ; Number of cases is 2, Range of values is 2 to 3
  8008                           ; switch strategies available:
  8009                           ; Name         Instructions Cycles
  8010                           ; simple_byte            7     4 (average)
  8011                           ; direct_byte           13     9 (fixed)
  8012                           ; jumptable            263     9 (fixed)
  8013                           ;	Chosen strategy is simple_byte
  8014  0613  0824               	movf	??_IOCAF5_ISR,w
  8015  0614  3A02               	xorlw	2	; case 2
  8016  0615  1903               	skipnz
  8017  0616  2DF3               	goto	i1l4106
  8018  0617  3A01               	xorlw	1	; case 3
  8019  0618  1903               	skipnz
  8020  0619  2E00               	goto	i1l226
  8021  061A  2E1B               	goto	i1l222
  8022  061B                     i1l222:	
  8023                           ;mcc_generated_files/pin_manager.c: 468:     }
  8024                           
  8025                           
  8026                           ;mcc_generated_files/pin_manager.c: 469:     IOCAFbits.IOCAF5 = 0;
  8027  061B  0027               	movlb	7	; select bank7
  8028  061C  1293               	bcf	19,5	;volatile
  8029  061D                     i1l228:
  8030  061D  0008               	return
  8031  061E                     __end_of_IOCAF5_ISR:
  8032                           
  8033                           	psect	text33
  8034  07B6                     __ptext33:	
  8035 ;; *************** function _startFight *****************
  8036 ;; Defined at:
  8037 ;;		line 111 in file "menu.c"
  8038 ;; Parameters:    Size  Location     Type
  8039 ;;		None
  8040 ;; Auto vars:     Size  Location     Type
  8041 ;;		None
  8042 ;; Return value:  Size  Location     Type
  8043 ;;                  1    wreg      void 
  8044 ;; Registers used:
  8045 ;;		wreg, fsr0l, fsr0h, status,2, status,0, pclath, cstack
  8046 ;; Tracked objects:
  8047 ;;		On entry : 0/0
  8048 ;;		On exit  : 0/0
  8049 ;;		Unchanged: 0/0
  8050 ;; Data sizes:     COMMON   BANK0   BANK1   BANK2   BANK3   BANK4   BANK5   BANK6   BANK7   BANK8   BANK9  BANK10  BANK1
      +1  BANK12  BANK13  BANK14  BANK15  BANK16  BANK17  BANK18  BANK19  BANK20  BANK21  BANK22  BANK23  BANK24  BANK25
  8051 ;;      Params:         0       0       0       0       0       0       0       0       0       0       0       0       
      +0       0       0       0       0       0       0       0       0       0       0       0       0       0       0
  8052 ;;      Locals:         0       0       0       0       0       0       0       0       0       0       0       0       
      +0       0       0       0       0       0       0       0       0       0       0       0       0       0       0
  8053 ;;      Temps:          0       2       0       0       0       0       0       0       0       0       0       0       
      +0       0       0       0       0       0       0       0       0       0       0       0       0       0       0
  8054 ;;      Totals:         0       2       0       0       0       0       0       0       0       0       0       0       
      +0       0       0       0       0       0       0       0       0       0       0       0       0       0       0
  8055 ;;Total ram usage:        2 bytes
  8056 ;; Hardware stack levels used:    1
  8057 ;; Hardware stack levels required when called:    5
  8058 ;; This function calls:
  8059 ;;		_printShip
  8060 ;;		i1_LCDGoto
  8061 ;;		i1_LCDPutStr
  8062 ;;		i1_cleanFullMenu
  8063 ;;		i1_printMenu
  8064 ;; This function is called by:
  8065 ;;		_IOCAF5_ISR
  8066 ;; This function uses a non-reentrant model
  8067 ;;
  8068                           
  8069                           
  8070                           ;psect for function _startFight
  8071  07B6                     _startFight:
  8072  07B6                     i1l3876:	
  8073                           ;incstack = 0
  8074                           ; Regs used in _startFight: [wreg-fsr0h+status,2+status,0+pclath+cstack]
  8075                           
  8076                           
  8077                           ;menu.c: 123:         cleanFullMenu();
  8078  07B6  318D  25E6  3187   	fcall	i1_cleanFullMenu
  8079                           
  8080                           ;menu.c: 124:         printShip();
  8081  07B9  318F  27D8  3187   	fcall	_printShip
  8082  07BC                     i1l3878:
  8083                           
  8084                           ;menu.c: 125:         LCDGoto(lcdOffset, 0);
  8085  07BC  01F7               	clrf	i1LCDGoto@ln
  8086  07BD  0020               	movlb	0	; select bank0
  8087  07BE  0841               	movf	_lcdOffset,w
  8088  07BF  318F  27B1  3187   	fcall	i1_LCDGoto
  8089  07C2                     i1l3880:
  8090                           
  8091                           ;menu.c: 126:         LCDPutStr("Start Fight");
  8092  07C2  3049               	movlw	low (STR_16| (0+32768))
  8093  07C3  00F7               	movwf	i1LCDPutStr@str
  8094  07C4  3090               	movlw	high (STR_16| (0+32768))
  8095  07C5  00F8               	movwf	i1LCDPutStr@str+1
  8096  07C6  318F  278B  3187   	fcall	i1_LCDPutStr
  8097  07C9                     i1l3882:
  8098                           
  8099                           ;menu.c: 127:         _delay((unsigned long)((2000)*(500000/4000.0)));
  8100  07C9  3002               	movlw	2
  8101  07CA  0020               	movlb	0	; select bank0
  8102  07CB  00A3               	movwf	??_startFight+1
  8103  07CC  3045               	movlw	69
  8104  07CD  00A2               	movwf	??_startFight
  8105  07CE  30A9               	movlw	169
  8106  07CF                     u379_27:
  8107  07CF  0B89               	decfsz	9,f
  8108  07D0  2FCF               	goto	u379_27
  8109  07D1  0BA2               	decfsz	??_startFight,f
  8110  07D2  2FCF               	goto	u379_27
  8111  07D3  0BA3               	decfsz	??_startFight+1,f
  8112  07D4  2FCF               	goto	u379_27
  8113  07D5  3200               	nop2
  8114  07D6                     i1l3884:
  8115                           
  8116                           ;menu.c: 128:         mainState = 0;
  8117  07D6  0020               	movlb	0	; select bank0
  8118  07D7  01BF               	clrf	_mainState
  8119  07D8                     i1l3886:
  8120                           
  8121                           ;menu.c: 129:         inGame = 1;
  8122  07D8  01C0               	clrf	_inGame
  8123  07D9  0AC0               	incf	_inGame,f
  8124  07DA                     i1l3888:
  8125                           
  8126                           ;menu.c: 130:         printMenu();
  8127  07DA  318E  266D  3187   	fcall	i1_printMenu
  8128  07DD                     i1l437:
  8129  07DD  0008               	return
  8130  07DE                     __end_of_startFight:
  8131                           
  8132                           	psect	text34
  8133  0FD8                     __ptext34:	
  8134 ;; *************** function _printShip *****************
  8135 ;; Defined at:
  8136 ;;		line 38 in file "naves.c"
  8137 ;; Parameters:    Size  Location     Type
  8138 ;;		None
  8139 ;; Auto vars:     Size  Location     Type
  8140 ;;		None
  8141 ;; Return value:  Size  Location     Type
  8142 ;;                  1    wreg      void 
  8143 ;; Registers used:
  8144 ;;		wreg, fsr0l, fsr0h, status,2, status,0, pclath, cstack
  8145 ;; Tracked objects:
  8146 ;;		On entry : 0/0
  8147 ;;		On exit  : 0/0
  8148 ;;		Unchanged: 0/0
  8149 ;; Data sizes:     COMMON   BANK0   BANK1   BANK2   BANK3   BANK4   BANK5   BANK6   BANK7   BANK8   BANK9  BANK10  BANK1
      +1  BANK12  BANK13  BANK14  BANK15  BANK16  BANK17  BANK18  BANK19  BANK20  BANK21  BANK22  BANK23  BANK24  BANK25
  8150 ;;      Params:         0       0       0       0       0       0       0       0       0       0       0       0       
      +0       0       0       0       0       0       0       0       0       0       0       0       0       0       0
  8151 ;;      Locals:         0       0       0       0       0       0       0       0       0       0       0       0       
      +0       0       0       0       0       0       0       0       0       0       0       0       0       0       0
  8152 ;;      Temps:          0       0       0       0       0       0       0       0       0       0       0       0       
      +0       0       0       0       0       0       0       0       0       0       0       0       0       0       0
  8153 ;;      Totals:         0       0       0       0       0       0       0       0       0       0       0       0       
      +0       0       0       0       0       0       0       0       0       0       0       0       0       0       0
  8154 ;;Total ram usage:        0 bytes
  8155 ;; Hardware stack levels used:    1
  8156 ;; Hardware stack levels required when called:    4
  8157 ;; This function calls:
  8158 ;;		_LCDClear
  8159 ;;		i1_LCDGoto
  8160 ;;		i1_LCDPutChar
  8161 ;; This function is called by:
  8162 ;;		_startFight
  8163 ;; This function uses a non-reentrant model
  8164 ;;
  8165                           
  8166                           
  8167                           ;psect for function _printShip
  8168  0FD8                     _printShip:
  8169  0FD8                     i1l2288:	
  8170                           ;incstack = 0
  8171                           ; Regs used in _printShip: [wreg-fsr0h+status,2+status,0+pclath+cstack]
  8172                           
  8173                           
  8174                           ;naves.c: 40:     LCDClear();
  8175  0FD8  318E  2600  318F   	fcall	_LCDClear
  8176  0FDB                     i1l2290:
  8177                           
  8178                           ;naves.c: 41:     LCDGoto(0,0);
  8179  0FDB  01F7               	clrf	i1LCDGoto@ln
  8180  0FDC  3000               	movlw	0
  8181  0FDD  318F  27B1  318F   	fcall	i1_LCDGoto
  8182  0FE0                     i1l2292:
  8183                           
  8184                           ;naves.c: 42:     LCDPutChar(ship1);
  8185  0FE0  0020               	movlb	0	; select bank0
  8186  0FE1  083E               	movf	_ship1,w
  8187  0FE2  318E  2650  318F   	fcall	i1_LCDPutChar
  8188  0FE5                     i1l2294:
  8189                           
  8190                           ;naves.c: 43:     if (ship2 == 1){
  8191  0FE5  0020               	movlb	0	; select bank0
  8192  0FE6  033D               	decf	_ship2,w
  8193  0FE7  1D03               	btfss	3,2
  8194  0FE8  2FEA               	goto	u116_21
  8195  0FE9  2FEB               	goto	u116_20
  8196  0FEA                     u116_21:
  8197  0FEA  2FF5               	goto	i1l2298
  8198  0FEB                     u116_20:
  8199  0FEB                     i1l2296:
  8200                           
  8201                           ;naves.c: 44:         LCDGoto(15,0);
  8202  0FEB  01F7               	clrf	i1LCDGoto@ln
  8203  0FEC  300F               	movlw	15
  8204  0FED  318F  27B1  318F   	fcall	i1_LCDGoto
  8205                           
  8206                           ;naves.c: 45:         LCDPutChar(4);
  8207  0FF0  3004               	movlw	4
  8208  0FF1  318E  2650  318F   	fcall	i1_LCDPutChar
  8209                           
  8210                           ;naves.c: 46:     }else {
  8211  0FF4  2FFF               	goto	i1l467
  8212  0FF5                     i1l2298:
  8213                           
  8214                           ;naves.c: 47:         LCDGoto(15,0);
  8215  0FF5  01F7               	clrf	i1LCDGoto@ln
  8216  0FF6  300F               	movlw	15
  8217  0FF7  318F  27B1  318F   	fcall	i1_LCDGoto
  8218                           
  8219                           ;naves.c: 48:         LCDPutChar(ship2);
  8220  0FFA  0020               	movlb	0	; select bank0
  8221  0FFB  083D               	movf	_ship2,w
  8222  0FFC  318E  2650  318F   	fcall	i1_LCDPutChar
  8223  0FFF                     i1l467:
  8224  0FFF  0008               	return
  8225  1000                     __end_of_printShip:
  8226                           
  8227                           	psect	text35
  8228  0E00                     __ptext35:	
  8229 ;; *************** function _LCDClear *****************
  8230 ;; Defined at:
  8231 ;;		line 159 in file "lcd.c"
  8232 ;; Parameters:    Size  Location     Type
  8233 ;;		None
  8234 ;; Auto vars:     Size  Location     Type
  8235 ;;		None
  8236 ;; Return value:  Size  Location     Type
  8237 ;;                  1    wreg      void 
  8238 ;; Registers used:
  8239 ;;		wreg, fsr0l, fsr0h, status,2, status,0, pclath, cstack
  8240 ;; Tracked objects:
  8241 ;;		On entry : 0/0
  8242 ;;		On exit  : 0/0
  8243 ;;		Unchanged: 0/0
  8244 ;; Data sizes:     COMMON   BANK0   BANK1   BANK2   BANK3   BANK4   BANK5   BANK6   BANK7   BANK8   BANK9  BANK10  BANK1
      +1  BANK12  BANK13  BANK14  BANK15  BANK16  BANK17  BANK18  BANK19  BANK20  BANK21  BANK22  BANK23  BANK24  BANK25
  8245 ;;      Params:         0       0       0       0       0       0       0       0       0       0       0       0       
      +0       0       0       0       0       0       0       0       0       0       0       0       0       0       0
  8246 ;;      Locals:         0       0       0       0       0       0       0       0       0       0       0       0       
      +0       0       0       0       0       0       0       0       0       0       0       0       0       0       0
  8247 ;;      Temps:          0       0       0       0       0       0       0       0       0       0       0       0       
      +0       0       0       0       0       0       0       0       0       0       0       0       0       0       0
  8248 ;;      Totals:         0       0       0       0       0       0       0       0       0       0       0       0       
      +0       0       0       0       0       0       0       0       0       0       0       0       0       0       0
  8249 ;;Total ram usage:        0 bytes
  8250 ;; Hardware stack levels used:    1
  8251 ;; Hardware stack levels required when called:    3
  8252 ;; This function calls:
  8253 ;;		i1_LCDGoto
  8254 ;;		i1_LCDPutStr
  8255 ;; This function is called by:
  8256 ;;		_printShip
  8257 ;;		_idleScreen
  8258 ;; This function uses a non-reentrant model
  8259 ;;
  8260                           
  8261                           
  8262                           ;psect for function _LCDClear
  8263  0E00                     _LCDClear:
  8264  0E00                     i1l2218:	
  8265                           ;incstack = 0
  8266                           ; Regs used in _LCDClear: [wreg-fsr0h+status,2+status,0+pclath+cstack]
  8267                           
  8268                           
  8269                           ;lcd.c: 161:   LCDGoto(0, 0);
  8270  0E00  01F7               	clrf	i1LCDGoto@ln
  8271  0E01  3000               	movlw	0
  8272  0E02  318F  27B1  318E   	fcall	i1_LCDGoto
  8273  0E05                     i1l2220:
  8274                           
  8275                           ;lcd.c: 162:   LCDPutStr("                ");
  8276  0E05  3000               	movlw	low (STR_1| (0+32768))
  8277  0E06  00F7               	movwf	i1LCDPutStr@str
  8278  0E07  3090               	movlw	high (STR_1| (0+32768))
  8279  0E08  00F8               	movwf	i1LCDPutStr@str+1
  8280  0E09  318F  278B  318E   	fcall	i1_LCDPutStr
  8281  0E0C                     i1l2222:
  8282                           
  8283                           ;lcd.c: 163:   LCDGoto(0, 1);
  8284  0E0C  01F7               	clrf	i1LCDGoto@ln
  8285  0E0D  0AF7               	incf	i1LCDGoto@ln,f
  8286  0E0E  3000               	movlw	0
  8287  0E0F  318F  27B1  318E   	fcall	i1_LCDGoto
  8288                           
  8289                           ;lcd.c: 164:   LCDPutStr("                ");
  8290  0E12  3000               	movlw	low (STR_1| (0+32768))
  8291  0E13  00F7               	movwf	i1LCDPutStr@str
  8292  0E14  3090               	movlw	high (STR_1| (0+32768))
  8293  0E15  00F8               	movwf	i1LCDPutStr@str+1
  8294  0E16  318F  278B  318E   	fcall	i1_LCDPutStr
  8295  0E19                     i1l317:
  8296  0E19  0008               	return
  8297  0E1A                     __end_of_LCDClear:
  8298                           
  8299                           	psect	text36
  8300  0003                     __ptext36:	
  8301 ;; *************** function _IOCAF5_DefaultInterruptHandler *****************
  8302 ;; Defined at:
  8303 ;;		line 482 in file "mcc_generated_files/pin_manager.c"
  8304 ;; Parameters:    Size  Location     Type
  8305 ;;		None
  8306 ;; Auto vars:     Size  Location     Type
  8307 ;;		None
  8308 ;; Return value:  Size  Location     Type
  8309 ;;                  1    wreg      void 
  8310 ;; Registers used:
  8311 ;;		None
  8312 ;; Tracked objects:
  8313 ;;		On entry : 0/0
  8314 ;;		On exit  : 0/0
  8315 ;;		Unchanged: 0/0
  8316 ;; Data sizes:     COMMON   BANK0   BANK1   BANK2   BANK3   BANK4   BANK5   BANK6   BANK7   BANK8   BANK9  BANK10  BANK1
      +1  BANK12  BANK13  BANK14  BANK15  BANK16  BANK17  BANK18  BANK19  BANK20  BANK21  BANK22  BANK23  BANK24  BANK25
  8317 ;;      Params:         0       0       0       0       0       0       0       0       0       0       0       0       
      +0       0       0       0       0       0       0       0       0       0       0       0       0       0       0
  8318 ;;      Locals:         0       0       0       0       0       0       0       0       0       0       0       0       
      +0       0       0       0       0       0       0       0       0       0       0       0       0       0       0
  8319 ;;      Temps:          0       0       0       0       0       0       0       0       0       0       0       0       
      +0       0       0       0       0       0       0       0       0       0       0       0       0       0       0
  8320 ;;      Totals:         0       0       0       0       0       0       0       0       0       0       0       0       
      +0       0       0       0       0       0       0       0       0       0       0       0       0       0       0
  8321 ;;Total ram usage:        0 bytes
  8322 ;; Hardware stack levels used:    1
  8323 ;; This function calls:
  8324 ;;		Nothing
  8325 ;; This function is called by:
  8326 ;;		_PIN_MANAGER_Initialize
  8327 ;;		_IOCAF5_ISR
  8328 ;; This function uses a non-reentrant model
  8329 ;;
  8330                           
  8331                           
  8332                           ;psect for function _IOCAF5_DefaultInterruptHandler
  8333  0003                     _IOCAF5_DefaultInterruptHandler:
  8334  0003                     i1l234:	
  8335                           ;incstack = 0
  8336                           ; Regs used in _IOCAF5_DefaultInterruptHandler: []
  8337                           
  8338  0003  0008               	return
  8339  0004                     __end_of_IOCAF5_DefaultInterruptHandler:
  8340                           
  8341                           	psect	text37
  8342  06E5                     __ptext37:	
  8343 ;; *************** function _IOCAF4_ISR *****************
  8344 ;; Defined at:
  8345 ;;		line 398 in file "mcc_generated_files/pin_manager.c"
  8346 ;; Parameters:    Size  Location     Type
  8347 ;;		None
  8348 ;; Auto vars:     Size  Location     Type
  8349 ;;		None
  8350 ;; Return value:  Size  Location     Type
  8351 ;;                  1    wreg      void 
  8352 ;; Registers used:
  8353 ;;		wreg, fsr0l, fsr0h, status,2, status,0, pclath, cstack
  8354 ;; Tracked objects:
  8355 ;;		On entry : 0/0
  8356 ;;		On exit  : 0/0
  8357 ;;		Unchanged: 0/0
  8358 ;; Data sizes:     COMMON   BANK0   BANK1   BANK2   BANK3   BANK4   BANK5   BANK6   BANK7   BANK8   BANK9  BANK10  BANK1
      +1  BANK12  BANK13  BANK14  BANK15  BANK16  BANK17  BANK18  BANK19  BANK20  BANK21  BANK22  BANK23  BANK24  BANK25
  8359 ;;      Params:         0       0       0       0       0       0       0       0       0       0       0       0       
      +0       0       0       0       0       0       0       0       0       0       0       0       0       0       0
  8360 ;;      Locals:         0       0       0       0       0       0       0       0       0       0       0       0       
      +0       0       0       0       0       0       0       0       0       0       0       0       0       0       0
  8361 ;;      Temps:          0       2       0       0       0       0       0       0       0       0       0       0       
      +0       0       0       0       0       0       0       0       0       0       0       0       0       0       0
  8362 ;;      Totals:         0       2       0       0       0       0       0       0       0       0       0       0       
      +0       0       0       0       0       0       0       0       0       0       0       0       0       0       0
  8363 ;;Total ram usage:        2 bytes
  8364 ;; Hardware stack levels used:    1
  8365 ;; Hardware stack levels required when called:    5
  8366 ;; This function calls:
  8367 ;;		Absolute function
  8368 ;;		_IOCAF4_DefaultInterruptHandler
  8369 ;;		i1_printMenu
  8370 ;; This function is called by:
  8371 ;;		_PIN_MANAGER_IOC
  8372 ;; This function uses a non-reentrant model
  8373 ;;
  8374                           
  8375                           
  8376                           ;psect for function _IOCAF4_ISR
  8377  06E5                     _IOCAF4_ISR:
  8378  06E5                     i1l4078:	
  8379                           ;incstack = 0
  8380                           ; Regs used in _IOCAF4_ISR: [wreg-fsr0h+status,2+status,0+pclath+cstack]
  8381                           
  8382                           
  8383                           ;mcc_generated_files/pin_manager.c: 403:     if(IOCAF4_InterruptHandler)
  8384  06E5  0021               	movlb	1	; select bank1
  8385  06E6  0860               	movf	_IOCAF4_InterruptHandler^(0+128),w
  8386  06E7  0461               	iorwf	(_IOCAF4_InterruptHandler+1)^(0+128),w
  8387  06E8  1903               	btfsc	3,2
  8388  06E9  2EEB               	goto	u318_21
  8389  06EA  2EEC               	goto	u318_20
  8390  06EB                     u318_21:
  8391  06EB  2EF1               	goto	i1l4082
  8392  06EC                     u318_20:
  8393  06EC                     i1l4080:
  8394                           
  8395                           ;mcc_generated_files/pin_manager.c: 404:     {;mcc_generated_files/pin_manager.c: 405:  
      +                                 IOCAF4_InterruptHandler();
  8396  06EC  0861               	movf	(_IOCAF4_InterruptHandler+1)^(0+128),w
  8397  06ED  008A               	movwf	10
  8398  06EE  0860               	movf	_IOCAF4_InterruptHandler^(0+128),w
  8399  06EF  000A               	callw
  8400  06F0  3186               	pagesel	$
  8401  06F1                     i1l4082:
  8402                           
  8403                           ;mcc_generated_files/pin_manager.c: 407:      if (inGame){
  8404  06F1  0020               	movlb	0	; select bank0
  8405  06F2  0840               	movf	_inGame,w
  8406  06F3  1903               	btfsc	3,2
  8407  06F4  2EF6               	goto	u319_21
  8408  06F5  2EF7               	goto	u319_20
  8409  06F6                     u319_21:
  8410  06F6  2F00               	goto	i1l4092
  8411  06F7                     u319_20:
  8412  06F7  2F0D               	goto	i1l206
  8413  06F8                     i1l4086:
  8414                           
  8415                           ;mcc_generated_files/pin_manager.c: 412:             mainState = 3;
  8416  06F8  3003               	movlw	3
  8417  06F9  00A2               	movwf	??_IOCAF4_ISR
  8418  06FA  0822               	movf	??_IOCAF4_ISR,w
  8419  06FB  00BF               	movwf	_mainState
  8420  06FC                     i1l4088:
  8421                           
  8422                           ;mcc_generated_files/pin_manager.c: 413:             printMenu();
  8423  06FC  318E  266D  3186   	fcall	i1_printMenu
  8424                           
  8425                           ;mcc_generated_files/pin_manager.c: 414:         break;
  8426  06FF  2F0D               	goto	i1l206
  8427  0700                     i1l4092:
  8428  0700  083F               	movf	_mainState,w
  8429  0701  00A2               	movwf	??_IOCAF4_ISR
  8430  0702  01A3               	clrf	??_IOCAF4_ISR+1
  8431                           
  8432                           ; Switch on 2 bytes has been partitioned into a top level switch of size 1, and 1 sub-sw
      +                          itches
  8433                           ; Switch size 1, requested type "simple"
  8434                           ; Number of cases is 1, Range of values is 0 to 0
  8435                           ; switch strategies available:
  8436                           ; Name         Instructions Cycles
  8437                           ; simple_byte            4     3 (average)
  8438                           ; direct_byte            8     6 (fixed)
  8439                           ; jumptable            260     6 (fixed)
  8440                           ;	Chosen strategy is simple_byte
  8441  0703  0823               	movf	??_IOCAF4_ISR+1,w
  8442  0704  3A00               	xorlw	0	; case 0
  8443  0705  1903               	skipnz
  8444  0706  2F08               	goto	i1l5126
  8445  0707  2F0D               	goto	i1l206
  8446  0708                     i1l5126:
  8447                           
  8448                           ; Switch size 1, requested type "simple"
  8449                           ; Number of cases is 1, Range of values is 2 to 2
  8450                           ; switch strategies available:
  8451                           ; Name         Instructions Cycles
  8452                           ; simple_byte            4     3 (average)
  8453                           ; direct_byte           11     9 (fixed)
  8454                           ; jumptable            263     9 (fixed)
  8455                           ;	Chosen strategy is simple_byte
  8456  0708  0822               	movf	??_IOCAF4_ISR,w
  8457  0709  3A02               	xorlw	2	; case 2
  8458  070A  1903               	skipnz
  8459  070B  2EF8               	goto	i1l4086
  8460  070C  2F0D               	goto	i1l206
  8461  070D                     i1l206:	
  8462                           ;mcc_generated_files/pin_manager.c: 418:     }
  8463                           
  8464                           
  8465                           ;mcc_generated_files/pin_manager.c: 419:     IOCAFbits.IOCAF4 = 0;
  8466  070D  0027               	movlb	7	; select bank7
  8467  070E  1213               	bcf	19,4	;volatile
  8468  070F                     i1l211:
  8469  070F  0008               	return
  8470  0710                     __end_of_IOCAF4_ISR:
  8471                           
  8472                           	psect	text38
  8473  0002                     __ptext38:	
  8474 ;; *************** function _IOCAF4_DefaultInterruptHandler *****************
  8475 ;; Defined at:
  8476 ;;		line 432 in file "mcc_generated_files/pin_manager.c"
  8477 ;; Parameters:    Size  Location     Type
  8478 ;;		None
  8479 ;; Auto vars:     Size  Location     Type
  8480 ;;		None
  8481 ;; Return value:  Size  Location     Type
  8482 ;;                  1    wreg      void 
  8483 ;; Registers used:
  8484 ;;		None
  8485 ;; Tracked objects:
  8486 ;;		On entry : 0/0
  8487 ;;		On exit  : 0/0
  8488 ;;		Unchanged: 0/0
  8489 ;; Data sizes:     COMMON   BANK0   BANK1   BANK2   BANK3   BANK4   BANK5   BANK6   BANK7   BANK8   BANK9  BANK10  BANK1
      +1  BANK12  BANK13  BANK14  BANK15  BANK16  BANK17  BANK18  BANK19  BANK20  BANK21  BANK22  BANK23  BANK24  BANK25
  8490 ;;      Params:         0       0       0       0       0       0       0       0       0       0       0       0       
      +0       0       0       0       0       0       0       0       0       0       0       0       0       0       0
  8491 ;;      Locals:         0       0       0       0       0       0       0       0       0       0       0       0       
      +0       0       0       0       0       0       0       0       0       0       0       0       0       0       0
  8492 ;;      Temps:          0       0       0       0       0       0       0       0       0       0       0       0       
      +0       0       0       0       0       0       0       0       0       0       0       0       0       0       0
  8493 ;;      Totals:         0       0       0       0       0       0       0       0       0       0       0       0       
      +0       0       0       0       0       0       0       0       0       0       0       0       0       0       0
  8494 ;;Total ram usage:        0 bytes
  8495 ;; Hardware stack levels used:    1
  8496 ;; This function calls:
  8497 ;;		Nothing
  8498 ;; This function is called by:
  8499 ;;		_PIN_MANAGER_Initialize
  8500 ;;		_IOCAF4_ISR
  8501 ;; This function uses a non-reentrant model
  8502 ;;
  8503                           
  8504                           
  8505                           ;psect for function _IOCAF4_DefaultInterruptHandler
  8506  0002                     _IOCAF4_DefaultInterruptHandler:
  8507  0002                     i1l217:	
  8508                           ;incstack = 0
  8509                           ; Regs used in _IOCAF4_DefaultInterruptHandler: []
  8510                           
  8511  0002  0008               	return
  8512  0003                     __end_of_IOCAF4_DefaultInterruptHandler:
  8513                           
  8514                           	psect	text39
  8515  0710                     __ptext39:	
  8516 ;; *************** function _IOCAF3_ISR *****************
  8517 ;; Defined at:
  8518 ;;		line 356 in file "mcc_generated_files/pin_manager.c"
  8519 ;; Parameters:    Size  Location     Type
  8520 ;;		None
  8521 ;; Auto vars:     Size  Location     Type
  8522 ;;		None
  8523 ;; Return value:  Size  Location     Type
  8524 ;;                  1    wreg      void 
  8525 ;; Registers used:
  8526 ;;		wreg, fsr0l, fsr0h, status,2, status,0, pclath, cstack
  8527 ;; Tracked objects:
  8528 ;;		On entry : 0/0
  8529 ;;		On exit  : 0/0
  8530 ;;		Unchanged: 0/0
  8531 ;; Data sizes:     COMMON   BANK0   BANK1   BANK2   BANK3   BANK4   BANK5   BANK6   BANK7   BANK8   BANK9  BANK10  BANK1
      +1  BANK12  BANK13  BANK14  BANK15  BANK16  BANK17  BANK18  BANK19  BANK20  BANK21  BANK22  BANK23  BANK24  BANK25
  8532 ;;      Params:         0       0       0       0       0       0       0       0       0       0       0       0       
      +0       0       0       0       0       0       0       0       0       0       0       0       0       0       0
  8533 ;;      Locals:         0       0       0       0       0       0       0       0       0       0       0       0       
      +0       0       0       0       0       0       0       0       0       0       0       0       0       0       0
  8534 ;;      Temps:          0       2       0       0       0       0       0       0       0       0       0       0       
      +0       0       0       0       0       0       0       0       0       0       0       0       0       0       0
  8535 ;;      Totals:         0       2       0       0       0       0       0       0       0       0       0       0       
      +0       0       0       0       0       0       0       0       0       0       0       0       0       0       0
  8536 ;;Total ram usage:        2 bytes
  8537 ;; Hardware stack levels used:    1
  8538 ;; Hardware stack levels required when called:    5
  8539 ;; This function calls:
  8540 ;;		Absolute function
  8541 ;;		_IOCAF3_DefaultInterruptHandler
  8542 ;;		i1_printMenu
  8543 ;; This function is called by:
  8544 ;;		_PIN_MANAGER_IOC
  8545 ;; This function uses a non-reentrant model
  8546 ;;
  8547                           
  8548                           
  8549                           ;psect for function _IOCAF3_ISR
  8550  0710                     _IOCAF3_ISR:
  8551  0710                     i1l4058:	
  8552                           ;incstack = 0
  8553                           ; Regs used in _IOCAF3_ISR: [wreg-fsr0h+status,2+status,0+pclath+cstack]
  8554                           
  8555                           
  8556                           ;mcc_generated_files/pin_manager.c: 361:     if(IOCAF3_InterruptHandler)
  8557  0710  0021               	movlb	1	; select bank1
  8558  0711  0862               	movf	_IOCAF3_InterruptHandler^(0+128),w
  8559  0712  0463               	iorwf	(_IOCAF3_InterruptHandler+1)^(0+128),w
  8560  0713  1903               	btfsc	3,2
  8561  0714  2F16               	goto	u316_21
  8562  0715  2F17               	goto	u316_20
  8563  0716                     u316_21:
  8564  0716  2F1C               	goto	i1l4062
  8565  0717                     u316_20:
  8566  0717                     i1l4060:
  8567                           
  8568                           ;mcc_generated_files/pin_manager.c: 362:     {;mcc_generated_files/pin_manager.c: 363:  
      +                                 IOCAF3_InterruptHandler();
  8569  0717  0863               	movf	(_IOCAF3_InterruptHandler+1)^(0+128),w
  8570  0718  008A               	movwf	10
  8571  0719  0862               	movf	_IOCAF3_InterruptHandler^(0+128),w
  8572  071A  000A               	callw
  8573  071B  3187               	pagesel	$
  8574  071C                     i1l4062:
  8575                           
  8576                           ;mcc_generated_files/pin_manager.c: 365:      if (inGame){
  8577  071C  0020               	movlb	0	; select bank0
  8578  071D  0840               	movf	_inGame,w
  8579  071E  1903               	btfsc	3,2
  8580  071F  2F21               	goto	u317_21
  8581  0720  2F22               	goto	u317_20
  8582  0721                     u317_21:
  8583  0721  2F2B               	goto	i1l4072
  8584  0722                     u317_20:
  8585  0722  2F38               	goto	i1l190
  8586  0723                     i1l4066:
  8587                           
  8588                           ;mcc_generated_files/pin_manager.c: 370:             mainState = 2;
  8589  0723  3002               	movlw	2
  8590  0724  00A2               	movwf	??_IOCAF3_ISR
  8591  0725  0822               	movf	??_IOCAF3_ISR,w
  8592  0726  00BF               	movwf	_mainState
  8593  0727                     i1l4068:
  8594                           
  8595                           ;mcc_generated_files/pin_manager.c: 371:             printMenu();
  8596  0727  318E  266D  3187   	fcall	i1_printMenu
  8597                           
  8598                           ;mcc_generated_files/pin_manager.c: 372:         break;
  8599  072A  2F38               	goto	i1l190
  8600  072B                     i1l4072:
  8601  072B  083F               	movf	_mainState,w
  8602  072C  00A2               	movwf	??_IOCAF3_ISR
  8603  072D  01A3               	clrf	??_IOCAF3_ISR+1
  8604                           
  8605                           ; Switch on 2 bytes has been partitioned into a top level switch of size 1, and 1 sub-sw
      +                          itches
  8606                           ; Switch size 1, requested type "simple"
  8607                           ; Number of cases is 1, Range of values is 0 to 0
  8608                           ; switch strategies available:
  8609                           ; Name         Instructions Cycles
  8610                           ; simple_byte            4     3 (average)
  8611                           ; direct_byte            8     6 (fixed)
  8612                           ; jumptable            260     6 (fixed)
  8613                           ;	Chosen strategy is simple_byte
  8614  072E  0823               	movf	??_IOCAF3_ISR+1,w
  8615  072F  3A00               	xorlw	0	; case 0
  8616  0730  1903               	skipnz
  8617  0731  2F33               	goto	i1l5128
  8618  0732  2F38               	goto	i1l190
  8619  0733                     i1l5128:
  8620                           
  8621                           ; Switch size 1, requested type "simple"
  8622                           ; Number of cases is 1, Range of values is 3 to 3
  8623                           ; switch strategies available:
  8624                           ; Name         Instructions Cycles
  8625                           ; simple_byte            4     3 (average)
  8626                           ; direct_byte           11     9 (fixed)
  8627                           ; jumptable            263     9 (fixed)
  8628                           ;	Chosen strategy is simple_byte
  8629  0733  0822               	movf	??_IOCAF3_ISR,w
  8630  0734  3A03               	xorlw	3	; case 3
  8631  0735  1903               	skipnz
  8632  0736  2F23               	goto	i1l4066
  8633  0737  2F38               	goto	i1l190
  8634  0738                     i1l190:	
  8635                           ;mcc_generated_files/pin_manager.c: 376:     }
  8636                           
  8637                           
  8638                           ;mcc_generated_files/pin_manager.c: 377:     IOCAFbits.IOCAF3 = 0;
  8639  0738  0027               	movlb	7	; select bank7
  8640  0739  1193               	bcf	19,3	;volatile
  8641  073A                     i1l195:
  8642  073A  0008               	return
  8643  073B                     __end_of_IOCAF3_ISR:
  8644                           
  8645                           	psect	text40
  8646  0D3F                     __ptext40:	
  8647 ;; *************** function _IOCAF3_DefaultInterruptHandler *****************
  8648 ;; Defined at:
  8649 ;;		line 390 in file "mcc_generated_files/pin_manager.c"
  8650 ;; Parameters:    Size  Location     Type
  8651 ;;		None
  8652 ;; Auto vars:     Size  Location     Type
  8653 ;;		None
  8654 ;; Return value:  Size  Location     Type
  8655 ;;                  1    wreg      void 
  8656 ;; Registers used:
  8657 ;;		None
  8658 ;; Tracked objects:
  8659 ;;		On entry : 0/0
  8660 ;;		On exit  : 0/0
  8661 ;;		Unchanged: 0/0
  8662 ;; Data sizes:     COMMON   BANK0   BANK1   BANK2   BANK3   BANK4   BANK5   BANK6   BANK7   BANK8   BANK9  BANK10  BANK1
      +1  BANK12  BANK13  BANK14  BANK15  BANK16  BANK17  BANK18  BANK19  BANK20  BANK21  BANK22  BANK23  BANK24  BANK25
  8663 ;;      Params:         0       0       0       0       0       0       0       0       0       0       0       0       
      +0       0       0       0       0       0       0       0       0       0       0       0       0       0       0
  8664 ;;      Locals:         0       0       0       0       0       0       0       0       0       0       0       0       
      +0       0       0       0       0       0       0       0       0       0       0       0       0       0       0
  8665 ;;      Temps:          0       0       0       0       0       0       0       0       0       0       0       0       
      +0       0       0       0       0       0       0       0       0       0       0       0       0       0       0
  8666 ;;      Totals:         0       0       0       0       0       0       0       0       0       0       0       0       
      +0       0       0       0       0       0       0       0       0       0       0       0       0       0       0
  8667 ;;Total ram usage:        0 bytes
  8668 ;; Hardware stack levels used:    1
  8669 ;; This function calls:
  8670 ;;		Nothing
  8671 ;; This function is called by:
  8672 ;;		_PIN_MANAGER_Initialize
  8673 ;;		_IOCAF3_ISR
  8674 ;; This function uses a non-reentrant model
  8675 ;;
  8676                           
  8677                           
  8678                           ;psect for function _IOCAF3_DefaultInterruptHandler
  8679  0D3F                     _IOCAF3_DefaultInterruptHandler:
  8680  0D3F                     i1l201:	
  8681                           ;incstack = 0
  8682                           ; Regs used in _IOCAF3_DefaultInterruptHandler: []
  8683                           
  8684  0D3F  0008               	return
  8685  0D40                     __end_of_IOCAF3_DefaultInterruptHandler:
  8686                           
  8687                           	psect	text41
  8688  059D                     __ptext41:	
  8689 ;; *************** function _IOCAF2_ISR *****************
  8690 ;; Defined at:
  8691 ;;		line 304 in file "mcc_generated_files/pin_manager.c"
  8692 ;; Parameters:    Size  Location     Type
  8693 ;;		None
  8694 ;; Auto vars:     Size  Location     Type
  8695 ;;		None
  8696 ;; Return value:  Size  Location     Type
  8697 ;;                  1    wreg      void 
  8698 ;; Registers used:
  8699 ;;		wreg, fsr0l, fsr0h, status,2, status,0, pclath, cstack
  8700 ;; Tracked objects:
  8701 ;;		On entry : 0/0
  8702 ;;		On exit  : 0/0
  8703 ;;		Unchanged: 0/0
  8704 ;; Data sizes:     COMMON   BANK0   BANK1   BANK2   BANK3   BANK4   BANK5   BANK6   BANK7   BANK8   BANK9  BANK10  BANK1
      +1  BANK12  BANK13  BANK14  BANK15  BANK16  BANK17  BANK18  BANK19  BANK20  BANK21  BANK22  BANK23  BANK24  BANK25
  8705 ;;      Params:         0       0       0       0       0       0       0       0       0       0       0       0       
      +0       0       0       0       0       0       0       0       0       0       0       0       0       0       0
  8706 ;;      Locals:         0       0       0       0       0       0       0       0       0       0       0       0       
      +0       0       0       0       0       0       0       0       0       0       0       0       0       0       0
  8707 ;;      Temps:          0       2       0       0       0       0       0       0       0       0       0       0       
      +0       0       0       0       0       0       0       0       0       0       0       0       0       0       0
  8708 ;;      Totals:         0       2       0       0       0       0       0       0       0       0       0       0       
      +0       0       0       0       0       0       0       0       0       0       0       0       0       0       0
  8709 ;;Total ram usage:        2 bytes
  8710 ;; Hardware stack levels used:    1
  8711 ;; Hardware stack levels required when called:    5
  8712 ;; This function calls:
  8713 ;;		Absolute function
  8714 ;;		_IOCAF2_DefaultInterruptHandler
  8715 ;;		_enableButton
  8716 ;;		i1_disableButton
  8717 ;;		i1_printMenu
  8718 ;; This function is called by:
  8719 ;;		_PIN_MANAGER_IOC
  8720 ;; This function uses a non-reentrant model
  8721 ;;
  8722                           
  8723                           
  8724                           ;psect for function _IOCAF2_ISR
  8725  059D                     _IOCAF2_ISR:
  8726  059D                     i1l4026:	
  8727                           ;incstack = 0
  8728                           ; Regs used in _IOCAF2_ISR: [wreg-fsr0h+status,2+status,0+pclath+cstack]
  8729                           
  8730                           
  8731                           ;mcc_generated_files/pin_manager.c: 309:     if(IOCAF2_InterruptHandler)
  8732  059D  0021               	movlb	1	; select bank1
  8733  059E  0864               	movf	_IOCAF2_InterruptHandler^(0+128),w
  8734  059F  0465               	iorwf	(_IOCAF2_InterruptHandler+1)^(0+128),w
  8735  05A0  1903               	btfsc	3,2
  8736  05A1  2DA3               	goto	u314_21
  8737  05A2  2DA4               	goto	u314_20
  8738  05A3                     u314_21:
  8739  05A3  2DA9               	goto	i1l4030
  8740  05A4                     u314_20:
  8741  05A4                     i1l4028:
  8742                           
  8743                           ;mcc_generated_files/pin_manager.c: 310:     {;mcc_generated_files/pin_manager.c: 311:  
      +                                 IOCAF2_InterruptHandler();
  8744  05A4  0865               	movf	(_IOCAF2_InterruptHandler+1)^(0+128),w
  8745  05A5  008A               	movwf	10
  8746  05A6  0864               	movf	_IOCAF2_InterruptHandler^(0+128),w
  8747  05A7  000A               	callw
  8748  05A8  3185               	pagesel	$
  8749  05A9                     i1l4030:
  8750                           
  8751                           ;mcc_generated_files/pin_manager.c: 313:     if (inGame){
  8752  05A9  0020               	movlb	0	; select bank0
  8753  05AA  0840               	movf	_inGame,w
  8754  05AB  1903               	btfsc	3,2
  8755  05AC  2DAE               	goto	u315_21
  8756  05AD  2DAF               	goto	u315_20
  8757  05AE                     u315_21:
  8758  05AE  2DCD               	goto	i1l4052
  8759  05AF                     u315_20:
  8760  05AF  2DDD               	goto	i1l173
  8761  05B0                     i1l4034:
  8762                           
  8763                           ;mcc_generated_files/pin_manager.c: 318:             ship1 = 0;
  8764  05B0  01BE               	clrf	_ship1
  8765  05B1                     i1l4036:
  8766                           
  8767                           ;mcc_generated_files/pin_manager.c: 319:             disableButton(0);
  8768  05B1  3000               	movlw	0
  8769  05B2  318D  25AD  3185   	fcall	i1_disableButton
  8770  05B5                     i1l4038:
  8771                           
  8772                           ;mcc_generated_files/pin_manager.c: 320:             enableButton(1);
  8773  05B5  3001               	movlw	1
  8774  05B6  318D  259D  3185   	fcall	_enableButton
  8775  05B9                     i1l4040:
  8776                           
  8777                           ;mcc_generated_files/pin_manager.c: 321:             mainState = 2;
  8778  05B9  3002               	movlw	2
  8779  05BA  0020               	movlb	0	; select bank0
  8780  05BB  00A2               	movwf	??_IOCAF2_ISR
  8781  05BC  0822               	movf	??_IOCAF2_ISR,w
  8782  05BD  00BF               	movwf	_mainState
  8783  05BE                     i1l4042:
  8784                           
  8785                           ;mcc_generated_files/pin_manager.c: 322:             printMenu();
  8786  05BE  318E  266D  3185   	fcall	i1_printMenu
  8787                           
  8788                           ;mcc_generated_files/pin_manager.c: 323:         break;
  8789  05C1  2DDD               	goto	i1l173
  8790  05C2                     i1l177:	
  8791                           ;mcc_generated_files/pin_manager.c: 324:         case 1:
  8792                           
  8793                           
  8794                           ;mcc_generated_files/pin_manager.c: 325:             ship1 = 1;
  8795  05C2  01BE               	clrf	_ship1
  8796  05C3  0ABE               	incf	_ship1,f
  8797  05C4                     i1l4044:
  8798                           
  8799                           ;mcc_generated_files/pin_manager.c: 326:             disableButton(0);
  8800  05C4  3000               	movlw	0
  8801  05C5  318D  25AD  3185   	fcall	i1_disableButton
  8802                           
  8803                           ;mcc_generated_files/pin_manager.c: 327:             enableButton(1);
  8804  05C8  3001               	movlw	1
  8805  05C9  318D  259D  3185   	fcall	_enableButton
  8806  05CC  2DB9               	goto	i1l4040
  8807  05CD                     i1l4052:
  8808  05CD  083F               	movf	_mainState,w
  8809  05CE  00A2               	movwf	??_IOCAF2_ISR
  8810  05CF  01A3               	clrf	??_IOCAF2_ISR+1
  8811                           
  8812                           ; Switch on 2 bytes has been partitioned into a top level switch of size 1, and 1 sub-sw
      +                          itches
  8813                           ; Switch size 1, requested type "simple"
  8814                           ; Number of cases is 1, Range of values is 0 to 0
  8815                           ; switch strategies available:
  8816                           ; Name         Instructions Cycles
  8817                           ; simple_byte            4     3 (average)
  8818                           ; direct_byte            8     6 (fixed)
  8819                           ; jumptable            260     6 (fixed)
  8820                           ;	Chosen strategy is simple_byte
  8821  05D0  0823               	movf	??_IOCAF2_ISR+1,w
  8822  05D1  3A00               	xorlw	0	; case 0
  8823  05D2  1903               	skipnz
  8824  05D3  2DD5               	goto	i1l5130
  8825  05D4  2DDD               	goto	i1l173
  8826  05D5                     i1l5130:
  8827                           
  8828                           ; Switch size 1, requested type "simple"
  8829                           ; Number of cases is 2, Range of values is 0 to 1
  8830                           ; switch strategies available:
  8831                           ; Name         Instructions Cycles
  8832                           ; simple_byte            7     4 (average)
  8833                           ; direct_byte           10     6 (fixed)
  8834                           ; jumptable            260     6 (fixed)
  8835                           ;	Chosen strategy is simple_byte
  8836  05D5  0822               	movf	??_IOCAF2_ISR,w
  8837  05D6  3A00               	xorlw	0	; case 0
  8838  05D7  1903               	skipnz
  8839  05D8  2DB0               	goto	i1l4034
  8840  05D9  3A01               	xorlw	1	; case 1
  8841  05DA  1903               	skipnz
  8842  05DB  2DC2               	goto	i1l177
  8843  05DC  2DDD               	goto	i1l173
  8844  05DD                     i1l173:	
  8845                           ;mcc_generated_files/pin_manager.c: 334:     }
  8846                           
  8847                           
  8848                           ;mcc_generated_files/pin_manager.c: 335:     IOCAFbits.IOCAF2 = 0;
  8849  05DD  0027               	movlb	7	; select bank7
  8850  05DE  1113               	bcf	19,2	;volatile
  8851  05DF                     i1l179:
  8852  05DF  0008               	return
  8853  05E0                     __end_of_IOCAF2_ISR:
  8854                           
  8855                           	psect	text42
  8856  0DAD                     __ptext42:	
  8857 ;; *************** function i1_disableButton *****************
  8858 ;; Defined at:
  8859 ;;		line 124 in file "functions.c"
  8860 ;; Parameters:    Size  Location     Type
  8861 ;;  player          1    wreg     _Bool 
  8862 ;; Auto vars:     Size  Location     Type
  8863 ;;  player          1    0[COMMON] _Bool 
  8864 ;; Return value:  Size  Location     Type
  8865 ;;                  1    wreg      void 
  8866 ;; Registers used:
  8867 ;;		wreg, status,2, status,0
  8868 ;; Tracked objects:
  8869 ;;		On entry : 0/0
  8870 ;;		On exit  : 0/0
  8871 ;;		Unchanged: 0/0
  8872 ;; Data sizes:     COMMON   BANK0   BANK1   BANK2   BANK3   BANK4   BANK5   BANK6   BANK7   BANK8   BANK9  BANK10  BANK1
      +1  BANK12  BANK13  BANK14  BANK15  BANK16  BANK17  BANK18  BANK19  BANK20  BANK21  BANK22  BANK23  BANK24  BANK25
  8873 ;;      Params:         0       0       0       0       0       0       0       0       0       0       0       0       
      +0       0       0       0       0       0       0       0       0       0       0       0       0       0       0
  8874 ;;      Locals:         1       0       0       0       0       0       0       0       0       0       0       0       
      +0       0       0       0       0       0       0       0       0       0       0       0       0       0       0
  8875 ;;      Temps:          0       0       0       0       0       0       0       0       0       0       0       0       
      +0       0       0       0       0       0       0       0       0       0       0       0       0       0       0
  8876 ;;      Totals:         1       0       0       0       0       0       0       0       0       0       0       0       
      +0       0       0       0       0       0       0       0       0       0       0       0       0       0       0
  8877 ;;Total ram usage:        1 bytes
  8878 ;; Hardware stack levels used:    1
  8879 ;; This function calls:
  8880 ;;		Nothing
  8881 ;; This function is called by:
  8882 ;;		_IOCAF2_ISR
  8883 ;;		_IOCAF5_ISR
  8884 ;; This function uses a non-reentrant model
  8885 ;;
  8886                           
  8887                           
  8888                           ;psect for function i1_disableButton
  8889  0DAD                     i1_disableButton:
  8890                           
  8891                           ;incstack = 0
  8892                           ; Regs used in i1_disableButton: [wreg+status,2+status,0]
  8893                           ;i1disableButton@player stored from wreg
  8894  0DAD  00F0               	movwf	i1disableButton@player
  8895  0DAE                     i1l2570:
  8896                           
  8897                           ;functions.c: 124: void disableButton (_Bool player);functions.c: 135:     {;functions.c
      +                          : 136:     if (player == 1)
  8898  0DAE  0370               	decf	i1disableButton@player,w
  8899  0DAF  1D03               	btfss	3,2
  8900  0DB0  2DB2               	goto	u169_21
  8901  0DB1  2DB3               	goto	u169_20
  8902  0DB2                     u169_21:
  8903  0DB2  2DB8               	goto	i1l355
  8904  0DB3                     u169_20:
  8905  0DB3                     i1l2572:
  8906                           
  8907                           ;functions.c: 138:         {;functions.c: 140:         IOCANbits.IOCAN3 = 0;
  8908  0DB3  0027               	movlb	7	; select bank7
  8909  0DB4  1192               	bcf	18,3	;volatile
  8910                           
  8911                           ;functions.c: 142:         IOCANbits.IOCAN4 = 0;
  8912  0DB5  1212               	bcf	18,4	;volatile
  8913                           
  8914                           ;functions.c: 144:         IOCANbits.IOCAN5 = 0;
  8915  0DB6  1292               	bcf	18,5	;volatile
  8916                           
  8917                           ;functions.c: 145:         }
  8918  0DB7  2DBC               	goto	i1l357
  8919  0DB8                     i1l355:	
  8920                           ;functions.c: 146:     else
  8921                           
  8922                           
  8923                           ;functions.c: 148:         {;functions.c: 150:         IOCANbits.IOCAN0 = 0;
  8924  0DB8  0027               	movlb	7	; select bank7
  8925  0DB9  1012               	bcf	18,0	;volatile
  8926                           
  8927                           ;functions.c: 152:         IOCANbits.IOCAN1 = 0;
  8928  0DBA  1092               	bcf	18,1	;volatile
  8929                           
  8930                           ;functions.c: 154:         IOCANbits.IOCAN2 = 0;
  8931  0DBB  1112               	bcf	18,2	;volatile
  8932  0DBC                     i1l357:
  8933  0DBC  0008               	return
  8934  0DBD                     __end_ofi1_disableButton:
  8935                           
  8936                           	psect	text43
  8937  0D9D                     __ptext43:	
  8938 ;; *************** function _enableButton *****************
  8939 ;; Defined at:
  8940 ;;		line 159 in file "functions.c"
  8941 ;; Parameters:    Size  Location     Type
  8942 ;;  player          1    wreg     _Bool 
  8943 ;; Auto vars:     Size  Location     Type
  8944 ;;  player          1    0[COMMON] _Bool 
  8945 ;; Return value:  Size  Location     Type
  8946 ;;                  1    wreg      void 
  8947 ;; Registers used:
  8948 ;;		wreg, status,2, status,0
  8949 ;; Tracked objects:
  8950 ;;		On entry : 0/0
  8951 ;;		On exit  : 0/0
  8952 ;;		Unchanged: 0/0
  8953 ;; Data sizes:     COMMON   BANK0   BANK1   BANK2   BANK3   BANK4   BANK5   BANK6   BANK7   BANK8   BANK9  BANK10  BANK1
      +1  BANK12  BANK13  BANK14  BANK15  BANK16  BANK17  BANK18  BANK19  BANK20  BANK21  BANK22  BANK23  BANK24  BANK25
  8954 ;;      Params:         0       0       0       0       0       0       0       0       0       0       0       0       
      +0       0       0       0       0       0       0       0       0       0       0       0       0       0       0
  8955 ;;      Locals:         1       0       0       0       0       0       0       0       0       0       0       0       
      +0       0       0       0       0       0       0       0       0       0       0       0       0       0       0
  8956 ;;      Temps:          0       0       0       0       0       0       0       0       0       0       0       0       
      +0       0       0       0       0       0       0       0       0       0       0       0       0       0       0
  8957 ;;      Totals:         1       0       0       0       0       0       0       0       0       0       0       0       
      +0       0       0       0       0       0       0       0       0       0       0       0       0       0       0
  8958 ;;Total ram usage:        1 bytes
  8959 ;; Hardware stack levels used:    1
  8960 ;; This function calls:
  8961 ;;		Nothing
  8962 ;; This function is called by:
  8963 ;;		_IOCAF2_ISR
  8964 ;;		_IOCAF5_ISR
  8965 ;; This function uses a non-reentrant model
  8966 ;;
  8967                           
  8968                           
  8969                           ;psect for function _enableButton
  8970  0D9D                     _enableButton:
  8971                           
  8972                           ;incstack = 0
  8973                           ; Regs used in _enableButton: [wreg+status,2+status,0]
  8974                           ;enableButton@player stored from wreg
  8975  0D9D  00F0               	movwf	enableButton@player
  8976  0D9E                     i1l2322:
  8977                           
  8978                           ;functions.c: 159: void enableButton (_Bool player);functions.c: 170:     {;functions.c:
      +                           171:     if (player == 1)
  8979  0D9E  0370               	decf	enableButton@player,w
  8980  0D9F  1D03               	btfss	3,2
  8981  0DA0  2DA2               	goto	u118_21
  8982  0DA1  2DA3               	goto	u118_20
  8983  0DA2                     u118_21:
  8984  0DA2  2DA8               	goto	i1l360
  8985  0DA3                     u118_20:
  8986  0DA3                     i1l2324:
  8987                           
  8988                           ;functions.c: 173:         {;functions.c: 175:         IOCANbits.IOCAN3 = 1;
  8989  0DA3  0027               	movlb	7	; select bank7
  8990  0DA4  1592               	bsf	18,3	;volatile
  8991                           
  8992                           ;functions.c: 177:         IOCANbits.IOCAN4 = 1;
  8993  0DA5  1612               	bsf	18,4	;volatile
  8994                           
  8995                           ;functions.c: 179:         IOCANbits.IOCAN5 = 1;
  8996  0DA6  1692               	bsf	18,5	;volatile
  8997                           
  8998                           ;functions.c: 180:         }
  8999  0DA7  2DAC               	goto	i1l362
  9000  0DA8                     i1l360:	
  9001                           ;functions.c: 181:     else
  9002                           
  9003                           
  9004                           ;functions.c: 183:         {;functions.c: 185:         IOCANbits.IOCAN0 = 1;
  9005  0DA8  0027               	movlb	7	; select bank7
  9006  0DA9  1412               	bsf	18,0	;volatile
  9007                           
  9008                           ;functions.c: 187:         IOCANbits.IOCAN1 = 1;
  9009  0DAA  1492               	bsf	18,1	;volatile
  9010                           
  9011                           ;functions.c: 189:         IOCANbits.IOCAN2 = 1;
  9012  0DAB  1512               	bsf	18,2	;volatile
  9013  0DAC                     i1l362:
  9014  0DAC  0008               	return
  9015  0DAD                     __end_of_enableButton:
  9016                           
  9017                           	psect	text44
  9018  0D3E                     __ptext44:	
  9019 ;; *************** function _IOCAF2_DefaultInterruptHandler *****************
  9020 ;; Defined at:
  9021 ;;		line 348 in file "mcc_generated_files/pin_manager.c"
  9022 ;; Parameters:    Size  Location     Type
  9023 ;;		None
  9024 ;; Auto vars:     Size  Location     Type
  9025 ;;		None
  9026 ;; Return value:  Size  Location     Type
  9027 ;;                  1    wreg      void 
  9028 ;; Registers used:
  9029 ;;		None
  9030 ;; Tracked objects:
  9031 ;;		On entry : 0/0
  9032 ;;		On exit  : 0/0
  9033 ;;		Unchanged: 0/0
  9034 ;; Data sizes:     COMMON   BANK0   BANK1   BANK2   BANK3   BANK4   BANK5   BANK6   BANK7   BANK8   BANK9  BANK10  BANK1
      +1  BANK12  BANK13  BANK14  BANK15  BANK16  BANK17  BANK18  BANK19  BANK20  BANK21  BANK22  BANK23  BANK24  BANK25
  9035 ;;      Params:         0       0       0       0       0       0       0       0       0       0       0       0       
      +0       0       0       0       0       0       0       0       0       0       0       0       0       0       0
  9036 ;;      Locals:         0       0       0       0       0       0       0       0       0       0       0       0       
      +0       0       0       0       0       0       0       0       0       0       0       0       0       0       0
  9037 ;;      Temps:          0       0       0       0       0       0       0       0       0       0       0       0       
      +0       0       0       0       0       0       0       0       0       0       0       0       0       0       0
  9038 ;;      Totals:         0       0       0       0       0       0       0       0       0       0       0       0       
      +0       0       0       0       0       0       0       0       0       0       0       0       0       0       0
  9039 ;;Total ram usage:        0 bytes
  9040 ;; Hardware stack levels used:    1
  9041 ;; This function calls:
  9042 ;;		Nothing
  9043 ;; This function is called by:
  9044 ;;		_PIN_MANAGER_Initialize
  9045 ;;		_IOCAF2_ISR
  9046 ;; This function uses a non-reentrant model
  9047 ;;
  9048                           
  9049                           
  9050                           ;psect for function _IOCAF2_DefaultInterruptHandler
  9051  0D3E                     _IOCAF2_DefaultInterruptHandler:
  9052  0D3E                     i1l185:	
  9053                           ;incstack = 0
  9054                           ; Regs used in _IOCAF2_DefaultInterruptHandler: []
  9055                           
  9056  0D3E  0008               	return
  9057  0D3F                     __end_of_IOCAF2_DefaultInterruptHandler:
  9058                           
  9059                           	psect	text45
  9060  06B9                     __ptext45:	
  9061 ;; *************** function _IOCAF1_ISR *****************
  9062 ;; Defined at:
  9063 ;;		line 259 in file "mcc_generated_files/pin_manager.c"
  9064 ;; Parameters:    Size  Location     Type
  9065 ;;		None
  9066 ;; Auto vars:     Size  Location     Type
  9067 ;;		None
  9068 ;; Return value:  Size  Location     Type
  9069 ;;                  1    wreg      void 
  9070 ;; Registers used:
  9071 ;;		wreg, fsr0l, fsr0h, status,2, status,0, pclath, cstack
  9072 ;; Tracked objects:
  9073 ;;		On entry : 0/0
  9074 ;;		On exit  : 0/0
  9075 ;;		Unchanged: 0/0
  9076 ;; Data sizes:     COMMON   BANK0   BANK1   BANK2   BANK3   BANK4   BANK5   BANK6   BANK7   BANK8   BANK9  BANK10  BANK1
      +1  BANK12  BANK13  BANK14  BANK15  BANK16  BANK17  BANK18  BANK19  BANK20  BANK21  BANK22  BANK23  BANK24  BANK25
  9077 ;;      Params:         0       0       0       0       0       0       0       0       0       0       0       0       
      +0       0       0       0       0       0       0       0       0       0       0       0       0       0       0
  9078 ;;      Locals:         0       0       0       0       0       0       0       0       0       0       0       0       
      +0       0       0       0       0       0       0       0       0       0       0       0       0       0       0
  9079 ;;      Temps:          0       2       0       0       0       0       0       0       0       0       0       0       
      +0       0       0       0       0       0       0       0       0       0       0       0       0       0       0
  9080 ;;      Totals:         0       2       0       0       0       0       0       0       0       0       0       0       
      +0       0       0       0       0       0       0       0       0       0       0       0       0       0       0
  9081 ;;Total ram usage:        2 bytes
  9082 ;; Hardware stack levels used:    1
  9083 ;; Hardware stack levels required when called:    5
  9084 ;; This function calls:
  9085 ;;		Absolute function
  9086 ;;		_IOCAF1_DefaultInterruptHandler
  9087 ;;		i1_printMenu
  9088 ;; This function is called by:
  9089 ;;		_PIN_MANAGER_IOC
  9090 ;; This function uses a non-reentrant model
  9091 ;;
  9092                           
  9093                           
  9094                           ;psect for function _IOCAF1_ISR
  9095  06B9                     _IOCAF1_ISR:
  9096  06B9                     i1l4008:	
  9097                           ;incstack = 0
  9098                           ; Regs used in _IOCAF1_ISR: [wreg-fsr0h+status,2+status,0+pclath+cstack]
  9099                           
  9100                           
  9101                           ;mcc_generated_files/pin_manager.c: 264:     if(IOCAF1_InterruptHandler)
  9102  06B9  0021               	movlb	1	; select bank1
  9103  06BA  0866               	movf	_IOCAF1_InterruptHandler^(0+128),w
  9104  06BB  0467               	iorwf	(_IOCAF1_InterruptHandler+1)^(0+128),w
  9105  06BC  1903               	btfsc	3,2
  9106  06BD  2EBF               	goto	u312_21
  9107  06BE  2EC0               	goto	u312_20
  9108  06BF                     u312_21:
  9109  06BF  2EC5               	goto	i1l4012
  9110  06C0                     u312_20:
  9111  06C0                     i1l4010:
  9112                           
  9113                           ;mcc_generated_files/pin_manager.c: 265:     {;mcc_generated_files/pin_manager.c: 266:  
      +                                 IOCAF1_InterruptHandler();
  9114  06C0  0867               	movf	(_IOCAF1_InterruptHandler+1)^(0+128),w
  9115  06C1  008A               	movwf	10
  9116  06C2  0866               	movf	_IOCAF1_InterruptHandler^(0+128),w
  9117  06C3  000A               	callw
  9118  06C4  3186               	pagesel	$
  9119  06C5                     i1l4012:
  9120                           
  9121                           ;mcc_generated_files/pin_manager.c: 269:     if (inGame){
  9122  06C5  0020               	movlb	0	; select bank0
  9123  06C6  0840               	movf	_inGame,w
  9124  06C7  1903               	btfsc	3,2
  9125  06C8  2ECA               	goto	u313_21
  9126  06C9  2ECB               	goto	u313_20
  9127  06CA                     u313_21:
  9128  06CA  2ED2               	goto	i1l4020
  9129  06CB                     u313_20:
  9130  06CB  2EE2               	goto	i1l156
  9131  06CC                     i1l158:	
  9132                           ;mcc_generated_files/pin_manager.c: 273:         case 0:
  9133                           
  9134                           
  9135                           ;mcc_generated_files/pin_manager.c: 274:             mainState = 1;
  9136  06CC  01BF               	clrf	_mainState
  9137  06CD  0ABF               	incf	_mainState,f
  9138  06CE                     i1l4016:
  9139                           
  9140                           ;mcc_generated_files/pin_manager.c: 275:             printMenu();
  9141  06CE  318E  266D  3186   	fcall	i1_printMenu
  9142                           
  9143                           ;mcc_generated_files/pin_manager.c: 276:         break;
  9144  06D1  2EE2               	goto	i1l156
  9145  06D2                     i1l4020:
  9146  06D2  083F               	movf	_mainState,w
  9147  06D3  00A2               	movwf	??_IOCAF1_ISR
  9148  06D4  01A3               	clrf	??_IOCAF1_ISR+1
  9149                           
  9150                           ; Switch on 2 bytes has been partitioned into a top level switch of size 1, and 1 sub-sw
      +                          itches
  9151                           ; Switch size 1, requested type "simple"
  9152                           ; Number of cases is 1, Range of values is 0 to 0
  9153                           ; switch strategies available:
  9154                           ; Name         Instructions Cycles
  9155                           ; simple_byte            4     3 (average)
  9156                           ; direct_byte            8     6 (fixed)
  9157                           ; jumptable            260     6 (fixed)
  9158                           ;	Chosen strategy is simple_byte
  9159  06D5  0823               	movf	??_IOCAF1_ISR+1,w
  9160  06D6  3A00               	xorlw	0	; case 0
  9161  06D7  1903               	skipnz
  9162  06D8  2EDA               	goto	i1l5132
  9163  06D9  2EE2               	goto	i1l156
  9164  06DA                     i1l5132:
  9165                           
  9166                           ; Switch size 1, requested type "simple"
  9167                           ; Number of cases is 2, Range of values is 0 to 1
  9168                           ; switch strategies available:
  9169                           ; Name         Instructions Cycles
  9170                           ; simple_byte            7     4 (average)
  9171                           ; direct_byte           10     6 (fixed)
  9172                           ; jumptable            260     6 (fixed)
  9173                           ;	Chosen strategy is simple_byte
  9174  06DA  0822               	movf	??_IOCAF1_ISR,w
  9175  06DB  3A00               	xorlw	0	; case 0
  9176  06DC  1903               	skipnz
  9177  06DD  2ECC               	goto	i1l158
  9178  06DE  3A01               	xorlw	1	; case 1
  9179  06DF  1903               	skipnz
  9180  06E0  2EE2               	goto	i1l156
  9181  06E1  2EE2               	goto	i1l156
  9182  06E2                     i1l156:	
  9183                           ;mcc_generated_files/pin_manager.c: 282:     }
  9184                           
  9185                           
  9186                           ;mcc_generated_files/pin_manager.c: 283:     IOCAFbits.IOCAF1 = 0;
  9187  06E2  0027               	movlb	7	; select bank7
  9188  06E3  1093               	bcf	19,1	;volatile
  9189  06E4                     i1l162:
  9190  06E4  0008               	return
  9191  06E5                     __end_of_IOCAF1_ISR:
  9192                           
  9193                           	psect	text46
  9194  0D3D                     __ptext46:	
  9195 ;; *************** function _IOCAF1_DefaultInterruptHandler *****************
  9196 ;; Defined at:
  9197 ;;		line 296 in file "mcc_generated_files/pin_manager.c"
  9198 ;; Parameters:    Size  Location     Type
  9199 ;;		None
  9200 ;; Auto vars:     Size  Location     Type
  9201 ;;		None
  9202 ;; Return value:  Size  Location     Type
  9203 ;;                  1    wreg      void 
  9204 ;; Registers used:
  9205 ;;		None
  9206 ;; Tracked objects:
  9207 ;;		On entry : 0/0
  9208 ;;		On exit  : 0/0
  9209 ;;		Unchanged: 0/0
  9210 ;; Data sizes:     COMMON   BANK0   BANK1   BANK2   BANK3   BANK4   BANK5   BANK6   BANK7   BANK8   BANK9  BANK10  BANK1
      +1  BANK12  BANK13  BANK14  BANK15  BANK16  BANK17  BANK18  BANK19  BANK20  BANK21  BANK22  BANK23  BANK24  BANK25
  9211 ;;      Params:         0       0       0       0       0       0       0       0       0       0       0       0       
      +0       0       0       0       0       0       0       0       0       0       0       0       0       0       0
  9212 ;;      Locals:         0       0       0       0       0       0       0       0       0       0       0       0       
      +0       0       0       0       0       0       0       0       0       0       0       0       0       0       0
  9213 ;;      Temps:          0       0       0       0       0       0       0       0       0       0       0       0       
      +0       0       0       0       0       0       0       0       0       0       0       0       0       0       0
  9214 ;;      Totals:         0       0       0       0       0       0       0       0       0       0       0       0       
      +0       0       0       0       0       0       0       0       0       0       0       0       0       0       0
  9215 ;;Total ram usage:        0 bytes
  9216 ;; Hardware stack levels used:    1
  9217 ;; This function calls:
  9218 ;;		Nothing
  9219 ;; This function is called by:
  9220 ;;		_PIN_MANAGER_Initialize
  9221 ;;		_IOCAF1_ISR
  9222 ;; This function uses a non-reentrant model
  9223 ;;
  9224                           
  9225                           
  9226                           ;psect for function _IOCAF1_DefaultInterruptHandler
  9227  0D3D                     _IOCAF1_DefaultInterruptHandler:
  9228  0D3D                     i1l168:	
  9229                           ;incstack = 0
  9230                           ; Regs used in _IOCAF1_DefaultInterruptHandler: []
  9231                           
  9232  0D3D  0008               	return
  9233  0D3E                     __end_of_IOCAF1_DefaultInterruptHandler:
  9234                           
  9235                           	psect	text47
  9236  073B                     __ptext47:	
  9237 ;; *************** function _IOCAF0_ISR *****************
  9238 ;; Defined at:
  9239 ;;		line 213 in file "mcc_generated_files/pin_manager.c"
  9240 ;; Parameters:    Size  Location     Type
  9241 ;;		None
  9242 ;; Auto vars:     Size  Location     Type
  9243 ;;		None
  9244 ;; Return value:  Size  Location     Type
  9245 ;;                  1    wreg      void 
  9246 ;; Registers used:
  9247 ;;		wreg, fsr0l, fsr0h, status,2, status,0, pclath, cstack
  9248 ;; Tracked objects:
  9249 ;;		On entry : 0/0
  9250 ;;		On exit  : 0/0
  9251 ;;		Unchanged: 0/0
  9252 ;; Data sizes:     COMMON   BANK0   BANK1   BANK2   BANK3   BANK4   BANK5   BANK6   BANK7   BANK8   BANK9  BANK10  BANK1
      +1  BANK12  BANK13  BANK14  BANK15  BANK16  BANK17  BANK18  BANK19  BANK20  BANK21  BANK22  BANK23  BANK24  BANK25
  9253 ;;      Params:         0       0       0       0       0       0       0       0       0       0       0       0       
      +0       0       0       0       0       0       0       0       0       0       0       0       0       0       0
  9254 ;;      Locals:         0       0       0       0       0       0       0       0       0       0       0       0       
      +0       0       0       0       0       0       0       0       0       0       0       0       0       0       0
  9255 ;;      Temps:          0       2       0       0       0       0       0       0       0       0       0       0       
      +0       0       0       0       0       0       0       0       0       0       0       0       0       0       0
  9256 ;;      Totals:         0       2       0       0       0       0       0       0       0       0       0       0       
      +0       0       0       0       0       0       0       0       0       0       0       0       0       0       0
  9257 ;;Total ram usage:        2 bytes
  9258 ;; Hardware stack levels used:    1
  9259 ;; Hardware stack levels required when called:    5
  9260 ;; This function calls:
  9261 ;;		Absolute function
  9262 ;;		_IOCAF0_DefaultInterruptHandler
  9263 ;;		i1_printMenu
  9264 ;; This function is called by:
  9265 ;;		_PIN_MANAGER_IOC
  9266 ;; This function uses a non-reentrant model
  9267 ;;
  9268                           
  9269                           
  9270                           ;psect for function _IOCAF0_ISR
  9271  073B                     _IOCAF0_ISR:
  9272  073B                     i1l3988:	
  9273                           ;incstack = 0
  9274                           ; Regs used in _IOCAF0_ISR: [wreg-fsr0h+status,2+status,0+pclath+cstack]
  9275                           
  9276                           
  9277                           ;mcc_generated_files/pin_manager.c: 218:     if(IOCAF0_InterruptHandler)
  9278  073B  0021               	movlb	1	; select bank1
  9279  073C  0868               	movf	_IOCAF0_InterruptHandler^(0+128),w
  9280  073D  0469               	iorwf	(_IOCAF0_InterruptHandler+1)^(0+128),w
  9281  073E  1903               	btfsc	3,2
  9282  073F  2F41               	goto	u310_21
  9283  0740  2F42               	goto	u310_20
  9284  0741                     u310_21:
  9285  0741  2F47               	goto	i1l3992
  9286  0742                     u310_20:
  9287  0742                     i1l3990:
  9288                           
  9289                           ;mcc_generated_files/pin_manager.c: 219:     {;mcc_generated_files/pin_manager.c: 220:  
      +                                 IOCAF0_InterruptHandler();
  9290  0742  0869               	movf	(_IOCAF0_InterruptHandler+1)^(0+128),w
  9291  0743  008A               	movwf	10
  9292  0744  0868               	movf	_IOCAF0_InterruptHandler^(0+128),w
  9293  0745  000A               	callw
  9294  0746  3187               	pagesel	$
  9295  0747                     i1l3992:
  9296                           
  9297                           ;mcc_generated_files/pin_manager.c: 222:     if (inGame){
  9298  0747  0020               	movlb	0	; select bank0
  9299  0748  0840               	movf	_inGame,w
  9300  0749  1903               	btfsc	3,2
  9301  074A  2F4C               	goto	u311_21
  9302  074B  2F4D               	goto	u311_20
  9303  074C                     u311_21:
  9304  074C  2F53               	goto	i1l4002
  9305  074D                     u311_20:
  9306  074D  2F63               	goto	i1l139
  9307  074E                     i1l3996:
  9308                           
  9309                           ;mcc_generated_files/pin_manager.c: 229:             mainState = 0;
  9310  074E  01BF               	clrf	_mainState
  9311  074F                     i1l3998:
  9312                           
  9313                           ;mcc_generated_files/pin_manager.c: 230:             printMenu();
  9314  074F  318E  266D  3187   	fcall	i1_printMenu
  9315                           
  9316                           ;mcc_generated_files/pin_manager.c: 231:         break;
  9317  0752  2F63               	goto	i1l139
  9318  0753                     i1l4002:
  9319  0753  083F               	movf	_mainState,w
  9320  0754  00A2               	movwf	??_IOCAF0_ISR
  9321  0755  01A3               	clrf	??_IOCAF0_ISR+1
  9322                           
  9323                           ; Switch on 2 bytes has been partitioned into a top level switch of size 1, and 1 sub-sw
      +                          itches
  9324                           ; Switch size 1, requested type "simple"
  9325                           ; Number of cases is 1, Range of values is 0 to 0
  9326                           ; switch strategies available:
  9327                           ; Name         Instructions Cycles
  9328                           ; simple_byte            4     3 (average)
  9329                           ; direct_byte            8     6 (fixed)
  9330                           ; jumptable            260     6 (fixed)
  9331                           ;	Chosen strategy is simple_byte
  9332  0756  0823               	movf	??_IOCAF0_ISR+1,w
  9333  0757  3A00               	xorlw	0	; case 0
  9334  0758  1903               	skipnz
  9335  0759  2F5B               	goto	i1l5134
  9336  075A  2F63               	goto	i1l139
  9337  075B                     i1l5134:
  9338                           
  9339                           ; Switch size 1, requested type "simple"
  9340                           ; Number of cases is 2, Range of values is 0 to 1
  9341                           ; switch strategies available:
  9342                           ; Name         Instructions Cycles
  9343                           ; simple_byte            7     4 (average)
  9344                           ; direct_byte           10     6 (fixed)
  9345                           ; jumptable            260     6 (fixed)
  9346                           ;	Chosen strategy is simple_byte
  9347  075B  0822               	movf	??_IOCAF0_ISR,w
  9348  075C  3A00               	xorlw	0	; case 0
  9349  075D  1903               	skipnz
  9350  075E  2F63               	goto	i1l139
  9351  075F  3A01               	xorlw	1	; case 1
  9352  0760  1903               	skipnz
  9353  0761  2F4E               	goto	i1l3996
  9354  0762  2F63               	goto	i1l139
  9355  0763                     i1l139:	
  9356                           ;mcc_generated_files/pin_manager.c: 235:     }
  9357                           
  9358                           
  9359                           ;mcc_generated_files/pin_manager.c: 238:     IOCAFbits.IOCAF0 = 0;
  9360  0763  0027               	movlb	7	; select bank7
  9361  0764  1013               	bcf	19,0	;volatile
  9362  0765                     i1l145:
  9363  0765  0008               	return
  9364  0766                     __end_of_IOCAF0_ISR:
  9365                           
  9366                           	psect	text48
  9367  0E6D                     __ptext48:	
  9368 ;; *************** function i1_printMenu *****************
  9369 ;; Defined at:
  9370 ;;		line 32 in file "menu.c"
  9371 ;; Parameters:    Size  Location     Type
  9372 ;;		None
  9373 ;; Auto vars:     Size  Location     Type
  9374 ;;		None
  9375 ;; Return value:  Size  Location     Type
  9376 ;;                  1    wreg      void 
  9377 ;; Registers used:
  9378 ;;		wreg, fsr0l, fsr0h, status,2, status,0, pclath, cstack
  9379 ;; Tracked objects:
  9380 ;;		On entry : 0/0
  9381 ;;		On exit  : 0/0
  9382 ;;		Unchanged: 0/0
  9383 ;; Data sizes:     COMMON   BANK0   BANK1   BANK2   BANK3   BANK4   BANK5   BANK6   BANK7   BANK8   BANK9  BANK10  BANK1
      +1  BANK12  BANK13  BANK14  BANK15  BANK16  BANK17  BANK18  BANK19  BANK20  BANK21  BANK22  BANK23  BANK24  BANK25
  9384 ;;      Params:         0       0       0       0       0       0       0       0       0       0       0       0       
      +0       0       0       0       0       0       0       0       0       0       0       0       0       0       0
  9385 ;;      Locals:         0       0       0       0       0       0       0       0       0       0       0       0       
      +0       0       0       0       0       0       0       0       0       0       0       0       0       0       0
  9386 ;;      Temps:          0       0       0       0       0       0       0       0       0       0       0       0       
      +0       0       0       0       0       0       0       0       0       0       0       0       0       0       0
  9387 ;;      Totals:         0       0       0       0       0       0       0       0       0       0       0       0       
      +0       0       0       0       0       0       0       0       0       0       0       0       0       0       0
  9388 ;;Total ram usage:        0 bytes
  9389 ;; Hardware stack levels used:    1
  9390 ;; Hardware stack levels required when called:    4
  9391 ;; This function calls:
  9392 ;;		i1_LCDGoto
  9393 ;;		i1_LCDPutStr
  9394 ;;		i1_cleanFullMenu
  9395 ;;		i1_cleanMenu
  9396 ;;		i1_mainMenu
  9397 ;; This function is called by:
  9398 ;;		_IOCAF0_ISR
  9399 ;;		_IOCAF1_ISR
  9400 ;;		_IOCAF2_ISR
  9401 ;;		_IOCAF3_ISR
  9402 ;;		_IOCAF4_ISR
  9403 ;;		_startFight
  9404 ;; This function uses a non-reentrant model
  9405 ;;
  9406                           
  9407                           
  9408                           ;psect for function i1_printMenu
  9409  0E6D                     i1_printMenu:
  9410  0E6D                     i1l3854:	
  9411                           ;incstack = 0
  9412                           ; Regs used in i1_printMenu: [wreg-fsr0h+status,2+status,0+pclath+cstack]
  9413                           
  9414                           
  9415                           ;menu.c: 43:     if(inGame){
  9416  0E6D  0020               	movlb	0	; select bank0
  9417  0E6E  0840               	movf	_inGame,w
  9418  0E6F  1903               	btfsc	3,2
  9419  0E70  2E72               	goto	u305_21
  9420  0E71  2E73               	goto	u305_20
  9421  0E72                     u305_21:
  9422  0E72  2E84               	goto	i1l3862
  9423  0E73                     u305_20:
  9424  0E73                     i1l3856:
  9425                           
  9426                           ;menu.c: 44:         cleanMenu();
  9427  0E73  318E  2634  318E   	fcall	i1_cleanMenu
  9428  0E76                     i1l3858:
  9429                           
  9430                           ;menu.c: 45:         LCDGoto(lcdOffset, 0);
  9431  0E76  01F7               	clrf	i1LCDGoto@ln
  9432  0E77  0020               	movlb	0	; select bank0
  9433  0E78  0841               	movf	_lcdOffset,w
  9434  0E79  318F  27B1  318E   	fcall	i1_LCDGoto
  9435  0E7C                     i1l3860:
  9436                           
  9437                           ;menu.c: 46:         LCDPutStr("   Menu   ");
  9438  0E7C  3055               	movlw	low (STR_5| (0+32768))
  9439  0E7D  00F7               	movwf	i1LCDPutStr@str
  9440  0E7E  3090               	movlw	high (STR_5| (0+32768))
  9441  0E7F  00F8               	movwf	i1LCDPutStr@str+1
  9442  0E80  318F  278B  318E   	fcall	i1_LCDPutStr
  9443                           
  9444                           ;menu.c: 47:     }else {
  9445  0E83  2E8A               	goto	i1l421
  9446  0E84                     i1l3862:
  9447                           
  9448                           ;menu.c: 48:         cleanFullMenu();
  9449  0E84  318D  25E6  318E   	fcall	i1_cleanFullMenu
  9450                           
  9451                           ;menu.c: 49:         mainMenu();
  9452  0E87  3183  23CA  318E   	fcall	i1_mainMenu
  9453  0E8A                     i1l421:
  9454  0E8A  0008               	return
  9455  0E8B                     __end_ofi1_printMenu:
  9456                           
  9457                           	psect	text49
  9458  03CA                     __ptext49:	
  9459 ;; *************** function i1_mainMenu *****************
  9460 ;; Defined at:
  9461 ;;		line 53 in file "menu.c"
  9462 ;; Parameters:    Size  Location     Type
  9463 ;;		None
  9464 ;; Auto vars:     Size  Location     Type
  9465 ;;		None
  9466 ;; Return value:  Size  Location     Type
  9467 ;;                  1    wreg      void 
  9468 ;; Registers used:
  9469 ;;		wreg, fsr0l, fsr0h, status,2, status,0, pclath, cstack
  9470 ;; Tracked objects:
  9471 ;;		On entry : 0/0
  9472 ;;		On exit  : 0/0
  9473 ;;		Unchanged: 0/0
  9474 ;; Data sizes:     COMMON   BANK0   BANK1   BANK2   BANK3   BANK4   BANK5   BANK6   BANK7   BANK8   BANK9  BANK10  BANK1
      +1  BANK12  BANK13  BANK14  BANK15  BANK16  BANK17  BANK18  BANK19  BANK20  BANK21  BANK22  BANK23  BANK24  BANK25
  9475 ;;      Params:         0       0       0       0       0       0       0       0       0       0       0       0       
      +0       0       0       0       0       0       0       0       0       0       0       0       0       0       0
  9476 ;;      Locals:         0       0       0       0       0       0       0       0       0       0       0       0       
      +0       0       0       0       0       0       0       0       0       0       0       0       0       0       0
  9477 ;;      Temps:          0       2       0       0       0       0       0       0       0       0       0       0       
      +0       0       0       0       0       0       0       0       0       0       0       0       0       0       0
  9478 ;;      Totals:         0       2       0       0       0       0       0       0       0       0       0       0       
      +0       0       0       0       0       0       0       0       0       0       0       0       0       0       0
  9479 ;;Total ram usage:        2 bytes
  9480 ;; Hardware stack levels used:    1
  9481 ;; Hardware stack levels required when called:    3
  9482 ;; This function calls:
  9483 ;;		i1_LCDGoto
  9484 ;;		i1_LCDPutStr
  9485 ;; This function is called by:
  9486 ;;		i1_printMenu
  9487 ;; This function uses a non-reentrant model
  9488 ;;
  9489                           
  9490                           
  9491                           ;psect for function i1_mainMenu
  9492  03CA                     i1_mainMenu:
  9493  03CA                     i1l3802:	
  9494                           ;incstack = 0
  9495                           ; Regs used in i1_mainMenu: [wreg-fsr0h+status,2+status,0+pclath+cstack]
  9496                           
  9497                           
  9498                           ;menu.c: 63:     switch (mainState){
  9499  03CA  2C33               	goto	i1l3830
  9500  03CB                     i1l3804:
  9501                           
  9502                           ;menu.c: 65:             LCDGoto(0, 0);
  9503  03CB  01F7               	clrf	i1LCDGoto@ln
  9504  03CC  3000               	movlw	0
  9505  03CD  318F  27B1  3183   	fcall	i1_LCDGoto
  9506  03D0                     i1l3806:
  9507                           
  9508                           ;menu.c: 66:             LCDPutStr("Select ship#1");
  9509  03D0  3011               	movlw	low (STR_6| (0+32768))
  9510  03D1  00F7               	movwf	i1LCDPutStr@str
  9511  03D2  3090               	movlw	high (STR_6| (0+32768))
  9512  03D3  00F8               	movwf	i1LCDPutStr@str+1
  9513  03D4  318F  278B  3183   	fcall	i1_LCDPutStr
  9514  03D7                     i1l3808:
  9515                           
  9516                           ;menu.c: 67:             LCDGoto(0, 1);
  9517  03D7  01F7               	clrf	i1LCDGoto@ln
  9518  03D8  0AF7               	incf	i1LCDGoto@ln,f
  9519  03D9  3000               	movlw	0
  9520  03DA  318F  27B1  3183   	fcall	i1_LCDGoto
  9521                           
  9522                           ;menu.c: 68:             LCDPutStr("> Tie Fighter");
  9523  03DD  303B               	movlw	low (STR_7| (0+32768))
  9524  03DE  00F7               	movwf	i1LCDPutStr@str
  9525  03DF  3090               	movlw	high (STR_7| (0+32768))
  9526  03E0  00F8               	movwf	i1LCDPutStr@str+1
  9527  03E1  318F  278B  3183   	fcall	i1_LCDPutStr
  9528                           
  9529                           ;menu.c: 69:         break;
  9530  03E4  2C4A               	goto	i1l431
  9531  03E5                     i1l3810:
  9532                           
  9533                           ;menu.c: 71:             LCDGoto(0, 0);
  9534  03E5  01F7               	clrf	i1LCDGoto@ln
  9535  03E6  3000               	movlw	0
  9536  03E7  318F  27B1  3183   	fcall	i1_LCDGoto
  9537  03EA                     i1l3812:
  9538                           
  9539                           ;menu.c: 72:             LCDPutStr("  Tie Fighter");
  9540  03EA  302D               	movlw	low (STR_8| (0+32768))
  9541  03EB  00F7               	movwf	i1LCDPutStr@str
  9542  03EC  3090               	movlw	high (STR_8| (0+32768))
  9543  03ED  00F8               	movwf	i1LCDPutStr@str+1
  9544  03EE  318F  278B  3183   	fcall	i1_LCDPutStr
  9545  03F1                     i1l3814:
  9546                           
  9547                           ;menu.c: 73:             LCDGoto(0, 1);
  9548  03F1  01F7               	clrf	i1LCDGoto@ln
  9549  03F2  0AF7               	incf	i1LCDGoto@ln,f
  9550  03F3  3000               	movlw	0
  9551  03F4  318F  27B1  3183   	fcall	i1_LCDGoto
  9552                           
  9553                           ;menu.c: 74:             LCDPutStr("> X wing");
  9554  03F7  3060               	movlw	low (STR_9| (0+32768))
  9555  03F8  00F7               	movwf	i1LCDPutStr@str
  9556  03F9  3090               	movlw	high (STR_9| (0+32768))
  9557  03FA  00F8               	movwf	i1LCDPutStr@str+1
  9558  03FB  318F  278B  3183   	fcall	i1_LCDPutStr
  9559                           
  9560                           ;menu.c: 75:         break;
  9561  03FE  2C4A               	goto	i1l431
  9562  03FF                     i1l3816:
  9563                           
  9564                           ;menu.c: 77:             LCDGoto(0, 0);
  9565  03FF  01F7               	clrf	i1LCDGoto@ln
  9566  0400  3000               	movlw	0
  9567  0401  318F  27B1  3183   	fcall	i1_LCDGoto
  9568  0404                     i1l3818:
  9569                           
  9570                           ;menu.c: 78:             LCDPutStr("Select ship#2");
  9571  0404  301F               	movlw	low (STR_10| (0+32768))
  9572  0405  00F7               	movwf	i1LCDPutStr@str
  9573  0406  3090               	movlw	high (STR_10| (0+32768))
  9574  0407  00F8               	movwf	i1LCDPutStr@str+1
  9575  0408  318F  278B  3183   	fcall	i1_LCDPutStr
  9576  040B                     i1l3820:
  9577                           
  9578                           ;menu.c: 79:             LCDGoto(0, 1);
  9579  040B  01F7               	clrf	i1LCDGoto@ln
  9580  040C  0AF7               	incf	i1LCDGoto@ln,f
  9581  040D  3000               	movlw	0
  9582  040E  318F  27B1  3183   	fcall	i1_LCDGoto
  9583                           
  9584                           ;menu.c: 80:             LCDPutStr("> Tie Fighter");
  9585  0411  303B               	movlw	low (STR_7| (0+32768))
  9586  0412  00F7               	movwf	i1LCDPutStr@str
  9587  0413  3090               	movlw	high (STR_7| (0+32768))
  9588  0414  00F8               	movwf	i1LCDPutStr@str+1
  9589  0415  318F  278B  3183   	fcall	i1_LCDPutStr
  9590                           
  9591                           ;menu.c: 81:         break;
  9592  0418  2C4A               	goto	i1l431
  9593  0419                     i1l3822:
  9594                           
  9595                           ;menu.c: 83:             LCDGoto(0, 0);
  9596  0419  01F7               	clrf	i1LCDGoto@ln
  9597  041A  3000               	movlw	0
  9598  041B  318F  27B1  3183   	fcall	i1_LCDGoto
  9599  041E                     i1l3824:
  9600                           
  9601                           ;menu.c: 84:             LCDPutStr("  Tie Fighter");
  9602  041E  302D               	movlw	low (STR_8| (0+32768))
  9603  041F  00F7               	movwf	i1LCDPutStr@str
  9604  0420  3090               	movlw	high (STR_8| (0+32768))
  9605  0421  00F8               	movwf	i1LCDPutStr@str+1
  9606  0422  318F  278B  3183   	fcall	i1_LCDPutStr
  9607  0425                     i1l3826:
  9608                           
  9609                           ;menu.c: 85:             LCDGoto(0, 1);
  9610  0425  01F7               	clrf	i1LCDGoto@ln
  9611  0426  0AF7               	incf	i1LCDGoto@ln,f
  9612  0427  3000               	movlw	0
  9613  0428  318F  27B1  3183   	fcall	i1_LCDGoto
  9614                           
  9615                           ;menu.c: 86:             LCDPutStr("> X wing");
  9616  042B  3060               	movlw	low (STR_9| (0+32768))
  9617  042C  00F7               	movwf	i1LCDPutStr@str
  9618  042D  3090               	movlw	high (STR_9| (0+32768))
  9619  042E  00F8               	movwf	i1LCDPutStr@str+1
  9620  042F  318F  278B  3183   	fcall	i1_LCDPutStr
  9621                           
  9622                           ;menu.c: 87:         break;
  9623  0432  2C4A               	goto	i1l431
  9624  0433                     i1l3830:
  9625  0433  0020               	movlb	0	; select bank0
  9626  0434  083F               	movf	_mainState,w
  9627  0435  00A0               	movwf	??i1_mainMenu
  9628  0436  01A1               	clrf	??i1_mainMenu+1
  9629                           
  9630                           ; Switch on 2 bytes has been partitioned into a top level switch of size 1, and 1 sub-sw
      +                          itches
  9631                           ; Switch size 1, requested type "simple"
  9632                           ; Number of cases is 1, Range of values is 0 to 0
  9633                           ; switch strategies available:
  9634                           ; Name         Instructions Cycles
  9635                           ; simple_byte            4     3 (average)
  9636                           ; direct_byte            8     6 (fixed)
  9637                           ; jumptable            260     6 (fixed)
  9638                           ;	Chosen strategy is simple_byte
  9639  0437  0821               	movf	??i1_mainMenu+1,w
  9640  0438  3A00               	xorlw	0	; case 0
  9641  0439  1903               	skipnz
  9642  043A  2C3C               	goto	i1l5136
  9643  043B  2C4A               	goto	i1l431
  9644  043C                     i1l5136:
  9645                           
  9646                           ; Switch size 1, requested type "simple"
  9647                           ; Number of cases is 4, Range of values is 0 to 3
  9648                           ; switch strategies available:
  9649                           ; Name         Instructions Cycles
  9650                           ; simple_byte           13     7 (average)
  9651                           ; direct_byte           14     6 (fixed)
  9652                           ; jumptable            260     6 (fixed)
  9653                           ;	Chosen strategy is simple_byte
  9654  043C  0820               	movf	??i1_mainMenu,w
  9655  043D  3A00               	xorlw	0	; case 0
  9656  043E  1903               	skipnz
  9657  043F  2BCB               	goto	i1l3804
  9658  0440  3A01               	xorlw	1	; case 1
  9659  0441  1903               	skipnz
  9660  0442  2BE5               	goto	i1l3810
  9661  0443  3A03               	xorlw	3	; case 2
  9662  0444  1903               	skipnz
  9663  0445  2BFF               	goto	i1l3816
  9664  0446  3A01               	xorlw	1	; case 3
  9665  0447  1903               	skipnz
  9666  0448  2C19               	goto	i1l3822
  9667  0449  2C4A               	goto	i1l431
  9668  044A                     i1l431:
  9669  044A  0008               	return
  9670  044B                     __end_ofi1_mainMenu:
  9671                           
  9672                           	psect	text50
  9673  0E34                     __ptext50:	
  9674 ;; *************** function i1_cleanMenu *****************
  9675 ;; Defined at:
  9676 ;;		line 93 in file "menu.c"
  9677 ;; Parameters:    Size  Location     Type
  9678 ;;		None
  9679 ;; Auto vars:     Size  Location     Type
  9680 ;;		None
  9681 ;; Return value:  Size  Location     Type
  9682 ;;                  1    wreg      void 
  9683 ;; Registers used:
  9684 ;;		wreg, fsr0l, fsr0h, status,2, status,0, pclath, cstack
  9685 ;; Tracked objects:
  9686 ;;		On entry : 0/0
  9687 ;;		On exit  : 0/0
  9688 ;;		Unchanged: 0/0
  9689 ;; Data sizes:     COMMON   BANK0   BANK1   BANK2   BANK3   BANK4   BANK5   BANK6   BANK7   BANK8   BANK9  BANK10  BANK1
      +1  BANK12  BANK13  BANK14  BANK15  BANK16  BANK17  BANK18  BANK19  BANK20  BANK21  BANK22  BANK23  BANK24  BANK25
  9690 ;;      Params:         0       0       0       0       0       0       0       0       0       0       0       0       
      +0       0       0       0       0       0       0       0       0       0       0       0       0       0       0
  9691 ;;      Locals:         0       0       0       0       0       0       0       0       0       0       0       0       
      +0       0       0       0       0       0       0       0       0       0       0       0       0       0       0
  9692 ;;      Temps:          0       0       0       0       0       0       0       0       0       0       0       0       
      +0       0       0       0       0       0       0       0       0       0       0       0       0       0       0
  9693 ;;      Totals:         0       0       0       0       0       0       0       0       0       0       0       0       
      +0       0       0       0       0       0       0       0       0       0       0       0       0       0       0
  9694 ;;Total ram usage:        0 bytes
  9695 ;; Hardware stack levels used:    1
  9696 ;; Hardware stack levels required when called:    3
  9697 ;; This function calls:
  9698 ;;		i1_LCDGoto
  9699 ;;		i1_LCDPutStr
  9700 ;; This function is called by:
  9701 ;;		i1_printMenu
  9702 ;; This function uses a non-reentrant model
  9703 ;;
  9704                           
  9705                           
  9706                           ;psect for function i1_cleanMenu
  9707  0E34                     i1_cleanMenu:
  9708  0E34                     i1l2258:	
  9709                           ;incstack = 0
  9710                           ; Regs used in i1_cleanMenu: [wreg-fsr0h+status,2+status,0+pclath+cstack]
  9711                           
  9712                           
  9713                           ;menu.c: 104:         LCDGoto(lcdOffset, 0);
  9714  0E34  01F7               	clrf	i1LCDGoto@ln
  9715  0E35  0020               	movlb	0	; select bank0
  9716  0E36  0841               	movf	_lcdOffset,w
  9717  0E37  318F  27B1  318E   	fcall	i1_LCDGoto
  9718  0E3A                     i1l2260:
  9719                           
  9720                           ;menu.c: 105:         LCDPutStr("           ");
  9721  0E3A  3005               	movlw	low ((STR_1+5)| (0+32768))
  9722  0E3B  00F7               	movwf	i1LCDPutStr@str
  9723  0E3C  3090               	movlw	high ((STR_1+5)| (0+32768))
  9724  0E3D  00F8               	movwf	i1LCDPutStr@str+1
  9725  0E3E  318F  278B  318E   	fcall	i1_LCDPutStr
  9726  0E41                     i1l2262:
  9727                           
  9728                           ;menu.c: 106:         LCDGoto(lcdOffset, 1);
  9729  0E41  01F7               	clrf	i1LCDGoto@ln
  9730  0E42  0AF7               	incf	i1LCDGoto@ln,f
  9731  0E43  0020               	movlb	0	; select bank0
  9732  0E44  0841               	movf	_lcdOffset,w
  9733  0E45  318F  27B1  318E   	fcall	i1_LCDGoto
  9734                           
  9735                           ;menu.c: 107:         LCDPutStr("           ");
  9736  0E48  3005               	movlw	low ((STR_1+5)| (0+32768))
  9737  0E49  00F7               	movwf	i1LCDPutStr@str
  9738  0E4A  3090               	movlw	high ((STR_1+5)| (0+32768))
  9739  0E4B  00F8               	movwf	i1LCDPutStr@str+1
  9740  0E4C  318F  278B  318E   	fcall	i1_LCDPutStr
  9741  0E4F                     i1l434:
  9742  0E4F  0008               	return
  9743  0E50                     __end_ofi1_cleanMenu:
  9744                           
  9745                           	psect	text51
  9746  0DE6                     __ptext51:	
  9747 ;; *************** function i1_cleanFullMenu *****************
  9748 ;; Defined at:
  9749 ;;		line 134 in file "menu.c"
  9750 ;; Parameters:    Size  Location     Type
  9751 ;;		None
  9752 ;; Auto vars:     Size  Location     Type
  9753 ;;		None
  9754 ;; Return value:  Size  Location     Type
  9755 ;;                  1    wreg      void 
  9756 ;; Registers used:
  9757 ;;		wreg, fsr0l, fsr0h, status,2, status,0, pclath, cstack
  9758 ;; Tracked objects:
  9759 ;;		On entry : 0/0
  9760 ;;		On exit  : 0/0
  9761 ;;		Unchanged: 0/0
  9762 ;; Data sizes:     COMMON   BANK0   BANK1   BANK2   BANK3   BANK4   BANK5   BANK6   BANK7   BANK8   BANK9  BANK10  BANK1
      +1  BANK12  BANK13  BANK14  BANK15  BANK16  BANK17  BANK18  BANK19  BANK20  BANK21  BANK22  BANK23  BANK24  BANK25
  9763 ;;      Params:         0       0       0       0       0       0       0       0       0       0       0       0       
      +0       0       0       0       0       0       0       0       0       0       0       0       0       0       0
  9764 ;;      Locals:         0       0       0       0       0       0       0       0       0       0       0       0       
      +0       0       0       0       0       0       0       0       0       0       0       0       0       0       0
  9765 ;;      Temps:          0       0       0       0       0       0       0       0       0       0       0       0       
      +0       0       0       0       0       0       0       0       0       0       0       0       0       0       0
  9766 ;;      Totals:         0       0       0       0       0       0       0       0       0       0       0       0       
      +0       0       0       0       0       0       0       0       0       0       0       0       0       0       0
  9767 ;;Total ram usage:        0 bytes
  9768 ;; Hardware stack levels used:    1
  9769 ;; Hardware stack levels required when called:    3
  9770 ;; This function calls:
  9771 ;;		i1_LCDGoto
  9772 ;;		i1_LCDPutStr
  9773 ;; This function is called by:
  9774 ;;		_startFight
  9775 ;;		i1_printMenu
  9776 ;; This function uses a non-reentrant model
  9777 ;;
  9778                           
  9779                           
  9780                           ;psect for function i1_cleanFullMenu
  9781  0DE6                     i1_cleanFullMenu:
  9782  0DE6                     i1l2264:	
  9783                           ;incstack = 0
  9784                           ; Regs used in i1_cleanFullMenu: [wreg-fsr0h+status,2+status,0+pclath+cstack]
  9785                           
  9786                           
  9787                           ;menu.c: 144:         LCDGoto(0, 0);
  9788  0DE6  01F7               	clrf	i1LCDGoto@ln
  9789  0DE7  3000               	movlw	0
  9790  0DE8  318F  27B1  318D   	fcall	i1_LCDGoto
  9791  0DEB                     i1l2266:
  9792                           
  9793                           ;menu.c: 145:         LCDPutStr("                ");
  9794  0DEB  3000               	movlw	low (STR_1| (0+32768))
  9795  0DEC  00F7               	movwf	i1LCDPutStr@str
  9796  0DED  3090               	movlw	high (STR_1| (0+32768))
  9797  0DEE  00F8               	movwf	i1LCDPutStr@str+1
  9798  0DEF  318F  278B  318D   	fcall	i1_LCDPutStr
  9799  0DF2                     i1l2268:
  9800                           
  9801                           ;menu.c: 146:         LCDGoto(0, 1);
  9802  0DF2  01F7               	clrf	i1LCDGoto@ln
  9803  0DF3  0AF7               	incf	i1LCDGoto@ln,f
  9804  0DF4  3000               	movlw	0
  9805  0DF5  318F  27B1  318D   	fcall	i1_LCDGoto
  9806                           
  9807                           ;menu.c: 147:         LCDPutStr("                ");
  9808  0DF8  3000               	movlw	low (STR_1| (0+32768))
  9809  0DF9  00F7               	movwf	i1LCDPutStr@str
  9810  0DFA  3090               	movlw	high (STR_1| (0+32768))
  9811  0DFB  00F8               	movwf	i1LCDPutStr@str+1
  9812  0DFC  318F  278B  318D   	fcall	i1_LCDPutStr
  9813  0DFF                     i1l440:
  9814  0DFF  0008               	return
  9815  0E00                     __end_ofi1_cleanFullMenu:
  9816                           
  9817                           	psect	text52
  9818  0F8B                     __ptext52:	
  9819 ;; *************** function i1_LCDPutStr *****************
  9820 ;; Defined at:
  9821 ;;		line 131 in file "lcd.c"
  9822 ;; Parameters:    Size  Location     Type
  9823 ;;  str             2    7[COMMON] PTR const unsigned char 
  9824 ;;		 -> STR_36(2), STR_35(2), STR_34(2), STR_33(2), 
  9825 ;;		 -> STR_32(2), STR_31(2), STR_30(2), STR_29(2), 
  9826 ;;		 -> STR_28(2), STR_27(2), STR_26(2), STR_25(2), 
  9827 ;;		 -> STR_24(2), STR_23(2), STR_22(2), STR_21(2), 
  9828 ;;		 -> STR_20(2), STR_19(2), STR_18(17), STR_17(17), 
  9829 ;;		 -> STR_16(12), STR_15(12), STR_14(12), STR_13(9), 
  9830 ;;		 -> STR_12(14), STR_11(14), STR_10(14), STR_9(9), 
  9831 ;;		 -> STR_8(14), STR_7(14), STR_6(14), STR_5(11), 
  9832 ;;		 -> STR_4(2), STR_3(2), STR_2(17), STR_1(17), 
  9833 ;; Auto vars:     Size  Location     Type
  9834 ;;  i               1   12[COMMON] unsigned char 
  9835 ;; Return value:  Size  Location     Type
  9836 ;;                  1    wreg      void 
  9837 ;; Registers used:
  9838 ;;		wreg, fsr0l, fsr0h, status,2, status,0, pclath, cstack
  9839 ;; Tracked objects:
  9840 ;;		On entry : 0/0
  9841 ;;		On exit  : 0/0
  9842 ;;		Unchanged: 0/0
  9843 ;; Data sizes:     COMMON   BANK0   BANK1   BANK2   BANK3   BANK4   BANK5   BANK6   BANK7   BANK8   BANK9  BANK10  BANK1
      +1  BANK12  BANK13  BANK14  BANK15  BANK16  BANK17  BANK18  BANK19  BANK20  BANK21  BANK22  BANK23  BANK24  BANK25
  9844 ;;      Params:         2       0       0       0       0       0       0       0       0       0       0       0       
      +0       0       0       0       0       0       0       0       0       0       0       0       0       0       0
  9845 ;;      Locals:         1       0       0       0       0       0       0       0       0       0       0       0       
      +0       0       0       0       0       0       0       0       0       0       0       0       0       0       0
  9846 ;;      Temps:          3       0       0       0       0       0       0       0       0       0       0       0       
      +0       0       0       0       0       0       0       0       0       0       0       0       0       0       0
  9847 ;;      Totals:         6       0       0       0       0       0       0       0       0       0       0       0       
      +0       0       0       0       0       0       0       0       0       0       0       0       0       0       0
  9848 ;;Total ram usage:        6 bytes
  9849 ;; Hardware stack levels used:    1
  9850 ;; Hardware stack levels required when called:    2
  9851 ;; This function calls:
  9852 ;;		i1_LCDPutChar
  9853 ;; This function is called by:
  9854 ;;		_LCDClear
  9855 ;;		_startFight
  9856 ;;		i1_printMenu
  9857 ;;		i1_mainMenu
  9858 ;;		i1_cleanMenu
  9859 ;;		i1_cleanFullMenu
  9860 ;; This function uses a non-reentrant model
  9861 ;;
  9862                           
  9863                           
  9864                           ;psect for function i1_LCDPutStr
  9865  0F8B                     i1_LCDPutStr:
  9866  0F8B                     i1l2182:	
  9867                           ;incstack = 0
  9868                           ; Regs used in i1_LCDPutStr: [wreg-fsr0h+status,2+status,0+pclath+cstack]
  9869                           
  9870                           
  9871                           ;lcd.c: 131: void LCDPutStr(const char *str);lcd.c: 132: {;lcd.c: 133:   uint8_t i = 0;
  9872  0F8B  01FC               	clrf	i1LCDPutStr@i
  9873                           
  9874                           ;lcd.c: 136:   while (str[i])
  9875  0F8C  2FA0               	goto	i1l2188
  9876  0F8D                     i1l2184:
  9877                           
  9878                           ;lcd.c: 137:   {;lcd.c: 139:     LCDPutChar(str[i++]);
  9879  0F8D  0878               	movf	i1LCDPutStr@str+1,w
  9880  0F8E  00FA               	movwf	??i1_LCDPutStr+1
  9881  0F8F  0877               	movf	i1LCDPutStr@str,w
  9882  0F90  00F9               	movwf	??i1_LCDPutStr
  9883  0F91  087C               	movf	i1LCDPutStr@i,w
  9884  0F92  0779               	addwf	??i1_LCDPutStr,w
  9885  0F93  0084               	movwf	4
  9886  0F94  087A               	movf	??i1_LCDPutStr+1,w
  9887  0F95  1803               	skipnc
  9888  0F96  0A7A               	incf	??i1_LCDPutStr+1,w
  9889  0F97  0085               	movwf	5
  9890  0F98  0800               	movf	0,w	;code access
  9891  0F99  318E  2650  318F   	fcall	i1_LCDPutChar
  9892  0F9C                     i1l2186:
  9893  0F9C  3001               	movlw	1
  9894  0F9D  00F9               	movwf	??i1_LCDPutStr
  9895  0F9E  0879               	movf	??i1_LCDPutStr,w
  9896  0F9F  07FC               	addwf	i1LCDPutStr@i,f
  9897  0FA0                     i1l2188:
  9898                           
  9899                           ;lcd.c: 136:   while (str[i])
  9900  0FA0  0878               	movf	i1LCDPutStr@str+1,w
  9901  0FA1  00FA               	movwf	??i1_LCDPutStr+1
  9902  0FA2  0877               	movf	i1LCDPutStr@str,w
  9903  0FA3  00F9               	movwf	??i1_LCDPutStr
  9904  0FA4  087C               	movf	i1LCDPutStr@i,w
  9905  0FA5  0779               	addwf	??i1_LCDPutStr,w
  9906  0FA6  0084               	movwf	4
  9907  0FA7  087A               	movf	??i1_LCDPutStr+1,w
  9908  0FA8  1803               	skipnc
  9909  0FA9  0A7A               	incf	??i1_LCDPutStr+1,w
  9910  0FAA  0085               	movwf	5
  9911  0FAB  0012               	moviw fsr0++
  9912  0FAC  1D03               	btfss	3,2
  9913  0FAD  2FAF               	goto	u109_21
  9914  0FAE  2FB0               	goto	u109_20
  9915  0FAF                     u109_21:
  9916  0FAF  2F8D               	goto	i1l2184
  9917  0FB0                     u109_20:
  9918  0FB0                     i1l304:
  9919  0FB0  0008               	return
  9920  0FB1                     __end_ofi1_LCDPutStr:
  9921                           
  9922                           	psect	text53
  9923  0E50                     __ptext53:	
  9924 ;; *************** function i1_LCDPutChar *****************
  9925 ;; Defined at:
  9926 ;;		line 101 in file "lcd.c"
  9927 ;; Parameters:    Size  Location     Type
  9928 ;;  ch              1    wreg     unsigned char 
  9929 ;; Auto vars:     Size  Location     Type
  9930 ;;  ch              1    6[COMMON] unsigned char 
  9931 ;; Return value:  Size  Location     Type
  9932 ;;                  1    wreg      void 
  9933 ;; Registers used:
  9934 ;;		wreg, status,2, status,0, pclath, cstack
  9935 ;; Tracked objects:
  9936 ;;		On entry : 0/0
  9937 ;;		On exit  : 0/0
  9938 ;;		Unchanged: 0/0
  9939 ;; Data sizes:     COMMON   BANK0   BANK1   BANK2   BANK3   BANK4   BANK5   BANK6   BANK7   BANK8   BANK9  BANK10  BANK1
      +1  BANK12  BANK13  BANK14  BANK15  BANK16  BANK17  BANK18  BANK19  BANK20  BANK21  BANK22  BANK23  BANK24  BANK25
  9940 ;;      Params:         0       0       0       0       0       0       0       0       0       0       0       0       
      +0       0       0       0       0       0       0       0       0       0       0       0       0       0       0
  9941 ;;      Locals:         1       0       0       0       0       0       0       0       0       0       0       0       
      +0       0       0       0       0       0       0       0       0       0       0       0       0       0       0
  9942 ;;      Temps:          2       0       0       0       0       0       0       0       0       0       0       0       
      +0       0       0       0       0       0       0       0       0       0       0       0       0       0       0
  9943 ;;      Totals:         3       0       0       0       0       0       0       0       0       0       0       0       
      +0       0       0       0       0       0       0       0       0       0       0       0       0       0       0
  9944 ;;Total ram usage:        3 bytes
  9945 ;; Hardware stack levels used:    1
  9946 ;; Hardware stack levels required when called:    1
  9947 ;; This function calls:
  9948 ;;		i1_LCDWriteNibble
  9949 ;; This function is called by:
  9950 ;;		_printShip
  9951 ;;		i1_LCDPutStr
  9952 ;; This function uses a non-reentrant model
  9953 ;;
  9954                           
  9955                           
  9956                           ;psect for function i1_LCDPutChar
  9957  0E50                     i1_LCDPutChar:
  9958                           
  9959                           ;incstack = 0
  9960                           ; Regs used in i1_LCDPutChar: [wreg+status,2+status,0+pclath+cstack]
  9961                           ;i1LCDPutChar@ch stored from wreg
  9962  0E50  00F6               	movwf	i1LCDPutChar@ch
  9963  0E51                     i1l2164:
  9964                           
  9965                           ;lcd.c: 101: void LCDPutChar(uint8_t ch);lcd.c: 102: {;lcd.c: 103:   _delay((unsigned lo
      +                          ng)((5)*(500000/4000.0)));
  9966  0E51  30D0               	movlw	208
  9967  0E52                     u380_27:
  9968  0E52  0B89               	decfsz	9,f
  9969  0E53  2E52               	goto	u380_27
  9970  0E54  0000               	nop
  9971  0E55                     i1l2166:
  9972                           
  9973                           ;lcd.c: 106:   LCDWriteNibble(ch, 1);
  9974  0E55  01F0               	clrf	i1LCDWriteNibble@rs
  9975  0E56  0AF0               	incf	i1LCDWriteNibble@rs,f
  9976  0E57  0876               	movf	i1LCDPutChar@ch,w
  9977  0E58  318F  2705  318E   	fcall	i1_LCDWriteNibble
  9978  0E5B                     i1l2168:
  9979                           
  9980                           ;lcd.c: 109:   ch = (uint8_t)(ch << 4);
  9981  0E5B  0876               	movf	i1LCDPutChar@ch,w
  9982  0E5C  00F4               	movwf	??i1_LCDPutChar
  9983  0E5D  3003               	movlw	3
  9984  0E5E                     u107_25:
  9985  0E5E  35F4               	lslf	??i1_LCDPutChar,f
  9986  0E5F  3EFF               	addlw	-1
  9987  0E60  1D03               	skipz
  9988  0E61  2E5E               	goto	u107_25
  9989  0E62  3574               	lslf	??i1_LCDPutChar,w
  9990  0E63  00F5               	movwf	??i1_LCDPutChar+1
  9991  0E64  0875               	movf	??i1_LCDPutChar+1,w
  9992  0E65  00F6               	movwf	i1LCDPutChar@ch
  9993  0E66                     i1l2170:
  9994                           
  9995                           ;lcd.c: 112:   LCDWriteNibble(ch, 1);
  9996  0E66  01F0               	clrf	i1LCDWriteNibble@rs
  9997  0E67  0AF0               	incf	i1LCDWriteNibble@rs,f
  9998  0E68  0876               	movf	i1LCDPutChar@ch,w
  9999  0E69  318F  2705  318E   	fcall	i1_LCDWriteNibble
 10000  0E6C                     i1l295:
 10001  0E6C  0008               	return
 10002  0E6D                     __end_ofi1_LCDPutChar:
 10003                           
 10004                           	psect	text54
 10005  0FB1                     __ptext54:	
 10006 ;; *************** function i1_LCDGoto *****************
 10007 ;; Defined at:
 10008 ;;		line 143 in file "lcd.c"
 10009 ;; Parameters:    Size  Location     Type
 10010 ;;  pos             1    wreg     unsigned char 
 10011 ;;  ln              1    7[COMMON] unsigned char 
 10012 ;; Auto vars:     Size  Location     Type
 10013 ;;  pos             1   10[COMMON] unsigned char 
 10014 ;; Return value:  Size  Location     Type
 10015 ;;                  1    wreg      void 
 10016 ;; Registers used:
 10017 ;;		wreg, status,2, status,0, pclath, cstack
 10018 ;; Tracked objects:
 10019 ;;		On entry : 0/0
 10020 ;;		On exit  : 0/0
 10021 ;;		Unchanged: 0/0
 10022 ;; Data sizes:     COMMON   BANK0   BANK1   BANK2   BANK3   BANK4   BANK5   BANK6   BANK7   BANK8   BANK9  BANK10  BANK1
      +1  BANK12  BANK13  BANK14  BANK15  BANK16  BANK17  BANK18  BANK19  BANK20  BANK21  BANK22  BANK23  BANK24  BANK25
 10023 ;;      Params:         1       0       0       0       0       0       0       0       0       0       0       0       
      +0       0       0       0       0       0       0       0       0       0       0       0       0       0       0
 10024 ;;      Locals:         3       0       0       0       0       0       0       0       0       0       0       0       
      +0       0       0       0       0       0       0       0       0       0       0       0       0       0       0
 10025 ;;      Temps:          0       0       0       0       0       0       0       0       0       0       0       0       
      +0       0       0       0       0       0       0       0       0       0       0       0       0       0       0
 10026 ;;      Totals:         4       0       0       0       0       0       0       0       0       0       0       0       
      +0       0       0       0       0       0       0       0       0       0       0       0       0       0       0
 10027 ;;Total ram usage:        4 bytes
 10028 ;; Hardware stack levels used:    1
 10029 ;; Hardware stack levels required when called:    2
 10030 ;; This function calls:
 10031 ;;		i1_LCDPutCmd
 10032 ;; This function is called by:
 10033 ;;		_LCDClear
 10034 ;;		_startFight
 10035 ;;		_printShip
 10036 ;;		i1_printMenu
 10037 ;;		i1_mainMenu
 10038 ;;		i1_cleanMenu
 10039 ;;		i1_cleanFullMenu
 10040 ;; This function uses a non-reentrant model
 10041 ;;
 10042                           
 10043                           
 10044                           ;psect for function i1_LCDGoto
 10045  0FB1                     i1_LCDGoto:
 10046                           
 10047                           ;incstack = 0
 10048                           ; Regs used in i1_LCDGoto: [wreg+status,2+status,0+pclath+cstack]
 10049                           ;i1LCDGoto@pos stored from wreg
 10050  0FB1  00FA               	movwf	i1LCDGoto@pos
 10051  0FB2                     i1l2190:
 10052                           
 10053                           ;lcd.c: 143: void LCDGoto(uint8_t pos, uint8_t ln);lcd.c: 144: {;lcd.c: 146:   if ((ln >
      +                           (2 - 1)) || (pos > (16 - 1)))
 10054  0FB2  3002               	movlw	2
 10055  0FB3  0277               	subwf	i1LCDGoto@ln,w
 10056  0FB4  1803               	skipnc
 10057  0FB5  2FB7               	goto	u110_21
 10058  0FB6  2FB8               	goto	u110_20
 10059  0FB7                     u110_21:
 10060  0FB7  2FD7               	goto	i1l310
 10061  0FB8                     u110_20:
 10062  0FB8                     i1l2192:
 10063  0FB8  3010               	movlw	16
 10064  0FB9  027A               	subwf	i1LCDGoto@pos,w
 10065  0FBA  1C03               	skipc
 10066  0FBB  2FBD               	goto	u111_21
 10067  0FBC  2FBE               	goto	u111_20
 10068  0FBD                     u111_21:
 10069  0FBD  2FBF               	goto	i1l2194
 10070  0FBE                     u111_20:
 10071  0FBE  2FD7               	goto	i1l310
 10072  0FBF                     i1l2194:
 10073                           
 10074                           ;lcd.c: 153:   LCDPutCmd((ln == 1) ? (0xC0 | pos) : (0x80 | pos));
 10075  0FBF  0377               	decf	i1LCDGoto@ln,w
 10076  0FC0  1903               	btfsc	3,2
 10077  0FC1  2FC3               	goto	u112_21
 10078  0FC2  2FC4               	goto	u112_20
 10079  0FC3                     u112_21:
 10080  0FC3  2FCA               	goto	i1l2198
 10081  0FC4                     u112_20:
 10082  0FC4                     i1l2196:
 10083  0FC4  3080               	movlw	128
 10084  0FC5  047A               	iorwf	i1LCDGoto@pos,w
 10085  0FC6  00F8               	movwf	i1_LCDGoto$493
 10086  0FC7  3000               	movlw	0
 10087  0FC8  00F9               	movwf	i1_LCDGoto$493+1
 10088  0FC9  2FCF               	goto	i1l2200
 10089  0FCA                     i1l2198:
 10090  0FCA  30C0               	movlw	192
 10091  0FCB  047A               	iorwf	i1LCDGoto@pos,w
 10092  0FCC  00F8               	movwf	i1_LCDGoto$493
 10093  0FCD  3000               	movlw	0
 10094  0FCE  00F9               	movwf	i1_LCDGoto$493+1
 10095  0FCF                     i1l2200:
 10096  0FCF  0878               	movf	i1_LCDGoto$493,w
 10097  0FD0  318E  26C7  318F   	fcall	i1_LCDPutCmd
 10098  0FD3                     i1l2202:
 10099                           
 10100                           ;lcd.c: 156:   _delay((unsigned long)((5)*(500000/4000.0)));
 10101  0FD3  30D0               	movlw	208
 10102  0FD4                     u381_27:
 10103  0FD4  0B89               	decfsz	9,f
 10104  0FD5  2FD4               	goto	u381_27
 10105  0FD6  0000               	nop
 10106  0FD7                     i1l310:
 10107  0FD7  0008               	return
 10108  0FD8                     __end_ofi1_LCDGoto:
 10109                           
 10110                           	psect	text55
 10111  0EC7                     __ptext55:	
 10112 ;; *************** function i1_LCDPutCmd *****************
 10113 ;; Defined at:
 10114 ;;		line 115 in file "lcd.c"
 10115 ;; Parameters:    Size  Location     Type
 10116 ;;  ch              1    wreg     unsigned char 
 10117 ;; Auto vars:     Size  Location     Type
 10118 ;;  ch              1    6[COMMON] unsigned char 
 10119 ;; Return value:  Size  Location     Type
 10120 ;;                  1    wreg      void 
 10121 ;; Registers used:
 10122 ;;		wreg, status,2, status,0, pclath, cstack
 10123 ;; Tracked objects:
 10124 ;;		On entry : 0/0
 10125 ;;		On exit  : 0/0
 10126 ;;		Unchanged: 0/0
 10127 ;; Data sizes:     COMMON   BANK0   BANK1   BANK2   BANK3   BANK4   BANK5   BANK6   BANK7   BANK8   BANK9  BANK10  BANK1
      +1  BANK12  BANK13  BANK14  BANK15  BANK16  BANK17  BANK18  BANK19  BANK20  BANK21  BANK22  BANK23  BANK24  BANK25
 10128 ;;      Params:         0       0       0       0       0       0       0       0       0       0       0       0       
      +0       0       0       0       0       0       0       0       0       0       0       0       0       0       0
 10129 ;;      Locals:         1       0       0       0       0       0       0       0       0       0       0       0       
      +0       0       0       0       0       0       0       0       0       0       0       0       0       0       0
 10130 ;;      Temps:          2       0       0       0       0       0       0       0       0       0       0       0       
      +0       0       0       0       0       0       0       0       0       0       0       0       0       0       0
 10131 ;;      Totals:         3       0       0       0       0       0       0       0       0       0       0       0       
      +0       0       0       0       0       0       0       0       0       0       0       0       0       0       0
 10132 ;;Total ram usage:        3 bytes
 10133 ;; Hardware stack levels used:    1
 10134 ;; Hardware stack levels required when called:    1
 10135 ;; This function calls:
 10136 ;;		i1_LCDWriteNibble
 10137 ;; This function is called by:
 10138 ;;		i1_LCDGoto
 10139 ;; This function uses a non-reentrant model
 10140 ;;
 10141                           
 10142                           
 10143                           ;psect for function i1_LCDPutCmd
 10144  0EC7                     i1_LCDPutCmd:
 10145                           
 10146                           ;incstack = 0
 10147                           ; Regs used in i1_LCDPutCmd: [wreg+status,2+status,0+pclath+cstack]
 10148                           ;i1LCDPutCmd@ch stored from wreg
 10149  0EC7  00F6               	movwf	i1LCDPutCmd@ch
 10150  0EC8                     i1l2172:
 10151                           
 10152                           ;lcd.c: 115: void LCDPutCmd(uint8_t ch);lcd.c: 116: {;lcd.c: 117:   _delay((unsigned lon
      +                          g)((5)*(500000/4000.0)));
 10153  0EC8  30D0               	movlw	208
 10154  0EC9                     u382_27:
 10155  0EC9  0B89               	decfsz	9,f
 10156  0ECA  2EC9               	goto	u382_27
 10157  0ECB  0000               	nop
 10158  0ECC                     i1l2174:
 10159                           
 10160                           ;lcd.c: 120:   LCDWriteNibble(ch, 0);
 10161  0ECC  01F0               	clrf	i1LCDWriteNibble@rs
 10162  0ECD  0876               	movf	i1LCDPutCmd@ch,w
 10163  0ECE  318F  2705  318E   	fcall	i1_LCDWriteNibble
 10164  0ED1                     i1l2176:
 10165                           
 10166                           ;lcd.c: 123:   ch = (uint8_t)(ch << 4);
 10167  0ED1  0876               	movf	i1LCDPutCmd@ch,w
 10168  0ED2  00F4               	movwf	??i1_LCDPutCmd
 10169  0ED3  3003               	movlw	3
 10170  0ED4                     u108_25:
 10171  0ED4  35F4               	lslf	??i1_LCDPutCmd,f
 10172  0ED5  3EFF               	addlw	-1
 10173  0ED6  1D03               	skipz
 10174  0ED7  2ED4               	goto	u108_25
 10175  0ED8  3574               	lslf	??i1_LCDPutCmd,w
 10176  0ED9  00F5               	movwf	??i1_LCDPutCmd+1
 10177  0EDA  0875               	movf	??i1_LCDPutCmd+1,w
 10178  0EDB  00F6               	movwf	i1LCDPutCmd@ch
 10179  0EDC                     i1l2178:
 10180                           
 10181                           ;lcd.c: 125:   _delay((unsigned long)((1)*(500000/4000.0)));
 10182  0EDC  3029               	movlw	41
 10183  0EDD                     u383_27:
 10184  0EDD  0B89               	decfsz	9,f
 10185  0EDE  2EDD               	goto	u383_27
 10186  0EDF  3200               	nop2
 10187  0EE0                     i1l2180:
 10188                           
 10189                           ;lcd.c: 128:   LCDWriteNibble(ch, 0);
 10190  0EE0  01F0               	clrf	i1LCDWriteNibble@rs
 10191  0EE1  0876               	movf	i1LCDPutCmd@ch,w
 10192  0EE2  318F  2705  318E   	fcall	i1_LCDWriteNibble
 10193  0EE5                     i1l298:
 10194  0EE5  0008               	return
 10195  0EE6                     __end_ofi1_LCDPutCmd:
 10196                           
 10197                           	psect	text56
 10198  0F05                     __ptext56:	
 10199 ;; *************** function i1_LCDWriteNibble *****************
 10200 ;; Defined at:
 10201 ;;		line 74 in file "lcd.c"
 10202 ;; Parameters:    Size  Location     Type
 10203 ;;  ch              1    wreg     unsigned char 
 10204 ;;  rs              1    0[COMMON] unsigned char 
 10205 ;; Auto vars:     Size  Location     Type
 10206 ;;  ch              1    3[COMMON] unsigned char 
 10207 ;; Return value:  Size  Location     Type
 10208 ;;                  1    wreg      void 
 10209 ;; Registers used:
 10210 ;;		wreg, status,2, status,0
 10211 ;; Tracked objects:
 10212 ;;		On entry : 0/0
 10213 ;;		On exit  : 0/0
 10214 ;;		Unchanged: 0/0
 10215 ;; Data sizes:     COMMON   BANK0   BANK1   BANK2   BANK3   BANK4   BANK5   BANK6   BANK7   BANK8   BANK9  BANK10  BANK1
      +1  BANK12  BANK13  BANK14  BANK15  BANK16  BANK17  BANK18  BANK19  BANK20  BANK21  BANK22  BANK23  BANK24  BANK25
 10216 ;;      Params:         1       0       0       0       0       0       0       0       0       0       0       0       
      +0       0       0       0       0       0       0       0       0       0       0       0       0       0       0
 10217 ;;      Locals:         1       0       0       0       0       0       0       0       0       0       0       0       
      +0       0       0       0       0       0       0       0       0       0       0       0       0       0       0
 10218 ;;      Temps:          2       0       0       0       0       0       0       0       0       0       0       0       
      +0       0       0       0       0       0       0       0       0       0       0       0       0       0       0
 10219 ;;      Totals:         4       0       0       0       0       0       0       0       0       0       0       0       
      +0       0       0       0       0       0       0       0       0       0       0       0       0       0       0
 10220 ;;Total ram usage:        4 bytes
 10221 ;; Hardware stack levels used:    1
 10222 ;; This function calls:
 10223 ;;		Nothing
 10224 ;; This function is called by:
 10225 ;;		i1_LCDPutChar
 10226 ;;		i1_LCDPutCmd
 10227 ;; This function uses a non-reentrant model
 10228 ;;
 10229                           
 10230                           
 10231                           ;psect for function i1_LCDWriteNibble
 10232  0F05                     i1_LCDWriteNibble:
 10233                           
 10234                           ;incstack = 0
 10235                           ; Regs used in i1_LCDWriteNibble: [wreg+status,2+status,0]
 10236                           ;i1LCDWriteNibble@ch stored from wreg
 10237  0F05  00F3               	movwf	i1LCDWriteNibble@ch
 10238  0F06                     i1l2150:
 10239                           
 10240                           ;lcd.c: 74: void LCDWriteNibble(uint8_t ch, uint8_t rs);lcd.c: 75: {;lcd.c: 77:   ch = (
      +                          ch >> 4);
 10241  0F06  0873               	movf	i1LCDWriteNibble@ch,w
 10242  0F07  00F1               	movwf	??i1_LCDWriteNibble
 10243  0F08  3004               	movlw	4
 10244  0F09                     u106_25:
 10245  0F09  36F1               	lsrf	??i1_LCDWriteNibble,f
 10246  0F0A  0B89               	decfsz	9,f
 10247  0F0B  2F09               	goto	u106_25
 10248  0F0C  0871               	movf	??i1_LCDWriteNibble,w
 10249  0F0D  00F2               	movwf	??i1_LCDWriteNibble+1
 10250  0F0E  0872               	movf	??i1_LCDWriteNibble+1,w
 10251  0F0F  00F3               	movwf	i1LCDWriteNibble@ch
 10252  0F10                     i1l2152:
 10253                           
 10254                           ;lcd.c: 80:   ch = (ch & 0x0F);
 10255  0F10  0873               	movf	i1LCDWriteNibble@ch,w
 10256  0F11  390F               	andlw	15
 10257  0F12  00F1               	movwf	??i1_LCDWriteNibble
 10258  0F13  0871               	movf	??i1_LCDWriteNibble,w
 10259  0F14  00F3               	movwf	i1LCDWriteNibble@ch
 10260  0F15                     i1l2154:
 10261                           
 10262                           ;lcd.c: 83:   PORTB = (PORTB & 0xF0);
 10263  0F15  0020               	movlb	0	; select bank0
 10264  0F16  080D               	movf	13,w	;volatile
 10265  0F17  39F0               	andlw	240
 10266  0F18  008D               	movwf	13	;volatile
 10267                           
 10268                           ;lcd.c: 86:   PORTB = (PORTB | ch);
 10269  0F19  080D               	movf	13,w	;volatile
 10270  0F1A  0473               	iorwf	i1LCDWriteNibble@ch,w
 10271  0F1B  008D               	movwf	13	;volatile
 10272  0F1C                     i1l2156:
 10273                           
 10274                           ;lcd.c: 89:   PORTBbits.RB5 = rs;
 10275  0F1C  0C70               	rrf	i1LCDWriteNibble@rs,w
 10276  0F1D  1C03               	skipc
 10277  0F1E  128D               	bcf	13,5	;volatile
 10278  0F1F  1803               	skipnc
 10279  0F20  168D               	bsf	13,5	;volatile
 10280  0F21                     i1l2158:
 10281                           
 10282                           ;lcd.c: 92:   PORTBbits.RB6 = 0;
 10283  0F21  130D               	bcf	13,6	;volatile
 10284  0F22                     i1l2160:
 10285                           
 10286                           ;lcd.c: 95:   PORTBbits.RB4 = 1;
 10287  0F22  160D               	bsf	13,4	;volatile
 10288  0F23                     i1l2162:
 10289                           
 10290                           ;lcd.c: 98:   PORTBbits.RB4 = 0;
 10291  0F23  120D               	bcf	13,4	;volatile
 10292  0F24                     i1l292:
 10293  0F24  0008               	return
 10294  0F25                     __end_ofi1_LCDWriteNibble:
 10295                           
 10296                           	psect	text57
 10297  0D3C                     __ptext57:	
 10298 ;; *************** function _IOCAF0_DefaultInterruptHandler *****************
 10299 ;; Defined at:
 10300 ;;		line 251 in file "mcc_generated_files/pin_manager.c"
 10301 ;; Parameters:    Size  Location     Type
 10302 ;;		None
 10303 ;; Auto vars:     Size  Location     Type
 10304 ;;		None
 10305 ;; Return value:  Size  Location     Type
 10306 ;;                  1    wreg      void 
 10307 ;; Registers used:
 10308 ;;		None
 10309 ;; Tracked objects:
 10310 ;;		On entry : 0/0
 10311 ;;		On exit  : 0/0
 10312 ;;		Unchanged: 0/0
 10313 ;; Data sizes:     COMMON   BANK0   BANK1   BANK2   BANK3   BANK4   BANK5   BANK6   BANK7   BANK8   BANK9  BANK10  BANK1
      +1  BANK12  BANK13  BANK14  BANK15  BANK16  BANK17  BANK18  BANK19  BANK20  BANK21  BANK22  BANK23  BANK24  BANK25
 10314 ;;      Params:         0       0       0       0       0       0       0       0       0       0       0       0       
      +0       0       0       0       0       0       0       0       0       0       0       0       0       0       0
 10315 ;;      Locals:         0       0       0       0       0       0       0       0       0       0       0       0       
      +0       0       0       0       0       0       0       0       0       0       0       0       0       0       0
 10316 ;;      Temps:          0       0       0       0       0       0       0       0       0       0       0       0       
      +0       0       0       0       0       0       0       0       0       0       0       0       0       0       0
 10317 ;;      Totals:         0       0       0       0       0       0       0       0       0       0       0       0       
      +0       0       0       0       0       0       0       0       0       0       0       0       0       0       0
 10318 ;;Total ram usage:        0 bytes
 10319 ;; Hardware stack levels used:    1
 10320 ;; This function calls:
 10321 ;;		Nothing
 10322 ;; This function is called by:
 10323 ;;		_PIN_MANAGER_Initialize
 10324 ;;		_IOCAF0_ISR
 10325 ;; This function uses a non-reentrant model
 10326 ;;
 10327                           
 10328                           
 10329                           ;psect for function _IOCAF0_DefaultInterruptHandler
 10330  0D3C                     _IOCAF0_DefaultInterruptHandler:
 10331  0D3C                     i1l151:	
 10332                           ;incstack = 0
 10333                           ; Regs used in _IOCAF0_DefaultInterruptHandler: []
 10334                           
 10335  0D3C  0008               	return
 10336  0D3D                     __end_of_IOCAF0_DefaultInterruptHandler:
 10337  007E                     btemp	set	126	;btemp
 10338  007E                     int$flags	set	126
 10339  007E                     wtemp0	set	126
 10340                           
 10341                           	psect	config
 10342                           
 10343                           ;Config register CONFIG1 @ 0x8007
 10344                           ;	Oscillator Selection Bits
 10345                           ;	FOSC = INTOSC, INTOSC oscillator: I/O function on CLKIN pin
 10346                           ;	Watchdog Timer Enable
 10347                           ;	WDTE = OFF, WDT disabled
 10348                           ;	Power-up Timer Enable
 10349                           ;	PWRTE = OFF, PWRT disabled
 10350                           ;	MCLR Pin Function Select
 10351                           ;	MCLRE = ON, MCLR/VPP pin function is MCLR
 10352                           ;	Flash Program Memory Code Protection
 10353                           ;	CP = OFF, Program memory code protection is disabled
 10354                           ;	Brown-out Reset Enable
 10355                           ;	BOREN = ON, Brown-out Reset enabled
 10356                           ;	Clock Out Enable
 10357                           ;	CLKOUTEN = OFF, CLKOUT function is disabled. I/O or oscillator function on the CLKOUT 
      +                          pin
 10358                           ;	Internal/External Switchover Mode
 10359                           ;	IESO = ON, Internal/External Switchover Mode is enabled
 10360                           ;	Fail-Safe Clock Monitor Enable
 10361                           ;	FCMEN = ON, Fail-Safe Clock Monitor is enabled
 10362  8007                     	org	32775
 10363  8007  3FE4               	dw	16356
 10364                           
 10365                           ;Config register CONFIG2 @ 0x8008
 10366                           ;	Flash Memory Self-Write Protection
 10367                           ;	WRT = OFF, Write protection off
 10368                           ;	Peripheral Pin Select one-way control
 10369                           ;	PPS1WAY = ON, The PPSLOCK bit cannot be cleared once it is set by software
 10370                           ;	Zero-cross detect disable
 10371                           ;	ZCDDIS = ON, Zero-cross detect circuit is disabled at POR and can be enabled with ZCDS
      +                          EN bit.
 10372                           ;	Phase Lock Loop enable
 10373                           ;	PLLEN = ON, 4x PLL is always enabled
 10374                           ;	Stack Overflow/Underflow Reset Enable
 10375                           ;	STVREN = ON, Stack Overflow or Underflow will cause a Reset
 10376                           ;	Brown-out Reset Voltage Selection
 10377                           ;	BORV = LO, Brown-out Reset Voltage (Vbor), low trip point selected.
 10378                           ;	Low-Power Brown Out Reset
 10379                           ;	LPBOR = OFF, Low-Power BOR is disabled
 10380                           ;	Low-Voltage Programming Enable
 10381                           ;	LVP = OFF, High-voltage on MCLR/VPP must be used for programming
 10382  8008                     	org	32776
 10383  8008  1FFF               	dw	8191

Data Sizes:
    Strings     105
    Constant    0
    Data        133
    BSS         12
    Persistent  47
    Stack       0

Auto Spaces:
    Space          Size  Autos    Used
    COMMON           14     14      14
    BANK0            80     24      34
    BANK1            80      0      78
    BANK2            80      0      72
    BANK3            80     48      48
    BANK4            80      0       0
    BANK5            80      0       0
    BANK6            80      0       0
    BANK7            80      0       0
    BANK8            80      0       0
    BANK9            80      0       0
    BANK10           80      0       0
    BANK11           80      0       0
    BANK12           80      0       0
    BANK13           80      0       0
    BANK14           80      0       0
    BANK15           80      0       0
    BANK16           80      0       0
    BANK17           80      0       0
    BANK18           80      0       0
    BANK19           80      0       0
    BANK20           80      0       0
    BANK21           80      0       0
    BANK22           80      0       0
    BANK23           80      0       0
    BANK24           80      0       0
    BANK25           32      0       0

Pointer List with Targets:

    TMR0_SetInterruptHandler@InterruptHandler	PTR FTN()void  size(2) Largest target is 1
		 -> TMR0_DefaultInterruptHandler(), 

    TMR0_InterruptHandler	PTR FTN()void  size(2) Largest target is 1
		 -> TMR0_DefaultInterruptHandler(), Absolute function(), 

    createCustomCharacter@Pattern	PTR unsigned char  size(2) Largest target is 8
		 -> printShield@shield22(COMMON[8]), printShield@shield21(COMMON[8]), printShield@shield12(COMMON[8]), printShield@shield11(COMMON[8]), 
		 -> printHeart@heart23(COMMON[8]), printHeart@heart22(COMMON[8]), printHeart@heart21(COMMON[8]), printHeart@heart13(COMMON[8]), 
		 -> printHeart@heart12(COMMON[8]), printHeart@heart11(COMMON[8]), main@Pattern8(BANK3[8]), main@Pattern5(BANK3[8]), 
		 -> main@Pattern4(BANK3[8]), main@Pattern3(BANK3[8]), main@Pattern2(BANK3[8]), main@Pattern1(BANK3[8]), 

    LCDPutStr@str	PTR const unsigned char  size(2) Largest target is 17
		 -> STR_36(CODE[2]), STR_35(CODE[2]), STR_34(CODE[2]), STR_33(CODE[2]), 
		 -> STR_32(CODE[2]), STR_31(CODE[2]), STR_30(CODE[2]), STR_29(CODE[2]), 
		 -> STR_28(CODE[2]), STR_27(CODE[2]), STR_26(CODE[2]), STR_25(CODE[2]), 
		 -> STR_24(CODE[2]), STR_23(CODE[2]), STR_22(CODE[2]), STR_21(CODE[2]), 
		 -> STR_20(CODE[2]), STR_19(CODE[2]), STR_18(CODE[17]), STR_17(CODE[17]), 
		 -> STR_16(CODE[12]), STR_15(CODE[12]), STR_14(CODE[12]), STR_13(CODE[9]), 
		 -> STR_12(CODE[14]), STR_11(CODE[14]), STR_10(CODE[14]), STR_9(CODE[9]), 
		 -> STR_8(CODE[14]), STR_7(CODE[14]), STR_6(CODE[14]), STR_5(CODE[11]), 
		 -> STR_4(CODE[2]), STR_3(CODE[2]), STR_2(CODE[17]), STR_1(CODE[17]), 

    IOCAF5_SetInterruptHandler@InterruptHandler	PTR FTN()void  size(2) Largest target is 1
		 -> IOCAF5_DefaultInterruptHandler(), 

    IOCAF5_InterruptHandler	PTR FTN()void  size(2) Largest target is 1
		 -> Absolute function(), IOCAF5_DefaultInterruptHandler(), 

    IOCAF4_SetInterruptHandler@InterruptHandler	PTR FTN()void  size(2) Largest target is 1
		 -> IOCAF4_DefaultInterruptHandler(), 

    IOCAF4_InterruptHandler	PTR FTN()void  size(2) Largest target is 1
		 -> Absolute function(), IOCAF4_DefaultInterruptHandler(), 

    IOCAF3_SetInterruptHandler@InterruptHandler	PTR FTN()void  size(2) Largest target is 1
		 -> IOCAF3_DefaultInterruptHandler(), 

    IOCAF3_InterruptHandler	PTR FTN()void  size(2) Largest target is 1
		 -> Absolute function(), IOCAF3_DefaultInterruptHandler(), 

    IOCAF2_SetInterruptHandler@InterruptHandler	PTR FTN()void  size(2) Largest target is 1
		 -> IOCAF2_DefaultInterruptHandler(), 

    IOCAF2_InterruptHandler	PTR FTN()void  size(2) Largest target is 1
		 -> Absolute function(), IOCAF2_DefaultInterruptHandler(), 

    IOCAF1_SetInterruptHandler@InterruptHandler	PTR FTN()void  size(2) Largest target is 1
		 -> IOCAF1_DefaultInterruptHandler(), 

    IOCAF1_InterruptHandler	PTR FTN()void  size(2) Largest target is 1
		 -> Absolute function(), IOCAF1_DefaultInterruptHandler(), 

    IOCAF0_SetInterruptHandler@InterruptHandler	PTR FTN()void  size(2) Largest target is 1
		 -> IOCAF0_DefaultInterruptHandler(), 

    IOCAF0_InterruptHandler	PTR FTN()void  size(2) Largest target is 1
		 -> Absolute function(), IOCAF0_DefaultInterruptHandler(), 


Critical Paths under _main in COMMON

    None.

Critical Paths under _INTERRUPT_InterruptManager in COMMON

    _TMR0_CallBack->___fladd
    _TMR0_CallBack->___fleq
    _startFight->i1_LCDPutStr
    _LCDClear->i1_LCDPutStr
    i1_printMenu->i1_LCDPutStr
    i1_mainMenu->i1_LCDPutStr
    i1_cleanMenu->i1_LCDPutStr
    i1_cleanFullMenu->i1_LCDPutStr
    i1_LCDPutStr->i1_LCDPutChar
    i1_LCDPutChar->i1_LCDWriteNibble
    i1_LCDGoto->i1_LCDPutCmd
    i1_LCDPutCmd->i1_LCDWriteNibble

Critical Paths under _main in BANK0

    _printMenu->_mainMenu
    _mainMenu->_LCDPutStr
    _cleanMenu->_LCDPutStr
    _cleanFullMenu->_LCDPutStr
    _LCDPutStr->_LCDPutChar
    _LCDGoto->_LCDPutCmd
    _createCustomCharacter->_LCDPutChar
    _createCustomCharacter->_LCDPutCmd
    _LCDPutChar->_LCDWriteNibble
    _SYSTEM_Initialize->_TMR0_Initialize
    _TMR0_Initialize->_TMR0_SetInterruptHandler
    _PIN_MANAGER_Initialize->_IOCAF0_SetInterruptHandler
    _PIN_MANAGER_Initialize->_IOCAF1_SetInterruptHandler
    _PIN_MANAGER_Initialize->_IOCAF2_SetInterruptHandler
    _PIN_MANAGER_Initialize->_IOCAF3_SetInterruptHandler
    _PIN_MANAGER_Initialize->_IOCAF4_SetInterruptHandler
    _PIN_MANAGER_Initialize->_IOCAF5_SetInterruptHandler
    _LCD_Initialize->_LCDPutCmd
    _LCDPutCmd->_LCDWriteNibble

Critical Paths under _INTERRUPT_InterruptManager in BANK0

    _TMR0_CallBack->___fladd
    _PIN_MANAGER_IOC->_IOCAF5_ISR
    _IOCAF5_ISR->_startFight
    i1_printMenu->i1_mainMenu

Critical Paths under _main in BANK1

    None.

Critical Paths under _INTERRUPT_InterruptManager in BANK1

    None.

Critical Paths under _main in BANK2

    None.

Critical Paths under _INTERRUPT_InterruptManager in BANK2

    None.

Critical Paths under _main in BANK3

    None.

Critical Paths under _INTERRUPT_InterruptManager in BANK3

    None.

Critical Paths under _main in BANK4

    None.

Critical Paths under _INTERRUPT_InterruptManager in BANK4

    None.

Critical Paths under _main in BANK5

    None.

Critical Paths under _INTERRUPT_InterruptManager in BANK5

    None.

Critical Paths under _main in BANK6

    None.

Critical Paths under _INTERRUPT_InterruptManager in BANK6

    None.

Critical Paths under _main in BANK7

    None.

Critical Paths under _INTERRUPT_InterruptManager in BANK7

    None.

Critical Paths under _main in BANK8

    None.

Critical Paths under _INTERRUPT_InterruptManager in BANK8

    None.

Critical Paths under _main in BANK9

    None.

Critical Paths under _INTERRUPT_InterruptManager in BANK9

    None.

Critical Paths under _main in BANK10

    None.

Critical Paths under _INTERRUPT_InterruptManager in BANK10

    None.

Critical Paths under _main in BANK11

    None.

Critical Paths under _INTERRUPT_InterruptManager in BANK11

    None.

Critical Paths under _main in BANK12

    None.

Critical Paths under _INTERRUPT_InterruptManager in BANK12

    None.

Critical Paths under _main in BANK13

    None.

Critical Paths under _INTERRUPT_InterruptManager in BANK13

    None.

Critical Paths under _main in BANK14

    None.

Critical Paths under _INTERRUPT_InterruptManager in BANK14

    None.

Critical Paths under _main in BANK15

    None.

Critical Paths under _INTERRUPT_InterruptManager in BANK15

    None.

Critical Paths under _main in BANK16

    None.

Critical Paths under _INTERRUPT_InterruptManager in BANK16

    None.

Critical Paths under _main in BANK17

    None.

Critical Paths under _INTERRUPT_InterruptManager in BANK17

    None.

Critical Paths under _main in BANK18

    None.

Critical Paths under _INTERRUPT_InterruptManager in BANK18

    None.

Critical Paths under _main in BANK19

    None.

Critical Paths under _INTERRUPT_InterruptManager in BANK19

    None.

Critical Paths under _main in BANK20

    None.

Critical Paths under _INTERRUPT_InterruptManager in BANK20

    None.

Critical Paths under _main in BANK21

    None.

Critical Paths under _INTERRUPT_InterruptManager in BANK21

    None.

Critical Paths under _main in BANK22

    None.

Critical Paths under _INTERRUPT_InterruptManager in BANK22

    None.

Critical Paths under _main in BANK23

    None.

Critical Paths under _INTERRUPT_InterruptManager in BANK23

    None.

Critical Paths under _main in BANK24

    None.

Critical Paths under _INTERRUPT_InterruptManager in BANK24

    None.

Critical Paths under _main in BANK25

    None.

Critical Paths under _INTERRUPT_InterruptManager in BANK25

    None.

Call Graph Tables:

 ---------------------------------------------------------------------------------
 (Depth) Function   	        Calls       Base Space   Used Autos Params    Refs
 ---------------------------------------------------------------------------------
 (0) _main                                                49    49      0   43768
                                             23 BANK0      1     1      0
                                              0 BANK3     48    48      0
                     _LCD_Initialize
                  _SYSTEM_Initialize
              _createCustomCharacter
                      _disableButton
                          _printMenu
 ---------------------------------------------------------------------------------
 (1) _printMenu                                            0     0      0   38196
                            _LCDGoto
                          _LCDPutStr
                      _cleanFullMenu
                          _cleanMenu
                           _mainMenu
 ---------------------------------------------------------------------------------
 (2) _mainMenu                                             2     2      0    9549
                                             21 BANK0      2     2      0
                            _LCDGoto
                          _LCDPutStr
 ---------------------------------------------------------------------------------
 (2) _cleanMenu                                            0     0      0    9549
                            _LCDGoto
                          _LCDPutStr
 ---------------------------------------------------------------------------------
 (2) _cleanFullMenu                                        0     0      0    9549
                            _LCDGoto
                          _LCDPutStr
 ---------------------------------------------------------------------------------
 (3) _LCDPutStr                                            6     4      2    3851
                                             15 BANK0      6     4      2
                         _LCDPutChar
 ---------------------------------------------------------------------------------
 (3) _LCDGoto                                              4     3      1    5698
                                             15 BANK0      4     3      1
                          _LCDPutCmd
 ---------------------------------------------------------------------------------
 (1) _disableButton                                        1     1      0      31
                                              8 BANK0      1     1      0
 ---------------------------------------------------------------------------------
 (1) _createCustomCharacter                                6     3      3    3784
                                             15 BANK0      6     3      3
                         _LCDPutChar
                          _LCDPutCmd
 ---------------------------------------------------------------------------------
 (4) _LCDPutChar                                           3     3      0     586
                                             12 BANK0      3     3      0
                     _LCDWriteNibble
 ---------------------------------------------------------------------------------
 (1) _SYSTEM_Initialize                                    0     0      0     847
              _OSCILLATOR_Initialize
             _PIN_MANAGER_Initialize
                    _TMR0_Initialize
                     _WDT_Initialize
 ---------------------------------------------------------------------------------
 (2) _WDT_Initialize                                       0     0      0       0
 ---------------------------------------------------------------------------------
 (2) _TMR0_Initialize                                      1     1      0     121
                                             10 BANK0      1     1      0
           _TMR0_SetInterruptHandler
 ---------------------------------------------------------------------------------
 (3) _TMR0_SetInterruptHandler                             2     0      2     121
                                              8 BANK0      2     0      2
 ---------------------------------------------------------------------------------
 (2) _PIN_MANAGER_Initialize                               0     0      0     726
         _IOCAF0_SetInterruptHandler
         _IOCAF1_SetInterruptHandler
         _IOCAF2_SetInterruptHandler
         _IOCAF3_SetInterruptHandler
         _IOCAF4_SetInterruptHandler
         _IOCAF5_SetInterruptHandler
 ---------------------------------------------------------------------------------
 (3) _IOCAF5_SetInterruptHandler                           2     0      2     121
                                              8 BANK0      2     0      2
 ---------------------------------------------------------------------------------
 (3) _IOCAF4_SetInterruptHandler                           2     0      2     121
                                              8 BANK0      2     0      2
 ---------------------------------------------------------------------------------
 (3) _IOCAF3_SetInterruptHandler                           2     0      2     121
                                              8 BANK0      2     0      2
 ---------------------------------------------------------------------------------
 (3) _IOCAF2_SetInterruptHandler                           2     0      2     121
                                              8 BANK0      2     0      2
 ---------------------------------------------------------------------------------
 (3) _IOCAF1_SetInterruptHandler                           2     0      2     121
                                              8 BANK0      2     0      2
 ---------------------------------------------------------------------------------
 (3) _IOCAF0_SetInterruptHandler                           2     0      2     121
                                              8 BANK0      2     0      2
 ---------------------------------------------------------------------------------
 (2) _OSCILLATOR_Initialize                                0     0      0       0
 ---------------------------------------------------------------------------------
 (1) _LCD_Initialize                                       1     1      0     586
                                             15 BANK0      1     1      0
                          _LCDPutCmd
 ---------------------------------------------------------------------------------
 (4) _LCDPutCmd                                            3     3      0     586
                                             12 BANK0      3     3      0
                     _LCDWriteNibble
 ---------------------------------------------------------------------------------
 (5) _LCDWriteNibble                                       4     3      1     490
                                              8 BANK0      4     3      1
 ---------------------------------------------------------------------------------
 Estimated maximum stack depth 5
 ---------------------------------------------------------------------------------
 (Depth) Function   	        Calls       Base Space   Used Autos Params    Refs
 ---------------------------------------------------------------------------------
 (6) _INTERRUPT_InterruptManager                           1     1      0   48606
                                             13 COMMON     1     1      0
                    _PIN_MANAGER_IOC
                           _TMR0_ISR
 ---------------------------------------------------------------------------------
 (7) _TMR0_ISR                                             0     0      0    2656
                      _TMR0_CallBack
 ---------------------------------------------------------------------------------
 (8) _TMR0_CallBack                                        0     0      0    2656
                   Absolute function *
       _TMR0_DefaultInterruptHandler *
                            ___fladd
                             ___fleq
 ---------------------------------------------------------------------------------
 (9) ___fleq                                              12     4      8     242
                                              0 COMMON    12     4      8
 ---------------------------------------------------------------------------------
 (9) ___fladd                                             20    12      8    2414
                                              0 COMMON    12     4      8
                                              0 BANK0      8     8      0
 ---------------------------------------------------------------------------------
 (9) _TMR0_DefaultInterruptHandler                         0     0      0       0
 ---------------------------------------------------------------------------------
 (7) _PIN_MANAGER_IOC                                      0     0      0   45950
                         _IOCAF0_ISR
                         _IOCAF1_ISR
                         _IOCAF2_ISR
                         _IOCAF3_ISR
                         _IOCAF4_ISR
                         _IOCAF5_ISR
 ---------------------------------------------------------------------------------
 (8) _IOCAF5_ISR                                           2     2      0   12786
                                              4 BANK0      2     2      0
                   Absolute function *
     _IOCAF5_DefaultInterruptHandler *
                       _enableButton
                         _startFight
                    i1_disableButton
 ---------------------------------------------------------------------------------
 (9) _startFight                                           2     2      0   12742
                                              2 BANK0      2     2      0
                          _printShip
                          i1_LCDGoto
                        i1_LCDPutStr
                    i1_cleanFullMenu
                        i1_printMenu
 ---------------------------------------------------------------------------------
 (10) _printShip                                           0     0      0    2806
                           _LCDClear
                          i1_LCDGoto
                       i1_LCDPutChar
 ---------------------------------------------------------------------------------
 (11) _LCDClear                                            0     0      0    1656
                          i1_LCDGoto
                        i1_LCDPutStr
 ---------------------------------------------------------------------------------
 (9) _IOCAF5_DefaultInterruptHandler                       0     0      0       0
 ---------------------------------------------------------------------------------
 (8) _IOCAF4_ISR                                           2     2      0    6624
                                              2 BANK0      2     2      0
                   Absolute function *
     _IOCAF4_DefaultInterruptHandler *
                        i1_printMenu
 ---------------------------------------------------------------------------------
 (9) _IOCAF4_DefaultInterruptHandler                       0     0      0       0
 ---------------------------------------------------------------------------------
 (8) _IOCAF3_ISR                                           2     2      0    6624
                                              2 BANK0      2     2      0
                   Absolute function *
     _IOCAF3_DefaultInterruptHandler *
                        i1_printMenu
 ---------------------------------------------------------------------------------
 (9) _IOCAF3_DefaultInterruptHandler                       0     0      0       0
 ---------------------------------------------------------------------------------
 (8) _IOCAF2_ISR                                           2     2      0    6668
                                              2 BANK0      2     2      0
                   Absolute function *
     _IOCAF2_DefaultInterruptHandler *
                       _enableButton
                    i1_disableButton
                        i1_printMenu
 ---------------------------------------------------------------------------------
 (9) i1_disableButton                                      1     1      0      22
                                              0 COMMON     1     1      0
 ---------------------------------------------------------------------------------
 (9) _enableButton                                         1     1      0      22
                                              0 COMMON     1     1      0
 ---------------------------------------------------------------------------------
 (9) _IOCAF2_DefaultInterruptHandler                       0     0      0       0
 ---------------------------------------------------------------------------------
 (8) _IOCAF1_ISR                                           2     2      0    6624
                                              2 BANK0      2     2      0
                   Absolute function *
     _IOCAF1_DefaultInterruptHandler *
                        i1_printMenu
 ---------------------------------------------------------------------------------
 (9) _IOCAF1_DefaultInterruptHandler                       0     0      0       0
 ---------------------------------------------------------------------------------
 (8) _IOCAF0_ISR                                           2     2      0    6624
                                              2 BANK0      2     2      0
                   Absolute function *
     _IOCAF0_DefaultInterruptHandler *
                        i1_printMenu
 ---------------------------------------------------------------------------------
 (10) i1_printMenu                                         0     0      0    6624
                          i1_LCDGoto
                        i1_LCDPutStr
                    i1_cleanFullMenu
                        i1_cleanMenu
                         i1_mainMenu
 ---------------------------------------------------------------------------------
 (11) i1_mainMenu                                          2     2      0    1656
                                              0 BANK0      2     2      0
                          i1_LCDGoto
                        i1_LCDPutStr
 ---------------------------------------------------------------------------------
 (11) i1_cleanMenu                                         0     0      0    1656
                          i1_LCDGoto
                        i1_LCDPutStr
 ---------------------------------------------------------------------------------
 (11) i1_cleanFullMenu                                     0     0      0    1656
                          i1_LCDGoto
                        i1_LCDPutStr
 ---------------------------------------------------------------------------------
 (12) i1_LCDPutStr                                         6     4      2     767
                                              7 COMMON     6     4      2
                       i1_LCDPutChar
 ---------------------------------------------------------------------------------
 (13) i1_LCDPutChar                                        3     3      0     261
                                              4 COMMON     3     3      0
                   i1_LCDWriteNibble
 ---------------------------------------------------------------------------------
 (12) i1_LCDGoto                                           4     3      1     889
                                              7 COMMON     4     3      1
                        i1_LCDPutCmd
 ---------------------------------------------------------------------------------
 (13) i1_LCDPutCmd                                         3     3      0     261
                                              4 COMMON     3     3      0
                   i1_LCDWriteNibble
 ---------------------------------------------------------------------------------
 (14) i1_LCDWriteNibble                                    4     3      1     194
                                              0 COMMON     4     3      1
 ---------------------------------------------------------------------------------
 (9) _IOCAF0_DefaultInterruptHandler                       0     0      0       0
 ---------------------------------------------------------------------------------
 (9) Absolute function(Fake)                               0     0      0       0
 ---------------------------------------------------------------------------------
 Estimated maximum stack depth 14
 ---------------------------------------------------------------------------------

 Call Graph Graphs:

 _main (ROOT)
   _LCD_Initialize
     _LCDPutCmd
       _LCDWriteNibble
   _SYSTEM_Initialize
     _OSCILLATOR_Initialize
     _PIN_MANAGER_Initialize
       _IOCAF0_SetInterruptHandler
       _IOCAF1_SetInterruptHandler
       _IOCAF2_SetInterruptHandler
       _IOCAF3_SetInterruptHandler
       _IOCAF4_SetInterruptHandler
       _IOCAF5_SetInterruptHandler
     _TMR0_Initialize
       _TMR0_SetInterruptHandler
     _WDT_Initialize
   _createCustomCharacter
     _LCDPutChar
       _LCDWriteNibble
     _LCDPutCmd
       _LCDWriteNibble
   _disableButton
   _printMenu
     _LCDGoto
       _LCDPutCmd
         _LCDWriteNibble
     _LCDPutStr
       _LCDPutChar
         _LCDWriteNibble
     _cleanFullMenu
       _LCDGoto
         _LCDPutCmd
           _LCDWriteNibble
       _LCDPutStr
         _LCDPutChar
           _LCDWriteNibble
     _cleanMenu
       _LCDGoto
         _LCDPutCmd
           _LCDWriteNibble
       _LCDPutStr
         _LCDPutChar
           _LCDWriteNibble
     _mainMenu
       _LCDGoto
         _LCDPutCmd
           _LCDWriteNibble
       _LCDPutStr
         _LCDPutChar
           _LCDWriteNibble

 _INTERRUPT_InterruptManager (ROOT)
   _PIN_MANAGER_IOC
     _IOCAF0_ISR
       Absolute function(Fake) *
       _IOCAF0_DefaultInterruptHandler *
       i1_printMenu *
         i1_LCDGoto
           i1_LCDPutCmd
             i1_LCDWriteNibble
         i1_LCDPutStr
           i1_LCDPutChar
             i1_LCDWriteNibble
         i1_cleanFullMenu
           i1_LCDGoto
             i1_LCDPutCmd
               i1_LCDWriteNibble
           i1_LCDPutStr
             i1_LCDPutChar
               i1_LCDWriteNibble
         i1_cleanMenu
           i1_LCDGoto
             i1_LCDPutCmd
               i1_LCDWriteNibble
           i1_LCDPutStr
             i1_LCDPutChar
               i1_LCDWriteNibble
         i1_mainMenu
           i1_LCDGoto
             i1_LCDPutCmd
               i1_LCDWriteNibble
           i1_LCDPutStr
             i1_LCDPutChar
               i1_LCDWriteNibble
     _IOCAF1_ISR
       Absolute function(Fake) *
       _IOCAF1_DefaultInterruptHandler *
       i1_printMenu *
         i1_LCDGoto
           i1_LCDPutCmd
             i1_LCDWriteNibble
         i1_LCDPutStr
           i1_LCDPutChar
             i1_LCDWriteNibble
         i1_cleanFullMenu
           i1_LCDGoto
             i1_LCDPutCmd
               i1_LCDWriteNibble
           i1_LCDPutStr
             i1_LCDPutChar
               i1_LCDWriteNibble
         i1_cleanMenu
           i1_LCDGoto
             i1_LCDPutCmd
               i1_LCDWriteNibble
           i1_LCDPutStr
             i1_LCDPutChar
               i1_LCDWriteNibble
         i1_mainMenu
           i1_LCDGoto
             i1_LCDPutCmd
               i1_LCDWriteNibble
           i1_LCDPutStr
             i1_LCDPutChar
               i1_LCDWriteNibble
     _IOCAF2_ISR
       Absolute function(Fake) *
       _IOCAF2_DefaultInterruptHandler *
       _enableButton *
       i1_disableButton *
       i1_printMenu *
         i1_LCDGoto
           i1_LCDPutCmd
             i1_LCDWriteNibble
         i1_LCDPutStr
           i1_LCDPutChar
             i1_LCDWriteNibble
         i1_cleanFullMenu
           i1_LCDGoto
             i1_LCDPutCmd
               i1_LCDWriteNibble
           i1_LCDPutStr
             i1_LCDPutChar
               i1_LCDWriteNibble
         i1_cleanMenu
           i1_LCDGoto
             i1_LCDPutCmd
               i1_LCDWriteNibble
           i1_LCDPutStr
             i1_LCDPutChar
               i1_LCDWriteNibble
         i1_mainMenu
           i1_LCDGoto
             i1_LCDPutCmd
               i1_LCDWriteNibble
           i1_LCDPutStr
             i1_LCDPutChar
               i1_LCDWriteNibble
     _IOCAF3_ISR
       Absolute function(Fake) *
       _IOCAF3_DefaultInterruptHandler *
       i1_printMenu *
         i1_LCDGoto
           i1_LCDPutCmd
             i1_LCDWriteNibble
         i1_LCDPutStr
           i1_LCDPutChar
             i1_LCDWriteNibble
         i1_cleanFullMenu
           i1_LCDGoto
             i1_LCDPutCmd
               i1_LCDWriteNibble
           i1_LCDPutStr
             i1_LCDPutChar
               i1_LCDWriteNibble
         i1_cleanMenu
           i1_LCDGoto
             i1_LCDPutCmd
               i1_LCDWriteNibble
           i1_LCDPutStr
             i1_LCDPutChar
               i1_LCDWriteNibble
         i1_mainMenu
           i1_LCDGoto
             i1_LCDPutCmd
               i1_LCDWriteNibble
           i1_LCDPutStr
             i1_LCDPutChar
               i1_LCDWriteNibble
     _IOCAF4_ISR
       Absolute function(Fake) *
       _IOCAF4_DefaultInterruptHandler *
       i1_printMenu *
         i1_LCDGoto
           i1_LCDPutCmd
             i1_LCDWriteNibble
         i1_LCDPutStr
           i1_LCDPutChar
             i1_LCDWriteNibble
         i1_cleanFullMenu
           i1_LCDGoto
             i1_LCDPutCmd
               i1_LCDWriteNibble
           i1_LCDPutStr
             i1_LCDPutChar
               i1_LCDWriteNibble
         i1_cleanMenu
           i1_LCDGoto
             i1_LCDPutCmd
               i1_LCDWriteNibble
           i1_LCDPutStr
             i1_LCDPutChar
               i1_LCDWriteNibble
         i1_mainMenu
           i1_LCDGoto
             i1_LCDPutCmd
               i1_LCDWriteNibble
           i1_LCDPutStr
             i1_LCDPutChar
               i1_LCDWriteNibble
     _IOCAF5_ISR
       Absolute function(Fake) *
       _IOCAF5_DefaultInterruptHandler *
       _enableButton *
       _startFight *
         _printShip
           _LCDClear
             i1_LCDGoto
               i1_LCDPutCmd
                 i1_LCDWriteNibble
             i1_LCDPutStr
               i1_LCDPutChar
                 i1_LCDWriteNibble
           i1_LCDGoto
             i1_LCDPutCmd
               i1_LCDWriteNibble
           i1_LCDPutChar
             i1_LCDWriteNibble
         i1_LCDGoto
           i1_LCDPutCmd
             i1_LCDWriteNibble
         i1_LCDPutStr
           i1_LCDPutChar
             i1_LCDWriteNibble
         i1_cleanFullMenu
           i1_LCDGoto
             i1_LCDPutCmd
               i1_LCDWriteNibble
           i1_LCDPutStr
             i1_LCDPutChar
               i1_LCDWriteNibble
         i1_printMenu
           i1_LCDGoto
             i1_LCDPutCmd
               i1_LCDWriteNibble
           i1_LCDPutStr
             i1_LCDPutChar
               i1_LCDWriteNibble
           i1_cleanFullMenu
             i1_LCDGoto
               i1_LCDPutCmd
                 i1_LCDWriteNibble
             i1_LCDPutStr
               i1_LCDPutChar
                 i1_LCDWriteNibble
           i1_cleanMenu
             i1_LCDGoto
               i1_LCDPutCmd
                 i1_LCDWriteNibble
             i1_LCDPutStr
               i1_LCDPutChar
                 i1_LCDWriteNibble
           i1_mainMenu
             i1_LCDGoto
               i1_LCDPutCmd
                 i1_LCDWriteNibble
             i1_LCDPutStr
               i1_LCDPutChar
                 i1_LCDWriteNibble
       i1_disableButton *
   _TMR0_ISR
     _TMR0_CallBack
       Absolute function(Fake) *
       _TMR0_DefaultInterruptHandler *
       ___fladd *
       ___fleq *

 Address spaces:
Name               Size   Autos  Total    Cost      Usage
BIGRAM             7F0      0       0       0        0.0%
NULL                 0      0       0       0        0.0%
CODE                 0      0       0       0        0.0%
BITCOMMON            E      0       0       1        0.0%
BITSFR0              0      0       0       1        0.0%
SFR0                 0      0       0       1        0.0%
COMMON               E      E       E       2      100.0%
BITSFR1              0      0       0       2        0.0%
SFR1                 0      0       0       2        0.0%
BITSFR2              0      0       0       3        0.0%
SFR2                 0      0       0       3        0.0%
STACK                0      0       0       3        0.0%
BITBANK0            50      0       0       4        0.0%
BITSFR3              0      0       0       4        0.0%
SFR3                 0      0       0       4        0.0%
BANK0               50     18      22       5       42.5%
BITSFR4              0      0       0       5        0.0%
SFR4                 0      0       0       5        0.0%
BITBANK1            50      0       0       6        0.0%
BITSFR5              0      0       0       6        0.0%
SFR5                 0      0       0       6        0.0%
BANK1               50      0      4E       7       97.5%
BITSFR6              0      0       0       7        0.0%
SFR6                 0      0       0       7        0.0%
BITBANK2            50      0       0       8        0.0%
BITSFR7              0      0       0       8        0.0%
SFR7                 0      0       0       8        0.0%
BANK2               50      0      48       9       90.0%
BITSFR8              0      0       0       9        0.0%
SFR8                 0      0       0       9        0.0%
BITBANK3            50      0       0      10        0.0%
BITSFR9              0      0       0      10        0.0%
SFR9                 0      0       0      10        0.0%
BANK3               50     30      30      11       60.0%
BITSFR10             0      0       0      11        0.0%
SFR10                0      0       0      11        0.0%
BITBANK4            50      0       0      12        0.0%
BITSFR11             0      0       0      12        0.0%
SFR11                0      0       0      12        0.0%
BANK4               50      0       0      13        0.0%
BITSFR12             0      0       0      13        0.0%
SFR12                0      0       0      13        0.0%
BITSFR13             0      0       0      14        0.0%
SFR13                0      0       0      14        0.0%
ABS                  0      0      F6      14        0.0%
BITBANK5            50      0       0      15        0.0%
BITSFR14             0      0       0      15        0.0%
SFR14                0      0       0      15        0.0%
BANK5               50      0       0      16        0.0%
BITSFR15             0      0       0      16        0.0%
SFR15                0      0       0      16        0.0%
BITBANK6            50      0       0      17        0.0%
BITSFR16             0      0       0      17        0.0%
SFR16                0      0       0      17        0.0%
BANK6               50      0       0      18        0.0%
BITSFR17             0      0       0      18        0.0%
SFR17                0      0       0      18        0.0%
BITBANK7            50      0       0      19        0.0%
BITSFR18             0      0       0      19        0.0%
SFR18                0      0       0      19        0.0%
BANK7               50      0       0      20        0.0%
BITSFR19             0      0       0      20        0.0%
SFR19                0      0       0      20        0.0%
BITBANK8            50      0       0      21        0.0%
BITSFR20             0      0       0      21        0.0%
SFR20                0      0       0      21        0.0%
BANK8               50      0       0      22        0.0%
BITSFR21             0      0       0      22        0.0%
SFR21                0      0       0      22        0.0%
BITBANK9            50      0       0      23        0.0%
BITSFR22             0      0       0      23        0.0%
SFR22                0      0       0      23        0.0%
BANK9               50      0       0      24        0.0%
BITSFR23             0      0       0      24        0.0%
SFR23                0      0       0      24        0.0%
BITBANK10           50      0       0      25        0.0%
BITSFR24             0      0       0      25        0.0%
SFR24                0      0       0      25        0.0%
BANK10              50      0       0      26        0.0%
BITSFR25             0      0       0      26        0.0%
SFR25                0      0       0      26        0.0%
BITBANK11           50      0       0      27        0.0%
BITSFR26             0      0       0      27        0.0%
SFR26                0      0       0      27        0.0%
BITSFR27             0      0       0      28        0.0%
SFR27                0      0       0      28        0.0%
DATA                 0      0      F6      28        0.0%
BANK11              50      0       0      29        0.0%
BITSFR28             0      0       0      29        0.0%
SFR28                0      0       0      29        0.0%
BITBANK12           50      0       0      30        0.0%
BITSFR29             0      0       0      30        0.0%
SFR29                0      0       0      30        0.0%
BANK12              50      0       0      31        0.0%
BITSFR30             0      0       0      31        0.0%
SFR30                0      0       0      31        0.0%
BITBANK13           50      0       0      32        0.0%
BITSFR31             0      0       0      32        0.0%
SFR31                0      0       0      32        0.0%
BANK13              50      0       0      33        0.0%
BITBANK14           50      0       0      34        0.0%
BANK14              50      0       0      35        0.0%
BITBANK15           50      0       0      36        0.0%
BANK15              50      0       0      37        0.0%
BITBANK16           50      0       0      38        0.0%
BANK16              50      0       0      39        0.0%
BITBANK17           50      0       0      40        0.0%
BANK17              50      0       0      41        0.0%
BITBANK18           50      0       0      42        0.0%
BANK18              50      0       0      43        0.0%
BITBANK19           50      0       0      44        0.0%
BANK19              50      0       0      45        0.0%
BITBANK20           50      0       0      46        0.0%
BANK20              50      0       0      47        0.0%
BITBANK21           50      0       0      48        0.0%
BANK21              50      0       0      49        0.0%
BITBANK22           50      0       0      50        0.0%
BANK22              50      0       0      51        0.0%
BITBANK23           50      0       0      52        0.0%
BANK23              50      0       0      53        0.0%
BITBANK24           50      0       0      54        0.0%
BANK24              50      0       0      55        0.0%
BITBANK25           20      0       0      56        0.0%
BANK25              20      0       0      57        0.0%


Microchip Technology PIC Macro Assembler V2.31 build 20201012212115 
Symbol Table                                                                                   Wed Jul 21 23:04:16 2021

                          ?i1_cleanFullMenu 0070                              _LCD_Initialize 0F68  
                       __end_ofi1_printMenu 0E8B                                 ?_LCDPutChar 0070  
                           _timer0ReloadVal 00EA                                         l125 04BC  
                                       l214 0D7D                                         l310 07B5  
                                       l231 0D86                                         l304 078D  
                                       l148 0D59                                         l165 0D62  
                                       l253 0D9C                                         l421 0F04  
                                       l182 0D6B                                         l431 03C9  
                                       l256 0D50                                         l440 0EA8  
                                       l338 06B8                                         l434 0EC6  
                                       l259 0D43                                         l355 0DC9  
                                       l292 0F44                                         l357 0DCD  
                                       l198 0D74                                         l295 07FD  
                                       l391 033A                                         l392 033A  
                                       l289 0F8A                                         l298 0F67  
                                       l554 0DE5                                         l577 0D8F  
                                       wreg 0009          __end_of_IOCAF2_SetInterruptHandler 0D6C  
                _IOCAF2_SetInterruptHandler 0D63          __end_of_IOCAF5_SetInterruptHandler 0D87  
                _IOCAF5_SetInterruptHandler 0D7E                                main@Pattern1 01A0  
                              main@Pattern2 01A8                                main@Pattern3 01B0  
                              main@Pattern4 01B8                                main@Pattern5 01C0  
                              main@Pattern8 01C8                                  i1_mainMenu 03CA  
                           __end_of_LCDGoto 07B6                                        l4130 0D4E  
                                      l4140 0DDB                                        l4132 0D40  
                                      l4220 0EEF                                        l4126 0D4A  
                                      l4142 0DDC                                        l4134 0DCE  
                                      l4230 0D90                                        l4150 0EB7  
                                      l4222 0EF5                                        l4240 0F7A  
                                      l4232 0F68                                        l4128 0D4D  
                                      l4144 0DDD                                        l4136 0DD3  
                                      l4152 0E8B                                        l4160 033E  
                                      l4224 0EFE                                        l4216 0EE6  
                                      l4242 0F7E                                        l4234 0F6C  
                                      l4138 0DD6                                        l4226 0DBF  
                                      l4154 0E91                                        l4146 0EA9  
                                      l5122 03BB                                        l4170 0368  
                                      l4162 0343                                        l4218 0EEC  
                                      l4244 0F82                                        l4236 0F6E  
                                      l4228 0DC4                                        l4156 0E99  
                                      l4148 0EAF                                        l4180 039A  
                                      l4172 0378                                        l4164 034B  
                                      l4246 0F86                                        l4238 0F76  
                                      l4182 03A2                                        l4174 037D  
                                      l4166 035B                                        l4158 033D  
                                      l3800 0F43                                        l4176 0385  
                                      l4168 0360                                        l4178 0395  
                                      l4186 03B2                                        l3900 0796  
                                      l4710 068B                                        l3910 07B1  
                                      l3902 079D                                        l3840 0F51  
                                      l3920 0455                                        l3912 0D87  
                                      l4720 069B                                        l4712 068B  
                                      l3904 07A2                                        l3842 0F5D  
                                      l3930 0463                                        l3922 0457  
                                      l3914 044B                                        l3850 07EB  
                                      l4722 06A6                                        l4714 0698  
                                      l3906 07A8                                        l4730 02AA  
                                      l3844 0F61                                        l3836 0F47  
                                      l3940 047A                                        l3932 0465  
                                      l3924 045C                                        l3916 044F  
                                      l3852 07F7                                        l4724 06AB  
                                      l3908 07AD                                        l4740 02F0  
                                      l4732 02B8                                        l3790 0F31  
                                      l3838 0F4B                                        l3870 0D6C  
                                      l3950 047F                                        l3942 047B  
                                      l3934 0467                                        l3926 045F  
                                      l3918 0452                                        l3846 07E0  
                                      l4750 0326                                        l4742 02F9  
                                      l4734 02C6                                        l4726 0295  
                                      l3792 0F36                                        l3864 0D51  
                                      l3872 0D75                                        l3960 0484  
                                      l3952 0480                                        l3944 047C  
                                      l3936 0468                                        l3928 0462  
                                      l3848 07E4                                        l4752 0332  
                                      l4744 0302                                        l4736 02D4  
                                      l4728 029B                                        l3794 0F3C  
                                      l3866 0D5A                                        l3874 0D7E  
                                      l3970 0489                                        l3962 0485  
                                      l3954 0481                                        l3946 047D  
                                      l3938 0479                                        l3890 0766  
                                      l4754 0335                                        l4746 030E  
                                      l4738 02E2                                        l3796 0F41  
                                      l3788 0F27                                        l3868 0D63  
                                      l3980 04A3                                        l3972 048A  
                                      l3964 0486                                        l3956 0482  
                                      l3948 047E                                        l3892 0769  
                                      l4756 0336                                        l4748 031A  
                                      l3798 0F42                                        l3982 04AB  
                                      l3974 048B                                        l3966 0487  
                                      l3958 0483                                        l3894 0778  
                                      l3984 04B3                                        l3976 0493  
                                      l3968 0488                                        l3896 077D  
                                      l3986 04BB                                        l3978 049B  
                                      l3898 0790                                        STR_1 1000  
                                      STR_2 1000                                        STR_5 1055  
                                      STR_6 1011                                        STR_7 103B  
                                      STR_8 102D                                        STR_9 1060  
                                      _LATA 010C                                        _LATB 010D  
                                      _LATC 010E                                        u3025 0F2A  
                                      u3035 0F55                                        u3060 078D  
                                      u3045 07EF                                        u3061 078C  
                                      u3070 0796                                        u3071 0795  
                                      u3080 079C                                        u3081 079B  
                                      u3090 07A2                                        u3091 07A1  
                                      u3280 0EEC                                        u3600 02D0  
                                      u3281 0EEB                                        u3290 0DC4  
                                      u3610 02DE                                        u3291 0DC3  
                                      u3620 02EC                                        u3560 06B8  
                                      u3561 06B7                                        u3570 02A6  
                                      u3555 068F                                        u3580 02B4  
                                      u3565 06B4                                        u3590 02C2  
                                      u3737 07B2                                        u3747 07E1  
                                      u3757 0F72                                        u3767 0F48  
                                      u3777 0F5E                                        _TMR0 0015  
                               i1_cleanMenu 0E34                                        _WPUA 020C  
                                      _WPUB 020D                                        _WPUC 020E  
                                      _WPUE 0210                                        _main 0295  
                           printHeart@F5851 00A0                             printHeart@F5853 0160  
                           printHeart@F5861 0140                             printHeart@F5855 0158  
                           printHeart@F5857 0150                             printHeart@F5859 0148  
                                      fsr0h 0005                                        fsr1h 0007  
                                      indf0 0000                                        fsr0l 0004  
                                      indf1 0001                                        fsr1l 0006  
                                      btemp 007E                          __size_of_LCDPutCmd 0023  
                                      start 0027                          __size_of_LCDPutStr 0028  
                    __end_of_LCD_Initialize 0F8B                     __end_ofi1_disableButton 0DBD  
                        __size_ofi1_LCDGoto 0027                            __end_of_LCDClear 0E1A  
                   __end_of_TMR0_Initialize 0DE6                                 LCDPutCmd@ch 002E  
            ??_TMR0_DefaultInterruptHandler 0070                         __size_of_IOCAF0_ISR 002B  
                       __size_of_IOCAF1_ISR 002C              __size_of_OSCILLATOR_Initialize 0007  
                       __size_of_IOCAF2_ISR 0043                         __size_of_IOCAF3_ISR 002B  
                       __size_of_IOCAF4_ISR 002B                         __size_of_IOCAF5_ISR 003E  
             __end_of_OSCILLATOR_Initialize 0D51                             __end_of___fladd 0295  
                                     ?_main 0070                                       STR_10 101F  
                                     STR_11 103B                                       STR_12 102D  
                                     STR_13 1060                                       STR_14 1005  
                                     STR_15 1005                                       STR_16 1049  
                                     STR_17 1000                                       STR_18 1000  
                              ?i1_LCDPutCmd 0070                                       i1l201 0D3F  
                                     i1l211 070F                                       i1l310 0FD7  
                                     i1l206 070D                                       i1l222 061B  
                                     i1l134 068A                                       i1l151 0D3C  
                                     i1l304 0FB0                                       i1l145 0765  
                                     i1l217 0002                                       i1l162 06E4  
                                     i1l234 0003                                       i1l226 0600  
                                     i1l139 0763                                       i1l156 06E2  
                                     i1l228 061D                                       i1l421 0E8A  
                                     i1l173 05DD                                       i1l317 0E19  
                                     i1l158 06CC                                       i1l190 0738  
                                     i1l431 044A                                       i1l440 0DFF  
                                     i1l168 0D3D                                       i1l360 0DA8  
                                     i1l272 0012                                       i1l185 0D3E  
                                     i1l177 05C2                                       i1l434 0E4F  
                                     i1l362 0DAC                                       i1l355 0DB8  
                                     i1l179 05DF                                       i1l195 073A  
                                     i1l292 0F24                                       i1l276 0025  
                                     i1l357 0DBC                                       i1l437 07DD  
                                     i1l295 0E6C                                       i1l298 0EE5  
                                     i1l467 0FFF                                       i1l580 07FF  
                                     i1l574 0554                                       i1l823 050A  
                                     i1l817 04D9                                       i1l569 0E33  
                                     i1l818 04F5                                       i1l953 0156  
                                     i1l970 01EB                                       i1l962 0294  
                                     i1l955 0131                                       i1l980 022F  
                              ?i1_LCDPutStr 0077                                       i1l949 00B4  
                                     i1l974 020D                                       i1l991 028A  
                                     i1l983 0267                                       i1l992 0294  
                                     _PORTB 000D                                       _TRISA 008C  
                                     _TRISB 008D                                       _TRISC 008E  
                                     _TRISE 0090                      ?_createCustomCharacter 002F  
         __size_of_TMR0_SetInterruptHandler 0009                   ?_TMR0_SetInterruptHandler 0028  
                          __end_of_TMR0_ISR 0E34                     __end_of_PIN_MANAGER_IOC 068B  
                            _WDT_Initialize 0D40                                       _ship1 003E  
                                     _ship2 003D                                       pclath 000A  
                       __size_of_LCDPutChar 0020                                       status 0003  
                                     wtemp0 007E                                 i1_printMenu 0E6D  
                     __end_of_cleanFullMenu 0EA9                             ?_LCD_Initialize 0070  
                           __initialization 0029                                __end_of_main 033D  
                      __end_of_enableButton 0DAD                 ?_INTERRUPT_InterruptManager 0070  
                    createCustomCharacter@i 0033                                      ??_main 0037  
                                 ??_LCDGoto 0030                           __end_of_LCDPutCmd 0F68  
                              LCDPutChar@ch 002E                     _IOCAF4_InterruptHandler 00E0  
                         __end_of_LCDPutStr 078E                      __end_of_WDT_Initialize 0D44  
              ??_IOCAF0_SetInterruptHandler 002A                                 ?i1_mainMenu 0070  
              ??_IOCAF3_SetInterruptHandler 002A                           __end_ofi1_LCDGoto 0FD8  
                                    _ANSELA 018C                                      _ANSELB 018D  
                                    _ANSELC 018E                                      _BORCON 0116  
                             ?i1_LCDPutChar 0070                                      u110_20 0FB8  
                                    u110_21 0FB7                                      i1l2200 0FCF  
                                    u111_20 0FBE                                      u111_21 0FBD  
                                    i1l2202 0FD3                                      i1l2220 0E05  
                                    i1l2150 0F06                                      i1l2222 0E0C  
                                    i1l2160 0F22                                      i1l2152 0F10  
                                    u112_20 0FC4                                      i1l2400 008D  
                                    u112_21 0FC3                                      _ODCONA 028C  
                                    i1l2162 0F23                                      i1l2154 0F15  
                                    i1l2170 0E66                                      i1l4002 0753  
                                    i1l4010 06C0                                      i1l2322 0D9E  
                                    i1l2218 0E00                                      i1l2410 009C  
                                    i1l2402 008E                                      _ODCONB 028D  
                                    _ODCONC 028E                                      i1l2156 0F1C  
                                    i1l2180 0EE0                                      i1l2172 0EC8  
                                    i1l2164 0E51                                      i1l2260 0E3A  
                                    i1l4020 06D2                                      i1l4012 06C5  
                                    i1l2324 0DA3                                      i1l4100 05E7  
                                    i1l2500 01AB                                      i1l2420 00BA  
                                    i1l2412 00A1                                      i1l2404 0092  
                                    i1l2158 0F21                                      i1l2174 0ECC  
                                    i1l2190 0FB2                                      i1l2166 0E55  
                                    i1l2182 0F8B                                      i1l2262 0E41  
                                    i1l4030 05A9                                      i1l4110 05F8  
                                    i1l4102 05EC                                      i1l2510 01F3  
                                    i1l2502 01CF                                      i1l2430 00CE  
                                    i1l2422 00BE                                      i1l2414 00A9  
                                    i1l2406 0096                                      i1l2176 0ED1  
                                    i1l2192 0FB8                                      i1l2168 0E5B  
                                    i1l2184 0F8D                                      i1l2264 0DE6  
                                    i1l4016 06CE                                      i1l4008 06B9  
                                    i1l4040 05B9                                      i1l4112 05FC  
                                    i1l4120 060B                                      i1l4200 066A  
                                    i1l2520 020C                                      i1l2512 01F8  
                                    i1l2504 01D5                                      i1l2440 00E2  
                                    i1l2432 00D2                                      i1l2424 00C2  
                                    i1l2416 00AA                                      i1l2408 0097  
                                    i1l2178 0EDC                                      i1l2194 0FBF  
                                    i1l2186 0F9C                                      i1l2266 0DEB  
                                    i1l2258 0E34                                      i1l4042 05BE  
                                    i1l4034 05B0                                      i1l4026 059D  
                                    i1l2290 0FDB                                      i1l4114 0602  
                                    i1l4106 05F3                                      i1l4210 067F  
                                    i1l4202 066F                                      i1l2522 0211  
                                    i1l2530 021D                                      i1l2506 01DA  
                                    i1l2450 00F6                                      i1l2442 00E6  
                                    i1l2434 00D6                                      i1l2426 00C6  
                                    i1l2418 00AC                                      i1l2370 0507  
                                    i1l2196 0FC4                                      i1l2188 0FA0  
                                    i1l2268 0DF2                                      i1l4044 05C4  
                                    i1l4036 05B1                                      i1l4052 05CD  
                                    i1l4028 05A4                                      i1l4060 0717  
                                    i1l2292 0FE0                                      i1l4108 05F4  
                                    i1l4212 0682                                      i1l4204 0672  
                                    i1l2524 0214                                      i1l2516 0201  
                                    i1l2508 01E3                                      i1l2532 0221  
                                    i1l2460 0135                                      i1l2452 00FA  
                                    i1l2444 00EA                                      i1l2436 00DA  
                                    i1l2428 00CA                                      i1l2380 0060  
                                    i1l2372 0509                                      i1l2364 04BD  
                                    i1l2198 0FCA                                      i1l4038 05B5  
                                    i1l4062 071C                                      i1l2294 0FE5  
                                    i1l4214 0687                                      i1l4206 0677  
                                    i1l2550 0263                                      i1l2542 0234  
                                    i1l2534 0222                                      i1l2526 0216  
                                    i1l2518 0208                                      i1l2470 014C  
                                    i1l2462 013C                                      i1l2446 00EE  
                                    i1l2438 00DE                                      i1l2454 00FE  
                                    i1l2390 0077                                      i1l2382 0064  
                                    i1l2366 04D1                                      i1l4072 072B  
                                    i1l4080 06EC                                      i1l2296 0FEB  
                                    i1l2288 0FD8                                      i1l4208 067A  
                                    i1l2560 027F                                      i1l2552 026C  
                                    i1l2544 0239                                      i1l2536 0226  
                                    i1l2528 021B                                      i1l2480 0168  
                                    i1l2464 013E                                      i1l2472 0150  
                                    i1l2456 00FF                                      i1l2448 00F2  
                                    u130_20 0096                                      i1l2392 0078  
                                    i1l2384 0065                                      i1l2376 0056  
                                    i1l2368 04ED                                      u130_21 0095  
                                    i1l2570 0DAE                                      i1l5130 05D5  
                                    i1l4066 0723                                      i1l4058 0710  
                                    i1l4082 06F1                                      i1l2298 0FF5  
                                    i1l2562 0283                                      i1l2554 0271  
                                    i1l2546 0241                                      i1l2538 022C  
                                    i1l2490 0181                                      i1l2482 0170  
                                    i1l2474 015A                                      i1l2466 0142  
                                    i1l2458 0116                                      i1l2386 006A  
                                    i1l2394 007A                                      i1l2378 005C  
                                    i1l5132 06DA                                      i1l2572 0DB3  
                                    i1l4068 0727                                      i1l4092 0700  
                                    i1l5124 0613                                      i1l2564 0285  
                                    i1l2556 0279                                      i1l2548 0245  
                                    i1l2492 0185                                      i1l2484 0174  
                                    i1l2476 015F                                      i1l2468 0143  
                                    i1l2396 0082                                      i1l2388 006F  
                                    i1l2900 0E1A                                      u106_25 0F09  
                                    i1l5134 075B                                      i1l5126 0708  
                                    i1l4086 06F8                                      i1l4078 06E5  
                                    i1l2566 028F                                      i1l2558 027E  
                                    i1l2494 0186                                      i1l2486 0178  
                                    i1l2398 0087                                      i1l2902 0E1B  
                                    i1l4270 0016                                      i1l5136 043C  
                                    i1l5128 0733                                      i1l4088 06FC  
                                    i1l4192 065A                                      i1l2568 0293  
                                    i1l2496 018F                                      i1l2488 017F  
                                    u131_20 009C                                      u123_20 04D1  
                                    i1l2904 0E2D                                      i1l4272 001A  
                                    i1l4264 0006                                      u131_21 009B  
                                    u123_21 04D0                                      i1l3810 03E5  
                                    i1l3802 03CA                                      i1l4098 05E0  
                                    i1l4194 065F                                      i1l2498 0194  
                                    i1l2906 0E30                                      i1l4274 0021  
                                    i1l4266 000A                                      i1l3820 040B  
                                    i1l3812 03EA                                      i1l3804 03CB  
                                    i1l4196 0662                                      i1l2852 050B  
                                    i1l4276 0024                                      i1l4268 000E  
                                    u107_25 0E5E                                      i1l3822 0419  
                                    i1l3814 03F1                                      i1l3806 03D0  
                                    i1l3830 0433                                      i1l4198 0667  
                                    i1l2854 053F                                      i1l3824 041E  
                                    i1l3816 03FF                                      i1l3808 03D7  
                                    u116_20 0FEB                                      u132_20 00A1  
                                    u124_20 04ED                                      i1l2856 0548  
                                    u116_21 0FEA                                      u132_21 00A0  
                                    u124_21 04EC                                      i1l3826 0425  
                                    i1l3818 0404                                      i1l2858 054F  
                                    i1l3860 0E7C                                      u108_25 0ED4  
                                    u140_25 0146                                      i1l3862 0E84  
                                    i1l3854 0E6D                                      u109_20 0FB0  
                                    i1l3856 0E73                                      i1l3880 07C2  
                                    u141_20 0156                                      u133_20 00BA  
                                    u125_20 0507                                      u109_21 0FAF  
                                    u141_21 0155                                      u133_21 00B9  
                                    u125_21 0506                                      i1l3858 0E76  
                                    i1l3882 07C9                                      i1l3884 07D6  
                                    i1l3876 07B6                                      u125_25 0503  
                                    i1l3990 0742                                      i1l3886 07D8  
                                    i1l3878 07BC                                      i1l3992 0747  
                                    u310_20 0742                                      u118_20 0DA3  
                                    i1l3888 07DA                                      u150_20 01F3  
                                    u142_20 015A                                      u134_20 00BE  
                                    u126_20 0064                                      u310_21 0741  
                                    u118_21 0DA2                                      u150_21 01F2  
                                    u142_21 0159                                      u134_21 00BD  
                                    u126_21 0063                                      i1l3996 074E  
                                    i1l3988 073B                                      i1l3998 074F  
                                    u311_20 074D                                      u151_20 01F8  
                                    u143_20 015F                                      u135_20 0116  
                                    u127_20 006A                                      u311_21 074C  
                                    u151_21 01F7                                      u143_21 015E  
                                    u135_21 0115                                      u127_21 0069  
                                    u135_25 0112                                      u312_20 06C0  
                                    u320_20 05E7                                      u160_20 0239  
                                    u144_20 0174                                      u136_20 011F  
                                    u128_20 006F                                      u312_21 06BF  
                                    u320_21 05E6                                      u160_21 0238  
                                    u144_21 0173                                      u136_21 011D  
                                    u128_21 006E                                      _INLVLA 038C  
                                    _INLVLB 038D                                      _INLVLC 038E  
                                    u152_25 0202                                      _INLVLE 0390  
                                    u305_20 0E73                                      u313_20 06CB  
                                    u321_20 05F2                                      u161_20 0245  
                                    u153_20 020C                                      u145_20 0178  
                                    u137_20 0120                                      u129_20 008D  
                                    u305_21 0E72                                      u313_21 06CA  
                                    u321_21 05F1                                      u161_21 0244  
                                    u153_21 020B                                      u145_21 0177  
                                    u129_21 008C                                      u314_20 05A4  
                                    u322_20 065F                                      u162_20 0254  
                                    u154_20 0211                                      u146_20 0185  
                                    u138_20 0135                                      u314_21 05A3  
                                    u322_21 065E                                      u154_21 0210  
                                    u146_21 0184                                      u138_21 0134  
                                    u162_25 0250                                      u315_20 05AF  
                                    u323_20 0667                                      u163_20 0263  
                                    u155_20 021B                                      u139_20 0142  
                                    u315_21 05AE                                      u323_21 0666  
                                    u163_21 0262                                      u155_21 021A  
                                    u139_21 0141                                      u147_25 0189  
                                    u316_20 0717                                      u324_20 066F  
                                    u164_20 026C                                      u156_20 0221  
                                    u148_20 01AB                                      u332_20 000A  
                                    u316_21 0716                                      u324_21 066E  
                                    u164_21 026B                                      u156_21 0220  
                                    u148_21 01AA                                      u332_21 0009  
                                    u148_23 01A7                                      u317_20 0722  
                                    u325_20 0677                                      u165_20 0271  
                                    u157_20 0226                                      u149_20 01DA  
                                    u333_20 000E                                      u317_21 0721  
                                    u325_21 0676                                      u165_21 0270  
                                    u157_21 0225                                      u149_21 01D9  
                                    u333_21 000D                                      u318_20 06EC  
                                    u326_20 067F                                      u166_20 027E  
                                    u158_20 022C                                      u182_20 053F  
                                    u334_20 0016                                      u318_21 06EB  
                                    u326_21 067E                                      u166_21 027D  
                                    u158_21 022B                                      u182_21 053E  
                                    u334_21 0015                                      u319_20 06F7  
                                    u327_20 0687                                      u167_20 0283  
                                    u159_20 0233                                      u183_20 054F  
                                    u335_20 001A                                      u319_21 06F6  
                                    u327_21 0686                                      u167_21 0282  
                                    u159_21 0232                                      u183_21 054E  
                                    u335_21 0019                                      u168_20 0293  
                                    u192_20 0E2D                                      u168_21 0292  
                                    u192_21 0E2C                                      u169_20 0DB3  
                                    u169_21 0DB2                                      u380_27 0E52  
                                    u381_27 0FD4                                      u382_27 0EC9  
                                    u383_27 0EDD                                      _OSCCON 0099  
                                    u378_27 001D                                      u379_27 07CF  
                                    _WDTCON 0097                                LCDPutStr@str 002F  
                            _LCDWriteNibble 0F25                                      ___fleq 04BD  
                          __end_of_mainMenu 03CA                            ?i1_disableButton 0070  
                                 ??___fladd 0020                                      _inGame 0040  
                          ?_TMR0_Initialize 0070         __size_of_IOCAF0_SetInterruptHandler 0009  
                                    _player 003C         __size_of_IOCAF3_SetInterruptHandler 0009  
                           ?_WDT_Initialize 0070                              i1LCDPutChar@ch 0076  
                     __end_of_TMR0_CallBack 0555    TMR0_SetInterruptHandler@InterruptHandler 0028  
IOCAF5_SetInterruptHandler@InterruptHandler 0028  IOCAF4_SetInterruptHandler@InterruptHandler 0028  
IOCAF3_SetInterruptHandler@InterruptHandler 0028  IOCAF2_SetInterruptHandler@InterruptHandler 0028  
IOCAF1_SetInterruptHandler@InterruptHandler 0028  IOCAF0_SetInterruptHandler@InterruptHandler 0028  
                          ?_PIN_MANAGER_IOC 0070                         disableButton@player 0028  
                            ??i1_LCDPutChar 0074                                ??_IOCAF0_ISR 0022  
                              ??_IOCAF1_ISR 0022                                ??_IOCAF2_ISR 0022  
                              ??_IOCAF3_ISR 0022                                ??_IOCAF4_ISR 0022  
                              ??_IOCAF5_ISR 0024                                   ?_LCDClear 0070  
                         _SYSTEM_Initialize 0D90                                  ___fleq@ff1 0070  
                                ___fleq@ff2 0074                      __end_of_LCDWriteNibble 0F45  
                   __end_of__initialization 0052      __end_of_IOCAF1_DefaultInterruptHandler 0D3E  
   __size_of_IOCAF1_DefaultInterruptHandler 0001              _IOCAF1_DefaultInterruptHandler 0D3D  
                        ?_SYSTEM_Initialize 0070                              i1LCDPutStr@str 0077  
                                 LCDGoto@ln 002F                               i1_LCDGoto$493 0078  
                            __pcstackCOMMON 0070                                __pidataBANK0 07FE  
                              __pidataBANK1 061E                                __pidataBANK2 0555  
                       ??_SYSTEM_Initialize 002B                                   ?_TMR0_ISR 0070  
                       __size_ofi1_mainMenu 0081                                ??_LCDPutChar 002C  
    __end_of_IOCAF4_DefaultInterruptHandler 0003     __size_of_IOCAF4_DefaultInterruptHandler 0001  
            _IOCAF4_DefaultInterruptHandler 0002                          __size_of_cleanMenu 001E  
                        __end_of_IOCAF0_ISR 0766                          __end_of_IOCAF1_ISR 06E5  
                        __end_of_IOCAF2_ISR 05E0                          __end_of_IOCAF3_ISR 073B  
                        __end_of_IOCAF4_ISR 0710                          __end_of_IOCAF5_ISR 061E  
                 __size_ofi1_LCDWriteNibble 0020                                i1LCDGoto@pos 007A  
                            _OPTION_REGbits 0095                       TMR0_ISR@CountCallBack 00EB  
                      __size_ofi1_LCDPutCmd 001F                 ?_IOCAF2_SetInterruptHandler 0028  
          ??_IOCAF2_DefaultInterruptHandler 0070             ?_IOCAF2_DefaultInterruptHandler 0070  
                      __size_ofi1_LCDPutStr 0026                 ?_IOCAF5_SetInterruptHandler 0028  
                 __end_of_SYSTEM_Initialize 0D9D                                  __pbssBANK0 0038  
                                __pbssBANK1 00EB                                ?i1_cleanMenu 0070  
                              i1LCDPutStr@i 007C                                  ??_LCDClear 007D  
                           ?_LCDWriteNibble 0028                          __end_of_LCDPutChar 07FE  
          ??_IOCAF5_DefaultInterruptHandler 0070             ?_IOCAF5_DefaultInterruptHandler 0070  
                   _IOCAF5_InterruptHandler 00DE                       __size_of_enableButton 0010  
                                __pmaintext 0295                       __end_of_disableButton 0DCE  
                                   ?___fleq 0070            __end_of_TMR0_SetInterruptHandler 0D90  
                                ??_TMR0_ISR 007C                                  __pintentry 0004  
                   ??_createCustomCharacter 0032                    __size_ofi1_cleanFullMenu 001A  
                                   _LCDGoto 078E                          __size_of_printMenu 001F  
                        __size_of_printShip 0028          __end_of_IOCAF0_SetInterruptHandler 0D5A  
                _IOCAF0_SetInterruptHandler 0D51          __end_of_IOCAF3_SetInterruptHandler 0D75  
                _IOCAF3_SetInterruptHandler 0D6C                                     _OSCTUNE 0098  
                                   _SLRCONA 030C                                     _SLRCONB 030D  
                                   _SLRCONC 030E                                   ?_mainMenu 0070  
                        enableButton@player 0070                                _enableButton 0D9D  
                         __end_of_cleanMenu 0EC7                            ??_LCD_Initialize 002F  
                              ?i1_printMenu 0070                             __size_of___fleq 004E  
                                   ___fladd 0056                        __end_ofi1_LCDPutChar 0E6D  
                                   _health1 00DB                                     _health2 00DA  
                                   __ptext1 0EE6                                     __ptext2 033D  
                                   __ptext3 0EA9                                     __ptext4 0E8B  
                                   __ptext5 0766                                     __ptext6 078E  
                                   __ptext7 0DBD                                     __ptext8 068B  
                                   __ptext9 07DE                                     _counter 0038  
                     _OSCILLATOR_Initialize 0D4A                    ??_PIN_MANAGER_Initialize 002A  
                                 _IOCAFbits 0393                                     _shield1 00D9  
                                   _shield2 00D8                                   _IOCANbits 0392  
                                 _IOCAPbits 0391                                ??i1_mainMenu 0020  
                                 _LCDPutCmd 0F45                  __size_of_SYSTEM_Initialize 000D  
                                 _LCDPutStr 0766                        end_of_initialization 0052  
                                ??_mainMenu 0035                                     init_ram 0D44  
                                   initloop 0D45                                   i1_LCDGoto 0FB1  
                                _playerTurn 00ED                           __end_of_printMenu 0F05  
                         __end_of_printShip 1000                          __end_ofi1_mainMenu 044B  
                          ??_WDT_Initialize 0028                    _TMR0_SetInterruptHandler 0D87  
                                 _PORTBbits 000D                            i1_LCDWriteNibble 0F05  
                               ___fladd@grs 007B                     _IOCAF0_InterruptHandler 00E8  
              ??_IOCAF1_SetInterruptHandler 002A                      __size_of_cleanFullMenu 001E  
              ??_IOCAF4_SetInterruptHandler 002A                                  ?_LCDPutCmd 0070  
                                _startFight 07B6                           ??i1_cleanFullMenu 007D  
                                ?_LCDPutStr 002F                                  ?i1_LCDGoto 0077  
                      __size_ofi1_cleanMenu 001C                                  LCDGoto@pos 0032  
                         __size_of_LCDClear 001A                              __end_of___fleq 050B  
                                LCDPutStr@i 0034         __size_of_IOCAF1_SetInterruptHandler 0009  
                         __size_of_TMR0_ISR 001A         __size_of_IOCAF4_SetInterruptHandler 0009  
                    ?_OSCILLATOR_Initialize 0070                    __size_ofi1_disableButton 0010  
                       start_initialization 0029                            printShield@F5870 0120  
                          printShield@F5864 0138                            printShield@F5866 0130  
                          printShield@F5868 0128                    __size_of_TMR0_Initialize 0018  
           __size_of_PIN_MANAGER_Initialize 0072                            ??_LCDWriteNibble 0029  
              createCustomCharacter@Pattern 002F                    __size_of_PIN_MANAGER_IOC 0031  
    __end_of_IOCAF2_DefaultInterruptHandler 0D3F     __size_of_IOCAF2_DefaultInterruptHandler 0001  
            _IOCAF2_DefaultInterruptHandler 0D3E                       __size_ofi1_LCDPutChar 001D  
                             _cleanFullMenu 0E8B                        __size_ofi1_printMenu 001E  
                                  ??___fleq 0078                      __size_of_TMR0_CallBack 004A  
                               __pdataBANK0 0041                                 __pdataBANK1 00A0  
                               __pdataBANK2 0120                               i1LCDPutCmd@ch 0076  
          ??_IOCAF0_DefaultInterruptHandler 0070             ?_IOCAF0_DefaultInterruptHandler 0070  
    __end_of_IOCAF5_DefaultInterruptHandler 0004     __size_of_IOCAF5_DefaultInterruptHandler 0001  
            _IOCAF5_DefaultInterruptHandler 0003                               ??i1_LCDPutCmd 0074  
                             ??i1_LCDPutStr 0079                                   ___fladd@a 0074  
                                 ___fladd@b 0070              __size_of_createCustomCharacter 002E  
             __end_of_createCustomCharacter 06B9                                    ?_LCDGoto 002F  
                                 ___latbits 0003                 ?_IOCAF0_SetInterruptHandler 0028  
                             __pcstackBANK0 0020                               __pcstackBANK3 01A0  
               ?_IOCAF3_SetInterruptHandler 0028                                 ??_LCDPutCmd 002C  
                               ?_startFight 0070                                 ??_LCDPutStr 0031  
          ??_IOCAF3_DefaultInterruptHandler 0070             ?_IOCAF3_DefaultInterruptHandler 0070  
                               i1LCDGoto@ln 0077                                i1_LCDPutChar 0E50  
                         __size_of_mainMenu 008D                                 ??i1_LCDGoto 0078  
                     _TMR0_InterruptHandler 00DC                                   __pnvBANK1 00DC  
                   _IOCAF1_InterruptHandler 00E6                                   _cleanMenu 0EA9  
                    _PIN_MANAGER_Initialize 044B                              ?_cleanFullMenu 0070  
                                  ?___fladd 0070                                   _lcdOffset 0041  
                          LCDWriteNibble@ch 002B                            LCDWriteNibble@rs 0028  
              ??_INTERRUPT_InterruptManager 007D                                   _mainState 003F  
        __end_of_IOCAF1_SetInterruptHandler 0D63                  _IOCAF1_SetInterruptHandler 0D5A  
        __end_of_IOCAF4_SetInterruptHandler 0D7E                  _IOCAF4_SetInterruptHandler 0D75  
                     i1disableButton@player 0070                      __size_of_disableButton 0011  
                       __end_ofi1_LCDPutCmd 0EE6                         __end_ofi1_LCDPutStr 0FB1  
                             _TMR0_CallBack 050B                           ??i1_disableButton 0070  
                                  _LCDClear 0E00                           ??_TMR0_Initialize 002A  
                  __end_ofi1_LCDWriteNibble 0F25                                 _LCDGoto$493 0030  
                                ?_cleanMenu 0070         __size_of_INTERRUPT_InterruptManager 0023  
                ??_TMR0_SetInterruptHandler 002A               createCustomCharacter@Location 0031  
                                 main@F5681 00B8                                   main@F5675 00D0  
                                 main@F5683 00B0                                   main@F5677 00C8  
                                 main@F5685 00A8                                   main@F5679 00C0  
                                  _TMR0_ISR 0E1A                                   _printMenu 0EE6  
                       __size_of_startFight 0028                           ??_PIN_MANAGER_IOC 007D  
                                 _printShip 0FD8                             i1_cleanFullMenu 0DE6  
                          __size_of_LCDGoto 0028                              ?_TMR0_CallBack 0070  
                           ??_cleanFullMenu 0035                               _disableButton 0DBD  
                   ??_OSCILLATOR_Initialize 0028                     __size_of_LCD_Initialize 0023  
                                ?_printMenu 0070                                  ?_printShip 0070  
                          __size_of___fladd 023F                                 i1_LCDPutCmd 0EC7  
                               i1_LCDPutStr 0F8B                     _IOCAF2_InterruptHandler 00E4  
              ??_IOCAF2_SetInterruptHandler 002A                                    __ptext10 0D90  
                                  __ptext11 0D40                                    __ptext20 0D51  
                                  __ptext12 0DCE                                    __ptext21 0D4A  
                                  __ptext13 0D87                                    __ptext30 07FF  
                                  __ptext22 0F68                                    __ptext14 044B  
                                  __ptext31 065A                                    __ptext23 0F45  
                                  __ptext15 0D7E                                    __ptext40 0D3F  
                                  __ptext32 05E0                                    __ptext24 0F25  
                                  __ptext16 0D75                                    __ptext41 059D  
                                  __ptext33 07B6                                    __ptext17 0D6C  
                                  __ptext50 0E34                                    __ptext42 0DAD  
                                  __ptext34 0FD8                                    __ptext26 0E1A  
                                  __ptext18 0D63                                    __ptext51 0DE6  
                                  __ptext43 0D9D                                    __ptext35 0E00  
                                  __ptext27 050B                                    __ptext19 0D5A  
                                  __ptext52 0F8B                                    __ptext44 0D3E  
                                  __ptext36 0003                                    __ptext28 04BD  
                                  __ptext53 0E50                                    __ptext45 06B9  
                                  __ptext37 06E5                                    __ptext29 0056  
                                  __ptext54 0FB1                                    __ptext46 0D3D  
                                  __ptext38 0002                                    __ptext55 0EC7  
                                  __ptext47 073B                                    __ptext39 0710  
                                  __ptext56 0F05                                    __ptext48 0E6D  
                                  __ptext57 0D3C                                    __ptext49 03CA  
              ??_IOCAF5_SetInterruptHandler 002A                                  _IOCAF0_ISR 073B  
                                _IOCAF1_ISR 06B9                                    _mainMenu 033D  
                                _IOCAF2_ISR 059D                               ??i1_cleanMenu 007D  
                                _IOCAF3_ISR 0710                                  _IOCAF4_ISR 06E5  
                                _IOCAF5_ISR 05E0                               __size_of_main 00A8  
      __end_of_TMR0_DefaultInterruptHandler 0800       __size_of_TMR0_DefaultInterruptHandler 0001  
              _TMR0_DefaultInterruptHandler 07FF                                 ??_cleanMenu 0035  
                        i1LCDWriteNibble@ch 0073                          i1LCDWriteNibble@rs 0070  
                   __end_ofi1_cleanFullMenu 0E00                              ?_disableButton 0070  
                                  int$flags 007E          __end_of_INTERRUPT_InterruptManager 0027  
                _INTERRUPT_InterruptManager 0004                                  _LCDPutChar 07DE  
       __size_of_IOCAF2_SetInterruptHandler 0009         __size_of_IOCAF5_SetInterruptHandler 0009  
                                _INTCONbits 000B                             ??_TMR0_CallBack 007C  
                              ??_startFight 0022                     __size_of_WDT_Initialize 0004  
                                  intlevel1 0000      __end_of_IOCAF0_DefaultInterruptHandler 0D3D  
   __size_of_IOCAF0_DefaultInterruptHandler 0001              _IOCAF0_DefaultInterruptHandler 0D3C  
                             ?_enableButton 0070                     ?_PIN_MANAGER_Initialize 0070  
                             ??i1_printMenu 007D                         __end_ofi1_cleanMenu 0E50  
             ?_TMR0_DefaultInterruptHandler 0070      __end_of_IOCAF3_DefaultInterruptHandler 0D40  
   __size_of_IOCAF3_DefaultInterruptHandler 0001              _IOCAF3_DefaultInterruptHandler 0D3F  
                               ??_printMenu 0037                                 ??_printShip 007D  
                        __end_of_startFight 07DE                               __pstringtext1 1000  
                             __pstringtext2 1011                               __pstringtext3 101F  
                             __pstringtext4 102D                               __pstringtext5 103B  
                             __pstringtext6 1049                               __pstringtext7 1055  
                             __pstringtext8 1060                               __pstringtext9 0000  
                           i1_disableButton 0DAD                                  _OPTION_REG 0095  
          ??_IOCAF1_DefaultInterruptHandler 0070             ?_IOCAF1_DefaultInterruptHandler 0070  
                           _TMR0_Initialize 0DCE                 ?_IOCAF1_SetInterruptHandler 0028  
                     _createCustomCharacter 068B                 ?_IOCAF4_SetInterruptHandler 0028  
                             ___fladd@signs 0078                              ??_enableButton 0070  
                               ?_IOCAF0_ISR 0070                                 ?_IOCAF1_ISR 0070  
                               ?_IOCAF2_ISR 0070                                 ?_IOCAF3_ISR 0070  
                               ?_IOCAF4_ISR 0070                                 ?_IOCAF5_ISR 0070  
            __end_of_PIN_MANAGER_Initialize 04BD            ??_IOCAF4_DefaultInterruptHandler 0070  
           ?_IOCAF4_DefaultInterruptHandler 0070                                ___fladd@aexp 0079  
                              ___fladd@bexp 007A                             _PIN_MANAGER_IOC 065A  
                         ?i1_LCDWriteNibble 0070                     __size_of_LCDWriteNibble 0020  
                           ??_disableButton 0028                     _IOCAF3_InterruptHandler 00E2  
                        ??i1_LCDWriteNibble 0071  
