

Microchip MPLAB XC8 Assembler V2.31 build 20201012212115 
                                                                                               Mon Jul 19 20:55:00 2021

Microchip MPLAB XC8 C Compiler v2.31 (Free license) build 20201012212115 Og1 
     1                           	processor	16LF1718
     2                           	pagewidth 120
     3                           	opt	flic
     4                           	psect	idataBANK0,global,class=CODE,delta=2,noexec
     5                           	psect	idataBANK1,global,class=CODE,delta=2,noexec
     6                           	psect	nvBANK0,global,class=BANK0,space=1,delta=1,noexec
     7                           	psect	stringtext1,global,class=STRCODE,delta=2,noexec
     8                           	psect	stringtext2,global,class=STRCODE,delta=2,noexec
     9                           	psect	stringtext3,global,class=STRCODE,delta=2,noexec
    10                           	psect	stringtext4,global,class=STRCODE,delta=2,noexec
    11                           	psect	stringtext5,global,class=STRCODE,delta=2,noexec
    12                           	psect	stringtext6,global,class=STRCODE,delta=2,noexec
    13                           	psect	stringtext7,global,class=STRCODE,delta=2,noexec
    14                           	psect	stringtext8,global,class=STRCODE,delta=2,noexec
    15                           	psect	stringtext9,global,class=STRCODE,delta=2,noexec
    16                           	psect	cinit,global,class=CODE,merge=1,delta=2
    17                           	psect	bssBANK0,global,class=BANK0,space=1,delta=1,noexec
    18                           	psect	dataBANK0,global,class=BANK0,space=1,delta=1,noexec
    19                           	psect	dataBANK1,global,class=BANK1,space=1,delta=1,noexec
    20                           	psect	inittext,global,class=CODE,delta=2
    21                           	psect	cstackBANK1,global,class=BANK1,space=1,delta=1,noexec
    22                           	psect	cstackCOMMON,global,class=COMMON,space=1,delta=1,noexec
    23                           	psect	cstackBANK0,global,class=BANK0,space=1,delta=1,noexec
    24                           	psect	maintext,global,class=CODE,merge=1,split=1,delta=2
    25                           	psect	text1,local,class=CODE,merge=1,delta=2
    26                           	psect	text2,local,class=CODE,merge=1,delta=2
    27                           	psect	text3,local,class=CODE,merge=1,delta=2
    28                           	psect	text4,local,class=CODE,merge=1,delta=2
    29                           	psect	text5,local,class=CODE,merge=1,delta=2
    30                           	psect	text6,local,class=CODE,merge=1,delta=2
    31                           	psect	text7,local,class=CODE,merge=1,delta=2
    32                           	psect	text8,local,class=CODE,merge=1,delta=2
    33                           	psect	text9,local,class=CODE,merge=1,delta=2
    34                           	psect	text10,local,class=CODE,merge=1,delta=2
    35                           	psect	text11,local,class=CODE,merge=1,delta=2
    36                           	psect	text12,local,class=CODE,merge=1,delta=2
    37                           	psect	text13,local,class=CODE,merge=1,delta=2
    38                           	psect	text14,local,class=CODE,merge=1,delta=2
    39                           	psect	text15,local,class=CODE,merge=1,delta=2
    40                           	psect	text16,local,class=CODE,merge=1,delta=2
    41                           	psect	text17,local,class=CODE,merge=1,delta=2
    42                           	psect	text18,local,class=CODE,merge=1,delta=2
    43                           	psect	text19,local,class=CODE,merge=1,delta=2
    44                           	psect	text20,local,class=CODE,merge=1,delta=2
    45                           	psect	text21,local,class=CODE,merge=1,delta=2
    46                           	psect	intentry,global,class=CODE,delta=2
    47                           	psect	text23,local,class=CODE,merge=1,delta=2
    48                           	psect	text24,local,class=CODE,merge=1,delta=2
    49                           	psect	text25,local,class=CODE,merge=1,delta=2
    50                           	psect	text26,local,class=CODE,merge=1,delta=2
    51                           	psect	text27,local,class=CODE,merge=1,delta=2
    52                           	psect	text28,local,class=CODE,merge=1,delta=2
    53                           	psect	text29,local,class=CODE,merge=1,delta=2
    54                           	psect	text30,local,class=CODE,merge=1,delta=2
    55                           	psect	text31,local,class=CODE,merge=1,delta=2
    56                           	psect	text32,local,class=CODE,merge=1,delta=2
    57                           	psect	text33,local,class=CODE,merge=1,delta=2
    58                           	psect	text34,local,class=CODE,merge=1,delta=2
    59                           	psect	text35,local,class=CODE,merge=1,delta=2
    60                           	psect	text36,local,class=CODE,merge=1,delta=2
    61                           	psect	text37,local,class=CODE,merge=1,delta=2
    62                           	psect	text38,local,class=CODE,merge=1,delta=2
    63                           	psect	text39,local,class=CODE,merge=1,delta=2
    64                           	psect	text40,local,class=CODE,merge=1,delta=2
    65                           	psect	text41,local,class=CODE,merge=1,delta=2
    66                           	psect	text42,local,class=CODE,merge=1,delta=2
    67                           	psect	text43,local,class=CODE,merge=1,delta=2
    68                           	psect	text44,local,class=CODE,merge=1,delta=2
    69                           	psect	text45,local,class=CODE,merge=1,delta=2
    70                           	psect	text46,local,class=CODE,merge=1,delta=2
    71                           	psect	text47,local,class=CODE,merge=1,delta=2
    72                           	psect	config,global,abs,ovrld,class=CONFIG,space=4,delta=2,noexec
    73                           	dabs	1,0x7E,2
    74  0000                     
    75                           ; Version 2.20
    76                           ; Generated 12/02/2020 GMT
    77                           ; 
    78                           ; Copyright © 2020, Microchip Technology Inc. and its subsidiaries ("Microchip")
    79                           ; All rights reserved.
    80                           ; 
    81                           ; This software is developed by Microchip Technology Inc. and its subsidiaries ("Microch
      +                          ip").
    82                           ; 
    83                           ; Redistribution and use in source and binary forms, with or without modification, are
    84                           ; permitted provided that the following conditions are met:
    85                           ; 
    86                           ;     1. Redistributions of source code must retain the above copyright notice, this lis
      +                          t of
    87                           ;        conditions and the following disclaimer.
    88                           ; 
    89                           ;     2. Redistributions in binary form must reproduce the above copyright notice, this 
      +                          list
    90                           ;        of conditions and the following disclaimer in the documentation and/or other
    91                           ;        materials provided with the distribution.
    92                           ; 
    93                           ;     3. Microchip's name may not be used to endorse or promote products derived from th
      +                          is
    94                           ;        software without specific prior written permission.
    95                           ; 
    96                           ; THIS SOFTWARE IS PROVIDED BY MICROCHIP "AS IS" AND ANY EXPRESS OR IMPLIED WARRANTIES,
    97                           ; INCLUDING, BUT NOT LIMITED TO, THE IMPLIED WARRANTIES OF MERCHANTABILITY AND FITNESS F
      +                          OR
    98                           ; PURPOSE ARE DISCLAIMED.  IN NO EVENT SHALL MICROCHIP BE LIABLE FOR ANY DIRECT, INDIREC
      +                          T,
    99                           ; INCIDENTAL, SPECIAL, EXEMPLARY, OR CONSEQUENTIAL DAMAGES (INCLUDING BUT NOT LIMITED TO
   100                           ; PROCUREMENT OF SUBSTITUTE GOODS OR SERVICES; LOSS OF USE, DATA OR PROFITS; OR BUSINESS
   101                           ; INTERRUPTION) HOWSOEVER CAUSED AND ON ANY THEORY OF LIABILITY, WHETHER IN CONTRACT, ST
      +                          RICT
   102                           ; LIABILITY, OR TORT (INCLUDING NEGLIGENCE OR OTHERWISE) ARISING IN ANY WAY OUT OF THE U
      +                          SE OF
   103                           ; THIS SOFTWARE, EVEN IF ADVISED OF THE POSSIBILITY OF SUCH DAMAGE.
   104                           ; 
   105                           ; 
   106                           ; Code-generator required, PIC16LF1718 Definitions
   107                           ; 
   108                           ; SFR Addresses
   109  0000                     	;# 
   110  0001                     	;# 
   111  0002                     	;# 
   112  0003                     	;# 
   113  0004                     	;# 
   114  0005                     	;# 
   115  0006                     	;# 
   116  0007                     	;# 
   117  0008                     	;# 
   118  0009                     	;# 
   119  000A                     	;# 
   120  000B                     	;# 
   121  000C                     	;# 
   122  000D                     	;# 
   123  000E                     	;# 
   124  0010                     	;# 
   125  0011                     	;# 
   126  0012                     	;# 
   127  0013                     	;# 
   128  0015                     	;# 
   129  0016                     	;# 
   130  0016                     	;# 
   131  0017                     	;# 
   132  0018                     	;# 
   133  0019                     	;# 
   134  001A                     	;# 
   135  001B                     	;# 
   136  001C                     	;# 
   137  008C                     	;# 
   138  008D                     	;# 
   139  008E                     	;# 
   140  0090                     	;# 
   141  0091                     	;# 
   142  0092                     	;# 
   143  0093                     	;# 
   144  0095                     	;# 
   145  0096                     	;# 
   146  0097                     	;# 
   147  0098                     	;# 
   148  0099                     	;# 
   149  009A                     	;# 
   150  009B                     	;# 
   151  009B                     	;# 
   152  009C                     	;# 
   153  009D                     	;# 
   154  009E                     	;# 
   155  009F                     	;# 
   156  010C                     	;# 
   157  010D                     	;# 
   158  010E                     	;# 
   159  0111                     	;# 
   160  0112                     	;# 
   161  0113                     	;# 
   162  0114                     	;# 
   163  0115                     	;# 
   164  0116                     	;# 
   165  0117                     	;# 
   166  0118                     	;# 
   167  0119                     	;# 
   168  011A                     	;# 
   169  011B                     	;# 
   170  011B                     	;# 
   171  011C                     	;# 
   172  018C                     	;# 
   173  018D                     	;# 
   174  018E                     	;# 
   175  0191                     	;# 
   176  0191                     	;# 
   177  0192                     	;# 
   178  0193                     	;# 
   179  0193                     	;# 
   180  0194                     	;# 
   181  0195                     	;# 
   182  0196                     	;# 
   183  0199                     	;# 
   184  0199                     	;# 
   185  0199                     	;# 
   186  019A                     	;# 
   187  019A                     	;# 
   188  019A                     	;# 
   189  019B                     	;# 
   190  019B                     	;# 
   191  019B                     	;# 
   192  019B                     	;# 
   193  019B                     	;# 
   194  019C                     	;# 
   195  019C                     	;# 
   196  019C                     	;# 
   197  019D                     	;# 
   198  019D                     	;# 
   199  019D                     	;# 
   200  019E                     	;# 
   201  019E                     	;# 
   202  019E                     	;# 
   203  019F                     	;# 
   204  019F                     	;# 
   205  019F                     	;# 
   206  019F                     	;# 
   207  019F                     	;# 
   208  020C                     	;# 
   209  020D                     	;# 
   210  020E                     	;# 
   211  0210                     	;# 
   212  0211                     	;# 
   213  0211                     	;# 
   214  0212                     	;# 
   215  0212                     	;# 
   216  0213                     	;# 
   217  0213                     	;# 
   218  0214                     	;# 
   219  0214                     	;# 
   220  0215                     	;# 
   221  0215                     	;# 
   222  0215                     	;# 
   223  0215                     	;# 
   224  0216                     	;# 
   225  0216                     	;# 
   226  0217                     	;# 
   227  0217                     	;# 
   228  028C                     	;# 
   229  028D                     	;# 
   230  028E                     	;# 
   231  0291                     	;# 
   232  0291                     	;# 
   233  0292                     	;# 
   234  0293                     	;# 
   235  0293                     	;# 
   236  0298                     	;# 
   237  0298                     	;# 
   238  0299                     	;# 
   239  029A                     	;# 
   240  029A                     	;# 
   241  029E                     	;# 
   242  030C                     	;# 
   243  030D                     	;# 
   244  030E                     	;# 
   245  038C                     	;# 
   246  038D                     	;# 
   247  038E                     	;# 
   248  0390                     	;# 
   249  0391                     	;# 
   250  0392                     	;# 
   251  0393                     	;# 
   252  0394                     	;# 
   253  0395                     	;# 
   254  0396                     	;# 
   255  0397                     	;# 
   256  0398                     	;# 
   257  0399                     	;# 
   258  039D                     	;# 
   259  039E                     	;# 
   260  039F                     	;# 
   261  0415                     	;# 
   262  0416                     	;# 
   263  0417                     	;# 
   264  041C                     	;# 
   265  041D                     	;# 
   266  041E                     	;# 
   267  0498                     	;# 
   268  0498                     	;# 
   269  0499                     	;# 
   270  049A                     	;# 
   271  049B                     	;# 
   272  049B                     	;# 
   273  049C                     	;# 
   274  049D                     	;# 
   275  049E                     	;# 
   276  049F                     	;# 
   277  0511                     	;# 
   278  0515                     	;# 
   279  0617                     	;# 
   280  0618                     	;# 
   281  0619                     	;# 
   282  0619                     	;# 
   283  061A                     	;# 
   284  061B                     	;# 
   285  061C                     	;# 
   286  061C                     	;# 
   287  0691                     	;# 
   288  0692                     	;# 
   289  0693                     	;# 
   290  0694                     	;# 
   291  0695                     	;# 
   292  0696                     	;# 
   293  0697                     	;# 
   294  0698                     	;# 
   295  0699                     	;# 
   296  069A                     	;# 
   297  069B                     	;# 
   298  069C                     	;# 
   299  069D                     	;# 
   300  069E                     	;# 
   301  069F                     	;# 
   302  0E0F                     	;# 
   303  0E10                     	;# 
   304  0E11                     	;# 
   305  0E12                     	;# 
   306  0E13                     	;# 
   307  0E14                     	;# 
   308  0E15                     	;# 
   309  0E17                     	;# 
   310  0E20                     	;# 
   311  0E21                     	;# 
   312  0E22                     	;# 
   313  0E24                     	;# 
   314  0E25                     	;# 
   315  0E28                     	;# 
   316  0E29                     	;# 
   317  0E2A                     	;# 
   318  0E2B                     	;# 
   319  0E90                     	;# 
   320  0E91                     	;# 
   321  0E92                     	;# 
   322  0E93                     	;# 
   323  0E94                     	;# 
   324  0E95                     	;# 
   325  0E96                     	;# 
   326  0E97                     	;# 
   327  0E98                     	;# 
   328  0E99                     	;# 
   329  0E9A                     	;# 
   330  0E9B                     	;# 
   331  0E9C                     	;# 
   332  0E9D                     	;# 
   333  0E9E                     	;# 
   334  0E9F                     	;# 
   335  0EA0                     	;# 
   336  0EA1                     	;# 
   337  0EA2                     	;# 
   338  0EA3                     	;# 
   339  0EA4                     	;# 
   340  0EA5                     	;# 
   341  0EA6                     	;# 
   342  0EA7                     	;# 
   343  0F0F                     	;# 
   344  0F10                     	;# 
   345  0F11                     	;# 
   346  0F12                     	;# 
   347  0F13                     	;# 
   348  0F14                     	;# 
   349  0F15                     	;# 
   350  0F16                     	;# 
   351  0F17                     	;# 
   352  0F18                     	;# 
   353  0F19                     	;# 
   354  0F1A                     	;# 
   355  0F1B                     	;# 
   356  0F1C                     	;# 
   357  0F1D                     	;# 
   358  0F1E                     	;# 
   359  0F1F                     	;# 
   360  0F20                     	;# 
   361  0F21                     	;# 
   362  0F22                     	;# 
   363  0F23                     	;# 
   364  0F24                     	;# 
   365  0F25                     	;# 
   366  0F26                     	;# 
   367  0F27                     	;# 
   368  0F28                     	;# 
   369  0F29                     	;# 
   370  0F2A                     	;# 
   371  0F2B                     	;# 
   372  0F2C                     	;# 
   373  0F2D                     	;# 
   374  0F2E                     	;# 
   375  0F2F                     	;# 
   376  0F30                     	;# 
   377  0F31                     	;# 
   378  0F32                     	;# 
   379  0F33                     	;# 
   380  0F34                     	;# 
   381  0F35                     	;# 
   382  0F36                     	;# 
   383  0F37                     	;# 
   384  0FE4                     	;# 
   385  0FE5                     	;# 
   386  0FE6                     	;# 
   387  0FE7                     	;# 
   388  0FE8                     	;# 
   389  0FE9                     	;# 
   390  0FEA                     	;# 
   391  0FEB                     	;# 
   392  0FED                     	;# 
   393  0FEE                     	;# 
   394  0FEF                     	;# 
   395  0000                     	;# 
   396  0001                     	;# 
   397  0002                     	;# 
   398  0003                     	;# 
   399  0004                     	;# 
   400  0005                     	;# 
   401  0006                     	;# 
   402  0007                     	;# 
   403  0008                     	;# 
   404  0009                     	;# 
   405  000A                     	;# 
   406  000B                     	;# 
   407  000C                     	;# 
   408  000D                     	;# 
   409  000E                     	;# 
   410  0010                     	;# 
   411  0011                     	;# 
   412  0012                     	;# 
   413  0013                     	;# 
   414  0015                     	;# 
   415  0016                     	;# 
   416  0016                     	;# 
   417  0017                     	;# 
   418  0018                     	;# 
   419  0019                     	;# 
   420  001A                     	;# 
   421  001B                     	;# 
   422  001C                     	;# 
   423  008C                     	;# 
   424  008D                     	;# 
   425  008E                     	;# 
   426  0090                     	;# 
   427  0091                     	;# 
   428  0092                     	;# 
   429  0093                     	;# 
   430  0095                     	;# 
   431  0096                     	;# 
   432  0097                     	;# 
   433  0098                     	;# 
   434  0099                     	;# 
   435  009A                     	;# 
   436  009B                     	;# 
   437  009B                     	;# 
   438  009C                     	;# 
   439  009D                     	;# 
   440  009E                     	;# 
   441  009F                     	;# 
   442  010C                     	;# 
   443  010D                     	;# 
   444  010E                     	;# 
   445  0111                     	;# 
   446  0112                     	;# 
   447  0113                     	;# 
   448  0114                     	;# 
   449  0115                     	;# 
   450  0116                     	;# 
   451  0117                     	;# 
   452  0118                     	;# 
   453  0119                     	;# 
   454  011A                     	;# 
   455  011B                     	;# 
   456  011B                     	;# 
   457  011C                     	;# 
   458  018C                     	;# 
   459  018D                     	;# 
   460  018E                     	;# 
   461  0191                     	;# 
   462  0191                     	;# 
   463  0192                     	;# 
   464  0193                     	;# 
   465  0193                     	;# 
   466  0194                     	;# 
   467  0195                     	;# 
   468  0196                     	;# 
   469  0199                     	;# 
   470  0199                     	;# 
   471  0199                     	;# 
   472  019A                     	;# 
   473  019A                     	;# 
   474  019A                     	;# 
   475  019B                     	;# 
   476  019B                     	;# 
   477  019B                     	;# 
   478  019B                     	;# 
   479  019B                     	;# 
   480  019C                     	;# 
   481  019C                     	;# 
   482  019C                     	;# 
   483  019D                     	;# 
   484  019D                     	;# 
   485  019D                     	;# 
   486  019E                     	;# 
   487  019E                     	;# 
   488  019E                     	;# 
   489  019F                     	;# 
   490  019F                     	;# 
   491  019F                     	;# 
   492  019F                     	;# 
   493  019F                     	;# 
   494  020C                     	;# 
   495  020D                     	;# 
   496  020E                     	;# 
   497  0210                     	;# 
   498  0211                     	;# 
   499  0211                     	;# 
   500  0212                     	;# 
   501  0212                     	;# 
   502  0213                     	;# 
   503  0213                     	;# 
   504  0214                     	;# 
   505  0214                     	;# 
   506  0215                     	;# 
   507  0215                     	;# 
   508  0215                     	;# 
   509  0215                     	;# 
   510  0216                     	;# 
   511  0216                     	;# 
   512  0217                     	;# 
   513  0217                     	;# 
   514  028C                     	;# 
   515  028D                     	;# 
   516  028E                     	;# 
   517  0291                     	;# 
   518  0291                     	;# 
   519  0292                     	;# 
   520  0293                     	;# 
   521  0293                     	;# 
   522  0298                     	;# 
   523  0298                     	;# 
   524  0299                     	;# 
   525  029A                     	;# 
   526  029A                     	;# 
   527  029E                     	;# 
   528  030C                     	;# 
   529  030D                     	;# 
   530  030E                     	;# 
   531  038C                     	;# 
   532  038D                     	;# 
   533  038E                     	;# 
   534  0390                     	;# 
   535  0391                     	;# 
   536  0392                     	;# 
   537  0393                     	;# 
   538  0394                     	;# 
   539  0395                     	;# 
   540  0396                     	;# 
   541  0397                     	;# 
   542  0398                     	;# 
   543  0399                     	;# 
   544  039D                     	;# 
   545  039E                     	;# 
   546  039F                     	;# 
   547  0415                     	;# 
   548  0416                     	;# 
   549  0417                     	;# 
   550  041C                     	;# 
   551  041D                     	;# 
   552  041E                     	;# 
   553  0498                     	;# 
   554  0498                     	;# 
   555  0499                     	;# 
   556  049A                     	;# 
   557  049B                     	;# 
   558  049B                     	;# 
   559  049C                     	;# 
   560  049D                     	;# 
   561  049E                     	;# 
   562  049F                     	;# 
   563  0511                     	;# 
   564  0515                     	;# 
   565  0617                     	;# 
   566  0618                     	;# 
   567  0619                     	;# 
   568  0619                     	;# 
   569  061A                     	;# 
   570  061B                     	;# 
   571  061C                     	;# 
   572  061C                     	;# 
   573  0691                     	;# 
   574  0692                     	;# 
   575  0693                     	;# 
   576  0694                     	;# 
   577  0695                     	;# 
   578  0696                     	;# 
   579  0697                     	;# 
   580  0698                     	;# 
   581  0699                     	;# 
   582  069A                     	;# 
   583  069B                     	;# 
   584  069C                     	;# 
   585  069D                     	;# 
   586  069E                     	;# 
   587  069F                     	;# 
   588  0E0F                     	;# 
   589  0E10                     	;# 
   590  0E11                     	;# 
   591  0E12                     	;# 
   592  0E13                     	;# 
   593  0E14                     	;# 
   594  0E15                     	;# 
   595  0E17                     	;# 
   596  0E20                     	;# 
   597  0E21                     	;# 
   598  0E22                     	;# 
   599  0E24                     	;# 
   600  0E25                     	;# 
   601  0E28                     	;# 
   602  0E29                     	;# 
   603  0E2A                     	;# 
   604  0E2B                     	;# 
   605  0E90                     	;# 
   606  0E91                     	;# 
   607  0E92                     	;# 
   608  0E93                     	;# 
   609  0E94                     	;# 
   610  0E95                     	;# 
   611  0E96                     	;# 
   612  0E97                     	;# 
   613  0E98                     	;# 
   614  0E99                     	;# 
   615  0E9A                     	;# 
   616  0E9B                     	;# 
   617  0E9C                     	;# 
   618  0E9D                     	;# 
   619  0E9E                     	;# 
   620  0E9F                     	;# 
   621  0EA0                     	;# 
   622  0EA1                     	;# 
   623  0EA2                     	;# 
   624  0EA3                     	;# 
   625  0EA4                     	;# 
   626  0EA5                     	;# 
   627  0EA6                     	;# 
   628  0EA7                     	;# 
   629  0F0F                     	;# 
   630  0F10                     	;# 
   631  0F11                     	;# 
   632  0F12                     	;# 
   633  0F13                     	;# 
   634  0F14                     	;# 
   635  0F15                     	;# 
   636  0F16                     	;# 
   637  0F17                     	;# 
   638  0F18                     	;# 
   639  0F19                     	;# 
   640  0F1A                     	;# 
   641  0F1B                     	;# 
   642  0F1C                     	;# 
   643  0F1D                     	;# 
   644  0F1E                     	;# 
   645  0F1F                     	;# 
   646  0F20                     	;# 
   647  0F21                     	;# 
   648  0F22                     	;# 
   649  0F23                     	;# 
   650  0F24                     	;# 
   651  0F25                     	;# 
   652  0F26                     	;# 
   653  0F27                     	;# 
   654  0F28                     	;# 
   655  0F29                     	;# 
   656  0F2A                     	;# 
   657  0F2B                     	;# 
   658  0F2C                     	;# 
   659  0F2D                     	;# 
   660  0F2E                     	;# 
   661  0F2F                     	;# 
   662  0F30                     	;# 
   663  0F31                     	;# 
   664  0F32                     	;# 
   665  0F33                     	;# 
   666  0F34                     	;# 
   667  0F35                     	;# 
   668  0F36                     	;# 
   669  0F37                     	;# 
   670  0FE4                     	;# 
   671  0FE5                     	;# 
   672  0FE6                     	;# 
   673  0FE7                     	;# 
   674  0FE8                     	;# 
   675  0FE9                     	;# 
   676  0FEA                     	;# 
   677  0FEB                     	;# 
   678  0FED                     	;# 
   679  0FEE                     	;# 
   680  0FEF                     	;# 
   681  0000                     	;# 
   682  0001                     	;# 
   683  0002                     	;# 
   684  0003                     	;# 
   685  0004                     	;# 
   686  0005                     	;# 
   687  0006                     	;# 
   688  0007                     	;# 
   689  0008                     	;# 
   690  0009                     	;# 
   691  000A                     	;# 
   692  000B                     	;# 
   693  000C                     	;# 
   694  000D                     	;# 
   695  000E                     	;# 
   696  0010                     	;# 
   697  0011                     	;# 
   698  0012                     	;# 
   699  0013                     	;# 
   700  0015                     	;# 
   701  0016                     	;# 
   702  0016                     	;# 
   703  0017                     	;# 
   704  0018                     	;# 
   705  0019                     	;# 
   706  001A                     	;# 
   707  001B                     	;# 
   708  001C                     	;# 
   709  008C                     	;# 
   710  008D                     	;# 
   711  008E                     	;# 
   712  0090                     	;# 
   713  0091                     	;# 
   714  0092                     	;# 
   715  0093                     	;# 
   716  0095                     	;# 
   717  0096                     	;# 
   718  0097                     	;# 
   719  0098                     	;# 
   720  0099                     	;# 
   721  009A                     	;# 
   722  009B                     	;# 
   723  009B                     	;# 
   724  009C                     	;# 
   725  009D                     	;# 
   726  009E                     	;# 
   727  009F                     	;# 
   728  010C                     	;# 
   729  010D                     	;# 
   730  010E                     	;# 
   731  0111                     	;# 
   732  0112                     	;# 
   733  0113                     	;# 
   734  0114                     	;# 
   735  0115                     	;# 
   736  0116                     	;# 
   737  0117                     	;# 
   738  0118                     	;# 
   739  0119                     	;# 
   740  011A                     	;# 
   741  011B                     	;# 
   742  011B                     	;# 
   743  011C                     	;# 
   744  018C                     	;# 
   745  018D                     	;# 
   746  018E                     	;# 
   747  0191                     	;# 
   748  0191                     	;# 
   749  0192                     	;# 
   750  0193                     	;# 
   751  0193                     	;# 
   752  0194                     	;# 
   753  0195                     	;# 
   754  0196                     	;# 
   755  0199                     	;# 
   756  0199                     	;# 
   757  0199                     	;# 
   758  019A                     	;# 
   759  019A                     	;# 
   760  019A                     	;# 
   761  019B                     	;# 
   762  019B                     	;# 
   763  019B                     	;# 
   764  019B                     	;# 
   765  019B                     	;# 
   766  019C                     	;# 
   767  019C                     	;# 
   768  019C                     	;# 
   769  019D                     	;# 
   770  019D                     	;# 
   771  019D                     	;# 
   772  019E                     	;# 
   773  019E                     	;# 
   774  019E                     	;# 
   775  019F                     	;# 
   776  019F                     	;# 
   777  019F                     	;# 
   778  019F                     	;# 
   779  019F                     	;# 
   780  020C                     	;# 
   781  020D                     	;# 
   782  020E                     	;# 
   783  0210                     	;# 
   784  0211                     	;# 
   785  0211                     	;# 
   786  0212                     	;# 
   787  0212                     	;# 
   788  0213                     	;# 
   789  0213                     	;# 
   790  0214                     	;# 
   791  0214                     	;# 
   792  0215                     	;# 
   793  0215                     	;# 
   794  0215                     	;# 
   795  0215                     	;# 
   796  0216                     	;# 
   797  0216                     	;# 
   798  0217                     	;# 
   799  0217                     	;# 
   800  028C                     	;# 
   801  028D                     	;# 
   802  028E                     	;# 
   803  0291                     	;# 
   804  0291                     	;# 
   805  0292                     	;# 
   806  0293                     	;# 
   807  0293                     	;# 
   808  0298                     	;# 
   809  0298                     	;# 
   810  0299                     	;# 
   811  029A                     	;# 
   812  029A                     	;# 
   813  029E                     	;# 
   814  030C                     	;# 
   815  030D                     	;# 
   816  030E                     	;# 
   817  038C                     	;# 
   818  038D                     	;# 
   819  038E                     	;# 
   820  0390                     	;# 
   821  0391                     	;# 
   822  0392                     	;# 
   823  0393                     	;# 
   824  0394                     	;# 
   825  0395                     	;# 
   826  0396                     	;# 
   827  0397                     	;# 
   828  0398                     	;# 
   829  0399                     	;# 
   830  039D                     	;# 
   831  039E                     	;# 
   832  039F                     	;# 
   833  0415                     	;# 
   834  0416                     	;# 
   835  0417                     	;# 
   836  041C                     	;# 
   837  041D                     	;# 
   838  041E                     	;# 
   839  0498                     	;# 
   840  0498                     	;# 
   841  0499                     	;# 
   842  049A                     	;# 
   843  049B                     	;# 
   844  049B                     	;# 
   845  049C                     	;# 
   846  049D                     	;# 
   847  049E                     	;# 
   848  049F                     	;# 
   849  0511                     	;# 
   850  0515                     	;# 
   851  0617                     	;# 
   852  0618                     	;# 
   853  0619                     	;# 
   854  0619                     	;# 
   855  061A                     	;# 
   856  061B                     	;# 
   857  061C                     	;# 
   858  061C                     	;# 
   859  0691                     	;# 
   860  0692                     	;# 
   861  0693                     	;# 
   862  0694                     	;# 
   863  0695                     	;# 
   864  0696                     	;# 
   865  0697                     	;# 
   866  0698                     	;# 
   867  0699                     	;# 
   868  069A                     	;# 
   869  069B                     	;# 
   870  069C                     	;# 
   871  069D                     	;# 
   872  069E                     	;# 
   873  069F                     	;# 
   874  0E0F                     	;# 
   875  0E10                     	;# 
   876  0E11                     	;# 
   877  0E12                     	;# 
   878  0E13                     	;# 
   879  0E14                     	;# 
   880  0E15                     	;# 
   881  0E17                     	;# 
   882  0E20                     	;# 
   883  0E21                     	;# 
   884  0E22                     	;# 
   885  0E24                     	;# 
   886  0E25                     	;# 
   887  0E28                     	;# 
   888  0E29                     	;# 
   889  0E2A                     	;# 
   890  0E2B                     	;# 
   891  0E90                     	;# 
   892  0E91                     	;# 
   893  0E92                     	;# 
   894  0E93                     	;# 
   895  0E94                     	;# 
   896  0E95                     	;# 
   897  0E96                     	;# 
   898  0E97                     	;# 
   899  0E98                     	;# 
   900  0E99                     	;# 
   901  0E9A                     	;# 
   902  0E9B                     	;# 
   903  0E9C                     	;# 
   904  0E9D                     	;# 
   905  0E9E                     	;# 
   906  0E9F                     	;# 
   907  0EA0                     	;# 
   908  0EA1                     	;# 
   909  0EA2                     	;# 
   910  0EA3                     	;# 
   911  0EA4                     	;# 
   912  0EA5                     	;# 
   913  0EA6                     	;# 
   914  0EA7                     	;# 
   915  0F0F                     	;# 
   916  0F10                     	;# 
   917  0F11                     	;# 
   918  0F12                     	;# 
   919  0F13                     	;# 
   920  0F14                     	;# 
   921  0F15                     	;# 
   922  0F16                     	;# 
   923  0F17                     	;# 
   924  0F18                     	;# 
   925  0F19                     	;# 
   926  0F1A                     	;# 
   927  0F1B                     	;# 
   928  0F1C                     	;# 
   929  0F1D                     	;# 
   930  0F1E                     	;# 
   931  0F1F                     	;# 
   932  0F20                     	;# 
   933  0F21                     	;# 
   934  0F22                     	;# 
   935  0F23                     	;# 
   936  0F24                     	;# 
   937  0F25                     	;# 
   938  0F26                     	;# 
   939  0F27                     	;# 
   940  0F28                     	;# 
   941  0F29                     	;# 
   942  0F2A                     	;# 
   943  0F2B                     	;# 
   944  0F2C                     	;# 
   945  0F2D                     	;# 
   946  0F2E                     	;# 
   947  0F2F                     	;# 
   948  0F30                     	;# 
   949  0F31                     	;# 
   950  0F32                     	;# 
   951  0F33                     	;# 
   952  0F34                     	;# 
   953  0F35                     	;# 
   954  0F36                     	;# 
   955  0F37                     	;# 
   956  0FE4                     	;# 
   957  0FE5                     	;# 
   958  0FE6                     	;# 
   959  0FE7                     	;# 
   960  0FE8                     	;# 
   961  0FE9                     	;# 
   962  0FEA                     	;# 
   963  0FEB                     	;# 
   964  0FED                     	;# 
   965  0FEE                     	;# 
   966  0FEF                     	;# 
   967  0000                     	;# 
   968  0001                     	;# 
   969  0002                     	;# 
   970  0003                     	;# 
   971  0004                     	;# 
   972  0005                     	;# 
   973  0006                     	;# 
   974  0007                     	;# 
   975  0008                     	;# 
   976  0009                     	;# 
   977  000A                     	;# 
   978  000B                     	;# 
   979  000C                     	;# 
   980  000D                     	;# 
   981  000E                     	;# 
   982  0010                     	;# 
   983  0011                     	;# 
   984  0012                     	;# 
   985  0013                     	;# 
   986  0015                     	;# 
   987  0016                     	;# 
   988  0016                     	;# 
   989  0017                     	;# 
   990  0018                     	;# 
   991  0019                     	;# 
   992  001A                     	;# 
   993  001B                     	;# 
   994  001C                     	;# 
   995  008C                     	;# 
   996  008D                     	;# 
   997  008E                     	;# 
   998  0090                     	;# 
   999  0091                     	;# 
  1000  0092                     	;# 
  1001  0093                     	;# 
  1002  0095                     	;# 
  1003  0096                     	;# 
  1004  0097                     	;# 
  1005  0098                     	;# 
  1006  0099                     	;# 
  1007  009A                     	;# 
  1008  009B                     	;# 
  1009  009B                     	;# 
  1010  009C                     	;# 
  1011  009D                     	;# 
  1012  009E                     	;# 
  1013  009F                     	;# 
  1014  010C                     	;# 
  1015  010D                     	;# 
  1016  010E                     	;# 
  1017  0111                     	;# 
  1018  0112                     	;# 
  1019  0113                     	;# 
  1020  0114                     	;# 
  1021  0115                     	;# 
  1022  0116                     	;# 
  1023  0117                     	;# 
  1024  0118                     	;# 
  1025  0119                     	;# 
  1026  011A                     	;# 
  1027  011B                     	;# 
  1028  011B                     	;# 
  1029  011C                     	;# 
  1030  018C                     	;# 
  1031  018D                     	;# 
  1032  018E                     	;# 
  1033  0191                     	;# 
  1034  0191                     	;# 
  1035  0192                     	;# 
  1036  0193                     	;# 
  1037  0193                     	;# 
  1038  0194                     	;# 
  1039  0195                     	;# 
  1040  0196                     	;# 
  1041  0199                     	;# 
  1042  0199                     	;# 
  1043  0199                     	;# 
  1044  019A                     	;# 
  1045  019A                     	;# 
  1046  019A                     	;# 
  1047  019B                     	;# 
  1048  019B                     	;# 
  1049  019B                     	;# 
  1050  019B                     	;# 
  1051  019B                     	;# 
  1052  019C                     	;# 
  1053  019C                     	;# 
  1054  019C                     	;# 
  1055  019D                     	;# 
  1056  019D                     	;# 
  1057  019D                     	;# 
  1058  019E                     	;# 
  1059  019E                     	;# 
  1060  019E                     	;# 
  1061  019F                     	;# 
  1062  019F                     	;# 
  1063  019F                     	;# 
  1064  019F                     	;# 
  1065  019F                     	;# 
  1066  020C                     	;# 
  1067  020D                     	;# 
  1068  020E                     	;# 
  1069  0210                     	;# 
  1070  0211                     	;# 
  1071  0211                     	;# 
  1072  0212                     	;# 
  1073  0212                     	;# 
  1074  0213                     	;# 
  1075  0213                     	;# 
  1076  0214                     	;# 
  1077  0214                     	;# 
  1078  0215                     	;# 
  1079  0215                     	;# 
  1080  0215                     	;# 
  1081  0215                     	;# 
  1082  0216                     	;# 
  1083  0216                     	;# 
  1084  0217                     	;# 
  1085  0217                     	;# 
  1086  028C                     	;# 
  1087  028D                     	;# 
  1088  028E                     	;# 
  1089  0291                     	;# 
  1090  0291                     	;# 
  1091  0292                     	;# 
  1092  0293                     	;# 
  1093  0293                     	;# 
  1094  0298                     	;# 
  1095  0298                     	;# 
  1096  0299                     	;# 
  1097  029A                     	;# 
  1098  029A                     	;# 
  1099  029E                     	;# 
  1100  030C                     	;# 
  1101  030D                     	;# 
  1102  030E                     	;# 
  1103  038C                     	;# 
  1104  038D                     	;# 
  1105  038E                     	;# 
  1106  0390                     	;# 
  1107  0391                     	;# 
  1108  0392                     	;# 
  1109  0393                     	;# 
  1110  0394                     	;# 
  1111  0395                     	;# 
  1112  0396                     	;# 
  1113  0397                     	;# 
  1114  0398                     	;# 
  1115  0399                     	;# 
  1116  039D                     	;# 
  1117  039E                     	;# 
  1118  039F                     	;# 
  1119  0415                     	;# 
  1120  0416                     	;# 
  1121  0417                     	;# 
  1122  041C                     	;# 
  1123  041D                     	;# 
  1124  041E                     	;# 
  1125  0498                     	;# 
  1126  0498                     	;# 
  1127  0499                     	;# 
  1128  049A                     	;# 
  1129  049B                     	;# 
  1130  049B                     	;# 
  1131  049C                     	;# 
  1132  049D                     	;# 
  1133  049E                     	;# 
  1134  049F                     	;# 
  1135  0511                     	;# 
  1136  0515                     	;# 
  1137  0617                     	;# 
  1138  0618                     	;# 
  1139  0619                     	;# 
  1140  0619                     	;# 
  1141  061A                     	;# 
  1142  061B                     	;# 
  1143  061C                     	;# 
  1144  061C                     	;# 
  1145  0691                     	;# 
  1146  0692                     	;# 
  1147  0693                     	;# 
  1148  0694                     	;# 
  1149  0695                     	;# 
  1150  0696                     	;# 
  1151  0697                     	;# 
  1152  0698                     	;# 
  1153  0699                     	;# 
  1154  069A                     	;# 
  1155  069B                     	;# 
  1156  069C                     	;# 
  1157  069D                     	;# 
  1158  069E                     	;# 
  1159  069F                     	;# 
  1160  0E0F                     	;# 
  1161  0E10                     	;# 
  1162  0E11                     	;# 
  1163  0E12                     	;# 
  1164  0E13                     	;# 
  1165  0E14                     	;# 
  1166  0E15                     	;# 
  1167  0E17                     	;# 
  1168  0E20                     	;# 
  1169  0E21                     	;# 
  1170  0E22                     	;# 
  1171  0E24                     	;# 
  1172  0E25                     	;# 
  1173  0E28                     	;# 
  1174  0E29                     	;# 
  1175  0E2A                     	;# 
  1176  0E2B                     	;# 
  1177  0E90                     	;# 
  1178  0E91                     	;# 
  1179  0E92                     	;# 
  1180  0E93                     	;# 
  1181  0E94                     	;# 
  1182  0E95                     	;# 
  1183  0E96                     	;# 
  1184  0E97                     	;# 
  1185  0E98                     	;# 
  1186  0E99                     	;# 
  1187  0E9A                     	;# 
  1188  0E9B                     	;# 
  1189  0E9C                     	;# 
  1190  0E9D                     	;# 
  1191  0E9E                     	;# 
  1192  0E9F                     	;# 
  1193  0EA0                     	;# 
  1194  0EA1                     	;# 
  1195  0EA2                     	;# 
  1196  0EA3                     	;# 
  1197  0EA4                     	;# 
  1198  0EA5                     	;# 
  1199  0EA6                     	;# 
  1200  0EA7                     	;# 
  1201  0F0F                     	;# 
  1202  0F10                     	;# 
  1203  0F11                     	;# 
  1204  0F12                     	;# 
  1205  0F13                     	;# 
  1206  0F14                     	;# 
  1207  0F15                     	;# 
  1208  0F16                     	;# 
  1209  0F17                     	;# 
  1210  0F18                     	;# 
  1211  0F19                     	;# 
  1212  0F1A                     	;# 
  1213  0F1B                     	;# 
  1214  0F1C                     	;# 
  1215  0F1D                     	;# 
  1216  0F1E                     	;# 
  1217  0F1F                     	;# 
  1218  0F20                     	;# 
  1219  0F21                     	;# 
  1220  0F22                     	;# 
  1221  0F23                     	;# 
  1222  0F24                     	;# 
  1223  0F25                     	;# 
  1224  0F26                     	;# 
  1225  0F27                     	;# 
  1226  0F28                     	;# 
  1227  0F29                     	;# 
  1228  0F2A                     	;# 
  1229  0F2B                     	;# 
  1230  0F2C                     	;# 
  1231  0F2D                     	;# 
  1232  0F2E                     	;# 
  1233  0F2F                     	;# 
  1234  0F30                     	;# 
  1235  0F31                     	;# 
  1236  0F32                     	;# 
  1237  0F33                     	;# 
  1238  0F34                     	;# 
  1239  0F35                     	;# 
  1240  0F36                     	;# 
  1241  0F37                     	;# 
  1242  0FE4                     	;# 
  1243  0FE5                     	;# 
  1244  0FE6                     	;# 
  1245  0FE7                     	;# 
  1246  0FE8                     	;# 
  1247  0FE9                     	;# 
  1248  0FEA                     	;# 
  1249  0FEB                     	;# 
  1250  0FED                     	;# 
  1251  0FEE                     	;# 
  1252  0FEF                     	;# 
  1253  0000                     	;# 
  1254  0001                     	;# 
  1255  0002                     	;# 
  1256  0003                     	;# 
  1257  0004                     	;# 
  1258  0005                     	;# 
  1259  0006                     	;# 
  1260  0007                     	;# 
  1261  0008                     	;# 
  1262  0009                     	;# 
  1263  000A                     	;# 
  1264  000B                     	;# 
  1265  000C                     	;# 
  1266  000D                     	;# 
  1267  000E                     	;# 
  1268  0010                     	;# 
  1269  0011                     	;# 
  1270  0012                     	;# 
  1271  0013                     	;# 
  1272  0015                     	;# 
  1273  0016                     	;# 
  1274  0016                     	;# 
  1275  0017                     	;# 
  1276  0018                     	;# 
  1277  0019                     	;# 
  1278  001A                     	;# 
  1279  001B                     	;# 
  1280  001C                     	;# 
  1281  008C                     	;# 
  1282  008D                     	;# 
  1283  008E                     	;# 
  1284  0090                     	;# 
  1285  0091                     	;# 
  1286  0092                     	;# 
  1287  0093                     	;# 
  1288  0095                     	;# 
  1289  0096                     	;# 
  1290  0097                     	;# 
  1291  0098                     	;# 
  1292  0099                     	;# 
  1293  009A                     	;# 
  1294  009B                     	;# 
  1295  009B                     	;# 
  1296  009C                     	;# 
  1297  009D                     	;# 
  1298  009E                     	;# 
  1299  009F                     	;# 
  1300  010C                     	;# 
  1301  010D                     	;# 
  1302  010E                     	;# 
  1303  0111                     	;# 
  1304  0112                     	;# 
  1305  0113                     	;# 
  1306  0114                     	;# 
  1307  0115                     	;# 
  1308  0116                     	;# 
  1309  0117                     	;# 
  1310  0118                     	;# 
  1311  0119                     	;# 
  1312  011A                     	;# 
  1313  011B                     	;# 
  1314  011B                     	;# 
  1315  011C                     	;# 
  1316  018C                     	;# 
  1317  018D                     	;# 
  1318  018E                     	;# 
  1319  0191                     	;# 
  1320  0191                     	;# 
  1321  0192                     	;# 
  1322  0193                     	;# 
  1323  0193                     	;# 
  1324  0194                     	;# 
  1325  0195                     	;# 
  1326  0196                     	;# 
  1327  0199                     	;# 
  1328  0199                     	;# 
  1329  0199                     	;# 
  1330  019A                     	;# 
  1331  019A                     	;# 
  1332  019A                     	;# 
  1333  019B                     	;# 
  1334  019B                     	;# 
  1335  019B                     	;# 
  1336  019B                     	;# 
  1337  019B                     	;# 
  1338  019C                     	;# 
  1339  019C                     	;# 
  1340  019C                     	;# 
  1341  019D                     	;# 
  1342  019D                     	;# 
  1343  019D                     	;# 
  1344  019E                     	;# 
  1345  019E                     	;# 
  1346  019E                     	;# 
  1347  019F                     	;# 
  1348  019F                     	;# 
  1349  019F                     	;# 
  1350  019F                     	;# 
  1351  019F                     	;# 
  1352  020C                     	;# 
  1353  020D                     	;# 
  1354  020E                     	;# 
  1355  0210                     	;# 
  1356  0211                     	;# 
  1357  0211                     	;# 
  1358  0212                     	;# 
  1359  0212                     	;# 
  1360  0213                     	;# 
  1361  0213                     	;# 
  1362  0214                     	;# 
  1363  0214                     	;# 
  1364  0215                     	;# 
  1365  0215                     	;# 
  1366  0215                     	;# 
  1367  0215                     	;# 
  1368  0216                     	;# 
  1369  0216                     	;# 
  1370  0217                     	;# 
  1371  0217                     	;# 
  1372  028C                     	;# 
  1373  028D                     	;# 
  1374  028E                     	;# 
  1375  0291                     	;# 
  1376  0291                     	;# 
  1377  0292                     	;# 
  1378  0293                     	;# 
  1379  0293                     	;# 
  1380  0298                     	;# 
  1381  0298                     	;# 
  1382  0299                     	;# 
  1383  029A                     	;# 
  1384  029A                     	;# 
  1385  029E                     	;# 
  1386  030C                     	;# 
  1387  030D                     	;# 
  1388  030E                     	;# 
  1389  038C                     	;# 
  1390  038D                     	;# 
  1391  038E                     	;# 
  1392  0390                     	;# 
  1393  0391                     	;# 
  1394  0392                     	;# 
  1395  0393                     	;# 
  1396  0394                     	;# 
  1397  0395                     	;# 
  1398  0396                     	;# 
  1399  0397                     	;# 
  1400  0398                     	;# 
  1401  0399                     	;# 
  1402  039D                     	;# 
  1403  039E                     	;# 
  1404  039F                     	;# 
  1405  0415                     	;# 
  1406  0416                     	;# 
  1407  0417                     	;# 
  1408  041C                     	;# 
  1409  041D                     	;# 
  1410  041E                     	;# 
  1411  0498                     	;# 
  1412  0498                     	;# 
  1413  0499                     	;# 
  1414  049A                     	;# 
  1415  049B                     	;# 
  1416  049B                     	;# 
  1417  049C                     	;# 
  1418  049D                     	;# 
  1419  049E                     	;# 
  1420  049F                     	;# 
  1421  0511                     	;# 
  1422  0515                     	;# 
  1423  0617                     	;# 
  1424  0618                     	;# 
  1425  0619                     	;# 
  1426  0619                     	;# 
  1427  061A                     	;# 
  1428  061B                     	;# 
  1429  061C                     	;# 
  1430  061C                     	;# 
  1431  0691                     	;# 
  1432  0692                     	;# 
  1433  0693                     	;# 
  1434  0694                     	;# 
  1435  0695                     	;# 
  1436  0696                     	;# 
  1437  0697                     	;# 
  1438  0698                     	;# 
  1439  0699                     	;# 
  1440  069A                     	;# 
  1441  069B                     	;# 
  1442  069C                     	;# 
  1443  069D                     	;# 
  1444  069E                     	;# 
  1445  069F                     	;# 
  1446  0E0F                     	;# 
  1447  0E10                     	;# 
  1448  0E11                     	;# 
  1449  0E12                     	;# 
  1450  0E13                     	;# 
  1451  0E14                     	;# 
  1452  0E15                     	;# 
  1453  0E17                     	;# 
  1454  0E20                     	;# 
  1455  0E21                     	;# 
  1456  0E22                     	;# 
  1457  0E24                     	;# 
  1458  0E25                     	;# 
  1459  0E28                     	;# 
  1460  0E29                     	;# 
  1461  0E2A                     	;# 
  1462  0E2B                     	;# 
  1463  0E90                     	;# 
  1464  0E91                     	;# 
  1465  0E92                     	;# 
  1466  0E93                     	;# 
  1467  0E94                     	;# 
  1468  0E95                     	;# 
  1469  0E96                     	;# 
  1470  0E97                     	;# 
  1471  0E98                     	;# 
  1472  0E99                     	;# 
  1473  0E9A                     	;# 
  1474  0E9B                     	;# 
  1475  0E9C                     	;# 
  1476  0E9D                     	;# 
  1477  0E9E                     	;# 
  1478  0E9F                     	;# 
  1479  0EA0                     	;# 
  1480  0EA1                     	;# 
  1481  0EA2                     	;# 
  1482  0EA3                     	;# 
  1483  0EA4                     	;# 
  1484  0EA5                     	;# 
  1485  0EA6                     	;# 
  1486  0EA7                     	;# 
  1487  0F0F                     	;# 
  1488  0F10                     	;# 
  1489  0F11                     	;# 
  1490  0F12                     	;# 
  1491  0F13                     	;# 
  1492  0F14                     	;# 
  1493  0F15                     	;# 
  1494  0F16                     	;# 
  1495  0F17                     	;# 
  1496  0F18                     	;# 
  1497  0F19                     	;# 
  1498  0F1A                     	;# 
  1499  0F1B                     	;# 
  1500  0F1C                     	;# 
  1501  0F1D                     	;# 
  1502  0F1E                     	;# 
  1503  0F1F                     	;# 
  1504  0F20                     	;# 
  1505  0F21                     	;# 
  1506  0F22                     	;# 
  1507  0F23                     	;# 
  1508  0F24                     	;# 
  1509  0F25                     	;# 
  1510  0F26                     	;# 
  1511  0F27                     	;# 
  1512  0F28                     	;# 
  1513  0F29                     	;# 
  1514  0F2A                     	;# 
  1515  0F2B                     	;# 
  1516  0F2C                     	;# 
  1517  0F2D                     	;# 
  1518  0F2E                     	;# 
  1519  0F2F                     	;# 
  1520  0F30                     	;# 
  1521  0F31                     	;# 
  1522  0F32                     	;# 
  1523  0F33                     	;# 
  1524  0F34                     	;# 
  1525  0F35                     	;# 
  1526  0F36                     	;# 
  1527  0F37                     	;# 
  1528  0FE4                     	;# 
  1529  0FE5                     	;# 
  1530  0FE6                     	;# 
  1531  0FE7                     	;# 
  1532  0FE8                     	;# 
  1533  0FE9                     	;# 
  1534  0FEA                     	;# 
  1535  0FEB                     	;# 
  1536  0FED                     	;# 
  1537  0FEE                     	;# 
  1538  0FEF                     	;# 
  1539  0000                     	;# 
  1540  0001                     	;# 
  1541  0002                     	;# 
  1542  0003                     	;# 
  1543  0004                     	;# 
  1544  0005                     	;# 
  1545  0006                     	;# 
  1546  0007                     	;# 
  1547  0008                     	;# 
  1548  0009                     	;# 
  1549  000A                     	;# 
  1550  000B                     	;# 
  1551  000C                     	;# 
  1552  000D                     	;# 
  1553  000E                     	;# 
  1554  0010                     	;# 
  1555  0011                     	;# 
  1556  0012                     	;# 
  1557  0013                     	;# 
  1558  0015                     	;# 
  1559  0016                     	;# 
  1560  0016                     	;# 
  1561  0017                     	;# 
  1562  0018                     	;# 
  1563  0019                     	;# 
  1564  001A                     	;# 
  1565  001B                     	;# 
  1566  001C                     	;# 
  1567  008C                     	;# 
  1568  008D                     	;# 
  1569  008E                     	;# 
  1570  0090                     	;# 
  1571  0091                     	;# 
  1572  0092                     	;# 
  1573  0093                     	;# 
  1574  0095                     	;# 
  1575  0096                     	;# 
  1576  0097                     	;# 
  1577  0098                     	;# 
  1578  0099                     	;# 
  1579  009A                     	;# 
  1580  009B                     	;# 
  1581  009B                     	;# 
  1582  009C                     	;# 
  1583  009D                     	;# 
  1584  009E                     	;# 
  1585  009F                     	;# 
  1586  010C                     	;# 
  1587  010D                     	;# 
  1588  010E                     	;# 
  1589  0111                     	;# 
  1590  0112                     	;# 
  1591  0113                     	;# 
  1592  0114                     	;# 
  1593  0115                     	;# 
  1594  0116                     	;# 
  1595  0117                     	;# 
  1596  0118                     	;# 
  1597  0119                     	;# 
  1598  011A                     	;# 
  1599  011B                     	;# 
  1600  011B                     	;# 
  1601  011C                     	;# 
  1602  018C                     	;# 
  1603  018D                     	;# 
  1604  018E                     	;# 
  1605  0191                     	;# 
  1606  0191                     	;# 
  1607  0192                     	;# 
  1608  0193                     	;# 
  1609  0193                     	;# 
  1610  0194                     	;# 
  1611  0195                     	;# 
  1612  0196                     	;# 
  1613  0199                     	;# 
  1614  0199                     	;# 
  1615  0199                     	;# 
  1616  019A                     	;# 
  1617  019A                     	;# 
  1618  019A                     	;# 
  1619  019B                     	;# 
  1620  019B                     	;# 
  1621  019B                     	;# 
  1622  019B                     	;# 
  1623  019B                     	;# 
  1624  019C                     	;# 
  1625  019C                     	;# 
  1626  019C                     	;# 
  1627  019D                     	;# 
  1628  019D                     	;# 
  1629  019D                     	;# 
  1630  019E                     	;# 
  1631  019E                     	;# 
  1632  019E                     	;# 
  1633  019F                     	;# 
  1634  019F                     	;# 
  1635  019F                     	;# 
  1636  019F                     	;# 
  1637  019F                     	;# 
  1638  020C                     	;# 
  1639  020D                     	;# 
  1640  020E                     	;# 
  1641  0210                     	;# 
  1642  0211                     	;# 
  1643  0211                     	;# 
  1644  0212                     	;# 
  1645  0212                     	;# 
  1646  0213                     	;# 
  1647  0213                     	;# 
  1648  0214                     	;# 
  1649  0214                     	;# 
  1650  0215                     	;# 
  1651  0215                     	;# 
  1652  0215                     	;# 
  1653  0215                     	;# 
  1654  0216                     	;# 
  1655  0216                     	;# 
  1656  0217                     	;# 
  1657  0217                     	;# 
  1658  028C                     	;# 
  1659  028D                     	;# 
  1660  028E                     	;# 
  1661  0291                     	;# 
  1662  0291                     	;# 
  1663  0292                     	;# 
  1664  0293                     	;# 
  1665  0293                     	;# 
  1666  0298                     	;# 
  1667  0298                     	;# 
  1668  0299                     	;# 
  1669  029A                     	;# 
  1670  029A                     	;# 
  1671  029E                     	;# 
  1672  030C                     	;# 
  1673  030D                     	;# 
  1674  030E                     	;# 
  1675  038C                     	;# 
  1676  038D                     	;# 
  1677  038E                     	;# 
  1678  0390                     	;# 
  1679  0391                     	;# 
  1680  0392                     	;# 
  1681  0393                     	;# 
  1682  0394                     	;# 
  1683  0395                     	;# 
  1684  0396                     	;# 
  1685  0397                     	;# 
  1686  0398                     	;# 
  1687  0399                     	;# 
  1688  039D                     	;# 
  1689  039E                     	;# 
  1690  039F                     	;# 
  1691  0415                     	;# 
  1692  0416                     	;# 
  1693  0417                     	;# 
  1694  041C                     	;# 
  1695  041D                     	;# 
  1696  041E                     	;# 
  1697  0498                     	;# 
  1698  0498                     	;# 
  1699  0499                     	;# 
  1700  049A                     	;# 
  1701  049B                     	;# 
  1702  049B                     	;# 
  1703  049C                     	;# 
  1704  049D                     	;# 
  1705  049E                     	;# 
  1706  049F                     	;# 
  1707  0511                     	;# 
  1708  0515                     	;# 
  1709  0617                     	;# 
  1710  0618                     	;# 
  1711  0619                     	;# 
  1712  0619                     	;# 
  1713  061A                     	;# 
  1714  061B                     	;# 
  1715  061C                     	;# 
  1716  061C                     	;# 
  1717  0691                     	;# 
  1718  0692                     	;# 
  1719  0693                     	;# 
  1720  0694                     	;# 
  1721  0695                     	;# 
  1722  0696                     	;# 
  1723  0697                     	;# 
  1724  0698                     	;# 
  1725  0699                     	;# 
  1726  069A                     	;# 
  1727  069B                     	;# 
  1728  069C                     	;# 
  1729  069D                     	;# 
  1730  069E                     	;# 
  1731  069F                     	;# 
  1732  0E0F                     	;# 
  1733  0E10                     	;# 
  1734  0E11                     	;# 
  1735  0E12                     	;# 
  1736  0E13                     	;# 
  1737  0E14                     	;# 
  1738  0E15                     	;# 
  1739  0E17                     	;# 
  1740  0E20                     	;# 
  1741  0E21                     	;# 
  1742  0E22                     	;# 
  1743  0E24                     	;# 
  1744  0E25                     	;# 
  1745  0E28                     	;# 
  1746  0E29                     	;# 
  1747  0E2A                     	;# 
  1748  0E2B                     	;# 
  1749  0E90                     	;# 
  1750  0E91                     	;# 
  1751  0E92                     	;# 
  1752  0E93                     	;# 
  1753  0E94                     	;# 
  1754  0E95                     	;# 
  1755  0E96                     	;# 
  1756  0E97                     	;# 
  1757  0E98                     	;# 
  1758  0E99                     	;# 
  1759  0E9A                     	;# 
  1760  0E9B                     	;# 
  1761  0E9C                     	;# 
  1762  0E9D                     	;# 
  1763  0E9E                     	;# 
  1764  0E9F                     	;# 
  1765  0EA0                     	;# 
  1766  0EA1                     	;# 
  1767  0EA2                     	;# 
  1768  0EA3                     	;# 
  1769  0EA4                     	;# 
  1770  0EA5                     	;# 
  1771  0EA6                     	;# 
  1772  0EA7                     	;# 
  1773  0F0F                     	;# 
  1774  0F10                     	;# 
  1775  0F11                     	;# 
  1776  0F12                     	;# 
  1777  0F13                     	;# 
  1778  0F14                     	;# 
  1779  0F15                     	;# 
  1780  0F16                     	;# 
  1781  0F17                     	;# 
  1782  0F18                     	;# 
  1783  0F19                     	;# 
  1784  0F1A                     	;# 
  1785  0F1B                     	;# 
  1786  0F1C                     	;# 
  1787  0F1D                     	;# 
  1788  0F1E                     	;# 
  1789  0F1F                     	;# 
  1790  0F20                     	;# 
  1791  0F21                     	;# 
  1792  0F22                     	;# 
  1793  0F23                     	;# 
  1794  0F24                     	;# 
  1795  0F25                     	;# 
  1796  0F26                     	;# 
  1797  0F27                     	;# 
  1798  0F28                     	;# 
  1799  0F29                     	;# 
  1800  0F2A                     	;# 
  1801  0F2B                     	;# 
  1802  0F2C                     	;# 
  1803  0F2D                     	;# 
  1804  0F2E                     	;# 
  1805  0F2F                     	;# 
  1806  0F30                     	;# 
  1807  0F31                     	;# 
  1808  0F32                     	;# 
  1809  0F33                     	;# 
  1810  0F34                     	;# 
  1811  0F35                     	;# 
  1812  0F36                     	;# 
  1813  0F37                     	;# 
  1814  0FE4                     	;# 
  1815  0FE5                     	;# 
  1816  0FE6                     	;# 
  1817  0FE7                     	;# 
  1818  0FE8                     	;# 
  1819  0FE9                     	;# 
  1820  0FEA                     	;# 
  1821  0FEB                     	;# 
  1822  0FED                     	;# 
  1823  0FEE                     	;# 
  1824  0FEF                     	;# 
  1825  0000                     	;# 
  1826  0001                     	;# 
  1827  0002                     	;# 
  1828  0003                     	;# 
  1829  0004                     	;# 
  1830  0005                     	;# 
  1831  0006                     	;# 
  1832  0007                     	;# 
  1833  0008                     	;# 
  1834  0009                     	;# 
  1835  000A                     	;# 
  1836  000B                     	;# 
  1837  000C                     	;# 
  1838  000D                     	;# 
  1839  000E                     	;# 
  1840  0010                     	;# 
  1841  0011                     	;# 
  1842  0012                     	;# 
  1843  0013                     	;# 
  1844  0015                     	;# 
  1845  0016                     	;# 
  1846  0016                     	;# 
  1847  0017                     	;# 
  1848  0018                     	;# 
  1849  0019                     	;# 
  1850  001A                     	;# 
  1851  001B                     	;# 
  1852  001C                     	;# 
  1853  008C                     	;# 
  1854  008D                     	;# 
  1855  008E                     	;# 
  1856  0090                     	;# 
  1857  0091                     	;# 
  1858  0092                     	;# 
  1859  0093                     	;# 
  1860  0095                     	;# 
  1861  0096                     	;# 
  1862  0097                     	;# 
  1863  0098                     	;# 
  1864  0099                     	;# 
  1865  009A                     	;# 
  1866  009B                     	;# 
  1867  009B                     	;# 
  1868  009C                     	;# 
  1869  009D                     	;# 
  1870  009E                     	;# 
  1871  009F                     	;# 
  1872  010C                     	;# 
  1873  010D                     	;# 
  1874  010E                     	;# 
  1875  0111                     	;# 
  1876  0112                     	;# 
  1877  0113                     	;# 
  1878  0114                     	;# 
  1879  0115                     	;# 
  1880  0116                     	;# 
  1881  0117                     	;# 
  1882  0118                     	;# 
  1883  0119                     	;# 
  1884  011A                     	;# 
  1885  011B                     	;# 
  1886  011B                     	;# 
  1887  011C                     	;# 
  1888  018C                     	;# 
  1889  018D                     	;# 
  1890  018E                     	;# 
  1891  0191                     	;# 
  1892  0191                     	;# 
  1893  0192                     	;# 
  1894  0193                     	;# 
  1895  0193                     	;# 
  1896  0194                     	;# 
  1897  0195                     	;# 
  1898  0196                     	;# 
  1899  0199                     	;# 
  1900  0199                     	;# 
  1901  0199                     	;# 
  1902  019A                     	;# 
  1903  019A                     	;# 
  1904  019A                     	;# 
  1905  019B                     	;# 
  1906  019B                     	;# 
  1907  019B                     	;# 
  1908  019B                     	;# 
  1909  019B                     	;# 
  1910  019C                     	;# 
  1911  019C                     	;# 
  1912  019C                     	;# 
  1913  019D                     	;# 
  1914  019D                     	;# 
  1915  019D                     	;# 
  1916  019E                     	;# 
  1917  019E                     	;# 
  1918  019E                     	;# 
  1919  019F                     	;# 
  1920  019F                     	;# 
  1921  019F                     	;# 
  1922  019F                     	;# 
  1923  019F                     	;# 
  1924  020C                     	;# 
  1925  020D                     	;# 
  1926  020E                     	;# 
  1927  0210                     	;# 
  1928  0211                     	;# 
  1929  0211                     	;# 
  1930  0212                     	;# 
  1931  0212                     	;# 
  1932  0213                     	;# 
  1933  0213                     	;# 
  1934  0214                     	;# 
  1935  0214                     	;# 
  1936  0215                     	;# 
  1937  0215                     	;# 
  1938  0215                     	;# 
  1939  0215                     	;# 
  1940  0216                     	;# 
  1941  0216                     	;# 
  1942  0217                     	;# 
  1943  0217                     	;# 
  1944  028C                     	;# 
  1945  028D                     	;# 
  1946  028E                     	;# 
  1947  0291                     	;# 
  1948  0291                     	;# 
  1949  0292                     	;# 
  1950  0293                     	;# 
  1951  0293                     	;# 
  1952  0298                     	;# 
  1953  0298                     	;# 
  1954  0299                     	;# 
  1955  029A                     	;# 
  1956  029A                     	;# 
  1957  029E                     	;# 
  1958  030C                     	;# 
  1959  030D                     	;# 
  1960  030E                     	;# 
  1961  038C                     	;# 
  1962  038D                     	;# 
  1963  038E                     	;# 
  1964  0390                     	;# 
  1965  0391                     	;# 
  1966  0392                     	;# 
  1967  0393                     	;# 
  1968  0394                     	;# 
  1969  0395                     	;# 
  1970  0396                     	;# 
  1971  0397                     	;# 
  1972  0398                     	;# 
  1973  0399                     	;# 
  1974  039D                     	;# 
  1975  039E                     	;# 
  1976  039F                     	;# 
  1977  0415                     	;# 
  1978  0416                     	;# 
  1979  0417                     	;# 
  1980  041C                     	;# 
  1981  041D                     	;# 
  1982  041E                     	;# 
  1983  0498                     	;# 
  1984  0498                     	;# 
  1985  0499                     	;# 
  1986  049A                     	;# 
  1987  049B                     	;# 
  1988  049B                     	;# 
  1989  049C                     	;# 
  1990  049D                     	;# 
  1991  049E                     	;# 
  1992  049F                     	;# 
  1993  0511                     	;# 
  1994  0515                     	;# 
  1995  0617                     	;# 
  1996  0618                     	;# 
  1997  0619                     	;# 
  1998  0619                     	;# 
  1999  061A                     	;# 
  2000  061B                     	;# 
  2001  061C                     	;# 
  2002  061C                     	;# 
  2003  0691                     	;# 
  2004  0692                     	;# 
  2005  0693                     	;# 
  2006  0694                     	;# 
  2007  0695                     	;# 
  2008  0696                     	;# 
  2009  0697                     	;# 
  2010  0698                     	;# 
  2011  0699                     	;# 
  2012  069A                     	;# 
  2013  069B                     	;# 
  2014  069C                     	;# 
  2015  069D                     	;# 
  2016  069E                     	;# 
  2017  069F                     	;# 
  2018  0E0F                     	;# 
  2019  0E10                     	;# 
  2020  0E11                     	;# 
  2021  0E12                     	;# 
  2022  0E13                     	;# 
  2023  0E14                     	;# 
  2024  0E15                     	;# 
  2025  0E17                     	;# 
  2026  0E20                     	;# 
  2027  0E21                     	;# 
  2028  0E22                     	;# 
  2029  0E24                     	;# 
  2030  0E25                     	;# 
  2031  0E28                     	;# 
  2032  0E29                     	;# 
  2033  0E2A                     	;# 
  2034  0E2B                     	;# 
  2035  0E90                     	;# 
  2036  0E91                     	;# 
  2037  0E92                     	;# 
  2038  0E93                     	;# 
  2039  0E94                     	;# 
  2040  0E95                     	;# 
  2041  0E96                     	;# 
  2042  0E97                     	;# 
  2043  0E98                     	;# 
  2044  0E99                     	;# 
  2045  0E9A                     	;# 
  2046  0E9B                     	;# 
  2047  0E9C                     	;# 
  2048  0E9D                     	;# 
  2049  0E9E                     	;# 
  2050  0E9F                     	;# 
  2051  0EA0                     	;# 
  2052  0EA1                     	;# 
  2053  0EA2                     	;# 
  2054  0EA3                     	;# 
  2055  0EA4                     	;# 
  2056  0EA5                     	;# 
  2057  0EA6                     	;# 
  2058  0EA7                     	;# 
  2059  0F0F                     	;# 
  2060  0F10                     	;# 
  2061  0F11                     	;# 
  2062  0F12                     	;# 
  2063  0F13                     	;# 
  2064  0F14                     	;# 
  2065  0F15                     	;# 
  2066  0F16                     	;# 
  2067  0F17                     	;# 
  2068  0F18                     	;# 
  2069  0F19                     	;# 
  2070  0F1A                     	;# 
  2071  0F1B                     	;# 
  2072  0F1C                     	;# 
  2073  0F1D                     	;# 
  2074  0F1E                     	;# 
  2075  0F1F                     	;# 
  2076  0F20                     	;# 
  2077  0F21                     	;# 
  2078  0F22                     	;# 
  2079  0F23                     	;# 
  2080  0F24                     	;# 
  2081  0F25                     	;# 
  2082  0F26                     	;# 
  2083  0F27                     	;# 
  2084  0F28                     	;# 
  2085  0F29                     	;# 
  2086  0F2A                     	;# 
  2087  0F2B                     	;# 
  2088  0F2C                     	;# 
  2089  0F2D                     	;# 
  2090  0F2E                     	;# 
  2091  0F2F                     	;# 
  2092  0F30                     	;# 
  2093  0F31                     	;# 
  2094  0F32                     	;# 
  2095  0F33                     	;# 
  2096  0F34                     	;# 
  2097  0F35                     	;# 
  2098  0F36                     	;# 
  2099  0F37                     	;# 
  2100  0FE4                     	;# 
  2101  0FE5                     	;# 
  2102  0FE6                     	;# 
  2103  0FE7                     	;# 
  2104  0FE8                     	;# 
  2105  0FE9                     	;# 
  2106  0FEA                     	;# 
  2107  0FEB                     	;# 
  2108  0FED                     	;# 
  2109  0FEE                     	;# 
  2110  0FEF                     	;# 
  2111                           
  2112                           	psect	idataBANK0
  2113  060B                     __pidataBANK0:
  2114                           
  2115                           ;initializer for main@F5658
  2116  060B  3400               	retlw	0
  2117  060C  340A               	retlw	10
  2118  060D  3411               	retlw	17
  2119  060E  3415               	retlw	21
  2120  060F  3415               	retlw	21
  2121  0610  3411               	retlw	17
  2122  0611  340A               	retlw	10
  2123  0612  3400               	retlw	0
  2124                           
  2125                           ;initializer for main@F5656
  2126  0613  3418               	retlw	24
  2127  0614  3410               	retlw	16
  2128  0615  341F               	retlw	31
  2129  0616  341F               	retlw	31
  2130  0617  341F               	retlw	31
  2131  0618  3410               	retlw	16
  2132  0619  3418               	retlw	24
  2133  061A  3400               	retlw	0
  2134                           
  2135                           ;initializer for _lcdOffset
  2136  061B  3403               	retlw	3
  2137                           
  2138                           	psect	idataBANK1
  2139  062D                     __pidataBANK1:
  2140                           
  2141                           ;initializer for main@F5662
  2142  062D  3400               	retlw	0
  2143  062E  3400               	retlw	0
  2144  062F  340A               	retlw	10
  2145  0630  341F               	retlw	31
  2146  0631  341F               	retlw	31
  2147  0632  340E               	retlw	14
  2148  0633  3404               	retlw	4
  2149  0634  3400               	retlw	0
  2150                           
  2151                           ;initializer for main@F5660
  2152  0635  3400               	retlw	0
  2153  0636  3400               	retlw	0
  2154  0637  340E               	retlw	14
  2155  0638  341F               	retlw	31
  2156  0639  340E               	retlw	14
  2157  063A  3400               	retlw	0
  2158  063B  3400               	retlw	0
  2159  063C  3400               	retlw	0
  2160                           
  2161                           	psect	nvBANK0
  2162  0047                     __pnvBANK0:
  2163  0047                     _IOCAF5_InterruptHandler:
  2164  0047                     	ds	2
  2165  0049                     _IOCAF4_InterruptHandler:
  2166  0049                     	ds	2
  2167  004B                     _IOCAF3_InterruptHandler:
  2168  004B                     	ds	2
  2169  004D                     _IOCAF2_InterruptHandler:
  2170  004D                     	ds	2
  2171  004F                     _IOCAF1_InterruptHandler:
  2172  004F                     	ds	2
  2173  0051                     _IOCAF0_InterruptHandler:
  2174  0051                     	ds	2
  2175  000D                     _PORTBbits	set	13
  2176  000D                     _PORTB	set	13
  2177  000B                     _INTCONbits	set	11
  2178  0097                     _WDTCON	set	151
  2179  0098                     _OSCTUNE	set	152
  2180  0099                     _OSCCON	set	153
  2181  0095                     _OPTION_REGbits	set	149
  2182  008E                     _TRISC	set	142
  2183  008D                     _TRISB	set	141
  2184  008C                     _TRISA	set	140
  2185  0090                     _TRISE	set	144
  2186  0116                     _BORCON	set	278
  2187  010E                     _LATC	set	270
  2188  010D                     _LATB	set	269
  2189  010C                     _LATA	set	268
  2190  018C                     _ANSELA	set	396
  2191  018D                     _ANSELB	set	397
  2192  018E                     _ANSELC	set	398
  2193  020E                     _WPUC	set	526
  2194  020C                     _WPUA	set	524
  2195  020D                     _WPUB	set	525
  2196  0210                     _WPUE	set	528
  2197  028E                     _ODCONC	set	654
  2198  028D                     _ODCONB	set	653
  2199  028C                     _ODCONA	set	652
  2200  030E                     _SLRCONC	set	782
  2201  030D                     _SLRCONB	set	781
  2202  030C                     _SLRCONA	set	780
  2203  0391                     _IOCAPbits	set	913
  2204  0392                     _IOCANbits	set	914
  2205  0393                     _IOCAFbits	set	915
  2206  0390                     _INLVLE	set	912
  2207  038E                     _INLVLC	set	910
  2208  038D                     _INLVLB	set	909
  2209  038C                     _INLVLA	set	908
  2210                           
  2211                           	psect	stringtext1
  2212  061C                     __pstringtext1:
  2213  061C                     STR_1:
  2214  061C  3420               	retlw	32	;' '
  2215  061D  3420               	retlw	32	;' '
  2216  061E  3420               	retlw	32	;' '
  2217  061F  3420               	retlw	32	;' '
  2218  0620  3420               	retlw	32	;' '
  2219  0621  3420               	retlw	32	;' '
  2220  0622  3420               	retlw	32	;' '
  2221  0623  3420               	retlw	32	;' '
  2222  0624  3420               	retlw	32	;' '
  2223  0625  3420               	retlw	32	;' '
  2224  0626  3420               	retlw	32	;' '
  2225  0627  3420               	retlw	32	;' '
  2226  0628  3420               	retlw	32	;' '
  2227  0629  3420               	retlw	32	;' '
  2228  062A  3420               	retlw	32	;' '
  2229  062B  3420               	retlw	32	;' '
  2230  062C  3400               	retlw	0
  2231                           
  2232                           	psect	stringtext2
  2233  063D                     __pstringtext2:
  2234  063D                     STR_6:
  2235  063D  3453               	retlw	83	;'S'
  2236  063E  3465               	retlw	101	;'e'
  2237  063F  346C               	retlw	108	;'l'
  2238  0640  3465               	retlw	101	;'e'
  2239  0641  3463               	retlw	99	;'c'
  2240  0642  3474               	retlw	116	;'t'
  2241  0643  3420               	retlw	32	;' '
  2242  0644  3473               	retlw	115	;'s'
  2243  0645  3468               	retlw	104	;'h'
  2244  0646  3469               	retlw	105	;'i'
  2245  0647  3470               	retlw	112	;'p'
  2246  0648  3423               	retlw	35	;'#'
  2247  0649  3431               	retlw	49	;'1'
  2248  064A  3400               	retlw	0
  2249                           
  2250                           	psect	stringtext3
  2251  064B                     __pstringtext3:
  2252  064B                     STR_10:
  2253  064B  3453               	retlw	83	;'S'
  2254  064C  3465               	retlw	101	;'e'
  2255  064D  346C               	retlw	108	;'l'
  2256  064E  3465               	retlw	101	;'e'
  2257  064F  3463               	retlw	99	;'c'
  2258  0650  3474               	retlw	116	;'t'
  2259  0651  3420               	retlw	32	;' '
  2260  0652  3473               	retlw	115	;'s'
  2261  0653  3468               	retlw	104	;'h'
  2262  0654  3469               	retlw	105	;'i'
  2263  0655  3470               	retlw	112	;'p'
  2264  0656  3423               	retlw	35	;'#'
  2265  0657  3432               	retlw	50	;'2'
  2266  0658  3400               	retlw	0
  2267                           
  2268                           	psect	stringtext4
  2269  0659                     __pstringtext4:
  2270  0659                     STR_8:
  2271  0659  3420               	retlw	32	;' '
  2272  065A  3420               	retlw	32	;' '
  2273  065B  3454               	retlw	84	;'T'
  2274  065C  3469               	retlw	105	;'i'
  2275  065D  3465               	retlw	101	;'e'
  2276  065E  3420               	retlw	32	;' '
  2277  065F  3446               	retlw	70	;'F'
  2278  0660  3469               	retlw	105	;'i'
  2279  0661  3467               	retlw	103	;'g'
  2280  0662  3468               	retlw	104	;'h'
  2281  0663  3474               	retlw	116	;'t'
  2282  0664  3465               	retlw	101	;'e'
  2283  0665  3472               	retlw	114	;'r'
  2284  0666  3400               	retlw	0
  2285                           
  2286                           	psect	stringtext5
  2287  0667                     __pstringtext5:
  2288  0667                     STR_7:
  2289  0667  343E               	retlw	62	;'>'
  2290  0668  3420               	retlw	32	;' '
  2291  0669  3454               	retlw	84	;'T'
  2292  066A  3469               	retlw	105	;'i'
  2293  066B  3465               	retlw	101	;'e'
  2294  066C  3420               	retlw	32	;' '
  2295  066D  3446               	retlw	70	;'F'
  2296  066E  3469               	retlw	105	;'i'
  2297  066F  3467               	retlw	103	;'g'
  2298  0670  3468               	retlw	104	;'h'
  2299  0671  3474               	retlw	116	;'t'
  2300  0672  3465               	retlw	101	;'e'
  2301  0673  3472               	retlw	114	;'r'
  2302  0674  3400               	retlw	0
  2303                           
  2304                           	psect	stringtext6
  2305  0675                     __pstringtext6:
  2306  0675                     STR_5:
  2307  0675  3420               	retlw	32	;' '
  2308  0676  3420               	retlw	32	;' '
  2309  0677  3420               	retlw	32	;' '
  2310  0678  344D               	retlw	77	;'M'
  2311  0679  3465               	retlw	101	;'e'
  2312  067A  346E               	retlw	110	;'n'
  2313  067B  3475               	retlw	117	;'u'
  2314  067C  3420               	retlw	32	;' '
  2315  067D  3420               	retlw	32	;' '
  2316  067E  3420               	retlw	32	;' '
  2317  067F  3420               	retlw	32	;' '
  2318  0680  3400               	retlw	0
  2319                           
  2320                           	psect	stringtext7
  2321  0681                     __pstringtext7:
  2322  0681                     STR_16:
  2323  0681  3453               	retlw	83	;'S'
  2324  0682  3474               	retlw	116	;'t'
  2325  0683  3461               	retlw	97	;'a'
  2326  0684  3472               	retlw	114	;'r'
  2327  0685  3474               	retlw	116	;'t'
  2328  0686  3420               	retlw	32	;' '
  2329  0687  3446               	retlw	70	;'F'
  2330  0688  3469               	retlw	105	;'i'
  2331  0689  3467               	retlw	103	;'g'
  2332  068A  3468               	retlw	104	;'h'
  2333  068B  3474               	retlw	116	;'t'
  2334  068C  3400               	retlw	0
  2335                           
  2336                           	psect	stringtext8
  2337  0697                     __pstringtext8:
  2338  0697                     STR_9:
  2339  0697  343E               	retlw	62	;'>'
  2340  0698  3420               	retlw	32	;' '
  2341  0699  3458               	retlw	88	;'X'
  2342  069A  3420               	retlw	32	;' '
  2343  069B  3477               	retlw	119	;'w'
  2344  069C  3469               	retlw	105	;'i'
  2345  069D  346E               	retlw	110	;'n'
  2346  069E  3467               	retlw	103	;'g'
  2347  069F  3400               	retlw	0
  2348                           
  2349                           	psect	stringtext9
  2350  0000                     __pstringtext9:
  2351  062B                     
  2352                           	psect	cinit
  2353  001D                     start_initialization:	
  2354                           ; #config settings
  2355                           
  2356  001D                     __initialization:
  2357                           
  2358                           ; Initialize objects allocated to BANK0
  2359  001D  300B               	movlw	low __pidataBANK0
  2360  001E  0084               	movwf	4
  2361  001F  3086               	movlw	(high __pidataBANK0)| (0+128)
  2362  0020  0085               	movwf	5
  2363  0021  3036               	movlw	low __pdataBANK0
  2364  0022  0086               	movwf	6
  2365  0023  3000               	movlw	high __pdataBANK0
  2366  0024  0087               	movwf	7
  2367  0025  3011               	movlw	17
  2368  0026  3186  26A7  3180   	fcall	init_ram
  2369                           
  2370                           ; Initialize objects allocated to BANK1
  2371  0029  302D               	movlw	low __pidataBANK1
  2372  002A  0084               	movwf	4
  2373  002B  3086               	movlw	(high __pidataBANK1)| (0+128)
  2374  002C  0085               	movwf	5
  2375  002D  30C0               	movlw	low __pdataBANK1
  2376  002E  0086               	movwf	6
  2377  002F  3000               	movlw	high __pdataBANK1
  2378  0030  0087               	movwf	7
  2379  0031  3010               	movlw	16
  2380  0032  3186  26A7  3180   	fcall	init_ram
  2381                           
  2382                           ; Clear objects allocated to BANK0
  2383  0035  01D3               	clrf	__pbssBANK0& (0+127)
  2384  0036  01D4               	clrf	(__pbssBANK0+1)& (0+127)
  2385  0037  01D5               	clrf	(__pbssBANK0+2)& (0+127)
  2386  0038                     end_of_initialization:	
  2387                           ;End of C runtime variable initialization code
  2388                           
  2389  0038                     __end_of__initialization:
  2390  0038  107E               	bcf	int$flags,0	;clear compiler interrupt flag (level 1)
  2391  0039  0020               	movlb	0
  2392  003A  3181  29BC         	ljmp	_main	;jump to C main() function
  2393                           
  2394                           	psect	bssBANK0
  2395  0053                     __pbssBANK0:
  2396  0053                     _playerTurn:
  2397  0053                     	ds	1
  2398  0054                     _mainState:
  2399  0054                     	ds	1
  2400  0055                     _inGame:
  2401  0055                     	ds	1
  2402                           
  2403                           	psect	dataBANK0
  2404  0036                     __pdataBANK0:
  2405  0036                     main@F5658:
  2406  0036                     	ds	8
  2407  003E                     main@F5656:
  2408  003E                     	ds	8
  2409  0046                     _lcdOffset:
  2410  0046                     	ds	1
  2411                           
  2412                           	psect	dataBANK1
  2413  00C0                     __pdataBANK1:
  2414  00C0                     main@F5662:
  2415  00C0                     	ds	8
  2416  00C8                     main@F5660:
  2417  00C8                     	ds	8
  2418                           
  2419                           	psect	inittext
  2420  06A7                     init_ram:
  2421  06A7  00FE               	movwf	btemp
  2422  06A8                     initloop:
  2423  06A8  0012               	moviw fsr0++
  2424  06A9  001E               	movwi fsr1++
  2425  06AA  0BFE               	decfsz	btemp,f
  2426  06AB  2EA8               	goto	initloop
  2427  06AC  3400               	retlw	0
  2428                           
  2429                           	psect	cstackBANK1
  2430  00A0                     __pcstackBANK1:
  2431  00A0                     main@Pattern1:
  2432                           
  2433                           ; 8 bytes @ 0x0
  2434  00A0                     	ds	8
  2435  00A8                     main@Pattern2:
  2436                           
  2437                           ; 8 bytes @ 0x8
  2438  00A8                     	ds	8
  2439  00B0                     main@Pattern3:
  2440                           
  2441                           ; 8 bytes @ 0x10
  2442  00B0                     	ds	8
  2443  00B8                     main@Pattern4:
  2444                           
  2445                           ; 8 bytes @ 0x18
  2446  00B8                     	ds	8
  2447                           
  2448                           	psect	cstackCOMMON
  2449  0070                     __pcstackCOMMON:
  2450  0070                     ?_IOCAF0_DefaultInterruptHandler:
  2451  0070                     ??_IOCAF0_DefaultInterruptHandler:	
  2452                           ; 1 bytes @ 0x0
  2453                           
  2454  0070                     ?_IOCAF1_DefaultInterruptHandler:	
  2455                           ; 1 bytes @ 0x0
  2456                           
  2457  0070                     ??_IOCAF1_DefaultInterruptHandler:	
  2458                           ; 1 bytes @ 0x0
  2459                           
  2460  0070                     ?_IOCAF2_DefaultInterruptHandler:	
  2461                           ; 1 bytes @ 0x0
  2462                           
  2463  0070                     ??_IOCAF2_DefaultInterruptHandler:	
  2464                           ; 1 bytes @ 0x0
  2465                           
  2466  0070                     ?_IOCAF3_DefaultInterruptHandler:	
  2467                           ; 1 bytes @ 0x0
  2468                           
  2469  0070                     ??_IOCAF3_DefaultInterruptHandler:	
  2470                           ; 1 bytes @ 0x0
  2471                           
  2472  0070                     ?_IOCAF4_DefaultInterruptHandler:	
  2473                           ; 1 bytes @ 0x0
  2474                           
  2475  0070                     ??_IOCAF4_DefaultInterruptHandler:	
  2476                           ; 1 bytes @ 0x0
  2477                           
  2478  0070                     ?_IOCAF5_DefaultInterruptHandler:	
  2479                           ; 1 bytes @ 0x0
  2480                           
  2481  0070                     ??_IOCAF5_DefaultInterruptHandler:	
  2482                           ; 1 bytes @ 0x0
  2483                           
  2484  0070                     ?_IOCAF0_ISR:	
  2485                           ; 1 bytes @ 0x0
  2486                           
  2487  0070                     ?_IOCAF1_ISR:	
  2488                           ; 1 bytes @ 0x0
  2489                           
  2490  0070                     ?_IOCAF2_ISR:	
  2491                           ; 1 bytes @ 0x0
  2492                           
  2493  0070                     ?_IOCAF3_ISR:	
  2494                           ; 1 bytes @ 0x0
  2495                           
  2496  0070                     ?_IOCAF4_ISR:	
  2497                           ; 1 bytes @ 0x0
  2498                           
  2499  0070                     ?_IOCAF5_ISR:	
  2500                           ; 1 bytes @ 0x0
  2501                           
  2502  0070                     ?_printMenu:	
  2503                           ; 1 bytes @ 0x0
  2504                           
  2505  0070                     ?_startFight:	
  2506                           ; 1 bytes @ 0x0
  2507                           
  2508  0070                     ?_OSCILLATOR_Initialize:	
  2509                           ; 1 bytes @ 0x0
  2510                           
  2511  0070                     ?_WDT_Initialize:	
  2512                           ; 1 bytes @ 0x0
  2513                           
  2514  0070                     ?_LCDPutCmd:	
  2515                           ; 1 bytes @ 0x0
  2516                           
  2517  0070                     ?_cleanMenu:	
  2518                           ; 1 bytes @ 0x0
  2519                           
  2520  0070                     ?_cleanFullMenu:	
  2521                           ; 1 bytes @ 0x0
  2522                           
  2523  0070                     ?_mainMenu:	
  2524                           ; 1 bytes @ 0x0
  2525                           
  2526  0070                     ?_PIN_MANAGER_Initialize:	
  2527                           ; 1 bytes @ 0x0
  2528                           
  2529  0070                     ?_PIN_MANAGER_IOC:	
  2530                           ; 1 bytes @ 0x0
  2531                           
  2532  0070                     ?_SYSTEM_Initialize:	
  2533                           ; 1 bytes @ 0x0
  2534                           
  2535  0070                     ?_INTERRUPT_InterruptManager:	
  2536                           ; 1 bytes @ 0x0
  2537                           
  2538  0070                     ?_LCD_Initialize:	
  2539                           ; 1 bytes @ 0x0
  2540                           
  2541  0070                     ?_LCDPutChar:	
  2542                           ; 1 bytes @ 0x0
  2543                           
  2544  0070                     ?_LCDClear:	
  2545                           ; 1 bytes @ 0x0
  2546                           
  2547  0070                     ?_idleScreen:	
  2548                           ; 1 bytes @ 0x0
  2549                           
  2550  0070                     ?_main:	
  2551                           ; 1 bytes @ 0x0
  2552                           
  2553  0070                     ?i1_LCDWriteNibble:	
  2554                           ; 1 bytes @ 0x0
  2555                           
  2556  0070                     ?i1_LCDPutChar:	
  2557                           ; 1 bytes @ 0x0
  2558                           
  2559  0070                     ?i1_LCDPutCmd:	
  2560                           ; 1 bytes @ 0x0
  2561                           
  2562  0070                     ?i1_printMenu:	
  2563                           ; 1 bytes @ 0x0
  2564                           
  2565  0070                     ?i1_mainMenu:	
  2566                           ; 1 bytes @ 0x0
  2567                           
  2568  0070                     ?i1_cleanMenu:	
  2569                           ; 1 bytes @ 0x0
  2570                           
  2571  0070                     ?i1_cleanFullMenu:	
  2572                           ; 1 bytes @ 0x0
  2573                           
  2574  0070                     i1LCDWriteNibble@rs:	
  2575                           ; 1 bytes @ 0x0
  2576                           
  2577                           
  2578                           ; 1 bytes @ 0x0
  2579  0070                     	ds	1
  2580  0071                     ??i1_LCDWriteNibble:
  2581                           
  2582                           ; 1 bytes @ 0x1
  2583  0071                     	ds	2
  2584  0073                     i1LCDWriteNibble@ch:
  2585                           
  2586                           ; 1 bytes @ 0x3
  2587  0073                     	ds	1
  2588  0074                     ??i1_LCDPutChar:
  2589  0074                     ??i1_LCDPutCmd:	
  2590                           ; 1 bytes @ 0x4
  2591                           
  2592                           
  2593                           ; 1 bytes @ 0x4
  2594  0074                     	ds	2
  2595  0076                     i1LCDPutChar@ch:
  2596  0076                     i1LCDPutCmd@ch:	
  2597                           ; 1 bytes @ 0x6
  2598                           
  2599                           
  2600                           ; 1 bytes @ 0x6
  2601  0076                     	ds	1
  2602  0077                     ?i1_LCDPutStr:
  2603  0077                     ?i1_LCDGoto:	
  2604                           ; 1 bytes @ 0x7
  2605                           
  2606  0077                     i1LCDGoto@ln:	
  2607                           ; 1 bytes @ 0x7
  2608                           
  2609  0077                     i1LCDPutStr@str:	
  2610                           ; 1 bytes @ 0x7
  2611                           
  2612                           
  2613                           ; 2 bytes @ 0x7
  2614  0077                     	ds	1
  2615  0078                     ??i1_LCDGoto:
  2616  0078                     i1_LCDGoto$473:	
  2617                           ; 1 bytes @ 0x8
  2618                           
  2619                           
  2620                           ; 2 bytes @ 0x8
  2621  0078                     	ds	1
  2622  0079                     ??i1_LCDPutStr:
  2623                           
  2624                           ; 1 bytes @ 0x9
  2625  0079                     	ds	1
  2626  007A                     i1LCDGoto@pos:
  2627                           
  2628                           ; 1 bytes @ 0xA
  2629  007A                     	ds	2
  2630  007C                     i1LCDPutStr@i:
  2631                           
  2632                           ; 1 bytes @ 0xC
  2633  007C                     	ds	1
  2634  007D                     ??_PIN_MANAGER_IOC:
  2635  007D                     ??_INTERRUPT_InterruptManager:	
  2636                           ; 1 bytes @ 0xD
  2637                           
  2638  007D                     ??_LCDClear:	
  2639                           ; 1 bytes @ 0xD
  2640                           
  2641  007D                     ??_idleScreen:	
  2642                           ; 1 bytes @ 0xD
  2643                           
  2644  007D                     ??i1_printMenu:	
  2645                           ; 1 bytes @ 0xD
  2646                           
  2647  007D                     ??i1_cleanMenu:	
  2648                           ; 1 bytes @ 0xD
  2649                           
  2650  007D                     ??i1_cleanFullMenu:	
  2651                           ; 1 bytes @ 0xD
  2652                           
  2653                           
  2654                           ; 1 bytes @ 0xD
  2655  007D                     	ds	1
  2656                           
  2657                           	psect	cstackBANK0
  2658  0020                     __pcstackBANK0:
  2659  0020                     ??i1_mainMenu:
  2660                           
  2661                           ; 1 bytes @ 0x0
  2662  0020                     	ds	2
  2663  0022                     ??_IOCAF0_ISR:
  2664  0022                     ??_IOCAF1_ISR:	
  2665                           ; 1 bytes @ 0x2
  2666                           
  2667  0022                     ??_IOCAF2_ISR:	
  2668                           ; 1 bytes @ 0x2
  2669                           
  2670  0022                     ??_IOCAF3_ISR:	
  2671                           ; 1 bytes @ 0x2
  2672                           
  2673  0022                     ??_IOCAF4_ISR:	
  2674                           ; 1 bytes @ 0x2
  2675                           
  2676  0022                     ??_startFight:	
  2677                           ; 1 bytes @ 0x2
  2678                           
  2679                           
  2680                           ; 1 bytes @ 0x2
  2681  0022                     	ds	2
  2682  0024                     ??_IOCAF5_ISR:
  2683                           
  2684                           ; 1 bytes @ 0x4
  2685  0024                     	ds	2
  2686  0026                     ?_IOCAF0_SetInterruptHandler:
  2687  0026                     ?_IOCAF1_SetInterruptHandler:	
  2688                           ; 1 bytes @ 0x6
  2689                           
  2690  0026                     ?_IOCAF2_SetInterruptHandler:	
  2691                           ; 1 bytes @ 0x6
  2692                           
  2693  0026                     ?_IOCAF3_SetInterruptHandler:	
  2694                           ; 1 bytes @ 0x6
  2695                           
  2696  0026                     ?_IOCAF4_SetInterruptHandler:	
  2697                           ; 1 bytes @ 0x6
  2698                           
  2699  0026                     ?_IOCAF5_SetInterruptHandler:	
  2700                           ; 1 bytes @ 0x6
  2701                           
  2702  0026                     ??_OSCILLATOR_Initialize:	
  2703                           ; 1 bytes @ 0x6
  2704                           
  2705  0026                     ??_WDT_Initialize:	
  2706                           ; 1 bytes @ 0x6
  2707                           
  2708  0026                     ?_LCDWriteNibble:	
  2709                           ; 1 bytes @ 0x6
  2710                           
  2711  0026                     LCDWriteNibble@rs:	
  2712                           ; 1 bytes @ 0x6
  2713                           
  2714  0026                     IOCAF0_SetInterruptHandler@InterruptHandler:	
  2715                           ; 1 bytes @ 0x6
  2716                           
  2717  0026                     IOCAF1_SetInterruptHandler@InterruptHandler:	
  2718                           ; 2 bytes @ 0x6
  2719                           
  2720  0026                     IOCAF2_SetInterruptHandler@InterruptHandler:	
  2721                           ; 2 bytes @ 0x6
  2722                           
  2723  0026                     IOCAF3_SetInterruptHandler@InterruptHandler:	
  2724                           ; 2 bytes @ 0x6
  2725                           
  2726  0026                     IOCAF4_SetInterruptHandler@InterruptHandler:	
  2727                           ; 2 bytes @ 0x6
  2728                           
  2729  0026                     IOCAF5_SetInterruptHandler@InterruptHandler:	
  2730                           ; 2 bytes @ 0x6
  2731                           
  2732                           
  2733                           ; 2 bytes @ 0x6
  2734  0026                     	ds	1
  2735  0027                     ??_LCDWriteNibble:
  2736                           
  2737                           ; 1 bytes @ 0x7
  2738  0027                     	ds	1
  2739  0028                     ??_IOCAF0_SetInterruptHandler:
  2740  0028                     ??_IOCAF1_SetInterruptHandler:	
  2741                           ; 1 bytes @ 0x8
  2742                           
  2743  0028                     ??_IOCAF2_SetInterruptHandler:	
  2744                           ; 1 bytes @ 0x8
  2745                           
  2746  0028                     ??_IOCAF3_SetInterruptHandler:	
  2747                           ; 1 bytes @ 0x8
  2748                           
  2749  0028                     ??_IOCAF4_SetInterruptHandler:	
  2750                           ; 1 bytes @ 0x8
  2751                           
  2752  0028                     ??_IOCAF5_SetInterruptHandler:	
  2753                           ; 1 bytes @ 0x8
  2754                           
  2755  0028                     ??_PIN_MANAGER_Initialize:	
  2756                           ; 1 bytes @ 0x8
  2757                           
  2758  0028                     ??_SYSTEM_Initialize:	
  2759                           ; 1 bytes @ 0x8
  2760                           
  2761                           
  2762                           ; 1 bytes @ 0x8
  2763  0028                     	ds	1
  2764  0029                     LCDWriteNibble@ch:
  2765                           
  2766                           ; 1 bytes @ 0x9
  2767  0029                     	ds	1
  2768  002A                     ??_LCDPutCmd:
  2769  002A                     ??_LCDPutChar:	
  2770                           ; 1 bytes @ 0xA
  2771                           
  2772                           
  2773                           ; 1 bytes @ 0xA
  2774  002A                     	ds	2
  2775  002C                     LCDPutChar@ch:
  2776  002C                     LCDPutCmd@ch:	
  2777                           ; 1 bytes @ 0xC
  2778                           
  2779                           
  2780                           ; 1 bytes @ 0xC
  2781  002C                     	ds	1
  2782  002D                     ??_LCD_Initialize:
  2783  002D                     ?_LCDPutStr:	
  2784                           ; 1 bytes @ 0xD
  2785                           
  2786  002D                     ?_LCDGoto:	
  2787                           ; 1 bytes @ 0xD
  2788                           
  2789  002D                     ?_createCustomCharacter:	
  2790                           ; 1 bytes @ 0xD
  2791                           
  2792  002D                     LCDGoto@ln:	
  2793                           ; 1 bytes @ 0xD
  2794                           
  2795  002D                     createCustomCharacter@Location:	
  2796                           ; 1 bytes @ 0xD
  2797                           
  2798  002D                     LCDPutStr@str:	
  2799                           ; 1 bytes @ 0xD
  2800                           
  2801                           
  2802                           ; 2 bytes @ 0xD
  2803  002D                     	ds	1
  2804  002E                     ??_LCDGoto:
  2805  002E                     ??_createCustomCharacter:	
  2806                           ; 1 bytes @ 0xE
  2807                           
  2808  002E                     _LCDGoto$473:	
  2809                           ; 1 bytes @ 0xE
  2810                           
  2811                           
  2812                           ; 2 bytes @ 0xE
  2813  002E                     	ds	1
  2814  002F                     ??_LCDPutStr:
  2815  002F                     createCustomCharacter@Pattern:	
  2816                           ; 1 bytes @ 0xF
  2817                           
  2818                           
  2819                           ; 1 bytes @ 0xF
  2820  002F                     	ds	1
  2821  0030                     LCDGoto@pos:
  2822  0030                     createCustomCharacter@i:	
  2823                           ; 1 bytes @ 0x10
  2824                           
  2825                           
  2826                           ; 2 bytes @ 0x10
  2827  0030                     	ds	2
  2828  0032                     LCDPutStr@i:
  2829                           
  2830                           ; 1 bytes @ 0x12
  2831  0032                     	ds	1
  2832  0033                     ??_cleanMenu:
  2833  0033                     ??_cleanFullMenu:	
  2834                           ; 1 bytes @ 0x13
  2835                           
  2836  0033                     ??_mainMenu:	
  2837                           ; 1 bytes @ 0x13
  2838                           
  2839                           
  2840                           ; 1 bytes @ 0x13
  2841  0033                     	ds	2
  2842  0035                     ??_printMenu:
  2843  0035                     ??_main:	
  2844                           ; 1 bytes @ 0x15
  2845                           
  2846                           
  2847                           ; 1 bytes @ 0x15
  2848  0035                     	ds	1
  2849                           
  2850                           	psect	maintext
  2851  01BC                     __pmaintext:	
  2852 ;;
  2853 ;;Main: autosize = 0, tempsize = 1, incstack = 0, save=0
  2854 ;;
  2855 ;; *************** function _main *****************
  2856 ;; Defined at:
  2857 ;;		line 29 in file "main.c"
  2858 ;; Parameters:    Size  Location     Type
  2859 ;;		None
  2860 ;; Auto vars:     Size  Location     Type
  2861 ;;  Pattern4        8   24[BANK1 ] unsigned char [8]
  2862 ;;  Pattern3        8   16[BANK1 ] unsigned char [8]
  2863 ;;  Pattern2        8    8[BANK1 ] unsigned char [8]
  2864 ;;  Pattern1        8    0[BANK1 ] unsigned char [8]
  2865 ;; Return value:  Size  Location     Type
  2866 ;;                  1    wreg      void 
  2867 ;; Registers used:
  2868 ;;		wreg, fsr0l, fsr0h, fsr1l, fsr1h, status,2, status,0, pclath, cstack
  2869 ;; Tracked objects:
  2870 ;;		On entry : B1F/0
  2871 ;;		On exit  : 0/0
  2872 ;;		Unchanged: 0/0
  2873 ;; Data sizes:     COMMON   BANK0   BANK1   BANK2   BANK3   BANK4   BANK5   BANK6   BANK7   BANK8   BANK9  BANK10  BANK1
      +1  BANK12  BANK13  BANK14  BANK15  BANK16  BANK17  BANK18  BANK19  BANK20  BANK21  BANK22  BANK23  BANK24  BANK25
  2874 ;;      Params:         0       0       0       0       0       0       0       0       0       0       0       0       
      +0       0       0       0       0       0       0       0       0       0       0       0       0       0       0
  2875 ;;      Locals:         0       0      32       0       0       0       0       0       0       0       0       0       
      +0       0       0       0       0       0       0       0       0       0       0       0       0       0       0
  2876 ;;      Temps:          0       1       0       0       0       0       0       0       0       0       0       0       
      +0       0       0       0       0       0       0       0       0       0       0       0       0       0       0
  2877 ;;      Totals:         0       1      32       0       0       0       0       0       0       0       0       0       
      +0       0       0       0       0       0       0       0       0       0       0       0       0       0       0
  2878 ;;Total ram usage:       33 bytes
  2879 ;; Hardware stack levels required when called:   14
  2880 ;; This function calls:
  2881 ;;		_LCD_Initialize
  2882 ;;		_SYSTEM_Initialize
  2883 ;;		_createCustomCharacter
  2884 ;;		_printMenu
  2885 ;; This function is called by:
  2886 ;;		Startup code after reset
  2887 ;; This function uses a non-reentrant model
  2888 ;;
  2889                           
  2890                           
  2891                           ;psect for function _main
  2892  01BC                     _main:
  2893  01BC                     l2676:	
  2894                           ;incstack = 0
  2895                           ; Regs used in _main: [wreg-fsr1h+status,2+status,0+pclath+cstack]
  2896                           
  2897                           
  2898                           ;main.c: 35:     SYSTEM_Initialize();
  2899  01BC  3186  268D  3181   	fcall	_SYSTEM_Initialize
  2900                           
  2901                           ;main.c: 36:     LCD_Initialize();
  2902  01BF  3184  244A  3181   	fcall	_LCD_Initialize
  2903  01C2                     l2678:
  2904                           
  2905                           ;main.c: 40:     unsigned char Pattern1 [ ] = {0x18,0x10,0x1F,0x1F,0x1F,0x10,0x18,0x00};
  2906  01C2  303E               	movlw	low main@F5656
  2907  01C3  0086               	movwf	6
  2908  01C4  3000               	movlw	high main@F5656
  2909  01C5  0087               	movwf	7
  2910  01C6  30A0               	movlw	low main@Pattern1
  2911  01C7  0084               	movwf	4
  2912  01C8  3000               	movlw	high main@Pattern1
  2913  01C9  0085               	movwf	5
  2914  01CA  3008               	movlw	8
  2915  01CB  0020               	movlb	0	; select bank0
  2916  01CC  00B5               	movwf	??_main
  2917  01CD                     u1170:
  2918  01CD  0016               	moviw fsr1++
  2919  01CE  001A               	movwi fsr0++
  2920  01CF  0BB5               	decfsz	??_main,f
  2921  01D0  29CD               	goto	u1170
  2922  01D1                     l2680:
  2923                           
  2924                           ;main.c: 42:     unsigned char Pattern2 [ ] = {0x00,0x0A,0x11,0x15,0x15,0x11,0x0A,0x00};
  2925  01D1  3036               	movlw	low main@F5658
  2926  01D2  0086               	movwf	6
  2927  01D3  3000               	movlw	high main@F5658
  2928  01D4  0087               	movwf	7
  2929  01D5  30A8               	movlw	low main@Pattern2
  2930  01D6  0084               	movwf	4
  2931  01D7  3000               	movlw	high main@Pattern2
  2932  01D8  0085               	movwf	5
  2933  01D9  3008               	movlw	8
  2934  01DA  00B5               	movwf	??_main
  2935  01DB                     u1180:
  2936  01DB  0016               	moviw fsr1++
  2937  01DC  001A               	movwi fsr0++
  2938  01DD  0BB5               	decfsz	??_main,f
  2939  01DE  29DB               	goto	u1180
  2940  01DF                     l2682:
  2941                           
  2942                           ;main.c: 44:     unsigned char Pattern3 [ ] = {0x00,0x00,0x0E,0x1F,0x0E,0x00,0x00,0x00} 
      +                          ;
  2943  01DF  30C8               	movlw	low main@F5660
  2944  01E0  0086               	movwf	6
  2945  01E1  3000               	movlw	high main@F5660
  2946  01E2  0087               	movwf	7
  2947  01E3  30B0               	movlw	low main@Pattern3
  2948  01E4  0084               	movwf	4
  2949  01E5  3000               	movlw	high main@Pattern3
  2950  01E6  0085               	movwf	5
  2951  01E7  3008               	movlw	8
  2952  01E8  00B5               	movwf	??_main
  2953  01E9                     u1190:
  2954  01E9  0016               	moviw fsr1++
  2955  01EA  001A               	movwi fsr0++
  2956  01EB  0BB5               	decfsz	??_main,f
  2957  01EC  29E9               	goto	u1190
  2958  01ED                     l2684:
  2959                           
  2960                           ;main.c: 46:     unsigned char Pattern4 [ ] = {0x00,0x00,0x0A,0x1F,0x1F,0x0E,0x04,0x00} 
      +                          ;
  2961  01ED  30C0               	movlw	low main@F5662
  2962  01EE  0086               	movwf	6
  2963  01EF  3000               	movlw	high main@F5662
  2964  01F0  0087               	movwf	7
  2965  01F1  30B8               	movlw	low main@Pattern4
  2966  01F2  0084               	movwf	4
  2967  01F3  3000               	movlw	high main@Pattern4
  2968  01F4  0085               	movwf	5
  2969  01F5  3008               	movlw	8
  2970  01F6  00B5               	movwf	??_main
  2971  01F7                     u1200:
  2972  01F7  0016               	moviw fsr1++
  2973  01F8  001A               	movwi fsr0++
  2974  01F9  0BB5               	decfsz	??_main,f
  2975  01FA  29F7               	goto	u1200
  2976  01FB                     l2686:
  2977                           
  2978                           ;main.c: 50:     createCustomCharacter(Pattern1,1);
  2979  01FB  01AD               	clrf	createCustomCharacter@Location
  2980  01FC  0AAD               	incf	createCustomCharacter@Location,f
  2981  01FD  30A0               	movlw	(low (main@Pattern1| 0))& (0+255)
  2982  01FE  3182  2251  3181   	fcall	_createCustomCharacter
  2983  0201                     l2688:
  2984                           
  2985                           ;main.c: 51:     createCustomCharacter(Pattern2,0);
  2986  0201  0020               	movlb	0	; select bank0
  2987  0202  01AD               	clrf	createCustomCharacter@Location
  2988  0203  30A8               	movlw	(low (main@Pattern2| 0))& (0+255)
  2989  0204  3182  2251  3181   	fcall	_createCustomCharacter
  2990  0207                     l2690:
  2991                           
  2992                           ;main.c: 52:     createCustomCharacter(Pattern3,2);
  2993  0207  3002               	movlw	2
  2994  0208  0020               	movlb	0	; select bank0
  2995  0209  00B5               	movwf	??_main
  2996  020A  0835               	movf	??_main,w
  2997  020B  00AD               	movwf	createCustomCharacter@Location
  2998  020C  30B0               	movlw	(low (main@Pattern3| 0))& (0+255)
  2999  020D  3182  2251  3181   	fcall	_createCustomCharacter
  3000  0210                     l2692:
  3001                           
  3002                           ;main.c: 53:     createCustomCharacter(Pattern4,3);
  3003  0210  3003               	movlw	3
  3004  0211  0020               	movlb	0	; select bank0
  3005  0212  00B5               	movwf	??_main
  3006  0213  0835               	movf	??_main,w
  3007  0214  00AD               	movwf	createCustomCharacter@Location
  3008  0215  30B8               	movlw	(low (main@Pattern4| 0))& (0+255)
  3009  0216  3182  2251  3181   	fcall	_createCustomCharacter
  3010  0219                     l2694:
  3011                           
  3012                           ;main.c: 58:     printMenu();
  3013  0219  3184  24F0  3181   	fcall	_printMenu
  3014  021C                     l2696:
  3015                           
  3016                           ;main.c: 61:     (INTCONbits.GIE = 1);
  3017  021C  178B               	bsf	11,7	;volatile
  3018  021D                     l357:	
  3019                           ;main.c: 63:     while (1)
  3020                           
  3021  021D                     l358:	
  3022                           ;main.c: 64:     {;main.c: 66:     }
  3023                           
  3024  021D  2A1D               	goto	l357
  3025  021E  3180  281B         	ljmp	start
  3026  0220                     __end_of_main:
  3027                           
  3028                           	psect	text1
  3029  04F0                     __ptext1:	
  3030 ;; *************** function _printMenu *****************
  3031 ;; Defined at:
  3032 ;;		line 27 in file "menu.c"
  3033 ;; Parameters:    Size  Location     Type
  3034 ;;		None
  3035 ;; Auto vars:     Size  Location     Type
  3036 ;;		None
  3037 ;; Return value:  Size  Location     Type
  3038 ;;                  1    wreg      void 
  3039 ;; Registers used:
  3040 ;;		wreg, fsr0l, fsr0h, status,2, status,0, pclath, cstack
  3041 ;; Tracked objects:
  3042 ;;		On entry : 0/0
  3043 ;;		On exit  : 0/0
  3044 ;;		Unchanged: 0/0
  3045 ;; Data sizes:     COMMON   BANK0   BANK1   BANK2   BANK3   BANK4   BANK5   BANK6   BANK7   BANK8   BANK9  BANK10  BANK1
      +1  BANK12  BANK13  BANK14  BANK15  BANK16  BANK17  BANK18  BANK19  BANK20  BANK21  BANK22  BANK23  BANK24  BANK25
  3046 ;;      Params:         0       0       0       0       0       0       0       0       0       0       0       0       
      +0       0       0       0       0       0       0       0       0       0       0       0       0       0       0
  3047 ;;      Locals:         0       0       0       0       0       0       0       0       0       0       0       0       
      +0       0       0       0       0       0       0       0       0       0       0       0       0       0       0
  3048 ;;      Temps:          0       0       0       0       0       0       0       0       0       0       0       0       
      +0       0       0       0       0       0       0       0       0       0       0       0       0       0       0
  3049 ;;      Totals:         0       0       0       0       0       0       0       0       0       0       0       0       
      +0       0       0       0       0       0       0       0       0       0       0       0       0       0       0
  3050 ;;Total ram usage:        0 bytes
  3051 ;; Hardware stack levels used:    1
  3052 ;; Hardware stack levels required when called:   13
  3053 ;; This function calls:
  3054 ;;		_LCDGoto
  3055 ;;		_LCDPutStr
  3056 ;;		_cleanFullMenu
  3057 ;;		_cleanMenu
  3058 ;;		_mainMenu
  3059 ;; This function is called by:
  3060 ;;		_main
  3061 ;; This function uses a non-reentrant model
  3062 ;;
  3063                           
  3064                           
  3065                           ;psect for function _printMenu
  3066  04F0                     _printMenu:
  3067  04F0                     l2596:	
  3068                           ;incstack = 0
  3069                           ; Regs used in _printMenu: [wreg-fsr0h+status,2+status,0+pclath+cstack]
  3070                           
  3071                           
  3072                           ;menu.c: 30:     if(inGame){
  3073  04F0  0020               	movlb	0	; select bank0
  3074  04F1  0855               	movf	_inGame,w
  3075  04F2  1903               	btfsc	3,2
  3076  04F3  2CF5               	goto	u1091
  3077  04F4  2CF6               	goto	u1090
  3078  04F5                     u1091:
  3079  04F5  2D08               	goto	l2604
  3080  04F6                     u1090:
  3081  04F6                     l2598:
  3082                           
  3083                           ;menu.c: 31:         cleanMenu();
  3084  04F6  3185  252E  3184   	fcall	_cleanMenu
  3085  04F9                     l2600:
  3086                           
  3087                           ;menu.c: 32:         LCDGoto(lcdOffset, 0);
  3088  04F9  0020               	movlb	0	; select bank0
  3089  04FA  01AD               	clrf	LCDGoto@ln
  3090  04FB  0846               	movf	_lcdOffset,w
  3091  04FC  3183  23AD  3184   	fcall	_LCDGoto
  3092  04FF                     l2602:
  3093                           
  3094                           ;menu.c: 33:         LCDPutStr("   Menu    ");
  3095  04FF  3075               	movlw	low (STR_5| (0+32768))
  3096  0500  0020               	movlb	0	; select bank0
  3097  0501  00AD               	movwf	LCDPutStr@str
  3098  0502  3086               	movlw	high (STR_5| (0+32768))
  3099  0503  00AE               	movwf	LCDPutStr@str+1
  3100  0504  3183  2385  3184   	fcall	_LCDPutStr
  3101                           
  3102                           ;menu.c: 34:     }else {
  3103  0507  2D0E               	goto	l387
  3104  0508                     l2604:
  3105                           
  3106                           ;menu.c: 35:         cleanFullMenu();
  3107  0508  3185  254C  3184   	fcall	_cleanFullMenu
  3108                           
  3109                           ;menu.c: 36:         mainMenu();
  3110  050B  3180  203C  3184   	fcall	_mainMenu
  3111  050E                     l387:
  3112  050E  0008               	return
  3113  050F                     __end_of_printMenu:
  3114                           
  3115                           	psect	text2
  3116  003C                     __ptext2:	
  3117 ;; *************** function _mainMenu *****************
  3118 ;; Defined at:
  3119 ;;		line 40 in file "menu.c"
  3120 ;; Parameters:    Size  Location     Type
  3121 ;;		None
  3122 ;; Auto vars:     Size  Location     Type
  3123 ;;		None
  3124 ;; Return value:  Size  Location     Type
  3125 ;;                  1    wreg      void 
  3126 ;; Registers used:
  3127 ;;		wreg, fsr0l, fsr0h, status,2, status,0, pclath, cstack
  3128 ;; Tracked objects:
  3129 ;;		On entry : 0/0
  3130 ;;		On exit  : 0/0
  3131 ;;		Unchanged: 0/0
  3132 ;; Data sizes:     COMMON   BANK0   BANK1   BANK2   BANK3   BANK4   BANK5   BANK6   BANK7   BANK8   BANK9  BANK10  BANK1
      +1  BANK12  BANK13  BANK14  BANK15  BANK16  BANK17  BANK18  BANK19  BANK20  BANK21  BANK22  BANK23  BANK24  BANK25
  3133 ;;      Params:         0       0       0       0       0       0       0       0       0       0       0       0       
      +0       0       0       0       0       0       0       0       0       0       0       0       0       0       0
  3134 ;;      Locals:         0       0       0       0       0       0       0       0       0       0       0       0       
      +0       0       0       0       0       0       0       0       0       0       0       0       0       0       0
  3135 ;;      Temps:          0       2       0       0       0       0       0       0       0       0       0       0       
      +0       0       0       0       0       0       0       0       0       0       0       0       0       0       0
  3136 ;;      Totals:         0       2       0       0       0       0       0       0       0       0       0       0       
      +0       0       0       0       0       0       0       0       0       0       0       0       0       0       0
  3137 ;;Total ram usage:        2 bytes
  3138 ;; Hardware stack levels used:    1
  3139 ;; Hardware stack levels required when called:   12
  3140 ;; This function calls:
  3141 ;;		_LCDGoto
  3142 ;;		_LCDPutStr
  3143 ;; This function is called by:
  3144 ;;		_printMenu
  3145 ;; This function uses a non-reentrant model
  3146 ;;
  3147                           
  3148                           
  3149                           ;psect for function _mainMenu
  3150  003C                     _mainMenu:
  3151  003C                     l2538:	
  3152                           ;incstack = 0
  3153                           ; Regs used in _mainMenu: [wreg-fsr0h+status,2+status,0+pclath+cstack]
  3154                           
  3155                           
  3156                           ;menu.c: 41:     switch (mainState){
  3157  003C  28B1               	goto	l2566
  3158  003D                     l2540:
  3159                           
  3160                           ;menu.c: 43:             LCDGoto(0, 0);
  3161  003D  01AD               	clrf	LCDGoto@ln
  3162  003E  3000               	movlw	0
  3163  003F  3183  23AD  3180   	fcall	_LCDGoto
  3164  0042                     l2542:
  3165                           
  3166                           ;menu.c: 44:             LCDPutStr("Select ship#1");
  3167  0042  303D               	movlw	low (STR_6| (0+32768))
  3168  0043  0020               	movlb	0	; select bank0
  3169  0044  00AD               	movwf	LCDPutStr@str
  3170  0045  3086               	movlw	high (STR_6| (0+32768))
  3171  0046  00AE               	movwf	LCDPutStr@str+1
  3172  0047  3183  2385  3180   	fcall	_LCDPutStr
  3173  004A                     l2544:
  3174                           
  3175                           ;menu.c: 45:             LCDGoto(0, 1);
  3176  004A  0020               	movlb	0	; select bank0
  3177  004B  01AD               	clrf	LCDGoto@ln
  3178  004C  0AAD               	incf	LCDGoto@ln,f
  3179  004D  3000               	movlw	0
  3180  004E  3183  23AD  3180   	fcall	_LCDGoto
  3181                           
  3182                           ;menu.c: 46:             LCDPutStr("> Tie Fighter");
  3183  0051  3067               	movlw	low (STR_7| (0+32768))
  3184  0052  0020               	movlb	0	; select bank0
  3185  0053  00AD               	movwf	LCDPutStr@str
  3186  0054  3086               	movlw	high (STR_7| (0+32768))
  3187  0055  00AE               	movwf	LCDPutStr@str+1
  3188  0056  3183  2385  3180   	fcall	_LCDPutStr
  3189                           
  3190                           ;menu.c: 47:         break;
  3191  0059  28C8               	goto	l397
  3192  005A                     l2546:
  3193                           
  3194                           ;menu.c: 49:             LCDGoto(0, 0);
  3195  005A  01AD               	clrf	LCDGoto@ln
  3196  005B  3000               	movlw	0
  3197  005C  3183  23AD  3180   	fcall	_LCDGoto
  3198  005F                     l2548:
  3199                           
  3200                           ;menu.c: 50:             LCDPutStr("  Tie Fighter");
  3201  005F  3059               	movlw	low (STR_8| (0+32768))
  3202  0060  0020               	movlb	0	; select bank0
  3203  0061  00AD               	movwf	LCDPutStr@str
  3204  0062  3086               	movlw	high (STR_8| (0+32768))
  3205  0063  00AE               	movwf	LCDPutStr@str+1
  3206  0064  3183  2385  3180   	fcall	_LCDPutStr
  3207  0067                     l2550:
  3208                           
  3209                           ;menu.c: 51:             LCDGoto(0, 1);
  3210  0067  0020               	movlb	0	; select bank0
  3211  0068  01AD               	clrf	LCDGoto@ln
  3212  0069  0AAD               	incf	LCDGoto@ln,f
  3213  006A  3000               	movlw	0
  3214  006B  3183  23AD  3180   	fcall	_LCDGoto
  3215                           
  3216                           ;menu.c: 52:             LCDPutStr("> X wing");
  3217  006E  3097               	movlw	low (STR_9| (0+32768))
  3218  006F  0020               	movlb	0	; select bank0
  3219  0070  00AD               	movwf	LCDPutStr@str
  3220  0071  3086               	movlw	high (STR_9| (0+32768))
  3221  0072  00AE               	movwf	LCDPutStr@str+1
  3222  0073  3183  2385  3180   	fcall	_LCDPutStr
  3223                           
  3224                           ;menu.c: 53:         break;
  3225  0076  28C8               	goto	l397
  3226  0077                     l2552:
  3227                           
  3228                           ;menu.c: 55:             LCDGoto(0, 0);
  3229  0077  01AD               	clrf	LCDGoto@ln
  3230  0078  3000               	movlw	0
  3231  0079  3183  23AD  3180   	fcall	_LCDGoto
  3232  007C                     l2554:
  3233                           
  3234                           ;menu.c: 56:             LCDPutStr("Select ship#2");
  3235  007C  304B               	movlw	low (STR_10| (0+32768))
  3236  007D  0020               	movlb	0	; select bank0
  3237  007E  00AD               	movwf	LCDPutStr@str
  3238  007F  3086               	movlw	high (STR_10| (0+32768))
  3239  0080  00AE               	movwf	LCDPutStr@str+1
  3240  0081  3183  2385  3180   	fcall	_LCDPutStr
  3241  0084                     l2556:
  3242                           
  3243                           ;menu.c: 57:             LCDGoto(0, 1);
  3244  0084  0020               	movlb	0	; select bank0
  3245  0085  01AD               	clrf	LCDGoto@ln
  3246  0086  0AAD               	incf	LCDGoto@ln,f
  3247  0087  3000               	movlw	0
  3248  0088  3183  23AD  3180   	fcall	_LCDGoto
  3249                           
  3250                           ;menu.c: 58:             LCDPutStr("> Tie Fighter");
  3251  008B  3067               	movlw	low (STR_7| (0+32768))
  3252  008C  0020               	movlb	0	; select bank0
  3253  008D  00AD               	movwf	LCDPutStr@str
  3254  008E  3086               	movlw	high (STR_7| (0+32768))
  3255  008F  00AE               	movwf	LCDPutStr@str+1
  3256  0090  3183  2385  3180   	fcall	_LCDPutStr
  3257                           
  3258                           ;menu.c: 59:         break;
  3259  0093  28C8               	goto	l397
  3260  0094                     l2558:
  3261                           
  3262                           ;menu.c: 61:             LCDGoto(0, 0);
  3263  0094  01AD               	clrf	LCDGoto@ln
  3264  0095  3000               	movlw	0
  3265  0096  3183  23AD  3180   	fcall	_LCDGoto
  3266  0099                     l2560:
  3267                           
  3268                           ;menu.c: 62:             LCDPutStr("  Tie Fighter");
  3269  0099  3059               	movlw	low (STR_8| (0+32768))
  3270  009A  0020               	movlb	0	; select bank0
  3271  009B  00AD               	movwf	LCDPutStr@str
  3272  009C  3086               	movlw	high (STR_8| (0+32768))
  3273  009D  00AE               	movwf	LCDPutStr@str+1
  3274  009E  3183  2385  3180   	fcall	_LCDPutStr
  3275  00A1                     l2562:
  3276                           
  3277                           ;menu.c: 63:             LCDGoto(0, 1);
  3278  00A1  0020               	movlb	0	; select bank0
  3279  00A2  01AD               	clrf	LCDGoto@ln
  3280  00A3  0AAD               	incf	LCDGoto@ln,f
  3281  00A4  3000               	movlw	0
  3282  00A5  3183  23AD  3180   	fcall	_LCDGoto
  3283                           
  3284                           ;menu.c: 64:             LCDPutStr("> X wing");
  3285  00A8  3097               	movlw	low (STR_9| (0+32768))
  3286  00A9  0020               	movlb	0	; select bank0
  3287  00AA  00AD               	movwf	LCDPutStr@str
  3288  00AB  3086               	movlw	high (STR_9| (0+32768))
  3289  00AC  00AE               	movwf	LCDPutStr@str+1
  3290  00AD  3183  2385  3180   	fcall	_LCDPutStr
  3291                           
  3292                           ;menu.c: 65:         break;
  3293  00B0  28C8               	goto	l397
  3294  00B1                     l2566:
  3295  00B1  0020               	movlb	0	; select bank0
  3296  00B2  0854               	movf	_mainState,w
  3297  00B3  00B3               	movwf	??_mainMenu
  3298  00B4  01B4               	clrf	??_mainMenu+1
  3299                           
  3300                           ; Switch on 2 bytes has been partitioned into a top level switch of size 1, and 1 sub-sw
      +                          itches
  3301                           ; Switch size 1, requested type "simple"
  3302                           ; Number of cases is 1, Range of values is 0 to 0
  3303                           ; switch strategies available:
  3304                           ; Name         Instructions Cycles
  3305                           ; simple_byte            4     3 (average)
  3306                           ; direct_byte            8     6 (fixed)
  3307                           ; jumptable            260     6 (fixed)
  3308                           ;	Chosen strategy is simple_byte
  3309  00B5  0834               	movf	??_mainMenu+1,w
  3310  00B6  3A00               	xorlw	0	; case 0
  3311  00B7  1903               	skipnz
  3312  00B8  28BA               	goto	l2858
  3313  00B9  28C8               	goto	l397
  3314  00BA                     l2858:
  3315                           
  3316                           ; Switch size 1, requested type "simple"
  3317                           ; Number of cases is 4, Range of values is 0 to 3
  3318                           ; switch strategies available:
  3319                           ; Name         Instructions Cycles
  3320                           ; simple_byte           13     7 (average)
  3321                           ; direct_byte           14     6 (fixed)
  3322                           ; jumptable            260     6 (fixed)
  3323                           ;	Chosen strategy is simple_byte
  3324  00BA  0833               	movf	??_mainMenu,w
  3325  00BB  3A00               	xorlw	0	; case 0
  3326  00BC  1903               	skipnz
  3327  00BD  283D               	goto	l2540
  3328  00BE  3A01               	xorlw	1	; case 1
  3329  00BF  1903               	skipnz
  3330  00C0  285A               	goto	l2546
  3331  00C1  3A03               	xorlw	3	; case 2
  3332  00C2  1903               	skipnz
  3333  00C3  2877               	goto	l2552
  3334  00C4  3A01               	xorlw	1	; case 3
  3335  00C5  1903               	skipnz
  3336  00C6  2894               	goto	l2558
  3337  00C7  28C8               	goto	l397
  3338  00C8                     l397:
  3339  00C8  0008               	return
  3340  00C9                     __end_of_mainMenu:
  3341                           
  3342                           	psect	text3
  3343  052E                     __ptext3:	
  3344 ;; *************** function _cleanMenu *****************
  3345 ;; Defined at:
  3346 ;;		line 71 in file "menu.c"
  3347 ;; Parameters:    Size  Location     Type
  3348 ;;		None
  3349 ;; Auto vars:     Size  Location     Type
  3350 ;;		None
  3351 ;; Return value:  Size  Location     Type
  3352 ;;                  1    wreg      void 
  3353 ;; Registers used:
  3354 ;;		wreg, fsr0l, fsr0h, status,2, status,0, pclath, cstack
  3355 ;; Tracked objects:
  3356 ;;		On entry : 0/0
  3357 ;;		On exit  : 0/0
  3358 ;;		Unchanged: 0/0
  3359 ;; Data sizes:     COMMON   BANK0   BANK1   BANK2   BANK3   BANK4   BANK5   BANK6   BANK7   BANK8   BANK9  BANK10  BANK1
      +1  BANK12  BANK13  BANK14  BANK15  BANK16  BANK17  BANK18  BANK19  BANK20  BANK21  BANK22  BANK23  BANK24  BANK25
  3360 ;;      Params:         0       0       0       0       0       0       0       0       0       0       0       0       
      +0       0       0       0       0       0       0       0       0       0       0       0       0       0       0
  3361 ;;      Locals:         0       0       0       0       0       0       0       0       0       0       0       0       
      +0       0       0       0       0       0       0       0       0       0       0       0       0       0       0
  3362 ;;      Temps:          0       0       0       0       0       0       0       0       0       0       0       0       
      +0       0       0       0       0       0       0       0       0       0       0       0       0       0       0
  3363 ;;      Totals:         0       0       0       0       0       0       0       0       0       0       0       0       
      +0       0       0       0       0       0       0       0       0       0       0       0       0       0       0
  3364 ;;Total ram usage:        0 bytes
  3365 ;; Hardware stack levels used:    1
  3366 ;; Hardware stack levels required when called:   12
  3367 ;; This function calls:
  3368 ;;		_LCDGoto
  3369 ;;		_LCDPutStr
  3370 ;; This function is called by:
  3371 ;;		_printMenu
  3372 ;; This function uses a non-reentrant model
  3373 ;;
  3374                           
  3375                           
  3376                           ;psect for function _cleanMenu
  3377  052E                     _cleanMenu:
  3378  052E                     l2526:	
  3379                           ;incstack = 0
  3380                           ; Regs used in _cleanMenu: [wreg-fsr0h+status,2+status,0+pclath+cstack]
  3381                           
  3382                           
  3383                           ;menu.c: 74:     LCDGoto(lcdOffset, 0);
  3384  052E  0020               	movlb	0	; select bank0
  3385  052F  01AD               	clrf	LCDGoto@ln
  3386  0530  0846               	movf	_lcdOffset,w
  3387  0531  3183  23AD  3185   	fcall	_LCDGoto
  3388  0534                     l2528:
  3389                           
  3390                           ;menu.c: 75:     LCDPutStr("          ");
  3391  0534  3022               	movlw	low ((STR_1+6)| (0+32768))
  3392  0535  0020               	movlb	0	; select bank0
  3393  0536  00AD               	movwf	LCDPutStr@str
  3394  0537  3086               	movlw	high ((STR_1+6)| (0+32768))
  3395  0538  00AE               	movwf	LCDPutStr@str+1
  3396  0539  3183  2385  3185   	fcall	_LCDPutStr
  3397  053C                     l2530:
  3398                           
  3399                           ;menu.c: 76:     LCDGoto(lcdOffset, 1);
  3400  053C  0020               	movlb	0	; select bank0
  3401  053D  01AD               	clrf	LCDGoto@ln
  3402  053E  0AAD               	incf	LCDGoto@ln,f
  3403  053F  0846               	movf	_lcdOffset,w
  3404  0540  3183  23AD  3185   	fcall	_LCDGoto
  3405                           
  3406                           ;menu.c: 77:     LCDPutStr("          ");
  3407  0543  3022               	movlw	low ((STR_1+6)| (0+32768))
  3408  0544  0020               	movlb	0	; select bank0
  3409  0545  00AD               	movwf	LCDPutStr@str
  3410  0546  3086               	movlw	high ((STR_1+6)| (0+32768))
  3411  0547  00AE               	movwf	LCDPutStr@str+1
  3412  0548  3183  2385  3185   	fcall	_LCDPutStr
  3413  054B                     l400:
  3414  054B  0008               	return
  3415  054C                     __end_of_cleanMenu:
  3416                           
  3417                           	psect	text4
  3418  054C                     __ptext4:	
  3419 ;; *************** function _cleanFullMenu *****************
  3420 ;; Defined at:
  3421 ;;		line 97 in file "menu.c"
  3422 ;; Parameters:    Size  Location     Type
  3423 ;;		None
  3424 ;; Auto vars:     Size  Location     Type
  3425 ;;		None
  3426 ;; Return value:  Size  Location     Type
  3427 ;;                  1    wreg      void 
  3428 ;; Registers used:
  3429 ;;		wreg, fsr0l, fsr0h, status,2, status,0, pclath, cstack
  3430 ;; Tracked objects:
  3431 ;;		On entry : 0/0
  3432 ;;		On exit  : 0/0
  3433 ;;		Unchanged: 0/0
  3434 ;; Data sizes:     COMMON   BANK0   BANK1   BANK2   BANK3   BANK4   BANK5   BANK6   BANK7   BANK8   BANK9  BANK10  BANK1
      +1  BANK12  BANK13  BANK14  BANK15  BANK16  BANK17  BANK18  BANK19  BANK20  BANK21  BANK22  BANK23  BANK24  BANK25
  3435 ;;      Params:         0       0       0       0       0       0       0       0       0       0       0       0       
      +0       0       0       0       0       0       0       0       0       0       0       0       0       0       0
  3436 ;;      Locals:         0       0       0       0       0       0       0       0       0       0       0       0       
      +0       0       0       0       0       0       0       0       0       0       0       0       0       0       0
  3437 ;;      Temps:          0       0       0       0       0       0       0       0       0       0       0       0       
      +0       0       0       0       0       0       0       0       0       0       0       0       0       0       0
  3438 ;;      Totals:         0       0       0       0       0       0       0       0       0       0       0       0       
      +0       0       0       0       0       0       0       0       0       0       0       0       0       0       0
  3439 ;;Total ram usage:        0 bytes
  3440 ;; Hardware stack levels used:    1
  3441 ;; Hardware stack levels required when called:   12
  3442 ;; This function calls:
  3443 ;;		_LCDGoto
  3444 ;;		_LCDPutStr
  3445 ;; This function is called by:
  3446 ;;		_printMenu
  3447 ;; This function uses a non-reentrant model
  3448 ;;
  3449                           
  3450                           
  3451                           ;psect for function _cleanFullMenu
  3452  054C                     _cleanFullMenu:
  3453  054C                     l2532:	
  3454                           ;incstack = 0
  3455                           ; Regs used in _cleanFullMenu: [wreg-fsr0h+status,2+status,0+pclath+cstack]
  3456                           
  3457                           
  3458                           ;menu.c: 100:     LCDGoto(0, 0);
  3459  054C  0020               	movlb	0	; select bank0
  3460  054D  01AD               	clrf	LCDGoto@ln
  3461  054E  3000               	movlw	0
  3462  054F  3183  23AD  3185   	fcall	_LCDGoto
  3463  0552                     l2534:
  3464                           
  3465                           ;menu.c: 101:     LCDPutStr("                ");
  3466  0552  301C               	movlw	low (STR_1| (0+32768))
  3467  0553  0020               	movlb	0	; select bank0
  3468  0554  00AD               	movwf	LCDPutStr@str
  3469  0555  3086               	movlw	high (STR_1| (0+32768))
  3470  0556  00AE               	movwf	LCDPutStr@str+1
  3471  0557  3183  2385  3185   	fcall	_LCDPutStr
  3472  055A                     l2536:
  3473                           
  3474                           ;menu.c: 102:     LCDGoto(0, 1);
  3475  055A  0020               	movlb	0	; select bank0
  3476  055B  01AD               	clrf	LCDGoto@ln
  3477  055C  0AAD               	incf	LCDGoto@ln,f
  3478  055D  3000               	movlw	0
  3479  055E  3183  23AD  3185   	fcall	_LCDGoto
  3480                           
  3481                           ;menu.c: 103:     LCDPutStr("                ");
  3482  0561  301C               	movlw	low (STR_1| (0+32768))
  3483  0562  0020               	movlb	0	; select bank0
  3484  0563  00AD               	movwf	LCDPutStr@str
  3485  0564  3086               	movlw	high (STR_1| (0+32768))
  3486  0565  00AE               	movwf	LCDPutStr@str+1
  3487  0566  3183  2385  3185   	fcall	_LCDPutStr
  3488  0569                     l406:
  3489  0569  0008               	return
  3490  056A                     __end_of_cleanFullMenu:
  3491                           
  3492                           	psect	text5
  3493  0385                     __ptext5:	
  3494 ;; *************** function _LCDPutStr *****************
  3495 ;; Defined at:
  3496 ;;		line 131 in file "lcd.c"
  3497 ;; Parameters:    Size  Location     Type
  3498 ;;  str             2   13[BANK0 ] PTR const unsigned char 
  3499 ;;		 -> STR_18(17), STR_17(17), STR_16(12), STR_15(11), 
  3500 ;;		 -> STR_14(11), STR_13(9), STR_12(14), STR_11(14), 
  3501 ;;		 -> STR_10(14), STR_9(9), STR_8(14), STR_7(14), 
  3502 ;;		 -> STR_6(14), STR_5(12), STR_4(2), STR_3(2), 
  3503 ;;		 -> STR_2(17), STR_1(17), 
  3504 ;; Auto vars:     Size  Location     Type
  3505 ;;  i               1   18[BANK0 ] unsigned char 
  3506 ;; Return value:  Size  Location     Type
  3507 ;;                  1    wreg      void 
  3508 ;; Registers used:
  3509 ;;		wreg, fsr0l, fsr0h, status,2, status,0, pclath, cstack
  3510 ;; Tracked objects:
  3511 ;;		On entry : 0/0
  3512 ;;		On exit  : 0/0
  3513 ;;		Unchanged: 0/0
  3514 ;; Data sizes:     COMMON   BANK0   BANK1   BANK2   BANK3   BANK4   BANK5   BANK6   BANK7   BANK8   BANK9  BANK10  BANK1
      +1  BANK12  BANK13  BANK14  BANK15  BANK16  BANK17  BANK18  BANK19  BANK20  BANK21  BANK22  BANK23  BANK24  BANK25
  3515 ;;      Params:         0       2       0       0       0       0       0       0       0       0       0       0       
      +0       0       0       0       0       0       0       0       0       0       0       0       0       0       0
  3516 ;;      Locals:         0       1       0       0       0       0       0       0       0       0       0       0       
      +0       0       0       0       0       0       0       0       0       0       0       0       0       0       0
  3517 ;;      Temps:          0       3       0       0       0       0       0       0       0       0       0       0       
      +0       0       0       0       0       0       0       0       0       0       0       0       0       0       0
  3518 ;;      Totals:         0       6       0       0       0       0       0       0       0       0       0       0       
      +0       0       0       0       0       0       0       0       0       0       0       0       0       0       0
  3519 ;;Total ram usage:        6 bytes
  3520 ;; Hardware stack levels used:    1
  3521 ;; Hardware stack levels required when called:   11
  3522 ;; This function calls:
  3523 ;;		_LCDPutChar
  3524 ;; This function is called by:
  3525 ;;		_printMenu
  3526 ;;		_mainMenu
  3527 ;;		_cleanMenu
  3528 ;;		_cleanFullMenu
  3529 ;;		_basicShoot
  3530 ;; This function uses a non-reentrant model
  3531 ;;
  3532                           
  3533                           
  3534                           ;psect for function _LCDPutStr
  3535  0385                     _LCDPutStr:
  3536  0385                     l2300:	
  3537                           ;incstack = 0
  3538                           ; Regs used in _LCDPutStr: [wreg-fsr0h+status,2+status,0+pclath+cstack]
  3539                           
  3540                           
  3541                           ;lcd.c: 131: void LCDPutStr(const char *str);lcd.c: 132: {;lcd.c: 133:   uint8_t i = 0;
  3542  0385  0020               	movlb	0	; select bank0
  3543  0386  01B2               	clrf	LCDPutStr@i
  3544                           
  3545                           ;lcd.c: 136:   while (str[i])
  3546  0387  2B9C               	goto	l2306
  3547  0388                     l2302:
  3548                           
  3549                           ;lcd.c: 137:   {;lcd.c: 139:     LCDPutChar(str[i++]);
  3550  0388  082E               	movf	LCDPutStr@str+1,w
  3551  0389  00B0               	movwf	??_LCDPutStr+1
  3552  038A  082D               	movf	LCDPutStr@str,w
  3553  038B  00AF               	movwf	??_LCDPutStr
  3554  038C  0832               	movf	LCDPutStr@i,w
  3555  038D  072F               	addwf	??_LCDPutStr,w
  3556  038E  0084               	movwf	4
  3557  038F  0830               	movf	??_LCDPutStr+1,w
  3558  0390  1803               	skipnc
  3559  0391  0A30               	incf	??_LCDPutStr+1,w
  3560  0392  0085               	movwf	5
  3561  0393  0800               	movf	0,w	;code access
  3562  0394  3184  2490  3183   	fcall	_LCDPutChar
  3563  0397                     l2304:
  3564  0397  3001               	movlw	1
  3565  0398  0020               	movlb	0	; select bank0
  3566  0399  00AF               	movwf	??_LCDPutStr
  3567  039A  082F               	movf	??_LCDPutStr,w
  3568  039B  07B2               	addwf	LCDPutStr@i,f
  3569  039C                     l2306:
  3570                           
  3571                           ;lcd.c: 136:   while (str[i])
  3572  039C  082E               	movf	LCDPutStr@str+1,w
  3573  039D  00B0               	movwf	??_LCDPutStr+1
  3574  039E  082D               	movf	LCDPutStr@str,w
  3575  039F  00AF               	movwf	??_LCDPutStr
  3576  03A0  0832               	movf	LCDPutStr@i,w
  3577  03A1  072F               	addwf	??_LCDPutStr,w
  3578  03A2  0084               	movwf	4
  3579  03A3  0830               	movf	??_LCDPutStr+1,w
  3580  03A4  1803               	skipnc
  3581  03A5  0A30               	incf	??_LCDPutStr+1,w
  3582  03A6  0085               	movwf	5
  3583  03A7  0012               	moviw fsr0++
  3584  03A8  1D03               	btfss	3,2
  3585  03A9  2BAB               	goto	u871
  3586  03AA  2BAC               	goto	u870
  3587  03AB                     u871:
  3588  03AB  2B88               	goto	l2302
  3589  03AC                     u870:
  3590  03AC                     l290:
  3591  03AC  0008               	return
  3592  03AD                     __end_of_LCDPutStr:
  3593                           
  3594                           	psect	text6
  3595  03AD                     __ptext6:	
  3596 ;; *************** function _LCDGoto *****************
  3597 ;; Defined at:
  3598 ;;		line 143 in file "lcd.c"
  3599 ;; Parameters:    Size  Location     Type
  3600 ;;  pos             1    wreg     unsigned char 
  3601 ;;  ln              1   13[BANK0 ] unsigned char 
  3602 ;; Auto vars:     Size  Location     Type
  3603 ;;  pos             1   16[BANK0 ] unsigned char 
  3604 ;; Return value:  Size  Location     Type
  3605 ;;                  1    wreg      void 
  3606 ;; Registers used:
  3607 ;;		wreg, status,2, status,0, pclath, cstack
  3608 ;; Tracked objects:
  3609 ;;		On entry : 0/0
  3610 ;;		On exit  : 0/0
  3611 ;;		Unchanged: 0/0
  3612 ;; Data sizes:     COMMON   BANK0   BANK1   BANK2   BANK3   BANK4   BANK5   BANK6   BANK7   BANK8   BANK9  BANK10  BANK1
      +1  BANK12  BANK13  BANK14  BANK15  BANK16  BANK17  BANK18  BANK19  BANK20  BANK21  BANK22  BANK23  BANK24  BANK25
  3613 ;;      Params:         0       1       0       0       0       0       0       0       0       0       0       0       
      +0       0       0       0       0       0       0       0       0       0       0       0       0       0       0
  3614 ;;      Locals:         0       3       0       0       0       0       0       0       0       0       0       0       
      +0       0       0       0       0       0       0       0       0       0       0       0       0       0       0
  3615 ;;      Temps:          0       0       0       0       0       0       0       0       0       0       0       0       
      +0       0       0       0       0       0       0       0       0       0       0       0       0       0       0
  3616 ;;      Totals:         0       4       0       0       0       0       0       0       0       0       0       0       
      +0       0       0       0       0       0       0       0       0       0       0       0       0       0       0
  3617 ;;Total ram usage:        4 bytes
  3618 ;; Hardware stack levels used:    1
  3619 ;; Hardware stack levels required when called:   11
  3620 ;; This function calls:
  3621 ;;		_LCDPutCmd
  3622 ;; This function is called by:
  3623 ;;		_printMenu
  3624 ;;		_mainMenu
  3625 ;;		_cleanMenu
  3626 ;;		_cleanFullMenu
  3627 ;;		_basicShoot
  3628 ;; This function uses a non-reentrant model
  3629 ;;
  3630                           
  3631                           
  3632                           ;psect for function _LCDGoto
  3633  03AD                     _LCDGoto:
  3634                           
  3635                           ;incstack = 0
  3636                           ; Regs used in _LCDGoto: [wreg+status,2+status,0+pclath+cstack]
  3637                           ;LCDGoto@pos stored from wreg
  3638  03AD  0020               	movlb	0	; select bank0
  3639  03AE  00B0               	movwf	LCDGoto@pos
  3640  03AF                     l2308:
  3641                           
  3642                           ;lcd.c: 143: void LCDGoto(uint8_t pos, uint8_t ln);lcd.c: 144: {;lcd.c: 146:   if ((ln >
      +                           (2 - 1)) || (pos > (16 - 1)))
  3643  03AF  3002               	movlw	2
  3644  03B0  022D               	subwf	LCDGoto@ln,w
  3645  03B1  1803               	skipnc
  3646  03B2  2BB4               	goto	u881
  3647  03B3  2BB5               	goto	u880
  3648  03B4                     u881:
  3649  03B4  2BD4               	goto	l296
  3650  03B5                     u880:
  3651  03B5                     l2310:
  3652  03B5  3010               	movlw	16
  3653  03B6  0230               	subwf	LCDGoto@pos,w
  3654  03B7  1C03               	skipc
  3655  03B8  2BBA               	goto	u891
  3656  03B9  2BBB               	goto	u890
  3657  03BA                     u891:
  3658  03BA  2BBC               	goto	l2312
  3659  03BB                     u890:
  3660  03BB  2BD4               	goto	l296
  3661  03BC                     l2312:
  3662                           
  3663                           ;lcd.c: 153:   LCDPutCmd((ln == 1) ? (0xC0 | pos) : (0x80 | pos));
  3664  03BC  032D               	decf	LCDGoto@ln,w
  3665  03BD  1903               	btfsc	3,2
  3666  03BE  2BC0               	goto	u901
  3667  03BF  2BC1               	goto	u900
  3668  03C0                     u901:
  3669  03C0  2BC7               	goto	l2316
  3670  03C1                     u900:
  3671  03C1                     l2314:
  3672  03C1  3080               	movlw	128
  3673  03C2  0430               	iorwf	LCDGoto@pos,w
  3674  03C3  00AE               	movwf	_LCDGoto$473
  3675  03C4  3000               	movlw	0
  3676  03C5  00AF               	movwf	_LCDGoto$473+1
  3677  03C6  2BCC               	goto	l2318
  3678  03C7                     l2316:
  3679  03C7  30C0               	movlw	192
  3680  03C8  0430               	iorwf	LCDGoto@pos,w
  3681  03C9  00AE               	movwf	_LCDGoto$473
  3682  03CA  3000               	movlw	0
  3683  03CB  00AF               	movwf	_LCDGoto$473+1
  3684  03CC                     l2318:
  3685  03CC  082E               	movf	_LCDGoto$473,w
  3686  03CD  3184  246D  3183   	fcall	_LCDPutCmd
  3687  03D0                     l2320:
  3688                           
  3689                           ;lcd.c: 156:   _delay((unsigned long)((5)*(500000/4000.0)));
  3690  03D0  30D0               	movlw	208
  3691  03D1                     u1217:
  3692  03D1  0B89               	decfsz	9,f
  3693  03D2  2BD1               	goto	u1217
  3694  03D3  0000               	nop
  3695  03D4                     l296:
  3696  03D4  0008               	return
  3697  03D5                     __end_of_LCDGoto:
  3698                           
  3699                           	psect	text7
  3700  0251                     __ptext7:	
  3701 ;; *************** function _createCustomCharacter *****************
  3702 ;; Defined at:
  3703 ;;		line 26 in file "functions.c"
  3704 ;; Parameters:    Size  Location     Type
  3705 ;;  Pattern         1    wreg     PTR unsigned char 
  3706 ;;		 -> main@Pattern4(8), main@Pattern3(8), main@Pattern2(8), main@Pattern1(8), 
  3707 ;;  Location        1   13[BANK0 ] const unsigned char 
  3708 ;; Auto vars:     Size  Location     Type
  3709 ;;  Pattern         1   15[BANK0 ] PTR unsigned char 
  3710 ;;		 -> main@Pattern4(8), main@Pattern3(8), main@Pattern2(8), main@Pattern1(8), 
  3711 ;;  i               2   16[BANK0 ] int 
  3712 ;; Return value:  Size  Location     Type
  3713 ;;                  1    wreg      void 
  3714 ;; Registers used:
  3715 ;;		wreg, fsr1l, fsr1h, status,2, status,0, pclath, cstack
  3716 ;; Tracked objects:
  3717 ;;		On entry : 0/0
  3718 ;;		On exit  : 0/0
  3719 ;;		Unchanged: 0/0
  3720 ;; Data sizes:     COMMON   BANK0   BANK1   BANK2   BANK3   BANK4   BANK5   BANK6   BANK7   BANK8   BANK9  BANK10  BANK1
      +1  BANK12  BANK13  BANK14  BANK15  BANK16  BANK17  BANK18  BANK19  BANK20  BANK21  BANK22  BANK23  BANK24  BANK25
  3721 ;;      Params:         0       1       0       0       0       0       0       0       0       0       0       0       
      +0       0       0       0       0       0       0       0       0       0       0       0       0       0       0
  3722 ;;      Locals:         0       3       0       0       0       0       0       0       0       0       0       0       
      +0       0       0       0       0       0       0       0       0       0       0       0       0       0       0
  3723 ;;      Temps:          0       1       0       0       0       0       0       0       0       0       0       0       
      +0       0       0       0       0       0       0       0       0       0       0       0       0       0       0
  3724 ;;      Totals:         0       5       0       0       0       0       0       0       0       0       0       0       
      +0       0       0       0       0       0       0       0       0       0       0       0       0       0       0
  3725 ;;Total ram usage:        5 bytes
  3726 ;; Hardware stack levels used:    1
  3727 ;; Hardware stack levels required when called:   11
  3728 ;; This function calls:
  3729 ;;		_LCDPutChar
  3730 ;;		_LCDPutCmd
  3731 ;; This function is called by:
  3732 ;;		_main
  3733 ;; This function uses a non-reentrant model
  3734 ;;
  3735                           
  3736                           
  3737                           ;psect for function _createCustomCharacter
  3738  0251                     _createCustomCharacter:
  3739                           
  3740                           ;incstack = 0
  3741                           ; Regs used in _createCustomCharacter: [wreg+fsr1l+fsr1h+status,2+status,0+pclath+cstack
      +                          ]
  3742                           ;createCustomCharacter@Pattern stored from wreg
  3743  0251  0020               	movlb	0	; select bank0
  3744  0252  00AF               	movwf	createCustomCharacter@Pattern
  3745  0253                     l2624:
  3746  0253                     l2626:
  3747                           
  3748                           ;functions.c: 43:     LCDPutCmd (0x40+(Location*8));
  3749  0253  082D               	movf	createCustomCharacter@Location,w
  3750  0254  00AE               	movwf	??_createCustomCharacter
  3751  0255  3002               	movlw	2
  3752  0256                     u1105:
  3753  0256  35AE               	lslf	??_createCustomCharacter,f
  3754  0257  3EFF               	addlw	-1
  3755  0258  1D03               	skipz
  3756  0259  2A56               	goto	u1105
  3757  025A  352E               	lslf	??_createCustomCharacter,w
  3758  025B  3E40               	addlw	64
  3759  025C  3184  246D  3182   	fcall	_LCDPutCmd
  3760  025F                     l2628:
  3761                           
  3762                           ;functions.c: 45:     for (i=0; i<8; i++)
  3763  025F  0020               	movlb	0	; select bank0
  3764  0260  01B0               	clrf	createCustomCharacter@i
  3765  0261  01B1               	clrf	createCustomCharacter@i+1
  3766  0262                     l2634:
  3767                           
  3768                           ;functions.c: 47:         LCDPutChar (Pattern [ i ] );
  3769  0262  0020               	movlb	0	; select bank0
  3770  0263  0830               	movf	createCustomCharacter@i,w
  3771  0264  072F               	addwf	createCustomCharacter@Pattern,w
  3772  0265  00AE               	movwf	??_createCustomCharacter
  3773  0266  082E               	movf	??_createCustomCharacter,w
  3774  0267  0086               	movwf	6
  3775  0268  0187               	clrf	7
  3776  0269  0801               	movf	1,w
  3777  026A  3184  2490  3182   	fcall	_LCDPutChar
  3778  026D                     l2636:
  3779  026D  3001               	movlw	1
  3780  026E  0020               	movlb	0	; select bank0
  3781  026F  07B0               	addwf	createCustomCharacter@i,f
  3782  0270  3000               	movlw	0
  3783  0271  3DB1               	addwfc	createCustomCharacter@i+1,f
  3784  0272                     l2638:
  3785  0272  0831               	movf	createCustomCharacter@i+1,w
  3786  0273  3A80               	xorlw	128
  3787  0274  00AE               	movwf	??_createCustomCharacter
  3788  0275  3080               	movlw	128
  3789  0276  022E               	subwf	??_createCustomCharacter,w
  3790  0277  1D03               	skipz
  3791  0278  2A7B               	goto	u1115
  3792  0279  3008               	movlw	8
  3793  027A  0230               	subwf	createCustomCharacter@i,w
  3794  027B                     u1115:
  3795  027B  1C03               	skipc
  3796  027C  2A7E               	goto	u1111
  3797  027D  2A7F               	goto	u1110
  3798  027E                     u1111:
  3799  027E  2A62               	goto	l2634
  3800  027F                     u1110:
  3801  027F                     l320:
  3802  027F  0008               	return
  3803  0280                     __end_of_createCustomCharacter:
  3804                           
  3805                           	psect	text8
  3806  0490                     __ptext8:	
  3807 ;; *************** function _LCDPutChar *****************
  3808 ;; Defined at:
  3809 ;;		line 101 in file "lcd.c"
  3810 ;; Parameters:    Size  Location     Type
  3811 ;;  ch              1    wreg     unsigned char 
  3812 ;; Auto vars:     Size  Location     Type
  3813 ;;  ch              1   12[BANK0 ] unsigned char 
  3814 ;; Return value:  Size  Location     Type
  3815 ;;                  1    wreg      void 
  3816 ;; Registers used:
  3817 ;;		wreg, status,2, status,0, pclath, cstack
  3818 ;; Tracked objects:
  3819 ;;		On entry : 0/0
  3820 ;;		On exit  : 0/0
  3821 ;;		Unchanged: 0/0
  3822 ;; Data sizes:     COMMON   BANK0   BANK1   BANK2   BANK3   BANK4   BANK5   BANK6   BANK7   BANK8   BANK9  BANK10  BANK1
      +1  BANK12  BANK13  BANK14  BANK15  BANK16  BANK17  BANK18  BANK19  BANK20  BANK21  BANK22  BANK23  BANK24  BANK25
  3823 ;;      Params:         0       0       0       0       0       0       0       0       0       0       0       0       
      +0       0       0       0       0       0       0       0       0       0       0       0       0       0       0
  3824 ;;      Locals:         0       1       0       0       0       0       0       0       0       0       0       0       
      +0       0       0       0       0       0       0       0       0       0       0       0       0       0       0
  3825 ;;      Temps:          0       2       0       0       0       0       0       0       0       0       0       0       
      +0       0       0       0       0       0       0       0       0       0       0       0       0       0       0
  3826 ;;      Totals:         0       3       0       0       0       0       0       0       0       0       0       0       
      +0       0       0       0       0       0       0       0       0       0       0       0       0       0       0
  3827 ;;Total ram usage:        3 bytes
  3828 ;; Hardware stack levels used:    1
  3829 ;; Hardware stack levels required when called:   10
  3830 ;; This function calls:
  3831 ;;		_LCDWriteNibble
  3832 ;; This function is called by:
  3833 ;;		_LCDPutStr
  3834 ;;		_createCustomCharacter
  3835 ;;		_basicShoot
  3836 ;; This function uses a non-reentrant model
  3837 ;;
  3838                           
  3839                           
  3840                           ;psect for function _LCDPutChar
  3841  0490                     _LCDPutChar:
  3842                           
  3843                           ;incstack = 0
  3844                           ; Regs used in _LCDPutChar: [wreg+status,2+status,0+pclath+cstack]
  3845                           ;LCDPutChar@ch stored from wreg
  3846  0490  0020               	movlb	0	; select bank0
  3847  0491  00AC               	movwf	LCDPutChar@ch
  3848  0492                     l2256:
  3849                           
  3850                           ;lcd.c: 101: void LCDPutChar(uint8_t ch);lcd.c: 102: {;lcd.c: 103:   _delay((unsigned lo
      +                          ng)((5)*(500000/4000.0)));
  3851  0492  30D0               	movlw	208
  3852  0493                     u1227:
  3853  0493  0B89               	decfsz	9,f
  3854  0494  2C93               	goto	u1227
  3855  0495  0000               	nop
  3856  0496                     l2258:
  3857                           
  3858                           ;lcd.c: 106:   LCDWriteNibble(ch, 1);
  3859  0496  0020               	movlb	0	; select bank0
  3860  0497  01A6               	clrf	LCDWriteNibble@rs
  3861  0498  0AA6               	incf	LCDWriteNibble@rs,f
  3862  0499  082C               	movf	LCDPutChar@ch,w
  3863  049A  3184  24B0  3184   	fcall	_LCDWriteNibble
  3864  049D                     l2260:
  3865                           
  3866                           ;lcd.c: 109:   ch = (uint8_t)(ch << 4);
  3867  049D  0020               	movlb	0	; select bank0
  3868  049E  082C               	movf	LCDPutChar@ch,w
  3869  049F  00AA               	movwf	??_LCDPutChar
  3870  04A0  3003               	movlw	3
  3871  04A1                     u855:
  3872  04A1  35AA               	lslf	??_LCDPutChar,f
  3873  04A2  3EFF               	addlw	-1
  3874  04A3  1D03               	skipz
  3875  04A4  2CA1               	goto	u855
  3876  04A5  352A               	lslf	??_LCDPutChar,w
  3877  04A6  00AB               	movwf	??_LCDPutChar+1
  3878  04A7  082B               	movf	??_LCDPutChar+1,w
  3879  04A8  00AC               	movwf	LCDPutChar@ch
  3880  04A9                     l2262:
  3881                           
  3882                           ;lcd.c: 112:   LCDWriteNibble(ch, 1);
  3883  04A9  01A6               	clrf	LCDWriteNibble@rs
  3884  04AA  0AA6               	incf	LCDWriteNibble@rs,f
  3885  04AB  082C               	movf	LCDPutChar@ch,w
  3886  04AC  3184  24B0  3184   	fcall	_LCDWriteNibble
  3887  04AF                     l281:
  3888  04AF  0008               	return
  3889  04B0                     __end_of_LCDPutChar:
  3890                           
  3891                           	psect	text9
  3892  068D                     __ptext9:	
  3893 ;; *************** function _SYSTEM_Initialize *****************
  3894 ;; Defined at:
  3895 ;;		line 50 in file "mcc_generated_files/mcc.c"
  3896 ;; Parameters:    Size  Location     Type
  3897 ;;		None
  3898 ;; Auto vars:     Size  Location     Type
  3899 ;;		None
  3900 ;; Return value:  Size  Location     Type
  3901 ;;                  1    wreg      void 
  3902 ;; Registers used:
  3903 ;;		wreg, status,2, status,0, pclath, cstack
  3904 ;; Tracked objects:
  3905 ;;		On entry : 0/0
  3906 ;;		On exit  : 0/0
  3907 ;;		Unchanged: 0/0
  3908 ;; Data sizes:     COMMON   BANK0   BANK1   BANK2   BANK3   BANK4   BANK5   BANK6   BANK7   BANK8   BANK9  BANK10  BANK1
      +1  BANK12  BANK13  BANK14  BANK15  BANK16  BANK17  BANK18  BANK19  BANK20  BANK21  BANK22  BANK23  BANK24  BANK25
  3909 ;;      Params:         0       0       0       0       0       0       0       0       0       0       0       0       
      +0       0       0       0       0       0       0       0       0       0       0       0       0       0       0
  3910 ;;      Locals:         0       0       0       0       0       0       0       0       0       0       0       0       
      +0       0       0       0       0       0       0       0       0       0       0       0       0       0       0
  3911 ;;      Temps:          0       0       0       0       0       0       0       0       0       0       0       0       
      +0       0       0       0       0       0       0       0       0       0       0       0       0       0       0
  3912 ;;      Totals:         0       0       0       0       0       0       0       0       0       0       0       0       
      +0       0       0       0       0       0       0       0       0       0       0       0       0       0       0
  3913 ;;Total ram usage:        0 bytes
  3914 ;; Hardware stack levels used:    1
  3915 ;; Hardware stack levels required when called:   11
  3916 ;; This function calls:
  3917 ;;		_OSCILLATOR_Initialize
  3918 ;;		_PIN_MANAGER_Initialize
  3919 ;;		_WDT_Initialize
  3920 ;; This function is called by:
  3921 ;;		_main
  3922 ;; This function uses a non-reentrant model
  3923 ;;
  3924                           
  3925                           
  3926                           ;psect for function _SYSTEM_Initialize
  3927  068D                     _SYSTEM_Initialize:
  3928  068D                     l2606:	
  3929                           ;incstack = 0
  3930                           ; Regs used in _SYSTEM_Initialize: [wreg+status,2+status,0+pclath+cstack]
  3931                           
  3932                           
  3933                           ;mcc_generated_files/mcc.c: 53:     PIN_MANAGER_Initialize();
  3934  068D  3181  214A  3186   	fcall	_PIN_MANAGER_Initialize
  3935                           
  3936                           ;mcc_generated_files/mcc.c: 54:     OSCILLATOR_Initialize();
  3937  0690  3186  26A0  3186   	fcall	_OSCILLATOR_Initialize
  3938                           
  3939                           ;mcc_generated_files/mcc.c: 55:     WDT_Initialize();
  3940  0693  3186  26D1  3186   	fcall	_WDT_Initialize
  3941  0696                     l243:
  3942  0696  0008               	return
  3943  0697                     __end_of_SYSTEM_Initialize:
  3944                           
  3945                           	psect	text10
  3946  06D1                     __ptext10:	
  3947 ;; *************** function _WDT_Initialize *****************
  3948 ;; Defined at:
  3949 ;;		line 68 in file "mcc_generated_files/mcc.c"
  3950 ;; Parameters:    Size  Location     Type
  3951 ;;		None
  3952 ;; Auto vars:     Size  Location     Type
  3953 ;;		None
  3954 ;; Return value:  Size  Location     Type
  3955 ;;                  1    wreg      void 
  3956 ;; Registers used:
  3957 ;;		wreg
  3958 ;; Tracked objects:
  3959 ;;		On entry : 0/0
  3960 ;;		On exit  : 0/0
  3961 ;;		Unchanged: 0/0
  3962 ;; Data sizes:     COMMON   BANK0   BANK1   BANK2   BANK3   BANK4   BANK5   BANK6   BANK7   BANK8   BANK9  BANK10  BANK1
      +1  BANK12  BANK13  BANK14  BANK15  BANK16  BANK17  BANK18  BANK19  BANK20  BANK21  BANK22  BANK23  BANK24  BANK25
  3963 ;;      Params:         0       0       0       0       0       0       0       0       0       0       0       0       
      +0       0       0       0       0       0       0       0       0       0       0       0       0       0       0
  3964 ;;      Locals:         0       0       0       0       0       0       0       0       0       0       0       0       
      +0       0       0       0       0       0       0       0       0       0       0       0       0       0       0
  3965 ;;      Temps:          0       0       0       0       0       0       0       0       0       0       0       0       
      +0       0       0       0       0       0       0       0       0       0       0       0       0       0       0
  3966 ;;      Totals:         0       0       0       0       0       0       0       0       0       0       0       0       
      +0       0       0       0       0       0       0       0       0       0       0       0       0       0       0
  3967 ;;Total ram usage:        0 bytes
  3968 ;; Hardware stack levels used:    1
  3969 ;; Hardware stack levels required when called:    9
  3970 ;; This function calls:
  3971 ;;		Nothing
  3972 ;; This function is called by:
  3973 ;;		_SYSTEM_Initialize
  3974 ;; This function uses a non-reentrant model
  3975 ;;
  3976                           
  3977                           
  3978                           ;psect for function _WDT_Initialize
  3979  06D1                     _WDT_Initialize:
  3980  06D1                     l2524:	
  3981                           ;incstack = 0
  3982                           ; Regs used in _WDT_Initialize: [wreg]
  3983                           
  3984                           
  3985                           ;mcc_generated_files/mcc.c: 71:     WDTCON = 0x16;
  3986  06D1  3016               	movlw	22
  3987  06D2  0021               	movlb	1	; select bank1
  3988  06D3  0097               	movwf	23	;volatile
  3989  06D4                     l249:
  3990  06D4  0008               	return
  3991  06D5                     __end_of_WDT_Initialize:
  3992                           
  3993                           	psect	text11
  3994  014A                     __ptext11:	
  3995 ;; *************** function _PIN_MANAGER_Initialize *****************
  3996 ;; Defined at:
  3997 ;;		line 64 in file "mcc_generated_files/pin_manager.c"
  3998 ;; Parameters:    Size  Location     Type
  3999 ;;		None
  4000 ;; Auto vars:     Size  Location     Type
  4001 ;;		None
  4002 ;; Return value:  Size  Location     Type
  4003 ;;                  1    wreg      void 
  4004 ;; Registers used:
  4005 ;;		wreg, status,2, status,0, pclath, cstack
  4006 ;; Tracked objects:
  4007 ;;		On entry : 0/0
  4008 ;;		On exit  : 0/0
  4009 ;;		Unchanged: 0/0
  4010 ;; Data sizes:     COMMON   BANK0   BANK1   BANK2   BANK3   BANK4   BANK5   BANK6   BANK7   BANK8   BANK9  BANK10  BANK1
      +1  BANK12  BANK13  BANK14  BANK15  BANK16  BANK17  BANK18  BANK19  BANK20  BANK21  BANK22  BANK23  BANK24  BANK25
  4011 ;;      Params:         0       0       0       0       0       0       0       0       0       0       0       0       
      +0       0       0       0       0       0       0       0       0       0       0       0       0       0       0
  4012 ;;      Locals:         0       0       0       0       0       0       0       0       0       0       0       0       
      +0       0       0       0       0       0       0       0       0       0       0       0       0       0       0
  4013 ;;      Temps:          0       0       0       0       0       0       0       0       0       0       0       0       
      +0       0       0       0       0       0       0       0       0       0       0       0       0       0       0
  4014 ;;      Totals:         0       0       0       0       0       0       0       0       0       0       0       0       
      +0       0       0       0       0       0       0       0       0       0       0       0       0       0       0
  4015 ;;Total ram usage:        0 bytes
  4016 ;; Hardware stack levels used:    1
  4017 ;; Hardware stack levels required when called:   10
  4018 ;; This function calls:
  4019 ;;		_IOCAF0_SetInterruptHandler
  4020 ;;		_IOCAF1_SetInterruptHandler
  4021 ;;		_IOCAF2_SetInterruptHandler
  4022 ;;		_IOCAF3_SetInterruptHandler
  4023 ;;		_IOCAF4_SetInterruptHandler
  4024 ;;		_IOCAF5_SetInterruptHandler
  4025 ;; This function is called by:
  4026 ;;		_SYSTEM_Initialize
  4027 ;; This function uses a non-reentrant model
  4028 ;;
  4029                           
  4030                           
  4031                           ;psect for function _PIN_MANAGER_Initialize
  4032  014A                     _PIN_MANAGER_Initialize:
  4033  014A                     l2322:	
  4034                           ;incstack = 0
  4035                           ; Regs used in _PIN_MANAGER_Initialize: [wreg+status,2+status,0+pclath+cstack]
  4036                           
  4037                           
  4038                           ;mcc_generated_files/pin_manager.c: 69:     LATA = 0x00;
  4039  014A  0022               	movlb	2	; select bank2
  4040  014B  018C               	clrf	12	;volatile
  4041                           
  4042                           ;mcc_generated_files/pin_manager.c: 70:     LATB = 0x00;
  4043  014C  018D               	clrf	13	;volatile
  4044                           
  4045                           ;mcc_generated_files/pin_manager.c: 71:     LATC = 0x00;
  4046  014D  018E               	clrf	14	;volatile
  4047  014E                     l2324:
  4048                           
  4049                           ;mcc_generated_files/pin_manager.c: 76:     TRISE = 0x08;
  4050  014E  3008               	movlw	8
  4051  014F  0021               	movlb	1	; select bank1
  4052  0150  0090               	movwf	16	;volatile
  4053  0151                     l2326:
  4054                           
  4055                           ;mcc_generated_files/pin_manager.c: 77:     TRISA = 0xFF;
  4056  0151  30FF               	movlw	255
  4057  0152  008C               	movwf	12	;volatile
  4058                           
  4059                           ;mcc_generated_files/pin_manager.c: 78:     TRISB = 0x00;
  4060  0153  018D               	clrf	13	;volatile
  4061  0154                     l2328:
  4062                           
  4063                           ;mcc_generated_files/pin_manager.c: 79:     TRISC = 0xFF;
  4064  0154  30FF               	movlw	255
  4065  0155  008E               	movwf	14	;volatile
  4066  0156                     l2330:
  4067                           
  4068                           ;mcc_generated_files/pin_manager.c: 84:     ANSELC = 0xFC;
  4069  0156  30FC               	movlw	252
  4070  0157  0023               	movlb	3	; select bank3
  4071  0158  008E               	movwf	14	;volatile
  4072                           
  4073                           ;mcc_generated_files/pin_manager.c: 85:     ANSELB = 0x00;
  4074  0159  018D               	clrf	13	;volatile
  4075                           
  4076                           ;mcc_generated_files/pin_manager.c: 86:     ANSELA = 0x00;
  4077  015A  018C               	clrf	12	;volatile
  4078  015B                     l2332:
  4079                           
  4080                           ;mcc_generated_files/pin_manager.c: 91:     WPUE = 0x08;
  4081  015B  3008               	movlw	8
  4082  015C  0024               	movlb	4	; select bank4
  4083  015D  0090               	movwf	16	;volatile
  4084  015E                     l2334:
  4085                           
  4086                           ;mcc_generated_files/pin_manager.c: 92:     WPUB = 0x00;
  4087  015E  018D               	clrf	13	;volatile
  4088                           
  4089                           ;mcc_generated_files/pin_manager.c: 93:     WPUA = 0x3F;
  4090  015F  303F               	movlw	63
  4091  0160  008C               	movwf	12	;volatile
  4092  0161                     l2336:
  4093                           
  4094                           ;mcc_generated_files/pin_manager.c: 94:     WPUC = 0x00;
  4095  0161  018E               	clrf	14	;volatile
  4096  0162                     l2338:
  4097                           
  4098                           ;mcc_generated_files/pin_manager.c: 95:     OPTION_REGbits.nWPUEN = 0;
  4099  0162  0021               	movlb	1	; select bank1
  4100  0163  1395               	bcf	21,7	;volatile
  4101  0164                     l2340:
  4102                           
  4103                           ;mcc_generated_files/pin_manager.c: 100:     ODCONA = 0x00;
  4104  0164  0025               	movlb	5	; select bank5
  4105  0165  018C               	clrf	12	;volatile
  4106  0166                     l2342:
  4107                           
  4108                           ;mcc_generated_files/pin_manager.c: 101:     ODCONB = 0x00;
  4109  0166  018D               	clrf	13	;volatile
  4110  0167                     l2344:
  4111                           
  4112                           ;mcc_generated_files/pin_manager.c: 102:     ODCONC = 0x00;
  4113  0167  018E               	clrf	14	;volatile
  4114                           
  4115                           ;mcc_generated_files/pin_manager.c: 107:     SLRCONA = 0xFF;
  4116  0168  30FF               	movlw	255
  4117  0169  0026               	movlb	6	; select bank6
  4118  016A  008C               	movwf	12	;volatile
  4119                           
  4120                           ;mcc_generated_files/pin_manager.c: 108:     SLRCONB = 0xFF;
  4121  016B  30FF               	movlw	255
  4122  016C  008D               	movwf	13	;volatile
  4123                           
  4124                           ;mcc_generated_files/pin_manager.c: 109:     SLRCONC = 0xFF;
  4125  016D  30FF               	movlw	255
  4126  016E  008E               	movwf	14	;volatile
  4127                           
  4128                           ;mcc_generated_files/pin_manager.c: 114:     INLVLA = 0xFF;
  4129  016F  30FF               	movlw	255
  4130  0170  0027               	movlb	7	; select bank7
  4131  0171  008C               	movwf	12	;volatile
  4132                           
  4133                           ;mcc_generated_files/pin_manager.c: 115:     INLVLB = 0xFF;
  4134  0172  30FF               	movlw	255
  4135  0173  008D               	movwf	13	;volatile
  4136                           
  4137                           ;mcc_generated_files/pin_manager.c: 116:     INLVLC = 0xFF;
  4138  0174  30FF               	movlw	255
  4139  0175  008E               	movwf	14	;volatile
  4140                           
  4141                           ;mcc_generated_files/pin_manager.c: 117:     INLVLE = 0x08;
  4142  0176  3008               	movlw	8
  4143  0177  0090               	movwf	16	;volatile
  4144  0178                     l2346:
  4145                           
  4146                           ;mcc_generated_files/pin_manager.c: 124:     IOCAFbits.IOCAF0 = 0;
  4147  0178  1013               	bcf	19,0	;volatile
  4148  0179                     l2348:
  4149                           
  4150                           ;mcc_generated_files/pin_manager.c: 126:     IOCAFbits.IOCAF1 = 0;
  4151  0179  1093               	bcf	19,1	;volatile
  4152  017A                     l2350:
  4153                           
  4154                           ;mcc_generated_files/pin_manager.c: 128:     IOCAFbits.IOCAF2 = 0;
  4155  017A  1113               	bcf	19,2	;volatile
  4156  017B                     l2352:
  4157                           
  4158                           ;mcc_generated_files/pin_manager.c: 130:     IOCAFbits.IOCAF3 = 0;
  4159  017B  1193               	bcf	19,3	;volatile
  4160  017C                     l2354:
  4161                           
  4162                           ;mcc_generated_files/pin_manager.c: 132:     IOCAFbits.IOCAF4 = 0;
  4163  017C  1213               	bcf	19,4	;volatile
  4164  017D                     l2356:
  4165                           
  4166                           ;mcc_generated_files/pin_manager.c: 134:     IOCAFbits.IOCAF5 = 0;
  4167  017D  1293               	bcf	19,5	;volatile
  4168  017E                     l2358:
  4169                           
  4170                           ;mcc_generated_files/pin_manager.c: 136:     IOCANbits.IOCAN0 = 1;
  4171  017E  1412               	bsf	18,0	;volatile
  4172  017F                     l2360:
  4173                           
  4174                           ;mcc_generated_files/pin_manager.c: 138:     IOCANbits.IOCAN1 = 1;
  4175  017F  1492               	bsf	18,1	;volatile
  4176  0180                     l2362:
  4177                           
  4178                           ;mcc_generated_files/pin_manager.c: 140:     IOCANbits.IOCAN2 = 1;
  4179  0180  1512               	bsf	18,2	;volatile
  4180  0181                     l2364:
  4181                           
  4182                           ;mcc_generated_files/pin_manager.c: 142:     IOCANbits.IOCAN3 = 1;
  4183  0181  1592               	bsf	18,3	;volatile
  4184  0182                     l2366:
  4185                           
  4186                           ;mcc_generated_files/pin_manager.c: 144:     IOCANbits.IOCAN4 = 1;
  4187  0182  1612               	bsf	18,4	;volatile
  4188  0183                     l2368:
  4189                           
  4190                           ;mcc_generated_files/pin_manager.c: 146:     IOCANbits.IOCAN5 = 1;
  4191  0183  1692               	bsf	18,5	;volatile
  4192  0184                     l2370:
  4193                           
  4194                           ;mcc_generated_files/pin_manager.c: 148:     IOCAPbits.IOCAP0 = 1;
  4195  0184  1411               	bsf	17,0	;volatile
  4196  0185                     l2372:
  4197                           
  4198                           ;mcc_generated_files/pin_manager.c: 150:     IOCAPbits.IOCAP1 = 0;
  4199  0185  1091               	bcf	17,1	;volatile
  4200  0186                     l2374:
  4201                           
  4202                           ;mcc_generated_files/pin_manager.c: 152:     IOCAPbits.IOCAP2 = 0;
  4203  0186  1111               	bcf	17,2	;volatile
  4204  0187                     l2376:
  4205                           
  4206                           ;mcc_generated_files/pin_manager.c: 154:     IOCAPbits.IOCAP3 = 1;
  4207  0187  1591               	bsf	17,3	;volatile
  4208  0188                     l2378:
  4209                           
  4210                           ;mcc_generated_files/pin_manager.c: 156:     IOCAPbits.IOCAP4 = 0;
  4211  0188  1211               	bcf	17,4	;volatile
  4212  0189                     l2380:
  4213                           
  4214                           ;mcc_generated_files/pin_manager.c: 158:     IOCAPbits.IOCAP5 = 0;
  4215  0189  1291               	bcf	17,5	;volatile
  4216  018A                     l2382:
  4217                           
  4218                           ;mcc_generated_files/pin_manager.c: 163:     IOCAF0_SetInterruptHandler(IOCAF0_DefaultIn
      +                          terruptHandler);
  4219  018A  30DA               	movlw	low _IOCAF0_DefaultInterruptHandler
  4220  018B  0020               	movlb	0	; select bank0
  4221  018C  00A6               	movwf	IOCAF0_SetInterruptHandler@InterruptHandler
  4222  018D  3006               	movlw	high _IOCAF0_DefaultInterruptHandler
  4223  018E  00A7               	movwf	IOCAF0_SetInterruptHandler@InterruptHandler+1
  4224  018F  3186  26CB  3181   	fcall	_IOCAF0_SetInterruptHandler
  4225  0192                     l2384:
  4226                           
  4227                           ;mcc_generated_files/pin_manager.c: 164:     IOCAF1_SetInterruptHandler(IOCAF1_DefaultIn
      +                          terruptHandler);
  4228  0192  30D9               	movlw	low _IOCAF1_DefaultInterruptHandler
  4229  0193  0020               	movlb	0	; select bank0
  4230  0194  00A6               	movwf	IOCAF1_SetInterruptHandler@InterruptHandler
  4231  0195  3006               	movlw	high _IOCAF1_DefaultInterruptHandler
  4232  0196  00A7               	movwf	IOCAF1_SetInterruptHandler@InterruptHandler+1
  4233  0197  3186  26C5  3181   	fcall	_IOCAF1_SetInterruptHandler
  4234  019A                     l2386:
  4235                           
  4236                           ;mcc_generated_files/pin_manager.c: 165:     IOCAF2_SetInterruptHandler(IOCAF2_DefaultIn
      +                          terruptHandler);
  4237  019A  30D8               	movlw	low _IOCAF2_DefaultInterruptHandler
  4238  019B  0020               	movlb	0	; select bank0
  4239  019C  00A6               	movwf	IOCAF2_SetInterruptHandler@InterruptHandler
  4240  019D  3006               	movlw	high _IOCAF2_DefaultInterruptHandler
  4241  019E  00A7               	movwf	IOCAF2_SetInterruptHandler@InterruptHandler+1
  4242  019F  3186  26BF  3181   	fcall	_IOCAF2_SetInterruptHandler
  4243  01A2                     l2388:
  4244                           
  4245                           ;mcc_generated_files/pin_manager.c: 166:     IOCAF3_SetInterruptHandler(IOCAF3_DefaultIn
      +                          terruptHandler);
  4246  01A2  30D7               	movlw	low _IOCAF3_DefaultInterruptHandler
  4247  01A3  0020               	movlb	0	; select bank0
  4248  01A4  00A6               	movwf	IOCAF3_SetInterruptHandler@InterruptHandler
  4249  01A5  3006               	movlw	high _IOCAF3_DefaultInterruptHandler
  4250  01A6  00A7               	movwf	IOCAF3_SetInterruptHandler@InterruptHandler+1
  4251  01A7  3186  26B9  3181   	fcall	_IOCAF3_SetInterruptHandler
  4252  01AA                     l2390:
  4253                           
  4254                           ;mcc_generated_files/pin_manager.c: 167:     IOCAF4_SetInterruptHandler(IOCAF4_DefaultIn
      +                          terruptHandler);
  4255  01AA  30D6               	movlw	low _IOCAF4_DefaultInterruptHandler
  4256  01AB  0020               	movlb	0	; select bank0
  4257  01AC  00A6               	movwf	IOCAF4_SetInterruptHandler@InterruptHandler
  4258  01AD  3006               	movlw	high _IOCAF4_DefaultInterruptHandler
  4259  01AE  00A7               	movwf	IOCAF4_SetInterruptHandler@InterruptHandler+1
  4260  01AF  3186  26B3  3181   	fcall	_IOCAF4_SetInterruptHandler
  4261  01B2                     l2392:
  4262                           
  4263                           ;mcc_generated_files/pin_manager.c: 168:     IOCAF5_SetInterruptHandler(IOCAF5_DefaultIn
      +                          terruptHandler);
  4264  01B2  30D5               	movlw	low _IOCAF5_DefaultInterruptHandler
  4265  01B3  0020               	movlb	0	; select bank0
  4266  01B4  00A6               	movwf	IOCAF5_SetInterruptHandler@InterruptHandler
  4267  01B5  3006               	movlw	high _IOCAF5_DefaultInterruptHandler
  4268  01B6  00A7               	movwf	IOCAF5_SetInterruptHandler@InterruptHandler+1
  4269  01B7  3186  26AD  3181   	fcall	_IOCAF5_SetInterruptHandler
  4270  01BA                     l2394:
  4271                           
  4272                           ;mcc_generated_files/pin_manager.c: 171:     INTCONbits.IOCIE = 1;
  4273  01BA  158B               	bsf	11,3	;volatile
  4274  01BB                     l117:
  4275  01BB  0008               	return
  4276  01BC                     __end_of_PIN_MANAGER_Initialize:
  4277                           
  4278                           	psect	text12
  4279  06AD                     __ptext12:	
  4280 ;; *************** function _IOCAF5_SetInterruptHandler *****************
  4281 ;; Defined at:
  4282 ;;		line 466 in file "mcc_generated_files/pin_manager.c"
  4283 ;; Parameters:    Size  Location     Type
  4284 ;;  InterruptHan    2    6[BANK0 ] PTR FTN()void 
  4285 ;;		 -> IOCAF5_DefaultInterruptHandler(1), 
  4286 ;; Auto vars:     Size  Location     Type
  4287 ;;		None
  4288 ;; Return value:  Size  Location     Type
  4289 ;;                  1    wreg      void 
  4290 ;; Registers used:
  4291 ;;		wreg
  4292 ;; Tracked objects:
  4293 ;;		On entry : 0/0
  4294 ;;		On exit  : 0/0
  4295 ;;		Unchanged: 0/0
  4296 ;; Data sizes:     COMMON   BANK0   BANK1   BANK2   BANK3   BANK4   BANK5   BANK6   BANK7   BANK8   BANK9  BANK10  BANK1
      +1  BANK12  BANK13  BANK14  BANK15  BANK16  BANK17  BANK18  BANK19  BANK20  BANK21  BANK22  BANK23  BANK24  BANK25
  4297 ;;      Params:         0       2       0       0       0       0       0       0       0       0       0       0       
      +0       0       0       0       0       0       0       0       0       0       0       0       0       0       0
  4298 ;;      Locals:         0       0       0       0       0       0       0       0       0       0       0       0       
      +0       0       0       0       0       0       0       0       0       0       0       0       0       0       0
  4299 ;;      Temps:          0       0       0       0       0       0       0       0       0       0       0       0       
      +0       0       0       0       0       0       0       0       0       0       0       0       0       0       0
  4300 ;;      Totals:         0       2       0       0       0       0       0       0       0       0       0       0       
      +0       0       0       0       0       0       0       0       0       0       0       0       0       0       0
  4301 ;;Total ram usage:        2 bytes
  4302 ;; Hardware stack levels used:    1
  4303 ;; Hardware stack levels required when called:    9
  4304 ;; This function calls:
  4305 ;;		Nothing
  4306 ;; This function is called by:
  4307 ;;		_PIN_MANAGER_Initialize
  4308 ;; This function uses a non-reentrant model
  4309 ;;
  4310                           
  4311                           
  4312                           ;psect for function _IOCAF5_SetInterruptHandler
  4313  06AD                     _IOCAF5_SetInterruptHandler:
  4314  06AD                     l2284:	
  4315                           ;incstack = 0
  4316                           ; Regs used in _IOCAF5_SetInterruptHandler: [wreg]
  4317                           
  4318                           
  4319                           ;mcc_generated_files/pin_manager.c: 467:     IOCAF5_InterruptHandler = InterruptHandler;
  4320  06AD  0020               	movlb	0	; select bank0
  4321  06AE  0827               	movf	IOCAF5_SetInterruptHandler@InterruptHandler+1,w
  4322  06AF  00C8               	movwf	_IOCAF5_InterruptHandler+1
  4323  06B0  0826               	movf	IOCAF5_SetInterruptHandler@InterruptHandler,w
  4324  06B1  00C7               	movwf	_IOCAF5_InterruptHandler
  4325  06B2                     l223:
  4326  06B2  0008               	return
  4327  06B3                     __end_of_IOCAF5_SetInterruptHandler:
  4328                           
  4329                           	psect	text13
  4330  06B3                     __ptext13:	
  4331 ;; *************** function _IOCAF4_SetInterruptHandler *****************
  4332 ;; Defined at:
  4333 ;;		line 420 in file "mcc_generated_files/pin_manager.c"
  4334 ;; Parameters:    Size  Location     Type
  4335 ;;  InterruptHan    2    6[BANK0 ] PTR FTN()void 
  4336 ;;		 -> IOCAF4_DefaultInterruptHandler(1), 
  4337 ;; Auto vars:     Size  Location     Type
  4338 ;;		None
  4339 ;; Return value:  Size  Location     Type
  4340 ;;                  1    wreg      void 
  4341 ;; Registers used:
  4342 ;;		wreg
  4343 ;; Tracked objects:
  4344 ;;		On entry : 0/0
  4345 ;;		On exit  : 0/0
  4346 ;;		Unchanged: 0/0
  4347 ;; Data sizes:     COMMON   BANK0   BANK1   BANK2   BANK3   BANK4   BANK5   BANK6   BANK7   BANK8   BANK9  BANK10  BANK1
      +1  BANK12  BANK13  BANK14  BANK15  BANK16  BANK17  BANK18  BANK19  BANK20  BANK21  BANK22  BANK23  BANK24  BANK25
  4348 ;;      Params:         0       2       0       0       0       0       0       0       0       0       0       0       
      +0       0       0       0       0       0       0       0       0       0       0       0       0       0       0
  4349 ;;      Locals:         0       0       0       0       0       0       0       0       0       0       0       0       
      +0       0       0       0       0       0       0       0       0       0       0       0       0       0       0
  4350 ;;      Temps:          0       0       0       0       0       0       0       0       0       0       0       0       
      +0       0       0       0       0       0       0       0       0       0       0       0       0       0       0
  4351 ;;      Totals:         0       2       0       0       0       0       0       0       0       0       0       0       
      +0       0       0       0       0       0       0       0       0       0       0       0       0       0       0
  4352 ;;Total ram usage:        2 bytes
  4353 ;; Hardware stack levels used:    1
  4354 ;; Hardware stack levels required when called:    9
  4355 ;; This function calls:
  4356 ;;		Nothing
  4357 ;; This function is called by:
  4358 ;;		_PIN_MANAGER_Initialize
  4359 ;; This function uses a non-reentrant model
  4360 ;;
  4361                           
  4362                           
  4363                           ;psect for function _IOCAF4_SetInterruptHandler
  4364  06B3                     _IOCAF4_SetInterruptHandler:
  4365  06B3                     l2282:	
  4366                           ;incstack = 0
  4367                           ; Regs used in _IOCAF4_SetInterruptHandler: [wreg]
  4368                           
  4369                           
  4370                           ;mcc_generated_files/pin_manager.c: 421:     IOCAF4_InterruptHandler = InterruptHandler;
  4371  06B3  0020               	movlb	0	; select bank0
  4372  06B4  0827               	movf	IOCAF4_SetInterruptHandler@InterruptHandler+1,w
  4373  06B5  00CA               	movwf	_IOCAF4_InterruptHandler+1
  4374  06B6  0826               	movf	IOCAF4_SetInterruptHandler@InterruptHandler,w
  4375  06B7  00C9               	movwf	_IOCAF4_InterruptHandler
  4376  06B8                     l206:
  4377  06B8  0008               	return
  4378  06B9                     __end_of_IOCAF4_SetInterruptHandler:
  4379                           
  4380                           	psect	text14
  4381  06B9                     __ptext14:	
  4382 ;; *************** function _IOCAF3_SetInterruptHandler *****************
  4383 ;; Defined at:
  4384 ;;		line 378 in file "mcc_generated_files/pin_manager.c"
  4385 ;; Parameters:    Size  Location     Type
  4386 ;;  InterruptHan    2    6[BANK0 ] PTR FTN()void 
  4387 ;;		 -> IOCAF3_DefaultInterruptHandler(1), 
  4388 ;; Auto vars:     Size  Location     Type
  4389 ;;		None
  4390 ;; Return value:  Size  Location     Type
  4391 ;;                  1    wreg      void 
  4392 ;; Registers used:
  4393 ;;		wreg
  4394 ;; Tracked objects:
  4395 ;;		On entry : 0/0
  4396 ;;		On exit  : 0/0
  4397 ;;		Unchanged: 0/0
  4398 ;; Data sizes:     COMMON   BANK0   BANK1   BANK2   BANK3   BANK4   BANK5   BANK6   BANK7   BANK8   BANK9  BANK10  BANK1
      +1  BANK12  BANK13  BANK14  BANK15  BANK16  BANK17  BANK18  BANK19  BANK20  BANK21  BANK22  BANK23  BANK24  BANK25
  4399 ;;      Params:         0       2       0       0       0       0       0       0       0       0       0       0       
      +0       0       0       0       0       0       0       0       0       0       0       0       0       0       0
  4400 ;;      Locals:         0       0       0       0       0       0       0       0       0       0       0       0       
      +0       0       0       0       0       0       0       0       0       0       0       0       0       0       0
  4401 ;;      Temps:          0       0       0       0       0       0       0       0       0       0       0       0       
      +0       0       0       0       0       0       0       0       0       0       0       0       0       0       0
  4402 ;;      Totals:         0       2       0       0       0       0       0       0       0       0       0       0       
      +0       0       0       0       0       0       0       0       0       0       0       0       0       0       0
  4403 ;;Total ram usage:        2 bytes
  4404 ;; Hardware stack levels used:    1
  4405 ;; Hardware stack levels required when called:    9
  4406 ;; This function calls:
  4407 ;;		Nothing
  4408 ;; This function is called by:
  4409 ;;		_PIN_MANAGER_Initialize
  4410 ;; This function uses a non-reentrant model
  4411 ;;
  4412                           
  4413                           
  4414                           ;psect for function _IOCAF3_SetInterruptHandler
  4415  06B9                     _IOCAF3_SetInterruptHandler:
  4416  06B9                     l2280:	
  4417                           ;incstack = 0
  4418                           ; Regs used in _IOCAF3_SetInterruptHandler: [wreg]
  4419                           
  4420                           
  4421                           ;mcc_generated_files/pin_manager.c: 379:     IOCAF3_InterruptHandler = InterruptHandler;
  4422  06B9  0020               	movlb	0	; select bank0
  4423  06BA  0827               	movf	IOCAF3_SetInterruptHandler@InterruptHandler+1,w
  4424  06BB  00CC               	movwf	_IOCAF3_InterruptHandler+1
  4425  06BC  0826               	movf	IOCAF3_SetInterruptHandler@InterruptHandler,w
  4426  06BD  00CB               	movwf	_IOCAF3_InterruptHandler
  4427  06BE                     l190:
  4428  06BE  0008               	return
  4429  06BF                     __end_of_IOCAF3_SetInterruptHandler:
  4430                           
  4431                           	psect	text15
  4432  06BF                     __ptext15:	
  4433 ;; *************** function _IOCAF2_SetInterruptHandler *****************
  4434 ;; Defined at:
  4435 ;;		line 336 in file "mcc_generated_files/pin_manager.c"
  4436 ;; Parameters:    Size  Location     Type
  4437 ;;  InterruptHan    2    6[BANK0 ] PTR FTN()void 
  4438 ;;		 -> IOCAF2_DefaultInterruptHandler(1), 
  4439 ;; Auto vars:     Size  Location     Type
  4440 ;;		None
  4441 ;; Return value:  Size  Location     Type
  4442 ;;                  1    wreg      void 
  4443 ;; Registers used:
  4444 ;;		wreg
  4445 ;; Tracked objects:
  4446 ;;		On entry : 0/0
  4447 ;;		On exit  : 0/0
  4448 ;;		Unchanged: 0/0
  4449 ;; Data sizes:     COMMON   BANK0   BANK1   BANK2   BANK3   BANK4   BANK5   BANK6   BANK7   BANK8   BANK9  BANK10  BANK1
      +1  BANK12  BANK13  BANK14  BANK15  BANK16  BANK17  BANK18  BANK19  BANK20  BANK21  BANK22  BANK23  BANK24  BANK25
  4450 ;;      Params:         0       2       0       0       0       0       0       0       0       0       0       0       
      +0       0       0       0       0       0       0       0       0       0       0       0       0       0       0
  4451 ;;      Locals:         0       0       0       0       0       0       0       0       0       0       0       0       
      +0       0       0       0       0       0       0       0       0       0       0       0       0       0       0
  4452 ;;      Temps:          0       0       0       0       0       0       0       0       0       0       0       0       
      +0       0       0       0       0       0       0       0       0       0       0       0       0       0       0
  4453 ;;      Totals:         0       2       0       0       0       0       0       0       0       0       0       0       
      +0       0       0       0       0       0       0       0       0       0       0       0       0       0       0
  4454 ;;Total ram usage:        2 bytes
  4455 ;; Hardware stack levels used:    1
  4456 ;; Hardware stack levels required when called:    9
  4457 ;; This function calls:
  4458 ;;		Nothing
  4459 ;; This function is called by:
  4460 ;;		_PIN_MANAGER_Initialize
  4461 ;; This function uses a non-reentrant model
  4462 ;;
  4463                           
  4464                           
  4465                           ;psect for function _IOCAF2_SetInterruptHandler
  4466  06BF                     _IOCAF2_SetInterruptHandler:
  4467  06BF                     l2278:	
  4468                           ;incstack = 0
  4469                           ; Regs used in _IOCAF2_SetInterruptHandler: [wreg]
  4470                           
  4471                           
  4472                           ;mcc_generated_files/pin_manager.c: 337:     IOCAF2_InterruptHandler = InterruptHandler;
  4473  06BF  0020               	movlb	0	; select bank0
  4474  06C0  0827               	movf	IOCAF2_SetInterruptHandler@InterruptHandler+1,w
  4475  06C1  00CE               	movwf	_IOCAF2_InterruptHandler+1
  4476  06C2  0826               	movf	IOCAF2_SetInterruptHandler@InterruptHandler,w
  4477  06C3  00CD               	movwf	_IOCAF2_InterruptHandler
  4478  06C4                     l174:
  4479  06C4  0008               	return
  4480  06C5                     __end_of_IOCAF2_SetInterruptHandler:
  4481                           
  4482                           	psect	text16
  4483  06C5                     __ptext16:	
  4484 ;; *************** function _IOCAF1_SetInterruptHandler *****************
  4485 ;; Defined at:
  4486 ;;		line 288 in file "mcc_generated_files/pin_manager.c"
  4487 ;; Parameters:    Size  Location     Type
  4488 ;;  InterruptHan    2    6[BANK0 ] PTR FTN()void 
  4489 ;;		 -> IOCAF1_DefaultInterruptHandler(1), 
  4490 ;; Auto vars:     Size  Location     Type
  4491 ;;		None
  4492 ;; Return value:  Size  Location     Type
  4493 ;;                  1    wreg      void 
  4494 ;; Registers used:
  4495 ;;		wreg
  4496 ;; Tracked objects:
  4497 ;;		On entry : 0/0
  4498 ;;		On exit  : 0/0
  4499 ;;		Unchanged: 0/0
  4500 ;; Data sizes:     COMMON   BANK0   BANK1   BANK2   BANK3   BANK4   BANK5   BANK6   BANK7   BANK8   BANK9  BANK10  BANK1
      +1  BANK12  BANK13  BANK14  BANK15  BANK16  BANK17  BANK18  BANK19  BANK20  BANK21  BANK22  BANK23  BANK24  BANK25
  4501 ;;      Params:         0       2       0       0       0       0       0       0       0       0       0       0       
      +0       0       0       0       0       0       0       0       0       0       0       0       0       0       0
  4502 ;;      Locals:         0       0       0       0       0       0       0       0       0       0       0       0       
      +0       0       0       0       0       0       0       0       0       0       0       0       0       0       0
  4503 ;;      Temps:          0       0       0       0       0       0       0       0       0       0       0       0       
      +0       0       0       0       0       0       0       0       0       0       0       0       0       0       0
  4504 ;;      Totals:         0       2       0       0       0       0       0       0       0       0       0       0       
      +0       0       0       0       0       0       0       0       0       0       0       0       0       0       0
  4505 ;;Total ram usage:        2 bytes
  4506 ;; Hardware stack levels used:    1
  4507 ;; Hardware stack levels required when called:    9
  4508 ;; This function calls:
  4509 ;;		Nothing
  4510 ;; This function is called by:
  4511 ;;		_PIN_MANAGER_Initialize
  4512 ;; This function uses a non-reentrant model
  4513 ;;
  4514                           
  4515                           
  4516                           ;psect for function _IOCAF1_SetInterruptHandler
  4517  06C5                     _IOCAF1_SetInterruptHandler:
  4518  06C5                     l2276:	
  4519                           ;incstack = 0
  4520                           ; Regs used in _IOCAF1_SetInterruptHandler: [wreg]
  4521                           
  4522                           
  4523                           ;mcc_generated_files/pin_manager.c: 289:     IOCAF1_InterruptHandler = InterruptHandler;
  4524  06C5  0020               	movlb	0	; select bank0
  4525  06C6  0827               	movf	IOCAF1_SetInterruptHandler@InterruptHandler+1,w
  4526  06C7  00D0               	movwf	_IOCAF1_InterruptHandler+1
  4527  06C8  0826               	movf	IOCAF1_SetInterruptHandler@InterruptHandler,w
  4528  06C9  00CF               	movwf	_IOCAF1_InterruptHandler
  4529  06CA                     l157:
  4530  06CA  0008               	return
  4531  06CB                     __end_of_IOCAF1_SetInterruptHandler:
  4532                           
  4533                           	psect	text17
  4534  06CB                     __ptext17:	
  4535 ;; *************** function _IOCAF0_SetInterruptHandler *****************
  4536 ;; Defined at:
  4537 ;;		line 243 in file "mcc_generated_files/pin_manager.c"
  4538 ;; Parameters:    Size  Location     Type
  4539 ;;  InterruptHan    2    6[BANK0 ] PTR FTN()void 
  4540 ;;		 -> IOCAF0_DefaultInterruptHandler(1), 
  4541 ;; Auto vars:     Size  Location     Type
  4542 ;;		None
  4543 ;; Return value:  Size  Location     Type
  4544 ;;                  1    wreg      void 
  4545 ;; Registers used:
  4546 ;;		wreg
  4547 ;; Tracked objects:
  4548 ;;		On entry : 0/0
  4549 ;;		On exit  : 0/0
  4550 ;;		Unchanged: 0/0
  4551 ;; Data sizes:     COMMON   BANK0   BANK1   BANK2   BANK3   BANK4   BANK5   BANK6   BANK7   BANK8   BANK9  BANK10  BANK1
      +1  BANK12  BANK13  BANK14  BANK15  BANK16  BANK17  BANK18  BANK19  BANK20  BANK21  BANK22  BANK23  BANK24  BANK25
  4552 ;;      Params:         0       2       0       0       0       0       0       0       0       0       0       0       
      +0       0       0       0       0       0       0       0       0       0       0       0       0       0       0
  4553 ;;      Locals:         0       0       0       0       0       0       0       0       0       0       0       0       
      +0       0       0       0       0       0       0       0       0       0       0       0       0       0       0
  4554 ;;      Temps:          0       0       0       0       0       0       0       0       0       0       0       0       
      +0       0       0       0       0       0       0       0       0       0       0       0       0       0       0
  4555 ;;      Totals:         0       2       0       0       0       0       0       0       0       0       0       0       
      +0       0       0       0       0       0       0       0       0       0       0       0       0       0       0
  4556 ;;Total ram usage:        2 bytes
  4557 ;; Hardware stack levels used:    1
  4558 ;; Hardware stack levels required when called:    9
  4559 ;; This function calls:
  4560 ;;		Nothing
  4561 ;; This function is called by:
  4562 ;;		_PIN_MANAGER_Initialize
  4563 ;; This function uses a non-reentrant model
  4564 ;;
  4565                           
  4566                           
  4567                           ;psect for function _IOCAF0_SetInterruptHandler
  4568  06CB                     _IOCAF0_SetInterruptHandler:
  4569  06CB                     l2274:	
  4570                           ;incstack = 0
  4571                           ; Regs used in _IOCAF0_SetInterruptHandler: [wreg]
  4572                           
  4573                           
  4574                           ;mcc_generated_files/pin_manager.c: 244:     IOCAF0_InterruptHandler = InterruptHandler;
  4575  06CB  0020               	movlb	0	; select bank0
  4576  06CC  0827               	movf	IOCAF0_SetInterruptHandler@InterruptHandler+1,w
  4577  06CD  00D2               	movwf	_IOCAF0_InterruptHandler+1
  4578  06CE  0826               	movf	IOCAF0_SetInterruptHandler@InterruptHandler,w
  4579  06CF  00D1               	movwf	_IOCAF0_InterruptHandler
  4580  06D0                     l140:
  4581  06D0  0008               	return
  4582  06D1                     __end_of_IOCAF0_SetInterruptHandler:
  4583                           
  4584                           	psect	text18
  4585  06A0                     __ptext18:	
  4586 ;; *************** function _OSCILLATOR_Initialize *****************
  4587 ;; Defined at:
  4588 ;;		line 58 in file "mcc_generated_files/mcc.c"
  4589 ;; Parameters:    Size  Location     Type
  4590 ;;		None
  4591 ;; Auto vars:     Size  Location     Type
  4592 ;;		None
  4593 ;; Return value:  Size  Location     Type
  4594 ;;                  1    wreg      void 
  4595 ;; Registers used:
  4596 ;;		wreg, status,2
  4597 ;; Tracked objects:
  4598 ;;		On entry : 0/0
  4599 ;;		On exit  : 0/0
  4600 ;;		Unchanged: 0/0
  4601 ;; Data sizes:     COMMON   BANK0   BANK1   BANK2   BANK3   BANK4   BANK5   BANK6   BANK7   BANK8   BANK9  BANK10  BANK1
      +1  BANK12  BANK13  BANK14  BANK15  BANK16  BANK17  BANK18  BANK19  BANK20  BANK21  BANK22  BANK23  BANK24  BANK25
  4602 ;;      Params:         0       0       0       0       0       0       0       0       0       0       0       0       
      +0       0       0       0       0       0       0       0       0       0       0       0       0       0       0
  4603 ;;      Locals:         0       0       0       0       0       0       0       0       0       0       0       0       
      +0       0       0       0       0       0       0       0       0       0       0       0       0       0       0
  4604 ;;      Temps:          0       0       0       0       0       0       0       0       0       0       0       0       
      +0       0       0       0       0       0       0       0       0       0       0       0       0       0       0
  4605 ;;      Totals:         0       0       0       0       0       0       0       0       0       0       0       0       
      +0       0       0       0       0       0       0       0       0       0       0       0       0       0       0
  4606 ;;Total ram usage:        0 bytes
  4607 ;; Hardware stack levels used:    1
  4608 ;; Hardware stack levels required when called:    9
  4609 ;; This function calls:
  4610 ;;		Nothing
  4611 ;; This function is called by:
  4612 ;;		_SYSTEM_Initialize
  4613 ;; This function uses a non-reentrant model
  4614 ;;
  4615                           
  4616                           
  4617                           ;psect for function _OSCILLATOR_Initialize
  4618  06A0                     _OSCILLATOR_Initialize:
  4619  06A0                     l2518:	
  4620                           ;incstack = 0
  4621                           ; Regs used in _OSCILLATOR_Initialize: [wreg+status,2]
  4622                           
  4623                           
  4624                           ;mcc_generated_files/mcc.c: 61:     OSCCON = 0x3A;
  4625  06A0  303A               	movlw	58
  4626  06A1  0021               	movlb	1	; select bank1
  4627  06A2  0099               	movwf	25	;volatile
  4628  06A3                     l2520:
  4629                           
  4630                           ;mcc_generated_files/mcc.c: 63:     OSCTUNE = 0x00;
  4631  06A3  0198               	clrf	24	;volatile
  4632  06A4                     l2522:
  4633                           
  4634                           ;mcc_generated_files/mcc.c: 65:     BORCON = 0x00;
  4635  06A4  0022               	movlb	2	; select bank2
  4636  06A5  0196               	clrf	22	;volatile
  4637  06A6                     l246:
  4638  06A6  0008               	return
  4639  06A7                     __end_of_OSCILLATOR_Initialize:
  4640                           
  4641                           	psect	text19
  4642  044A                     __ptext19:	
  4643 ;; *************** function _LCD_Initialize *****************
  4644 ;; Defined at:
  4645 ;;		line 46 in file "lcd.c"
  4646 ;; Parameters:    Size  Location     Type
  4647 ;;		None
  4648 ;; Auto vars:     Size  Location     Type
  4649 ;;		None
  4650 ;; Return value:  Size  Location     Type
  4651 ;;                  1    wreg      void 
  4652 ;; Registers used:
  4653 ;;		wreg, status,2, status,0, pclath, cstack
  4654 ;; Tracked objects:
  4655 ;;		On entry : 0/0
  4656 ;;		On exit  : 0/0
  4657 ;;		Unchanged: 0/0
  4658 ;; Data sizes:     COMMON   BANK0   BANK1   BANK2   BANK3   BANK4   BANK5   BANK6   BANK7   BANK8   BANK9  BANK10  BANK1
      +1  BANK12  BANK13  BANK14  BANK15  BANK16  BANK17  BANK18  BANK19  BANK20  BANK21  BANK22  BANK23  BANK24  BANK25
  4659 ;;      Params:         0       0       0       0       0       0       0       0       0       0       0       0       
      +0       0       0       0       0       0       0       0       0       0       0       0       0       0       0
  4660 ;;      Locals:         0       0       0       0       0       0       0       0       0       0       0       0       
      +0       0       0       0       0       0       0       0       0       0       0       0       0       0       0
  4661 ;;      Temps:          0       1       0       0       0       0       0       0       0       0       0       0       
      +0       0       0       0       0       0       0       0       0       0       0       0       0       0       0
  4662 ;;      Totals:         0       1       0       0       0       0       0       0       0       0       0       0       
      +0       0       0       0       0       0       0       0       0       0       0       0       0       0       0
  4663 ;;Total ram usage:        1 bytes
  4664 ;; Hardware stack levels used:    1
  4665 ;; Hardware stack levels required when called:   11
  4666 ;; This function calls:
  4667 ;;		_LCDPutCmd
  4668 ;; This function is called by:
  4669 ;;		_main
  4670 ;; This function uses a non-reentrant model
  4671 ;;
  4672                           
  4673                           
  4674                           ;psect for function _LCD_Initialize
  4675  044A                     _LCD_Initialize:
  4676  044A                     l2608:	
  4677                           ;incstack = 0
  4678                           ; Regs used in _LCD_Initialize: [wreg+status,2+status,0+pclath+cstack]
  4679                           
  4680                           
  4681                           ;lcd.c: 49:   PORTB = 0;
  4682  044A  0020               	movlb	0	; select bank0
  4683  044B  018D               	clrf	13	;volatile
  4684                           
  4685                           ;lcd.c: 51:   TRISB = 0x00;
  4686  044C  0021               	movlb	1	; select bank1
  4687  044D  018D               	clrf	13	;volatile
  4688  044E                     l2610:
  4689                           
  4690                           ;lcd.c: 54:   PORTBbits.RB7 = 1;
  4691  044E  0020               	movlb	0	; select bank0
  4692  044F  178D               	bsf	13,7	;volatile
  4693  0450                     l2612:
  4694                           
  4695                           ;lcd.c: 57:   _delay((unsigned long)((15)*(500000/4000.0)));
  4696  0450  3003               	movlw	3
  4697  0451  0020               	movlb	0	; select bank0
  4698  0452  00AD               	movwf	??_LCD_Initialize
  4699  0453  306E               	movlw	110
  4700  0454                     u1237:
  4701  0454  0B89               	decfsz	9,f
  4702  0455  2C54               	goto	u1237
  4703  0456  0BAD               	decfsz	??_LCD_Initialize,f
  4704  0457  2C54               	goto	u1237
  4705  0458                     l2614:
  4706                           
  4707                           ;lcd.c: 60:   LCDPutCmd(0x32);
  4708  0458  3032               	movlw	50
  4709  0459  3184  246D  3184   	fcall	_LCDPutCmd
  4710  045C                     l2616:
  4711                           
  4712                           ;lcd.c: 63:   LCDPutCmd(0x28);
  4713  045C  3028               	movlw	40
  4714  045D  3184  246D  3184   	fcall	_LCDPutCmd
  4715  0460                     l2618:
  4716                           
  4717                           ;lcd.c: 66:   LCDPutCmd(0x0C);
  4718  0460  300C               	movlw	12
  4719  0461  3184  246D  3184   	fcall	_LCDPutCmd
  4720  0464                     l2620:
  4721                           
  4722                           ;lcd.c: 68:   LCDPutCmd(0x01);
  4723  0464  3001               	movlw	1
  4724  0465  3184  246D  3184   	fcall	_LCDPutCmd
  4725  0468                     l2622:
  4726                           
  4727                           ;lcd.c: 71:   LCDPutCmd(0x06);
  4728  0468  3006               	movlw	6
  4729  0469  3184  246D  3184   	fcall	_LCDPutCmd
  4730  046C                     l275:
  4731  046C  0008               	return
  4732  046D                     __end_of_LCD_Initialize:
  4733                           
  4734                           	psect	text20
  4735  046D                     __ptext20:	
  4736 ;; *************** function _LCDPutCmd *****************
  4737 ;; Defined at:
  4738 ;;		line 115 in file "lcd.c"
  4739 ;; Parameters:    Size  Location     Type
  4740 ;;  ch              1    wreg     unsigned char 
  4741 ;; Auto vars:     Size  Location     Type
  4742 ;;  ch              1   12[BANK0 ] unsigned char 
  4743 ;; Return value:  Size  Location     Type
  4744 ;;                  1    wreg      void 
  4745 ;; Registers used:
  4746 ;;		wreg, status,2, status,0, pclath, cstack
  4747 ;; Tracked objects:
  4748 ;;		On entry : 0/0
  4749 ;;		On exit  : 0/0
  4750 ;;		Unchanged: 0/0
  4751 ;; Data sizes:     COMMON   BANK0   BANK1   BANK2   BANK3   BANK4   BANK5   BANK6   BANK7   BANK8   BANK9  BANK10  BANK1
      +1  BANK12  BANK13  BANK14  BANK15  BANK16  BANK17  BANK18  BANK19  BANK20  BANK21  BANK22  BANK23  BANK24  BANK25
  4752 ;;      Params:         0       0       0       0       0       0       0       0       0       0       0       0       
      +0       0       0       0       0       0       0       0       0       0       0       0       0       0       0
  4753 ;;      Locals:         0       1       0       0       0       0       0       0       0       0       0       0       
      +0       0       0       0       0       0       0       0       0       0       0       0       0       0       0
  4754 ;;      Temps:          0       2       0       0       0       0       0       0       0       0       0       0       
      +0       0       0       0       0       0       0       0       0       0       0       0       0       0       0
  4755 ;;      Totals:         0       3       0       0       0       0       0       0       0       0       0       0       
      +0       0       0       0       0       0       0       0       0       0       0       0       0       0       0
  4756 ;;Total ram usage:        3 bytes
  4757 ;; Hardware stack levels used:    1
  4758 ;; Hardware stack levels required when called:   10
  4759 ;; This function calls:
  4760 ;;		_LCDWriteNibble
  4761 ;; This function is called by:
  4762 ;;		_LCD_Initialize
  4763 ;;		_LCDGoto
  4764 ;;		_createCustomCharacter
  4765 ;; This function uses a non-reentrant model
  4766 ;;
  4767                           
  4768                           
  4769                           ;psect for function _LCDPutCmd
  4770  046D                     _LCDPutCmd:
  4771                           
  4772                           ;incstack = 0
  4773                           ; Regs used in _LCDPutCmd: [wreg+status,2+status,0+pclath+cstack]
  4774                           ;LCDPutCmd@ch stored from wreg
  4775  046D  0020               	movlb	0	; select bank0
  4776  046E  00AC               	movwf	LCDPutCmd@ch
  4777  046F                     l2246:
  4778                           
  4779                           ;lcd.c: 115: void LCDPutCmd(uint8_t ch);lcd.c: 116: {;lcd.c: 117:   _delay((unsigned lon
      +                          g)((5)*(500000/4000.0)));
  4780  046F  30D0               	movlw	208
  4781  0470                     u1247:
  4782  0470  0B89               	decfsz	9,f
  4783  0471  2C70               	goto	u1247
  4784  0472  0000               	nop
  4785  0473                     l2248:
  4786                           
  4787                           ;lcd.c: 120:   LCDWriteNibble(ch, 0);
  4788  0473  0020               	movlb	0	; select bank0
  4789  0474  01A6               	clrf	LCDWriteNibble@rs
  4790  0475  082C               	movf	LCDPutCmd@ch,w
  4791  0476  3184  24B0  3184   	fcall	_LCDWriteNibble
  4792  0479                     l2250:
  4793                           
  4794                           ;lcd.c: 123:   ch = (uint8_t)(ch << 4);
  4795  0479  0020               	movlb	0	; select bank0
  4796  047A  082C               	movf	LCDPutCmd@ch,w
  4797  047B  00AA               	movwf	??_LCDPutCmd
  4798  047C  3003               	movlw	3
  4799  047D                     u845:
  4800  047D  35AA               	lslf	??_LCDPutCmd,f
  4801  047E  3EFF               	addlw	-1
  4802  047F  1D03               	skipz
  4803  0480  2C7D               	goto	u845
  4804  0481  352A               	lslf	??_LCDPutCmd,w
  4805  0482  00AB               	movwf	??_LCDPutCmd+1
  4806  0483  082B               	movf	??_LCDPutCmd+1,w
  4807  0484  00AC               	movwf	LCDPutCmd@ch
  4808  0485                     l2252:
  4809                           
  4810                           ;lcd.c: 125:   _delay((unsigned long)((1)*(500000/4000.0)));
  4811  0485  3029               	movlw	41
  4812  0486                     u1257:
  4813  0486  0B89               	decfsz	9,f
  4814  0487  2C86               	goto	u1257
  4815  0488  3200               	nop2
  4816  0489                     l2254:
  4817                           
  4818                           ;lcd.c: 128:   LCDWriteNibble(ch, 0);
  4819  0489  0020               	movlb	0	; select bank0
  4820  048A  01A6               	clrf	LCDWriteNibble@rs
  4821  048B  082C               	movf	LCDPutCmd@ch,w
  4822  048C  3184  24B0  3184   	fcall	_LCDWriteNibble
  4823  048F                     l284:
  4824  048F  0008               	return
  4825  0490                     __end_of_LCDPutCmd:
  4826                           
  4827                           	psect	text21
  4828  04B0                     __ptext21:	
  4829 ;; *************** function _LCDWriteNibble *****************
  4830 ;; Defined at:
  4831 ;;		line 74 in file "lcd.c"
  4832 ;; Parameters:    Size  Location     Type
  4833 ;;  ch              1    wreg     unsigned char 
  4834 ;;  rs              1    6[BANK0 ] unsigned char 
  4835 ;; Auto vars:     Size  Location     Type
  4836 ;;  ch              1    9[BANK0 ] unsigned char 
  4837 ;; Return value:  Size  Location     Type
  4838 ;;                  1    wreg      void 
  4839 ;; Registers used:
  4840 ;;		wreg, status,2, status,0
  4841 ;; Tracked objects:
  4842 ;;		On entry : 0/0
  4843 ;;		On exit  : 0/0
  4844 ;;		Unchanged: 0/0
  4845 ;; Data sizes:     COMMON   BANK0   BANK1   BANK2   BANK3   BANK4   BANK5   BANK6   BANK7   BANK8   BANK9  BANK10  BANK1
      +1  BANK12  BANK13  BANK14  BANK15  BANK16  BANK17  BANK18  BANK19  BANK20  BANK21  BANK22  BANK23  BANK24  BANK25
  4846 ;;      Params:         0       1       0       0       0       0       0       0       0       0       0       0       
      +0       0       0       0       0       0       0       0       0       0       0       0       0       0       0
  4847 ;;      Locals:         0       1       0       0       0       0       0       0       0       0       0       0       
      +0       0       0       0       0       0       0       0       0       0       0       0       0       0       0
  4848 ;;      Temps:          0       2       0       0       0       0       0       0       0       0       0       0       
      +0       0       0       0       0       0       0       0       0       0       0       0       0       0       0
  4849 ;;      Totals:         0       4       0       0       0       0       0       0       0       0       0       0       
      +0       0       0       0       0       0       0       0       0       0       0       0       0       0       0
  4850 ;;Total ram usage:        4 bytes
  4851 ;; Hardware stack levels used:    1
  4852 ;; Hardware stack levels required when called:    9
  4853 ;; This function calls:
  4854 ;;		Nothing
  4855 ;; This function is called by:
  4856 ;;		_LCDPutChar
  4857 ;;		_LCDPutCmd
  4858 ;; This function uses a non-reentrant model
  4859 ;;
  4860                           
  4861                           
  4862                           ;psect for function _LCDWriteNibble
  4863  04B0                     _LCDWriteNibble:
  4864                           
  4865                           ;incstack = 0
  4866                           ; Regs used in _LCDWriteNibble: [wreg+status,2+status,0]
  4867                           ;LCDWriteNibble@ch stored from wreg
  4868  04B0  0020               	movlb	0	; select bank0
  4869  04B1  00A9               	movwf	LCDWriteNibble@ch
  4870  04B2                     l2198:
  4871                           
  4872                           ;lcd.c: 74: void LCDWriteNibble(uint8_t ch, uint8_t rs);lcd.c: 75: {;lcd.c: 77:   ch = (
      +                          ch >> 4);
  4873  04B2  0829               	movf	LCDWriteNibble@ch,w
  4874  04B3  00A7               	movwf	??_LCDWriteNibble
  4875  04B4  3004               	movlw	4
  4876  04B5                     u835:
  4877  04B5  36A7               	lsrf	??_LCDWriteNibble,f
  4878  04B6  0B89               	decfsz	9,f
  4879  04B7  2CB5               	goto	u835
  4880  04B8  0827               	movf	??_LCDWriteNibble,w
  4881  04B9  00A8               	movwf	??_LCDWriteNibble+1
  4882  04BA  0828               	movf	??_LCDWriteNibble+1,w
  4883  04BB  00A9               	movwf	LCDWriteNibble@ch
  4884  04BC                     l2200:
  4885                           
  4886                           ;lcd.c: 80:   ch = (ch & 0x0F);
  4887  04BC  0829               	movf	LCDWriteNibble@ch,w
  4888  04BD  390F               	andlw	15
  4889  04BE  00A7               	movwf	??_LCDWriteNibble
  4890  04BF  0827               	movf	??_LCDWriteNibble,w
  4891  04C0  00A9               	movwf	LCDWriteNibble@ch
  4892  04C1                     l2202:
  4893                           
  4894                           ;lcd.c: 83:   PORTB = (PORTB & 0xF0);
  4895  04C1  080D               	movf	13,w	;volatile
  4896  04C2  39F0               	andlw	240
  4897  04C3  008D               	movwf	13	;volatile
  4898                           
  4899                           ;lcd.c: 86:   PORTB = (PORTB | ch);
  4900  04C4  080D               	movf	13,w	;volatile
  4901  04C5  0429               	iorwf	LCDWriteNibble@ch,w
  4902  04C6  008D               	movwf	13	;volatile
  4903  04C7                     l2204:
  4904                           
  4905                           ;lcd.c: 89:   PORTBbits.RB5 = rs;
  4906  04C7  0C26               	rrf	LCDWriteNibble@rs,w
  4907  04C8  1C03               	skipc
  4908  04C9  128D               	bcf	13,5	;volatile
  4909  04CA  1803               	skipnc
  4910  04CB  168D               	bsf	13,5	;volatile
  4911  04CC                     l2206:
  4912                           
  4913                           ;lcd.c: 92:   PORTBbits.RB6 = 0;
  4914  04CC  130D               	bcf	13,6	;volatile
  4915  04CD                     l2208:
  4916                           
  4917                           ;lcd.c: 95:   PORTBbits.RB4 = 1;
  4918  04CD  160D               	bsf	13,4	;volatile
  4919  04CE                     l2210:
  4920                           
  4921                           ;lcd.c: 98:   PORTBbits.RB4 = 0;
  4922  04CE  120D               	bcf	13,4	;volatile
  4923  04CF                     l278:
  4924  04CF  0008               	return
  4925  04D0                     __end_of_LCDWriteNibble:
  4926                           
  4927                           	psect	intentry
  4928  0004                     __pintentry:	
  4929 ;; *************** function _INTERRUPT_InterruptManager *****************
  4930 ;; Defined at:
  4931 ;;		line 52 in file "mcc_generated_files/interrupt_manager.c"
  4932 ;; Parameters:    Size  Location     Type
  4933 ;;		None
  4934 ;; Auto vars:     Size  Location     Type
  4935 ;;		None
  4936 ;; Return value:  Size  Location     Type
  4937 ;;                  1    wreg      void 
  4938 ;; Registers used:
  4939 ;;		wreg, fsr0l, fsr0h, status,2, status,0, pclath, cstack
  4940 ;; Tracked objects:
  4941 ;;		On entry : 0/0
  4942 ;;		On exit  : 0/0
  4943 ;;		Unchanged: 0/0
  4944 ;; Data sizes:     COMMON   BANK0   BANK1   BANK2   BANK3   BANK4   BANK5   BANK6   BANK7   BANK8   BANK9  BANK10  BANK1
      +1  BANK12  BANK13  BANK14  BANK15  BANK16  BANK17  BANK18  BANK19  BANK20  BANK21  BANK22  BANK23  BANK24  BANK25
  4945 ;;      Params:         0       0       0       0       0       0       0       0       0       0       0       0       
      +0       0       0       0       0       0       0       0       0       0       0       0       0       0       0
  4946 ;;      Locals:         0       0       0       0       0       0       0       0       0       0       0       0       
      +0       0       0       0       0       0       0       0       0       0       0       0       0       0       0
  4947 ;;      Temps:          1       0       0       0       0       0       0       0       0       0       0       0       
      +0       0       0       0       0       0       0       0       0       0       0       0       0       0       0
  4948 ;;      Totals:         1       0       0       0       0       0       0       0       0       0       0       0       
      +0       0       0       0       0       0       0       0       0       0       0       0       0       0       0
  4949 ;;Total ram usage:        1 bytes
  4950 ;; Hardware stack levels used:    1
  4951 ;; Hardware stack levels required when called:    8
  4952 ;; This function calls:
  4953 ;;		_PIN_MANAGER_IOC
  4954 ;; This function is called by:
  4955 ;;		Interrupt level 1
  4956 ;; This function uses a non-reentrant model
  4957 ;;
  4958                           
  4959  0004                     _INTERRUPT_InterruptManager:
  4960                           
  4961                           ;incstack = 0
  4962  0004  147E               	bsf	int$flags,0	;set compiler interrupt flag (level 1)
  4963                           
  4964                           ; Regs used in _INTERRUPT_InterruptManager: [wreg-fsr0h+status,2+status,0+pclath+cstack]
  4965  0005  3180               	pagesel	$
  4966  0006                     i1l2640:
  4967                           
  4968                           ;mcc_generated_files/interrupt_manager.c: 55:     if(INTCONbits.IOCIE == 1 && INTCONbits
      +                          .IOCIF == 1)
  4969  0006  1D8B               	btfss	11,3	;volatile
  4970  0007  2809               	goto	u112_21
  4971  0008  280A               	goto	u112_20
  4972  0009                     u112_21:
  4973  0009  2819               	goto	i1l262
  4974  000A                     u112_20:
  4975  000A                     i1l2642:
  4976  000A  1C0B               	btfss	11,0	;volatile
  4977  000B  280D               	goto	u113_21
  4978  000C  280E               	goto	u113_20
  4979  000D                     u113_21:
  4980  000D  2819               	goto	i1l262
  4981  000E                     u113_20:
  4982  000E                     i1l2644:
  4983                           
  4984                           ;mcc_generated_files/interrupt_manager.c: 56:     {;mcc_generated_files/interrupt_manage
      +                          r.c: 57:         _delay((unsigned long)((80)*(500000/4000.0)));
  4985  000E  300D               	movlw	13
  4986  000F  00FD               	movwf	??_INTERRUPT_InterruptManager
  4987  0010  30FC               	movlw	252
  4988  0011                     u126_27:
  4989  0011  0B89               	decfsz	9,f
  4990  0012  2811               	goto	u126_27
  4991  0013  0BFD               	decfsz	??_INTERRUPT_InterruptManager,f
  4992  0014  2811               	goto	u126_27
  4993  0015                     i1l2646:
  4994                           
  4995                           ;mcc_generated_files/interrupt_manager.c: 58:         PIN_MANAGER_IOC();
  4996  0015  3182  2220  3180   	fcall	_PIN_MANAGER_IOC
  4997  0018                     i1l2648:
  4998                           
  4999                           ;mcc_generated_files/interrupt_manager.c: 60:         INTCONbits.IOCIF = 0;
  5000  0018  100B               	bcf	11,0	;volatile
  5001  0019                     i1l262:	
  5002                           ;mcc_generated_files/interrupt_manager.c: 61:     }
  5003                           
  5004  0019  107E               	bcf	int$flags,0	;clear compiler interrupt flag (level 1)
  5005  001A  0009               	retfie
  5006  001B                     __end_of_INTERRUPT_InterruptManager:
  5007                           
  5008                           	psect	text23
  5009  0220                     __ptext23:	
  5010 ;; *************** function _PIN_MANAGER_IOC *****************
  5011 ;; Defined at:
  5012 ;;		line 175 in file "mcc_generated_files/pin_manager.c"
  5013 ;; Parameters:    Size  Location     Type
  5014 ;;		None
  5015 ;; Auto vars:     Size  Location     Type
  5016 ;;		None
  5017 ;; Return value:  Size  Location     Type
  5018 ;;                  1    wreg      void 
  5019 ;; Registers used:
  5020 ;;		wreg, fsr0l, fsr0h, status,2, status,0, pclath, cstack
  5021 ;; Tracked objects:
  5022 ;;		On entry : 0/0
  5023 ;;		On exit  : 0/0
  5024 ;;		Unchanged: 0/0
  5025 ;; Data sizes:     COMMON   BANK0   BANK1   BANK2   BANK3   BANK4   BANK5   BANK6   BANK7   BANK8   BANK9  BANK10  BANK1
      +1  BANK12  BANK13  BANK14  BANK15  BANK16  BANK17  BANK18  BANK19  BANK20  BANK21  BANK22  BANK23  BANK24  BANK25
  5026 ;;      Params:         0       0       0       0       0       0       0       0       0       0       0       0       
      +0       0       0       0       0       0       0       0       0       0       0       0       0       0       0
  5027 ;;      Locals:         0       0       0       0       0       0       0       0       0       0       0       0       
      +0       0       0       0       0       0       0       0       0       0       0       0       0       0       0
  5028 ;;      Temps:          0       0       0       0       0       0       0       0       0       0       0       0       
      +0       0       0       0       0       0       0       0       0       0       0       0       0       0       0
  5029 ;;      Totals:         0       0       0       0       0       0       0       0       0       0       0       0       
      +0       0       0       0       0       0       0       0       0       0       0       0       0       0       0
  5030 ;;Total ram usage:        0 bytes
  5031 ;; Hardware stack levels used:    1
  5032 ;; Hardware stack levels required when called:    7
  5033 ;; This function calls:
  5034 ;;		_IOCAF0_ISR
  5035 ;;		_IOCAF1_ISR
  5036 ;;		_IOCAF2_ISR
  5037 ;;		_IOCAF3_ISR
  5038 ;;		_IOCAF4_ISR
  5039 ;;		_IOCAF5_ISR
  5040 ;; This function is called by:
  5041 ;;		_INTERRUPT_InterruptManager
  5042 ;; This function uses a non-reentrant model
  5043 ;;
  5044                           
  5045                           
  5046                           ;psect for function _PIN_MANAGER_IOC
  5047  0220                     _PIN_MANAGER_IOC:
  5048  0220                     i1l2572:	
  5049                           ;incstack = 0
  5050                           ; Regs used in _PIN_MANAGER_IOC: [wreg-fsr0h+status,2+status,0+pclath+cstack]
  5051                           
  5052                           
  5053                           ;mcc_generated_files/pin_manager.c: 178:     if(IOCAFbits.IOCAF0 == 1)
  5054  0220  0027               	movlb	7	; select bank7
  5055  0221  1C13               	btfss	19,0	;volatile
  5056  0222  2A24               	goto	u103_21
  5057  0223  2A25               	goto	u103_20
  5058  0224                     u103_21:
  5059  0224  2A28               	goto	i1l2576
  5060  0225                     u103_20:
  5061  0225                     i1l2574:
  5062                           
  5063                           ;mcc_generated_files/pin_manager.c: 179:     {;mcc_generated_files/pin_manager.c: 180:  
      +                                 IOCAF0_ISR();
  5064  0225  3183  2330  3182   	fcall	_IOCAF0_ISR
  5065  0228                     i1l2576:
  5066                           
  5067                           ;mcc_generated_files/pin_manager.c: 183:     if(IOCAFbits.IOCAF1 == 1)
  5068  0228  0027               	movlb	7	; select bank7
  5069  0229  1C93               	btfss	19,1	;volatile
  5070  022A  2A2C               	goto	u104_21
  5071  022B  2A2D               	goto	u104_20
  5072  022C                     u104_21:
  5073  022C  2A30               	goto	i1l2580
  5074  022D                     u104_20:
  5075  022D                     i1l2578:
  5076                           
  5077                           ;mcc_generated_files/pin_manager.c: 184:     {;mcc_generated_files/pin_manager.c: 185:  
      +                                 IOCAF1_ISR();
  5078  022D  3182  22AE  3182   	fcall	_IOCAF1_ISR
  5079  0230                     i1l2580:
  5080                           
  5081                           ;mcc_generated_files/pin_manager.c: 188:     if(IOCAFbits.IOCAF2 == 1)
  5082  0230  0027               	movlb	7	; select bank7
  5083  0231  1D13               	btfss	19,2	;volatile
  5084  0232  2A34               	goto	u105_21
  5085  0233  2A35               	goto	u105_20
  5086  0234                     u105_21:
  5087  0234  2A38               	goto	i1l2584
  5088  0235                     u105_20:
  5089  0235                     i1l2582:
  5090                           
  5091                           ;mcc_generated_files/pin_manager.c: 189:     {;mcc_generated_files/pin_manager.c: 190:  
      +                                 IOCAF2_ISR();
  5092  0235  3182  2280  3182   	fcall	_IOCAF2_ISR
  5093  0238                     i1l2584:
  5094                           
  5095                           ;mcc_generated_files/pin_manager.c: 193:     if(IOCAFbits.IOCAF3 == 1)
  5096  0238  0027               	movlb	7	; select bank7
  5097  0239  1D93               	btfss	19,3	;volatile
  5098  023A  2A3C               	goto	u106_21
  5099  023B  2A3D               	goto	u106_20
  5100  023C                     u106_21:
  5101  023C  2A40               	goto	i1l2588
  5102  023D                     u106_20:
  5103  023D                     i1l2586:
  5104                           
  5105                           ;mcc_generated_files/pin_manager.c: 194:     {;mcc_generated_files/pin_manager.c: 195:  
      +                                 IOCAF3_ISR();
  5106  023D  3183  2305  3182   	fcall	_IOCAF3_ISR
  5107  0240                     i1l2588:
  5108                           
  5109                           ;mcc_generated_files/pin_manager.c: 198:     if(IOCAFbits.IOCAF4 == 1)
  5110  0240  0027               	movlb	7	; select bank7
  5111  0241  1E13               	btfss	19,4	;volatile
  5112  0242  2A44               	goto	u107_21
  5113  0243  2A45               	goto	u107_20
  5114  0244                     u107_21:
  5115  0244  2A48               	goto	i1l2592
  5116  0245                     u107_20:
  5117  0245                     i1l2590:
  5118                           
  5119                           ;mcc_generated_files/pin_manager.c: 199:     {;mcc_generated_files/pin_manager.c: 200:  
      +                                 IOCAF4_ISR();
  5120  0245  3182  22DA  3182   	fcall	_IOCAF4_ISR
  5121  0248                     i1l2592:
  5122                           
  5123                           ;mcc_generated_files/pin_manager.c: 203:     if(IOCAFbits.IOCAF5 == 1)
  5124  0248  0027               	movlb	7	; select bank7
  5125  0249  1E93               	btfss	19,5	;volatile
  5126  024A  2A4C               	goto	u108_21
  5127  024B  2A4D               	goto	u108_20
  5128  024C                     u108_21:
  5129  024C  2A50               	goto	i1l126
  5130  024D                     u108_20:
  5131  024D                     i1l2594:
  5132                           
  5133                           ;mcc_generated_files/pin_manager.c: 204:     {;mcc_generated_files/pin_manager.c: 205:  
      +                                 IOCAF5_ISR();
  5134  024D  3183  235B  3182   	fcall	_IOCAF5_ISR
  5135  0250                     i1l126:
  5136  0250  0008               	return
  5137  0251                     __end_of_PIN_MANAGER_IOC:
  5138                           
  5139                           	psect	text24
  5140  035B                     __ptext24:	
  5141 ;; *************** function _IOCAF5_ISR *****************
  5142 ;; Defined at:
  5143 ;;		line 435 in file "mcc_generated_files/pin_manager.c"
  5144 ;; Parameters:    Size  Location     Type
  5145 ;;		None
  5146 ;; Auto vars:     Size  Location     Type
  5147 ;;		None
  5148 ;; Return value:  Size  Location     Type
  5149 ;;                  1    wreg      void 
  5150 ;; Registers used:
  5151 ;;		wreg, fsr0l, fsr0h, status,2, status,0, pclath, cstack
  5152 ;; Tracked objects:
  5153 ;;		On entry : 0/0
  5154 ;;		On exit  : 0/0
  5155 ;;		Unchanged: 0/0
  5156 ;; Data sizes:     COMMON   BANK0   BANK1   BANK2   BANK3   BANK4   BANK5   BANK6   BANK7   BANK8   BANK9  BANK10  BANK1
      +1  BANK12  BANK13  BANK14  BANK15  BANK16  BANK17  BANK18  BANK19  BANK20  BANK21  BANK22  BANK23  BANK24  BANK25
  5157 ;;      Params:         0       0       0       0       0       0       0       0       0       0       0       0       
      +0       0       0       0       0       0       0       0       0       0       0       0       0       0       0
  5158 ;;      Locals:         0       0       0       0       0       0       0       0       0       0       0       0       
      +0       0       0       0       0       0       0       0       0       0       0       0       0       0       0
  5159 ;;      Temps:          0       2       0       0       0       0       0       0       0       0       0       0       
      +0       0       0       0       0       0       0       0       0       0       0       0       0       0       0
  5160 ;;      Totals:         0       2       0       0       0       0       0       0       0       0       0       0       
      +0       0       0       0       0       0       0       0       0       0       0       0       0       0       0
  5161 ;;Total ram usage:        2 bytes
  5162 ;; Hardware stack levels used:    1
  5163 ;; Hardware stack levels required when called:    6
  5164 ;; This function calls:
  5165 ;;		Absolute function
  5166 ;;		_IOCAF5_DefaultInterruptHandler
  5167 ;;		_startFight
  5168 ;; This function is called by:
  5169 ;;		_PIN_MANAGER_IOC
  5170 ;; This function uses a non-reentrant model
  5171 ;;
  5172                           
  5173                           
  5174                           ;psect for function _IOCAF5_ISR
  5175  035B                     _IOCAF5_ISR:
  5176  035B                     i1l2498:	
  5177                           ;incstack = 0
  5178                           ; Regs used in _IOCAF5_ISR: [wreg-fsr0h+status,2+status,0+pclath+cstack]
  5179                           
  5180                           
  5181                           ;mcc_generated_files/pin_manager.c: 440:     if(IOCAF5_InterruptHandler)
  5182  035B  0020               	movlb	0	; select bank0
  5183  035C  0847               	movf	_IOCAF5_InterruptHandler,w
  5184  035D  0448               	iorwf	_IOCAF5_InterruptHandler+1,w
  5185  035E  1903               	btfsc	3,2
  5186  035F  2B61               	goto	u101_21
  5187  0360  2B62               	goto	u101_20
  5188  0361                     u101_21:
  5189  0361  2B67               	goto	i1l2502
  5190  0362                     u101_20:
  5191  0362                     i1l2500:
  5192                           
  5193                           ;mcc_generated_files/pin_manager.c: 441:     {;mcc_generated_files/pin_manager.c: 442:  
      +                                 IOCAF5_InterruptHandler();
  5194  0362  0848               	movf	_IOCAF5_InterruptHandler+1,w
  5195  0363  008A               	movwf	10
  5196  0364  0847               	movf	_IOCAF5_InterruptHandler,w
  5197  0365  000A               	callw
  5198  0366  3183               	pagesel	$
  5199  0367                     i1l2502:
  5200                           
  5201                           ;mcc_generated_files/pin_manager.c: 444:     if (inGame){
  5202  0367  0020               	movlb	0	; select bank0
  5203  0368  0855               	movf	_inGame,w
  5204  0369  1903               	btfsc	3,2
  5205  036A  2B6C               	goto	u102_21
  5206  036B  2B6D               	goto	u102_20
  5207  036C                     u102_21:
  5208  036C  2B72               	goto	i1l2512
  5209  036D                     u102_20:
  5210  036D  2B82               	goto	i1l214
  5211  036E                     i1l2506:
  5212                           
  5213                           ;mcc_generated_files/pin_manager.c: 450:             startFight();
  5214  036E  3183  23D5  3183   	fcall	_startFight
  5215                           
  5216                           ;mcc_generated_files/pin_manager.c: 451:         break;
  5217  0371  2B82               	goto	i1l214
  5218  0372                     i1l2512:
  5219  0372  0854               	movf	_mainState,w
  5220  0373  00A4               	movwf	??_IOCAF5_ISR
  5221  0374  01A5               	clrf	??_IOCAF5_ISR+1
  5222                           
  5223                           ; Switch on 2 bytes has been partitioned into a top level switch of size 1, and 1 sub-sw
      +                          itches
  5224                           ; Switch size 1, requested type "simple"
  5225                           ; Number of cases is 1, Range of values is 0 to 0
  5226                           ; switch strategies available:
  5227                           ; Name         Instructions Cycles
  5228                           ; simple_byte            4     3 (average)
  5229                           ; direct_byte            8     6 (fixed)
  5230                           ; jumptable            260     6 (fixed)
  5231                           ;	Chosen strategy is simple_byte
  5232  0375  0825               	movf	??_IOCAF5_ISR+1,w
  5233  0376  3A00               	xorlw	0	; case 0
  5234  0377  1903               	skipnz
  5235  0378  2B7A               	goto	i1l2860
  5236  0379  2B82               	goto	i1l214
  5237  037A                     i1l2860:
  5238                           
  5239                           ; Switch size 1, requested type "simple"
  5240                           ; Number of cases is 2, Range of values is 2 to 3
  5241                           ; switch strategies available:
  5242                           ; Name         Instructions Cycles
  5243                           ; simple_byte            7     4 (average)
  5244                           ; direct_byte           13     9 (fixed)
  5245                           ; jumptable            263     9 (fixed)
  5246                           ;	Chosen strategy is simple_byte
  5247  037A  0824               	movf	??_IOCAF5_ISR,w
  5248  037B  3A02               	xorlw	2	; case 2
  5249  037C  1903               	skipnz
  5250  037D  2B6E               	goto	i1l2506
  5251  037E  3A01               	xorlw	1	; case 3
  5252  037F  1903               	skipnz
  5253  0380  2B6E               	goto	i1l2506
  5254  0381  2B82               	goto	i1l214
  5255  0382                     i1l214:	
  5256                           ;mcc_generated_files/pin_manager.c: 459:     }
  5257                           
  5258                           
  5259                           ;mcc_generated_files/pin_manager.c: 460:     IOCAFbits.IOCAF5 = 0;
  5260  0382  0027               	movlb	7	; select bank7
  5261  0383  1293               	bcf	19,5	;volatile
  5262  0384                     i1l220:
  5263  0384  0008               	return
  5264  0385                     __end_of_IOCAF5_ISR:
  5265                           
  5266                           	psect	text25
  5267  03D5                     __ptext25:	
  5268 ;; *************** function _startFight *****************
  5269 ;; Defined at:
  5270 ;;		line 82 in file "menu.c"
  5271 ;; Parameters:    Size  Location     Type
  5272 ;;		None
  5273 ;; Auto vars:     Size  Location     Type
  5274 ;;		None
  5275 ;; Return value:  Size  Location     Type
  5276 ;;                  1    wreg      void 
  5277 ;; Registers used:
  5278 ;;		wreg, fsr0l, fsr0h, status,2, status,0, pclath, cstack
  5279 ;; Tracked objects:
  5280 ;;		On entry : 0/0
  5281 ;;		On exit  : 0/0
  5282 ;;		Unchanged: 0/0
  5283 ;; Data sizes:     COMMON   BANK0   BANK1   BANK2   BANK3   BANK4   BANK5   BANK6   BANK7   BANK8   BANK9  BANK10  BANK1
      +1  BANK12  BANK13  BANK14  BANK15  BANK16  BANK17  BANK18  BANK19  BANK20  BANK21  BANK22  BANK23  BANK24  BANK25
  5284 ;;      Params:         0       0       0       0       0       0       0       0       0       0       0       0       
      +0       0       0       0       0       0       0       0       0       0       0       0       0       0       0
  5285 ;;      Locals:         0       0       0       0       0       0       0       0       0       0       0       0       
      +0       0       0       0       0       0       0       0       0       0       0       0       0       0       0
  5286 ;;      Temps:          0       2       0       0       0       0       0       0       0       0       0       0       
      +0       0       0       0       0       0       0       0       0       0       0       0       0       0       0
  5287 ;;      Totals:         0       2       0       0       0       0       0       0       0       0       0       0       
      +0       0       0       0       0       0       0       0       0       0       0       0       0       0       0
  5288 ;;Total ram usage:        2 bytes
  5289 ;; Hardware stack levels used:    1
  5290 ;; Hardware stack levels required when called:    5
  5291 ;; This function calls:
  5292 ;;		_idleScreen
  5293 ;;		i1_LCDGoto
  5294 ;;		i1_LCDPutStr
  5295 ;;		i1_cleanFullMenu
  5296 ;;		i1_printMenu
  5297 ;; This function is called by:
  5298 ;;		_IOCAF5_ISR
  5299 ;; This function uses a non-reentrant model
  5300 ;;
  5301                           
  5302                           
  5303                           ;psect for function _startFight
  5304  03D5                     _startFight:
  5305  03D5                     i1l2286:	
  5306                           ;incstack = 0
  5307                           ; Regs used in _startFight: [wreg-fsr0h+status,2+status,0+pclath+cstack]
  5308                           
  5309                           
  5310                           ;menu.c: 85:     cleanFullMenu();
  5311  03D5  3185  25DB  3183   	fcall	i1_cleanFullMenu
  5312                           
  5313                           ;menu.c: 86:     idleScreen();
  5314  03D8  3185  25F5  3183   	fcall	_idleScreen
  5315  03DB                     i1l2288:
  5316                           
  5317                           ;menu.c: 87:     LCDGoto(lcdOffset, 0);
  5318  03DB  01F7               	clrf	i1LCDGoto@ln
  5319  03DC  0020               	movlb	0	; select bank0
  5320  03DD  0846               	movf	_lcdOffset,w
  5321  03DE  3183  23FD  3183   	fcall	i1_LCDGoto
  5322  03E1                     i1l2290:
  5323                           
  5324                           ;menu.c: 88:     LCDPutStr("Start Fight");
  5325  03E1  3081               	movlw	low (STR_16| (0+32768))
  5326  03E2  00F7               	movwf	i1LCDPutStr@str
  5327  03E3  3086               	movlw	high (STR_16| (0+32768))
  5328  03E4  00F8               	movwf	i1LCDPutStr@str+1
  5329  03E5  3184  2424  3183   	fcall	i1_LCDPutStr
  5330  03E8                     i1l2292:
  5331                           
  5332                           ;menu.c: 89:     _delay((unsigned long)((2000)*(500000/4000.0)));
  5333  03E8  3002               	movlw	2
  5334  03E9  0020               	movlb	0	; select bank0
  5335  03EA  00A3               	movwf	??_startFight+1
  5336  03EB  3045               	movlw	69
  5337  03EC  00A2               	movwf	??_startFight
  5338  03ED  30A9               	movlw	169
  5339  03EE                     u127_27:
  5340  03EE  0B89               	decfsz	9,f
  5341  03EF  2BEE               	goto	u127_27
  5342  03F0  0BA2               	decfsz	??_startFight,f
  5343  03F1  2BEE               	goto	u127_27
  5344  03F2  0BA3               	decfsz	??_startFight+1,f
  5345  03F3  2BEE               	goto	u127_27
  5346  03F4  3200               	nop2
  5347  03F5                     i1l2294:
  5348                           
  5349                           ;menu.c: 90:     mainState = 0;
  5350  03F5  0020               	movlb	0	; select bank0
  5351  03F6  01D4               	clrf	_mainState
  5352  03F7                     i1l2296:
  5353                           
  5354                           ;menu.c: 91:     inGame = 1;
  5355  03F7  01D5               	clrf	_inGame
  5356  03F8  0AD5               	incf	_inGame,f
  5357  03F9                     i1l2298:
  5358                           
  5359                           ;menu.c: 92:     printMenu();
  5360  03F9  3185  256A  3183   	fcall	i1_printMenu
  5361  03FC                     i1l403:
  5362  03FC  0008               	return
  5363  03FD                     __end_of_startFight:
  5364                           
  5365                           	psect	text26
  5366  05F5                     __ptext26:	
  5367 ;; *************** function _idleScreen *****************
  5368 ;; Defined at:
  5369 ;;		line 51 in file "functions.c"
  5370 ;; Parameters:    Size  Location     Type
  5371 ;;		None
  5372 ;; Auto vars:     Size  Location     Type
  5373 ;;		None
  5374 ;; Return value:  Size  Location     Type
  5375 ;;                  1    wreg      void 
  5376 ;; Registers used:
  5377 ;;		wreg, fsr0l, fsr0h, status,2, status,0, pclath, cstack
  5378 ;; Tracked objects:
  5379 ;;		On entry : 0/0
  5380 ;;		On exit  : 0/0
  5381 ;;		Unchanged: 0/0
  5382 ;; Data sizes:     COMMON   BANK0   BANK1   BANK2   BANK3   BANK4   BANK5   BANK6   BANK7   BANK8   BANK9  BANK10  BANK1
      +1  BANK12  BANK13  BANK14  BANK15  BANK16  BANK17  BANK18  BANK19  BANK20  BANK21  BANK22  BANK23  BANK24  BANK25
  5383 ;;      Params:         0       0       0       0       0       0       0       0       0       0       0       0       
      +0       0       0       0       0       0       0       0       0       0       0       0       0       0       0
  5384 ;;      Locals:         0       0       0       0       0       0       0       0       0       0       0       0       
      +0       0       0       0       0       0       0       0       0       0       0       0       0       0       0
  5385 ;;      Temps:          0       0       0       0       0       0       0       0       0       0       0       0       
      +0       0       0       0       0       0       0       0       0       0       0       0       0       0       0
  5386 ;;      Totals:         0       0       0       0       0       0       0       0       0       0       0       0       
      +0       0       0       0       0       0       0       0       0       0       0       0       0       0       0
  5387 ;;Total ram usage:        0 bytes
  5388 ;; Hardware stack levels used:    1
  5389 ;; Hardware stack levels required when called:    4
  5390 ;; This function calls:
  5391 ;;		_LCDClear
  5392 ;;		i1_LCDGoto
  5393 ;;		i1_LCDPutChar
  5394 ;; This function is called by:
  5395 ;;		_startFight
  5396 ;; This function uses a non-reentrant model
  5397 ;;
  5398                           
  5399                           
  5400                           ;psect for function _idleScreen
  5401  05F5                     _idleScreen:
  5402  05F5                     i1l1594:	
  5403                           ;incstack = 0
  5404                           ; Regs used in _idleScreen: [wreg-fsr0h+status,2+status,0+pclath+cstack]
  5405                           
  5406                           
  5407                           ;functions.c: 64:         LCDClear();
  5408  05F5  3185  25C1  3185   	fcall	_LCDClear
  5409  05F8                     i1l1596:
  5410                           
  5411                           ;functions.c: 65:         LCDGoto(0,0);
  5412  05F8  01F7               	clrf	i1LCDGoto@ln
  5413  05F9  3000               	movlw	0
  5414  05FA  3183  23FD  3185   	fcall	i1_LCDGoto
  5415  05FD                     i1l1598:
  5416                           
  5417                           ;functions.c: 66:         LCDPutChar(1);
  5418  05FD  3001               	movlw	1
  5419  05FE  3185  2588  3185   	fcall	i1_LCDPutChar
  5420  0601                     i1l1600:
  5421                           
  5422                           ;functions.c: 67:         LCDGoto(15,0);
  5423  0601  01F7               	clrf	i1LCDGoto@ln
  5424  0602  300F               	movlw	15
  5425  0603  3183  23FD  3185   	fcall	i1_LCDGoto
  5426  0606                     i1l1602:
  5427                           
  5428                           ;functions.c: 68:         LCDPutChar(0);
  5429  0606  3000               	movlw	0
  5430  0607  3185  2588  3185   	fcall	i1_LCDPutChar
  5431  060A                     i1l323:
  5432  060A  0008               	return
  5433  060B                     __end_of_idleScreen:
  5434                           
  5435                           	psect	text27
  5436  05C1                     __ptext27:	
  5437 ;; *************** function _LCDClear *****************
  5438 ;; Defined at:
  5439 ;;		line 159 in file "lcd.c"
  5440 ;; Parameters:    Size  Location     Type
  5441 ;;		None
  5442 ;; Auto vars:     Size  Location     Type
  5443 ;;		None
  5444 ;; Return value:  Size  Location     Type
  5445 ;;                  1    wreg      void 
  5446 ;; Registers used:
  5447 ;;		wreg, fsr0l, fsr0h, status,2, status,0, pclath, cstack
  5448 ;; Tracked objects:
  5449 ;;		On entry : 0/0
  5450 ;;		On exit  : 0/0
  5451 ;;		Unchanged: 0/0
  5452 ;; Data sizes:     COMMON   BANK0   BANK1   BANK2   BANK3   BANK4   BANK5   BANK6   BANK7   BANK8   BANK9  BANK10  BANK1
      +1  BANK12  BANK13  BANK14  BANK15  BANK16  BANK17  BANK18  BANK19  BANK20  BANK21  BANK22  BANK23  BANK24  BANK25
  5453 ;;      Params:         0       0       0       0       0       0       0       0       0       0       0       0       
      +0       0       0       0       0       0       0       0       0       0       0       0       0       0       0
  5454 ;;      Locals:         0       0       0       0       0       0       0       0       0       0       0       0       
      +0       0       0       0       0       0       0       0       0       0       0       0       0       0       0
  5455 ;;      Temps:          0       0       0       0       0       0       0       0       0       0       0       0       
      +0       0       0       0       0       0       0       0       0       0       0       0       0       0       0
  5456 ;;      Totals:         0       0       0       0       0       0       0       0       0       0       0       0       
      +0       0       0       0       0       0       0       0       0       0       0       0       0       0       0
  5457 ;;Total ram usage:        0 bytes
  5458 ;; Hardware stack levels used:    1
  5459 ;; Hardware stack levels required when called:    3
  5460 ;; This function calls:
  5461 ;;		i1_LCDGoto
  5462 ;;		i1_LCDPutStr
  5463 ;; This function is called by:
  5464 ;;		_idleScreen
  5465 ;; This function uses a non-reentrant model
  5466 ;;
  5467                           
  5468                           
  5469                           ;psect for function _LCDClear
  5470  05C1                     _LCDClear:
  5471  05C1                     i1l1524:	
  5472                           ;incstack = 0
  5473                           ; Regs used in _LCDClear: [wreg-fsr0h+status,2+status,0+pclath+cstack]
  5474                           
  5475                           
  5476                           ;lcd.c: 161:   LCDGoto(0, 0);
  5477  05C1  01F7               	clrf	i1LCDGoto@ln
  5478  05C2  3000               	movlw	0
  5479  05C3  3183  23FD  3185   	fcall	i1_LCDGoto
  5480  05C6                     i1l1526:
  5481                           
  5482                           ;lcd.c: 162:   LCDPutStr("                ");
  5483  05C6  301C               	movlw	low (STR_1| (0+32768))
  5484  05C7  00F7               	movwf	i1LCDPutStr@str
  5485  05C8  3086               	movlw	high (STR_1| (0+32768))
  5486  05C9  00F8               	movwf	i1LCDPutStr@str+1
  5487  05CA  3184  2424  3185   	fcall	i1_LCDPutStr
  5488  05CD                     i1l1528:
  5489                           
  5490                           ;lcd.c: 163:   LCDGoto(0, 1);
  5491  05CD  01F7               	clrf	i1LCDGoto@ln
  5492  05CE  0AF7               	incf	i1LCDGoto@ln,f
  5493  05CF  3000               	movlw	0
  5494  05D0  3183  23FD  3185   	fcall	i1_LCDGoto
  5495                           
  5496                           ;lcd.c: 164:   LCDPutStr("                ");
  5497  05D3  301C               	movlw	low (STR_1| (0+32768))
  5498  05D4  00F7               	movwf	i1LCDPutStr@str
  5499  05D5  3086               	movlw	high (STR_1| (0+32768))
  5500  05D6  00F8               	movwf	i1LCDPutStr@str+1
  5501  05D7  3184  2424  3185   	fcall	i1_LCDPutStr
  5502  05DA                     i1l303:
  5503  05DA  0008               	return
  5504  05DB                     __end_of_LCDClear:
  5505                           
  5506                           	psect	text28
  5507  06D5                     __ptext28:	
  5508 ;; *************** function _IOCAF5_DefaultInterruptHandler *****************
  5509 ;; Defined at:
  5510 ;;		line 473 in file "mcc_generated_files/pin_manager.c"
  5511 ;; Parameters:    Size  Location     Type
  5512 ;;		None
  5513 ;; Auto vars:     Size  Location     Type
  5514 ;;		None
  5515 ;; Return value:  Size  Location     Type
  5516 ;;                  1    wreg      void 
  5517 ;; Registers used:
  5518 ;;		None
  5519 ;; Tracked objects:
  5520 ;;		On entry : 0/0
  5521 ;;		On exit  : 0/0
  5522 ;;		Unchanged: 0/0
  5523 ;; Data sizes:     COMMON   BANK0   BANK1   BANK2   BANK3   BANK4   BANK5   BANK6   BANK7   BANK8   BANK9  BANK10  BANK1
      +1  BANK12  BANK13  BANK14  BANK15  BANK16  BANK17  BANK18  BANK19  BANK20  BANK21  BANK22  BANK23  BANK24  BANK25
  5524 ;;      Params:         0       0       0       0       0       0       0       0       0       0       0       0       
      +0       0       0       0       0       0       0       0       0       0       0       0       0       0       0
  5525 ;;      Locals:         0       0       0       0       0       0       0       0       0       0       0       0       
      +0       0       0       0       0       0       0       0       0       0       0       0       0       0       0
  5526 ;;      Temps:          0       0       0       0       0       0       0       0       0       0       0       0       
      +0       0       0       0       0       0       0       0       0       0       0       0       0       0       0
  5527 ;;      Totals:         0       0       0       0       0       0       0       0       0       0       0       0       
      +0       0       0       0       0       0       0       0       0       0       0       0       0       0       0
  5528 ;;Total ram usage:        0 bytes
  5529 ;; Hardware stack levels used:    1
  5530 ;; This function calls:
  5531 ;;		Nothing
  5532 ;; This function is called by:
  5533 ;;		_PIN_MANAGER_Initialize
  5534 ;;		_IOCAF5_ISR
  5535 ;; This function uses a non-reentrant model
  5536 ;;
  5537                           
  5538                           
  5539                           ;psect for function _IOCAF5_DefaultInterruptHandler
  5540  06D5                     _IOCAF5_DefaultInterruptHandler:
  5541  06D5                     i1l226:	
  5542                           ;incstack = 0
  5543                           ; Regs used in _IOCAF5_DefaultInterruptHandler: []
  5544                           
  5545  06D5  0008               	return
  5546  06D6                     __end_of_IOCAF5_DefaultInterruptHandler:
  5547                           
  5548                           	psect	text29
  5549  02DA                     __ptext29:	
  5550 ;; *************** function _IOCAF4_ISR *****************
  5551 ;; Defined at:
  5552 ;;		line 393 in file "mcc_generated_files/pin_manager.c"
  5553 ;; Parameters:    Size  Location     Type
  5554 ;;		None
  5555 ;; Auto vars:     Size  Location     Type
  5556 ;;		None
  5557 ;; Return value:  Size  Location     Type
  5558 ;;                  1    wreg      void 
  5559 ;; Registers used:
  5560 ;;		wreg, fsr0l, fsr0h, status,2, status,0, pclath, cstack
  5561 ;; Tracked objects:
  5562 ;;		On entry : 0/0
  5563 ;;		On exit  : 0/0
  5564 ;;		Unchanged: 0/0
  5565 ;; Data sizes:     COMMON   BANK0   BANK1   BANK2   BANK3   BANK4   BANK5   BANK6   BANK7   BANK8   BANK9  BANK10  BANK1
      +1  BANK12  BANK13  BANK14  BANK15  BANK16  BANK17  BANK18  BANK19  BANK20  BANK21  BANK22  BANK23  BANK24  BANK25
  5566 ;;      Params:         0       0       0       0       0       0       0       0       0       0       0       0       
      +0       0       0       0       0       0       0       0       0       0       0       0       0       0       0
  5567 ;;      Locals:         0       0       0       0       0       0       0       0       0       0       0       0       
      +0       0       0       0       0       0       0       0       0       0       0       0       0       0       0
  5568 ;;      Temps:          0       2       0       0       0       0       0       0       0       0       0       0       
      +0       0       0       0       0       0       0       0       0       0       0       0       0       0       0
  5569 ;;      Totals:         0       2       0       0       0       0       0       0       0       0       0       0       
      +0       0       0       0       0       0       0       0       0       0       0       0       0       0       0
  5570 ;;Total ram usage:        2 bytes
  5571 ;; Hardware stack levels used:    1
  5572 ;; Hardware stack levels required when called:    5
  5573 ;; This function calls:
  5574 ;;		Absolute function
  5575 ;;		_IOCAF4_DefaultInterruptHandler
  5576 ;;		i1_printMenu
  5577 ;; This function is called by:
  5578 ;;		_PIN_MANAGER_IOC
  5579 ;; This function uses a non-reentrant model
  5580 ;;
  5581                           
  5582                           
  5583                           ;psect for function _IOCAF4_ISR
  5584  02DA                     _IOCAF4_ISR:
  5585  02DA                     i1l2478:	
  5586                           ;incstack = 0
  5587                           ; Regs used in _IOCAF4_ISR: [wreg-fsr0h+status,2+status,0+pclath+cstack]
  5588                           
  5589                           
  5590                           ;mcc_generated_files/pin_manager.c: 398:     if(IOCAF4_InterruptHandler)
  5591  02DA  0020               	movlb	0	; select bank0
  5592  02DB  0849               	movf	_IOCAF4_InterruptHandler,w
  5593  02DC  044A               	iorwf	_IOCAF4_InterruptHandler+1,w
  5594  02DD  1903               	btfsc	3,2
  5595  02DE  2AE0               	goto	u99_21
  5596  02DF  2AE1               	goto	u99_20
  5597  02E0                     u99_21:
  5598  02E0  2AE6               	goto	i1l2482
  5599  02E1                     u99_20:
  5600  02E1                     i1l2480:
  5601                           
  5602                           ;mcc_generated_files/pin_manager.c: 399:     {;mcc_generated_files/pin_manager.c: 400:  
      +                                 IOCAF4_InterruptHandler();
  5603  02E1  084A               	movf	_IOCAF4_InterruptHandler+1,w
  5604  02E2  008A               	movwf	10
  5605  02E3  0849               	movf	_IOCAF4_InterruptHandler,w
  5606  02E4  000A               	callw
  5607  02E5  3182               	pagesel	$
  5608  02E6                     i1l2482:
  5609                           
  5610                           ;mcc_generated_files/pin_manager.c: 402:      if (inGame){
  5611  02E6  0020               	movlb	0	; select bank0
  5612  02E7  0855               	movf	_inGame,w
  5613  02E8  1903               	btfsc	3,2
  5614  02E9  2AEB               	goto	u100_21
  5615  02EA  2AEC               	goto	u100_20
  5616  02EB                     u100_21:
  5617  02EB  2AF5               	goto	i1l2492
  5618  02EC                     u100_20:
  5619  02EC  2B02               	goto	i1l198
  5620  02ED                     i1l2486:
  5621                           
  5622                           ;mcc_generated_files/pin_manager.c: 407:             mainState = 3;
  5623  02ED  3003               	movlw	3
  5624  02EE  00A2               	movwf	??_IOCAF4_ISR
  5625  02EF  0822               	movf	??_IOCAF4_ISR,w
  5626  02F0  00D4               	movwf	_mainState
  5627  02F1                     i1l2488:
  5628                           
  5629                           ;mcc_generated_files/pin_manager.c: 408:             printMenu();
  5630  02F1  3185  256A  3182   	fcall	i1_printMenu
  5631                           
  5632                           ;mcc_generated_files/pin_manager.c: 409:         break;
  5633  02F4  2B02               	goto	i1l198
  5634  02F5                     i1l2492:
  5635  02F5  0854               	movf	_mainState,w
  5636  02F6  00A2               	movwf	??_IOCAF4_ISR
  5637  02F7  01A3               	clrf	??_IOCAF4_ISR+1
  5638                           
  5639                           ; Switch on 2 bytes has been partitioned into a top level switch of size 1, and 1 sub-sw
      +                          itches
  5640                           ; Switch size 1, requested type "simple"
  5641                           ; Number of cases is 1, Range of values is 0 to 0
  5642                           ; switch strategies available:
  5643                           ; Name         Instructions Cycles
  5644                           ; simple_byte            4     3 (average)
  5645                           ; direct_byte            8     6 (fixed)
  5646                           ; jumptable            260     6 (fixed)
  5647                           ;	Chosen strategy is simple_byte
  5648  02F8  0823               	movf	??_IOCAF4_ISR+1,w
  5649  02F9  3A00               	xorlw	0	; case 0
  5650  02FA  1903               	skipnz
  5651  02FB  2AFD               	goto	i1l2862
  5652  02FC  2B02               	goto	i1l198
  5653  02FD                     i1l2862:
  5654                           
  5655                           ; Switch size 1, requested type "simple"
  5656                           ; Number of cases is 1, Range of values is 2 to 2
  5657                           ; switch strategies available:
  5658                           ; Name         Instructions Cycles
  5659                           ; simple_byte            4     3 (average)
  5660                           ; direct_byte           11     9 (fixed)
  5661                           ; jumptable            263     9 (fixed)
  5662                           ;	Chosen strategy is simple_byte
  5663  02FD  0822               	movf	??_IOCAF4_ISR,w
  5664  02FE  3A02               	xorlw	2	; case 2
  5665  02FF  1903               	skipnz
  5666  0300  2AED               	goto	i1l2486
  5667  0301  2B02               	goto	i1l198
  5668  0302                     i1l198:	
  5669                           ;mcc_generated_files/pin_manager.c: 413:     }
  5670                           
  5671                           
  5672                           ;mcc_generated_files/pin_manager.c: 414:     IOCAFbits.IOCAF4 = 0;
  5673  0302  0027               	movlb	7	; select bank7
  5674  0303  1213               	bcf	19,4	;volatile
  5675  0304                     i1l203:
  5676  0304  0008               	return
  5677  0305                     __end_of_IOCAF4_ISR:
  5678                           
  5679                           	psect	text30
  5680  06D6                     __ptext30:	
  5681 ;; *************** function _IOCAF4_DefaultInterruptHandler *****************
  5682 ;; Defined at:
  5683 ;;		line 427 in file "mcc_generated_files/pin_manager.c"
  5684 ;; Parameters:    Size  Location     Type
  5685 ;;		None
  5686 ;; Auto vars:     Size  Location     Type
  5687 ;;		None
  5688 ;; Return value:  Size  Location     Type
  5689 ;;                  1    wreg      void 
  5690 ;; Registers used:
  5691 ;;		None
  5692 ;; Tracked objects:
  5693 ;;		On entry : 0/0
  5694 ;;		On exit  : 0/0
  5695 ;;		Unchanged: 0/0
  5696 ;; Data sizes:     COMMON   BANK0   BANK1   BANK2   BANK3   BANK4   BANK5   BANK6   BANK7   BANK8   BANK9  BANK10  BANK1
      +1  BANK12  BANK13  BANK14  BANK15  BANK16  BANK17  BANK18  BANK19  BANK20  BANK21  BANK22  BANK23  BANK24  BANK25
  5697 ;;      Params:         0       0       0       0       0       0       0       0       0       0       0       0       
      +0       0       0       0       0       0       0       0       0       0       0       0       0       0       0
  5698 ;;      Locals:         0       0       0       0       0       0       0       0       0       0       0       0       
      +0       0       0       0       0       0       0       0       0       0       0       0       0       0       0
  5699 ;;      Temps:          0       0       0       0       0       0       0       0       0       0       0       0       
      +0       0       0       0       0       0       0       0       0       0       0       0       0       0       0
  5700 ;;      Totals:         0       0       0       0       0       0       0       0       0       0       0       0       
      +0       0       0       0       0       0       0       0       0       0       0       0       0       0       0
  5701 ;;Total ram usage:        0 bytes
  5702 ;; Hardware stack levels used:    1
  5703 ;; This function calls:
  5704 ;;		Nothing
  5705 ;; This function is called by:
  5706 ;;		_PIN_MANAGER_Initialize
  5707 ;;		_IOCAF4_ISR
  5708 ;; This function uses a non-reentrant model
  5709 ;;
  5710                           
  5711                           
  5712                           ;psect for function _IOCAF4_DefaultInterruptHandler
  5713  06D6                     _IOCAF4_DefaultInterruptHandler:
  5714  06D6                     i1l209:	
  5715                           ;incstack = 0
  5716                           ; Regs used in _IOCAF4_DefaultInterruptHandler: []
  5717                           
  5718  06D6  0008               	return
  5719  06D7                     __end_of_IOCAF4_DefaultInterruptHandler:
  5720                           
  5721                           	psect	text31
  5722  0305                     __ptext31:	
  5723 ;; *************** function _IOCAF3_ISR *****************
  5724 ;; Defined at:
  5725 ;;		line 351 in file "mcc_generated_files/pin_manager.c"
  5726 ;; Parameters:    Size  Location     Type
  5727 ;;		None
  5728 ;; Auto vars:     Size  Location     Type
  5729 ;;		None
  5730 ;; Return value:  Size  Location     Type
  5731 ;;                  1    wreg      void 
  5732 ;; Registers used:
  5733 ;;		wreg, fsr0l, fsr0h, status,2, status,0, pclath, cstack
  5734 ;; Tracked objects:
  5735 ;;		On entry : 0/0
  5736 ;;		On exit  : 0/0
  5737 ;;		Unchanged: 0/0
  5738 ;; Data sizes:     COMMON   BANK0   BANK1   BANK2   BANK3   BANK4   BANK5   BANK6   BANK7   BANK8   BANK9  BANK10  BANK1
      +1  BANK12  BANK13  BANK14  BANK15  BANK16  BANK17  BANK18  BANK19  BANK20  BANK21  BANK22  BANK23  BANK24  BANK25
  5739 ;;      Params:         0       0       0       0       0       0       0       0       0       0       0       0       
      +0       0       0       0       0       0       0       0       0       0       0       0       0       0       0
  5740 ;;      Locals:         0       0       0       0       0       0       0       0       0       0       0       0       
      +0       0       0       0       0       0       0       0       0       0       0       0       0       0       0
  5741 ;;      Temps:          0       2       0       0       0       0       0       0       0       0       0       0       
      +0       0       0       0       0       0       0       0       0       0       0       0       0       0       0
  5742 ;;      Totals:         0       2       0       0       0       0       0       0       0       0       0       0       
      +0       0       0       0       0       0       0       0       0       0       0       0       0       0       0
  5743 ;;Total ram usage:        2 bytes
  5744 ;; Hardware stack levels used:    1
  5745 ;; Hardware stack levels required when called:    5
  5746 ;; This function calls:
  5747 ;;		Absolute function
  5748 ;;		_IOCAF3_DefaultInterruptHandler
  5749 ;;		i1_printMenu
  5750 ;; This function is called by:
  5751 ;;		_PIN_MANAGER_IOC
  5752 ;; This function uses a non-reentrant model
  5753 ;;
  5754                           
  5755                           
  5756                           ;psect for function _IOCAF3_ISR
  5757  0305                     _IOCAF3_ISR:
  5758  0305                     i1l2458:	
  5759                           ;incstack = 0
  5760                           ; Regs used in _IOCAF3_ISR: [wreg-fsr0h+status,2+status,0+pclath+cstack]
  5761                           
  5762                           
  5763                           ;mcc_generated_files/pin_manager.c: 356:     if(IOCAF3_InterruptHandler)
  5764  0305  0020               	movlb	0	; select bank0
  5765  0306  084B               	movf	_IOCAF3_InterruptHandler,w
  5766  0307  044C               	iorwf	_IOCAF3_InterruptHandler+1,w
  5767  0308  1903               	btfsc	3,2
  5768  0309  2B0B               	goto	u97_21
  5769  030A  2B0C               	goto	u97_20
  5770  030B                     u97_21:
  5771  030B  2B11               	goto	i1l2462
  5772  030C                     u97_20:
  5773  030C                     i1l2460:
  5774                           
  5775                           ;mcc_generated_files/pin_manager.c: 357:     {;mcc_generated_files/pin_manager.c: 358:  
      +                                 IOCAF3_InterruptHandler();
  5776  030C  084C               	movf	_IOCAF3_InterruptHandler+1,w
  5777  030D  008A               	movwf	10
  5778  030E  084B               	movf	_IOCAF3_InterruptHandler,w
  5779  030F  000A               	callw
  5780  0310  3183               	pagesel	$
  5781  0311                     i1l2462:
  5782                           
  5783                           ;mcc_generated_files/pin_manager.c: 360:      if (inGame){
  5784  0311  0020               	movlb	0	; select bank0
  5785  0312  0855               	movf	_inGame,w
  5786  0313  1903               	btfsc	3,2
  5787  0314  2B16               	goto	u98_21
  5788  0315  2B17               	goto	u98_20
  5789  0316                     u98_21:
  5790  0316  2B20               	goto	i1l2472
  5791  0317                     u98_20:
  5792  0317  2B2D               	goto	i1l182
  5793  0318                     i1l2466:
  5794                           
  5795                           ;mcc_generated_files/pin_manager.c: 365:             mainState = 2;
  5796  0318  3002               	movlw	2
  5797  0319  00A2               	movwf	??_IOCAF3_ISR
  5798  031A  0822               	movf	??_IOCAF3_ISR,w
  5799  031B  00D4               	movwf	_mainState
  5800  031C                     i1l2468:
  5801                           
  5802                           ;mcc_generated_files/pin_manager.c: 366:             printMenu();
  5803  031C  3185  256A  3183   	fcall	i1_printMenu
  5804                           
  5805                           ;mcc_generated_files/pin_manager.c: 367:         break;
  5806  031F  2B2D               	goto	i1l182
  5807  0320                     i1l2472:
  5808  0320  0854               	movf	_mainState,w
  5809  0321  00A2               	movwf	??_IOCAF3_ISR
  5810  0322  01A3               	clrf	??_IOCAF3_ISR+1
  5811                           
  5812                           ; Switch on 2 bytes has been partitioned into a top level switch of size 1, and 1 sub-sw
      +                          itches
  5813                           ; Switch size 1, requested type "simple"
  5814                           ; Number of cases is 1, Range of values is 0 to 0
  5815                           ; switch strategies available:
  5816                           ; Name         Instructions Cycles
  5817                           ; simple_byte            4     3 (average)
  5818                           ; direct_byte            8     6 (fixed)
  5819                           ; jumptable            260     6 (fixed)
  5820                           ;	Chosen strategy is simple_byte
  5821  0323  0823               	movf	??_IOCAF3_ISR+1,w
  5822  0324  3A00               	xorlw	0	; case 0
  5823  0325  1903               	skipnz
  5824  0326  2B28               	goto	i1l2864
  5825  0327  2B2D               	goto	i1l182
  5826  0328                     i1l2864:
  5827                           
  5828                           ; Switch size 1, requested type "simple"
  5829                           ; Number of cases is 1, Range of values is 3 to 3
  5830                           ; switch strategies available:
  5831                           ; Name         Instructions Cycles
  5832                           ; simple_byte            4     3 (average)
  5833                           ; direct_byte           11     9 (fixed)
  5834                           ; jumptable            263     9 (fixed)
  5835                           ;	Chosen strategy is simple_byte
  5836  0328  0822               	movf	??_IOCAF3_ISR,w
  5837  0329  3A03               	xorlw	3	; case 3
  5838  032A  1903               	skipnz
  5839  032B  2B18               	goto	i1l2466
  5840  032C  2B2D               	goto	i1l182
  5841  032D                     i1l182:	
  5842                           ;mcc_generated_files/pin_manager.c: 371:     }
  5843                           
  5844                           
  5845                           ;mcc_generated_files/pin_manager.c: 372:     IOCAFbits.IOCAF3 = 0;
  5846  032D  0027               	movlb	7	; select bank7
  5847  032E  1193               	bcf	19,3	;volatile
  5848  032F                     i1l187:
  5849  032F  0008               	return
  5850  0330                     __end_of_IOCAF3_ISR:
  5851                           
  5852                           	psect	text32
  5853  06D7                     __ptext32:	
  5854 ;; *************** function _IOCAF3_DefaultInterruptHandler *****************
  5855 ;; Defined at:
  5856 ;;		line 385 in file "mcc_generated_files/pin_manager.c"
  5857 ;; Parameters:    Size  Location     Type
  5858 ;;		None
  5859 ;; Auto vars:     Size  Location     Type
  5860 ;;		None
  5861 ;; Return value:  Size  Location     Type
  5862 ;;                  1    wreg      void 
  5863 ;; Registers used:
  5864 ;;		None
  5865 ;; Tracked objects:
  5866 ;;		On entry : 0/0
  5867 ;;		On exit  : 0/0
  5868 ;;		Unchanged: 0/0
  5869 ;; Data sizes:     COMMON   BANK0   BANK1   BANK2   BANK3   BANK4   BANK5   BANK6   BANK7   BANK8   BANK9  BANK10  BANK1
      +1  BANK12  BANK13  BANK14  BANK15  BANK16  BANK17  BANK18  BANK19  BANK20  BANK21  BANK22  BANK23  BANK24  BANK25
  5870 ;;      Params:         0       0       0       0       0       0       0       0       0       0       0       0       
      +0       0       0       0       0       0       0       0       0       0       0       0       0       0       0
  5871 ;;      Locals:         0       0       0       0       0       0       0       0       0       0       0       0       
      +0       0       0       0       0       0       0       0       0       0       0       0       0       0       0
  5872 ;;      Temps:          0       0       0       0       0       0       0       0       0       0       0       0       
      +0       0       0       0       0       0       0       0       0       0       0       0       0       0       0
  5873 ;;      Totals:         0       0       0       0       0       0       0       0       0       0       0       0       
      +0       0       0       0       0       0       0       0       0       0       0       0       0       0       0
  5874 ;;Total ram usage:        0 bytes
  5875 ;; Hardware stack levels used:    1
  5876 ;; This function calls:
  5877 ;;		Nothing
  5878 ;; This function is called by:
  5879 ;;		_PIN_MANAGER_Initialize
  5880 ;;		_IOCAF3_ISR
  5881 ;; This function uses a non-reentrant model
  5882 ;;
  5883                           
  5884                           
  5885                           ;psect for function _IOCAF3_DefaultInterruptHandler
  5886  06D7                     _IOCAF3_DefaultInterruptHandler:
  5887  06D7                     i1l193:	
  5888                           ;incstack = 0
  5889                           ; Regs used in _IOCAF3_DefaultInterruptHandler: []
  5890                           
  5891  06D7  0008               	return
  5892  06D8                     __end_of_IOCAF3_DefaultInterruptHandler:
  5893                           
  5894                           	psect	text33
  5895  0280                     __ptext33:	
  5896 ;; *************** function _IOCAF2_ISR *****************
  5897 ;; Defined at:
  5898 ;;		line 303 in file "mcc_generated_files/pin_manager.c"
  5899 ;; Parameters:    Size  Location     Type
  5900 ;;		None
  5901 ;; Auto vars:     Size  Location     Type
  5902 ;;		None
  5903 ;; Return value:  Size  Location     Type
  5904 ;;                  1    wreg      void 
  5905 ;; Registers used:
  5906 ;;		wreg, fsr0l, fsr0h, status,2, status,0, pclath, cstack
  5907 ;; Tracked objects:
  5908 ;;		On entry : 0/0
  5909 ;;		On exit  : 0/0
  5910 ;;		Unchanged: 0/0
  5911 ;; Data sizes:     COMMON   BANK0   BANK1   BANK2   BANK3   BANK4   BANK5   BANK6   BANK7   BANK8   BANK9  BANK10  BANK1
      +1  BANK12  BANK13  BANK14  BANK15  BANK16  BANK17  BANK18  BANK19  BANK20  BANK21  BANK22  BANK23  BANK24  BANK25
  5912 ;;      Params:         0       0       0       0       0       0       0       0       0       0       0       0       
      +0       0       0       0       0       0       0       0       0       0       0       0       0       0       0
  5913 ;;      Locals:         0       0       0       0       0       0       0       0       0       0       0       0       
      +0       0       0       0       0       0       0       0       0       0       0       0       0       0       0
  5914 ;;      Temps:          0       2       0       0       0       0       0       0       0       0       0       0       
      +0       0       0       0       0       0       0       0       0       0       0       0       0       0       0
  5915 ;;      Totals:         0       2       0       0       0       0       0       0       0       0       0       0       
      +0       0       0       0       0       0       0       0       0       0       0       0       0       0       0
  5916 ;;Total ram usage:        2 bytes
  5917 ;; Hardware stack levels used:    1
  5918 ;; Hardware stack levels required when called:    5
  5919 ;; This function calls:
  5920 ;;		Absolute function
  5921 ;;		_IOCAF2_DefaultInterruptHandler
  5922 ;;		i1_printMenu
  5923 ;; This function is called by:
  5924 ;;		_PIN_MANAGER_IOC
  5925 ;; This function uses a non-reentrant model
  5926 ;;
  5927                           
  5928                           
  5929                           ;psect for function _IOCAF2_ISR
  5930  0280                     _IOCAF2_ISR:
  5931  0280                     i1l2434:	
  5932                           ;incstack = 0
  5933                           ; Regs used in _IOCAF2_ISR: [wreg-fsr0h+status,2+status,0+pclath+cstack]
  5934                           
  5935                           
  5936                           ;mcc_generated_files/pin_manager.c: 308:     if(IOCAF2_InterruptHandler)
  5937  0280  0020               	movlb	0	; select bank0
  5938  0281  084D               	movf	_IOCAF2_InterruptHandler,w
  5939  0282  044E               	iorwf	_IOCAF2_InterruptHandler+1,w
  5940  0283  1903               	btfsc	3,2
  5941  0284  2A86               	goto	u95_21
  5942  0285  2A87               	goto	u95_20
  5943  0286                     u95_21:
  5944  0286  2A8C               	goto	i1l2438
  5945  0287                     u95_20:
  5946  0287                     i1l2436:
  5947                           
  5948                           ;mcc_generated_files/pin_manager.c: 309:     {;mcc_generated_files/pin_manager.c: 310:  
      +                                 IOCAF2_InterruptHandler();
  5949  0287  084E               	movf	_IOCAF2_InterruptHandler+1,w
  5950  0288  008A               	movwf	10
  5951  0289  084D               	movf	_IOCAF2_InterruptHandler,w
  5952  028A  000A               	callw
  5953  028B  3182               	pagesel	$
  5954  028C                     i1l2438:
  5955                           
  5956                           ;mcc_generated_files/pin_manager.c: 312:     if (inGame){
  5957  028C  0020               	movlb	0	; select bank0
  5958  028D  0855               	movf	_inGame,w
  5959  028E  1903               	btfsc	3,2
  5960  028F  2A91               	goto	u96_21
  5961  0290  2A92               	goto	u96_20
  5962  0291                     u96_21:
  5963  0291  2A9B               	goto	i1l2452
  5964  0292                     u96_20:
  5965  0292  2AAB               	goto	i1l165
  5966  0293                     i1l2442:
  5967                           
  5968                           ;mcc_generated_files/pin_manager.c: 318:             mainState = 2;
  5969  0293  3002               	movlw	2
  5970  0294  00A2               	movwf	??_IOCAF2_ISR
  5971  0295  0822               	movf	??_IOCAF2_ISR,w
  5972  0296  00D4               	movwf	_mainState
  5973  0297                     i1l2444:
  5974                           
  5975                           ;mcc_generated_files/pin_manager.c: 319:             printMenu();
  5976  0297  3185  256A  3182   	fcall	i1_printMenu
  5977                           
  5978                           ;mcc_generated_files/pin_manager.c: 320:         break;
  5979  029A  2AAB               	goto	i1l165
  5980  029B                     i1l2452:
  5981  029B  0854               	movf	_mainState,w
  5982  029C  00A2               	movwf	??_IOCAF2_ISR
  5983  029D  01A3               	clrf	??_IOCAF2_ISR+1
  5984                           
  5985                           ; Switch on 2 bytes has been partitioned into a top level switch of size 1, and 1 sub-sw
      +                          itches
  5986                           ; Switch size 1, requested type "simple"
  5987                           ; Number of cases is 1, Range of values is 0 to 0
  5988                           ; switch strategies available:
  5989                           ; Name         Instructions Cycles
  5990                           ; simple_byte            4     3 (average)
  5991                           ; direct_byte            8     6 (fixed)
  5992                           ; jumptable            260     6 (fixed)
  5993                           ;	Chosen strategy is simple_byte
  5994  029E  0823               	movf	??_IOCAF2_ISR+1,w
  5995  029F  3A00               	xorlw	0	; case 0
  5996  02A0  1903               	skipnz
  5997  02A1  2AA3               	goto	i1l2866
  5998  02A2  2AAB               	goto	i1l165
  5999  02A3                     i1l2866:
  6000                           
  6001                           ; Switch size 1, requested type "simple"
  6002                           ; Number of cases is 2, Range of values is 0 to 1
  6003                           ; switch strategies available:
  6004                           ; Name         Instructions Cycles
  6005                           ; simple_byte            7     4 (average)
  6006                           ; direct_byte           10     6 (fixed)
  6007                           ; jumptable            260     6 (fixed)
  6008                           ;	Chosen strategy is simple_byte
  6009  02A3  0822               	movf	??_IOCAF2_ISR,w
  6010  02A4  3A00               	xorlw	0	; case 0
  6011  02A5  1903               	skipnz
  6012  02A6  2A93               	goto	i1l2442
  6013  02A7  3A01               	xorlw	1	; case 1
  6014  02A8  1903               	skipnz
  6015  02A9  2A93               	goto	i1l2442
  6016  02AA  2AAB               	goto	i1l165
  6017  02AB                     i1l165:	
  6018                           ;mcc_generated_files/pin_manager.c: 329:     }
  6019                           
  6020                           
  6021                           ;mcc_generated_files/pin_manager.c: 330:     IOCAFbits.IOCAF2 = 0;
  6022  02AB  0027               	movlb	7	; select bank7
  6023  02AC  1113               	bcf	19,2	;volatile
  6024  02AD                     i1l171:
  6025  02AD  0008               	return
  6026  02AE                     __end_of_IOCAF2_ISR:
  6027                           
  6028                           	psect	text34
  6029  06D8                     __ptext34:	
  6030 ;; *************** function _IOCAF2_DefaultInterruptHandler *****************
  6031 ;; Defined at:
  6032 ;;		line 343 in file "mcc_generated_files/pin_manager.c"
  6033 ;; Parameters:    Size  Location     Type
  6034 ;;		None
  6035 ;; Auto vars:     Size  Location     Type
  6036 ;;		None
  6037 ;; Return value:  Size  Location     Type
  6038 ;;                  1    wreg      void 
  6039 ;; Registers used:
  6040 ;;		None
  6041 ;; Tracked objects:
  6042 ;;		On entry : 0/0
  6043 ;;		On exit  : 0/0
  6044 ;;		Unchanged: 0/0
  6045 ;; Data sizes:     COMMON   BANK0   BANK1   BANK2   BANK3   BANK4   BANK5   BANK6   BANK7   BANK8   BANK9  BANK10  BANK1
      +1  BANK12  BANK13  BANK14  BANK15  BANK16  BANK17  BANK18  BANK19  BANK20  BANK21  BANK22  BANK23  BANK24  BANK25
  6046 ;;      Params:         0       0       0       0       0       0       0       0       0       0       0       0       
      +0       0       0       0       0       0       0       0       0       0       0       0       0       0       0
  6047 ;;      Locals:         0       0       0       0       0       0       0       0       0       0       0       0       
      +0       0       0       0       0       0       0       0       0       0       0       0       0       0       0
  6048 ;;      Temps:          0       0       0       0       0       0       0       0       0       0       0       0       
      +0       0       0       0       0       0       0       0       0       0       0       0       0       0       0
  6049 ;;      Totals:         0       0       0       0       0       0       0       0       0       0       0       0       
      +0       0       0       0       0       0       0       0       0       0       0       0       0       0       0
  6050 ;;Total ram usage:        0 bytes
  6051 ;; Hardware stack levels used:    1
  6052 ;; This function calls:
  6053 ;;		Nothing
  6054 ;; This function is called by:
  6055 ;;		_PIN_MANAGER_Initialize
  6056 ;;		_IOCAF2_ISR
  6057 ;; This function uses a non-reentrant model
  6058 ;;
  6059                           
  6060                           
  6061                           ;psect for function _IOCAF2_DefaultInterruptHandler
  6062  06D8                     _IOCAF2_DefaultInterruptHandler:
  6063  06D8                     i1l177:	
  6064                           ;incstack = 0
  6065                           ; Regs used in _IOCAF2_DefaultInterruptHandler: []
  6066                           
  6067  06D8  0008               	return
  6068  06D9                     __end_of_IOCAF2_DefaultInterruptHandler:
  6069                           
  6070                           	psect	text35
  6071  02AE                     __ptext35:	
  6072 ;; *************** function _IOCAF1_ISR *****************
  6073 ;; Defined at:
  6074 ;;		line 258 in file "mcc_generated_files/pin_manager.c"
  6075 ;; Parameters:    Size  Location     Type
  6076 ;;		None
  6077 ;; Auto vars:     Size  Location     Type
  6078 ;;		None
  6079 ;; Return value:  Size  Location     Type
  6080 ;;                  1    wreg      void 
  6081 ;; Registers used:
  6082 ;;		wreg, fsr0l, fsr0h, status,2, status,0, pclath, cstack
  6083 ;; Tracked objects:
  6084 ;;		On entry : 0/0
  6085 ;;		On exit  : 0/0
  6086 ;;		Unchanged: 0/0
  6087 ;; Data sizes:     COMMON   BANK0   BANK1   BANK2   BANK3   BANK4   BANK5   BANK6   BANK7   BANK8   BANK9  BANK10  BANK1
      +1  BANK12  BANK13  BANK14  BANK15  BANK16  BANK17  BANK18  BANK19  BANK20  BANK21  BANK22  BANK23  BANK24  BANK25
  6088 ;;      Params:         0       0       0       0       0       0       0       0       0       0       0       0       
      +0       0       0       0       0       0       0       0       0       0       0       0       0       0       0
  6089 ;;      Locals:         0       0       0       0       0       0       0       0       0       0       0       0       
      +0       0       0       0       0       0       0       0       0       0       0       0       0       0       0
  6090 ;;      Temps:          0       2       0       0       0       0       0       0       0       0       0       0       
      +0       0       0       0       0       0       0       0       0       0       0       0       0       0       0
  6091 ;;      Totals:         0       2       0       0       0       0       0       0       0       0       0       0       
      +0       0       0       0       0       0       0       0       0       0       0       0       0       0       0
  6092 ;;Total ram usage:        2 bytes
  6093 ;; Hardware stack levels used:    1
  6094 ;; Hardware stack levels required when called:    5
  6095 ;; This function calls:
  6096 ;;		Absolute function
  6097 ;;		_IOCAF1_DefaultInterruptHandler
  6098 ;;		i1_printMenu
  6099 ;; This function is called by:
  6100 ;;		_PIN_MANAGER_IOC
  6101 ;; This function uses a non-reentrant model
  6102 ;;
  6103                           
  6104                           
  6105                           ;psect for function _IOCAF1_ISR
  6106  02AE                     _IOCAF1_ISR:
  6107  02AE                     i1l2416:	
  6108                           ;incstack = 0
  6109                           ; Regs used in _IOCAF1_ISR: [wreg-fsr0h+status,2+status,0+pclath+cstack]
  6110                           
  6111                           
  6112                           ;mcc_generated_files/pin_manager.c: 263:     if(IOCAF1_InterruptHandler)
  6113  02AE  0020               	movlb	0	; select bank0
  6114  02AF  084F               	movf	_IOCAF1_InterruptHandler,w
  6115  02B0  0450               	iorwf	_IOCAF1_InterruptHandler+1,w
  6116  02B1  1903               	btfsc	3,2
  6117  02B2  2AB4               	goto	u93_21
  6118  02B3  2AB5               	goto	u93_20
  6119  02B4                     u93_21:
  6120  02B4  2ABA               	goto	i1l2420
  6121  02B5                     u93_20:
  6122  02B5                     i1l2418:
  6123                           
  6124                           ;mcc_generated_files/pin_manager.c: 264:     {;mcc_generated_files/pin_manager.c: 265:  
      +                                 IOCAF1_InterruptHandler();
  6125  02B5  0850               	movf	_IOCAF1_InterruptHandler+1,w
  6126  02B6  008A               	movwf	10
  6127  02B7  084F               	movf	_IOCAF1_InterruptHandler,w
  6128  02B8  000A               	callw
  6129  02B9  3182               	pagesel	$
  6130  02BA                     i1l2420:
  6131                           
  6132                           ;mcc_generated_files/pin_manager.c: 268:     if (inGame){
  6133  02BA  0020               	movlb	0	; select bank0
  6134  02BB  0855               	movf	_inGame,w
  6135  02BC  1903               	btfsc	3,2
  6136  02BD  2ABF               	goto	u94_21
  6137  02BE  2AC0               	goto	u94_20
  6138  02BF                     u94_21:
  6139  02BF  2AC7               	goto	i1l2428
  6140  02C0                     u94_20:
  6141  02C0  2AD7               	goto	i1l148
  6142  02C1                     i1l150:	
  6143                           ;mcc_generated_files/pin_manager.c: 272:         case 0:
  6144                           
  6145                           
  6146                           ;mcc_generated_files/pin_manager.c: 273:             mainState = 1;
  6147  02C1  01D4               	clrf	_mainState
  6148  02C2  0AD4               	incf	_mainState,f
  6149  02C3                     i1l2424:
  6150                           
  6151                           ;mcc_generated_files/pin_manager.c: 274:             printMenu();
  6152  02C3  3185  256A  3182   	fcall	i1_printMenu
  6153                           
  6154                           ;mcc_generated_files/pin_manager.c: 275:         break;
  6155  02C6  2AD7               	goto	i1l148
  6156  02C7                     i1l2428:
  6157  02C7  0854               	movf	_mainState,w
  6158  02C8  00A2               	movwf	??_IOCAF1_ISR
  6159  02C9  01A3               	clrf	??_IOCAF1_ISR+1
  6160                           
  6161                           ; Switch on 2 bytes has been partitioned into a top level switch of size 1, and 1 sub-sw
      +                          itches
  6162                           ; Switch size 1, requested type "simple"
  6163                           ; Number of cases is 1, Range of values is 0 to 0
  6164                           ; switch strategies available:
  6165                           ; Name         Instructions Cycles
  6166                           ; simple_byte            4     3 (average)
  6167                           ; direct_byte            8     6 (fixed)
  6168                           ; jumptable            260     6 (fixed)
  6169                           ;	Chosen strategy is simple_byte
  6170  02CA  0823               	movf	??_IOCAF1_ISR+1,w
  6171  02CB  3A00               	xorlw	0	; case 0
  6172  02CC  1903               	skipnz
  6173  02CD  2ACF               	goto	i1l2868
  6174  02CE  2AD7               	goto	i1l148
  6175  02CF                     i1l2868:
  6176                           
  6177                           ; Switch size 1, requested type "simple"
  6178                           ; Number of cases is 2, Range of values is 0 to 1
  6179                           ; switch strategies available:
  6180                           ; Name         Instructions Cycles
  6181                           ; simple_byte            7     4 (average)
  6182                           ; direct_byte           10     6 (fixed)
  6183                           ; jumptable            260     6 (fixed)
  6184                           ;	Chosen strategy is simple_byte
  6185  02CF  0822               	movf	??_IOCAF1_ISR,w
  6186  02D0  3A00               	xorlw	0	; case 0
  6187  02D1  1903               	skipnz
  6188  02D2  2AC1               	goto	i1l150
  6189  02D3  3A01               	xorlw	1	; case 1
  6190  02D4  1903               	skipnz
  6191  02D5  2AD7               	goto	i1l148
  6192  02D6  2AD7               	goto	i1l148
  6193  02D7                     i1l148:	
  6194                           ;mcc_generated_files/pin_manager.c: 281:     }
  6195                           
  6196                           
  6197                           ;mcc_generated_files/pin_manager.c: 282:     IOCAFbits.IOCAF1 = 0;
  6198  02D7  0027               	movlb	7	; select bank7
  6199  02D8  1093               	bcf	19,1	;volatile
  6200  02D9                     i1l154:
  6201  02D9  0008               	return
  6202  02DA                     __end_of_IOCAF1_ISR:
  6203                           
  6204                           	psect	text36
  6205  06D9                     __ptext36:	
  6206 ;; *************** function _IOCAF1_DefaultInterruptHandler *****************
  6207 ;; Defined at:
  6208 ;;		line 295 in file "mcc_generated_files/pin_manager.c"
  6209 ;; Parameters:    Size  Location     Type
  6210 ;;		None
  6211 ;; Auto vars:     Size  Location     Type
  6212 ;;		None
  6213 ;; Return value:  Size  Location     Type
  6214 ;;                  1    wreg      void 
  6215 ;; Registers used:
  6216 ;;		None
  6217 ;; Tracked objects:
  6218 ;;		On entry : 0/0
  6219 ;;		On exit  : 0/0
  6220 ;;		Unchanged: 0/0
  6221 ;; Data sizes:     COMMON   BANK0   BANK1   BANK2   BANK3   BANK4   BANK5   BANK6   BANK7   BANK8   BANK9  BANK10  BANK1
      +1  BANK12  BANK13  BANK14  BANK15  BANK16  BANK17  BANK18  BANK19  BANK20  BANK21  BANK22  BANK23  BANK24  BANK25
  6222 ;;      Params:         0       0       0       0       0       0       0       0       0       0       0       0       
      +0       0       0       0       0       0       0       0       0       0       0       0       0       0       0
  6223 ;;      Locals:         0       0       0       0       0       0       0       0       0       0       0       0       
      +0       0       0       0       0       0       0       0       0       0       0       0       0       0       0
  6224 ;;      Temps:          0       0       0       0       0       0       0       0       0       0       0       0       
      +0       0       0       0       0       0       0       0       0       0       0       0       0       0       0
  6225 ;;      Totals:         0       0       0       0       0       0       0       0       0       0       0       0       
      +0       0       0       0       0       0       0       0       0       0       0       0       0       0       0
  6226 ;;Total ram usage:        0 bytes
  6227 ;; Hardware stack levels used:    1
  6228 ;; This function calls:
  6229 ;;		Nothing
  6230 ;; This function is called by:
  6231 ;;		_PIN_MANAGER_Initialize
  6232 ;;		_IOCAF1_ISR
  6233 ;; This function uses a non-reentrant model
  6234 ;;
  6235                           
  6236                           
  6237                           ;psect for function _IOCAF1_DefaultInterruptHandler
  6238  06D9                     _IOCAF1_DefaultInterruptHandler:
  6239  06D9                     i1l160:	
  6240                           ;incstack = 0
  6241                           ; Regs used in _IOCAF1_DefaultInterruptHandler: []
  6242                           
  6243  06D9  0008               	return
  6244  06DA                     __end_of_IOCAF1_DefaultInterruptHandler:
  6245                           
  6246                           	psect	text37
  6247  0330                     __ptext37:	
  6248 ;; *************** function _IOCAF0_ISR *****************
  6249 ;; Defined at:
  6250 ;;		line 212 in file "mcc_generated_files/pin_manager.c"
  6251 ;; Parameters:    Size  Location     Type
  6252 ;;		None
  6253 ;; Auto vars:     Size  Location     Type
  6254 ;;		None
  6255 ;; Return value:  Size  Location     Type
  6256 ;;                  1    wreg      void 
  6257 ;; Registers used:
  6258 ;;		wreg, fsr0l, fsr0h, status,2, status,0, pclath, cstack
  6259 ;; Tracked objects:
  6260 ;;		On entry : 0/0
  6261 ;;		On exit  : 0/0
  6262 ;;		Unchanged: 0/0
  6263 ;; Data sizes:     COMMON   BANK0   BANK1   BANK2   BANK3   BANK4   BANK5   BANK6   BANK7   BANK8   BANK9  BANK10  BANK1
      +1  BANK12  BANK13  BANK14  BANK15  BANK16  BANK17  BANK18  BANK19  BANK20  BANK21  BANK22  BANK23  BANK24  BANK25
  6264 ;;      Params:         0       0       0       0       0       0       0       0       0       0       0       0       
      +0       0       0       0       0       0       0       0       0       0       0       0       0       0       0
  6265 ;;      Locals:         0       0       0       0       0       0       0       0       0       0       0       0       
      +0       0       0       0       0       0       0       0       0       0       0       0       0       0       0
  6266 ;;      Temps:          0       2       0       0       0       0       0       0       0       0       0       0       
      +0       0       0       0       0       0       0       0       0       0       0       0       0       0       0
  6267 ;;      Totals:         0       2       0       0       0       0       0       0       0       0       0       0       
      +0       0       0       0       0       0       0       0       0       0       0       0       0       0       0
  6268 ;;Total ram usage:        2 bytes
  6269 ;; Hardware stack levels used:    1
  6270 ;; Hardware stack levels required when called:    5
  6271 ;; This function calls:
  6272 ;;		Absolute function
  6273 ;;		_IOCAF0_DefaultInterruptHandler
  6274 ;;		i1_printMenu
  6275 ;; This function is called by:
  6276 ;;		_PIN_MANAGER_IOC
  6277 ;; This function uses a non-reentrant model
  6278 ;;
  6279                           
  6280                           
  6281                           ;psect for function _IOCAF0_ISR
  6282  0330                     _IOCAF0_ISR:
  6283  0330                     i1l2396:	
  6284                           ;incstack = 0
  6285                           ; Regs used in _IOCAF0_ISR: [wreg-fsr0h+status,2+status,0+pclath+cstack]
  6286                           
  6287                           
  6288                           ;mcc_generated_files/pin_manager.c: 217:     if(IOCAF0_InterruptHandler)
  6289  0330  0020               	movlb	0	; select bank0
  6290  0331  0851               	movf	_IOCAF0_InterruptHandler,w
  6291  0332  0452               	iorwf	_IOCAF0_InterruptHandler+1,w
  6292  0333  1903               	btfsc	3,2
  6293  0334  2B36               	goto	u91_21
  6294  0335  2B37               	goto	u91_20
  6295  0336                     u91_21:
  6296  0336  2B3C               	goto	i1l2400
  6297  0337                     u91_20:
  6298  0337                     i1l2398:
  6299                           
  6300                           ;mcc_generated_files/pin_manager.c: 218:     {;mcc_generated_files/pin_manager.c: 219:  
      +                                 IOCAF0_InterruptHandler();
  6301  0337  0852               	movf	_IOCAF0_InterruptHandler+1,w
  6302  0338  008A               	movwf	10
  6303  0339  0851               	movf	_IOCAF0_InterruptHandler,w
  6304  033A  000A               	callw
  6305  033B  3183               	pagesel	$
  6306  033C                     i1l2400:
  6307                           
  6308                           ;mcc_generated_files/pin_manager.c: 221:     if (inGame){
  6309  033C  0020               	movlb	0	; select bank0
  6310  033D  0855               	movf	_inGame,w
  6311  033E  1903               	btfsc	3,2
  6312  033F  2B41               	goto	u92_21
  6313  0340  2B42               	goto	u92_20
  6314  0341                     u92_21:
  6315  0341  2B48               	goto	i1l2410
  6316  0342                     u92_20:
  6317  0342  2B58               	goto	i1l131
  6318  0343                     i1l2404:
  6319                           
  6320                           ;mcc_generated_files/pin_manager.c: 228:             mainState = 0;
  6321  0343  01D4               	clrf	_mainState
  6322  0344                     i1l2406:
  6323                           
  6324                           ;mcc_generated_files/pin_manager.c: 229:             printMenu();
  6325  0344  3185  256A  3183   	fcall	i1_printMenu
  6326                           
  6327                           ;mcc_generated_files/pin_manager.c: 230:         break;
  6328  0347  2B58               	goto	i1l131
  6329  0348                     i1l2410:
  6330  0348  0854               	movf	_mainState,w
  6331  0349  00A2               	movwf	??_IOCAF0_ISR
  6332  034A  01A3               	clrf	??_IOCAF0_ISR+1
  6333                           
  6334                           ; Switch on 2 bytes has been partitioned into a top level switch of size 1, and 1 sub-sw
      +                          itches
  6335                           ; Switch size 1, requested type "simple"
  6336                           ; Number of cases is 1, Range of values is 0 to 0
  6337                           ; switch strategies available:
  6338                           ; Name         Instructions Cycles
  6339                           ; simple_byte            4     3 (average)
  6340                           ; direct_byte            8     6 (fixed)
  6341                           ; jumptable            260     6 (fixed)
  6342                           ;	Chosen strategy is simple_byte
  6343  034B  0823               	movf	??_IOCAF0_ISR+1,w
  6344  034C  3A00               	xorlw	0	; case 0
  6345  034D  1903               	skipnz
  6346  034E  2B50               	goto	i1l2870
  6347  034F  2B58               	goto	i1l131
  6348  0350                     i1l2870:
  6349                           
  6350                           ; Switch size 1, requested type "simple"
  6351                           ; Number of cases is 2, Range of values is 0 to 1
  6352                           ; switch strategies available:
  6353                           ; Name         Instructions Cycles
  6354                           ; simple_byte            7     4 (average)
  6355                           ; direct_byte           10     6 (fixed)
  6356                           ; jumptable            260     6 (fixed)
  6357                           ;	Chosen strategy is simple_byte
  6358  0350  0822               	movf	??_IOCAF0_ISR,w
  6359  0351  3A00               	xorlw	0	; case 0
  6360  0352  1903               	skipnz
  6361  0353  2B58               	goto	i1l131
  6362  0354  3A01               	xorlw	1	; case 1
  6363  0355  1903               	skipnz
  6364  0356  2B43               	goto	i1l2404
  6365  0357  2B58               	goto	i1l131
  6366  0358                     i1l131:	
  6367                           ;mcc_generated_files/pin_manager.c: 234:     }
  6368                           
  6369                           
  6370                           ;mcc_generated_files/pin_manager.c: 237:     IOCAFbits.IOCAF0 = 0;
  6371  0358  0027               	movlb	7	; select bank7
  6372  0359  1013               	bcf	19,0	;volatile
  6373  035A                     i1l137:
  6374  035A  0008               	return
  6375  035B                     __end_of_IOCAF0_ISR:
  6376                           
  6377                           	psect	text38
  6378  056A                     __ptext38:	
  6379 ;; *************** function i1_printMenu *****************
  6380 ;; Defined at:
  6381 ;;		line 27 in file "menu.c"
  6382 ;; Parameters:    Size  Location     Type
  6383 ;;		None
  6384 ;; Auto vars:     Size  Location     Type
  6385 ;;		None
  6386 ;; Return value:  Size  Location     Type
  6387 ;;                  1    wreg      void 
  6388 ;; Registers used:
  6389 ;;		wreg, fsr0l, fsr0h, status,2, status,0, pclath, cstack
  6390 ;; Tracked objects:
  6391 ;;		On entry : 0/0
  6392 ;;		On exit  : 0/0
  6393 ;;		Unchanged: 0/0
  6394 ;; Data sizes:     COMMON   BANK0   BANK1   BANK2   BANK3   BANK4   BANK5   BANK6   BANK7   BANK8   BANK9  BANK10  BANK1
      +1  BANK12  BANK13  BANK14  BANK15  BANK16  BANK17  BANK18  BANK19  BANK20  BANK21  BANK22  BANK23  BANK24  BANK25
  6395 ;;      Params:         0       0       0       0       0       0       0       0       0       0       0       0       
      +0       0       0       0       0       0       0       0       0       0       0       0       0       0       0
  6396 ;;      Locals:         0       0       0       0       0       0       0       0       0       0       0       0       
      +0       0       0       0       0       0       0       0       0       0       0       0       0       0       0
  6397 ;;      Temps:          0       0       0       0       0       0       0       0       0       0       0       0       
      +0       0       0       0       0       0       0       0       0       0       0       0       0       0       0
  6398 ;;      Totals:         0       0       0       0       0       0       0       0       0       0       0       0       
      +0       0       0       0       0       0       0       0       0       0       0       0       0       0       0
  6399 ;;Total ram usage:        0 bytes
  6400 ;; Hardware stack levels used:    1
  6401 ;; Hardware stack levels required when called:    4
  6402 ;; This function calls:
  6403 ;;		i1_LCDGoto
  6404 ;;		i1_LCDPutStr
  6405 ;;		i1_cleanFullMenu
  6406 ;;		i1_cleanMenu
  6407 ;;		i1_mainMenu
  6408 ;; This function is called by:
  6409 ;;		_IOCAF0_ISR
  6410 ;;		_IOCAF1_ISR
  6411 ;;		_IOCAF2_ISR
  6412 ;;		_IOCAF3_ISR
  6413 ;;		_IOCAF4_ISR
  6414 ;;		_startFight
  6415 ;; This function uses a non-reentrant model
  6416 ;;
  6417                           
  6418                           
  6419                           ;psect for function i1_printMenu
  6420  056A                     i1_printMenu:
  6421  056A                     i1l2264:	
  6422                           ;incstack = 0
  6423                           ; Regs used in i1_printMenu: [wreg-fsr0h+status,2+status,0+pclath+cstack]
  6424                           
  6425                           
  6426                           ;menu.c: 30:     if(inGame){
  6427  056A  0020               	movlb	0	; select bank0
  6428  056B  0855               	movf	_inGame,w
  6429  056C  1903               	btfsc	3,2
  6430  056D  2D6F               	goto	u86_21
  6431  056E  2D70               	goto	u86_20
  6432  056F                     u86_21:
  6433  056F  2D81               	goto	i1l2272
  6434  0570                     u86_20:
  6435  0570                     i1l2266:
  6436                           
  6437                           ;menu.c: 31:         cleanMenu();
  6438  0570  3185  25A5  3185   	fcall	i1_cleanMenu
  6439  0573                     i1l2268:
  6440                           
  6441                           ;menu.c: 32:         LCDGoto(lcdOffset, 0);
  6442  0573  01F7               	clrf	i1LCDGoto@ln
  6443  0574  0020               	movlb	0	; select bank0
  6444  0575  0846               	movf	_lcdOffset,w
  6445  0576  3183  23FD  3185   	fcall	i1_LCDGoto
  6446  0579                     i1l2270:
  6447                           
  6448                           ;menu.c: 33:         LCDPutStr("   Menu    ");
  6449  0579  3075               	movlw	low (STR_5| (0+32768))
  6450  057A  00F7               	movwf	i1LCDPutStr@str
  6451  057B  3086               	movlw	high (STR_5| (0+32768))
  6452  057C  00F8               	movwf	i1LCDPutStr@str+1
  6453  057D  3184  2424  3185   	fcall	i1_LCDPutStr
  6454                           
  6455                           ;menu.c: 34:     }else {
  6456  0580  2D87               	goto	i1l387
  6457  0581                     i1l2272:
  6458                           
  6459                           ;menu.c: 35:         cleanFullMenu();
  6460  0581  3185  25DB  3185   	fcall	i1_cleanFullMenu
  6461                           
  6462                           ;menu.c: 36:         mainMenu();
  6463  0584  3180  20C9  3185   	fcall	i1_mainMenu
  6464  0587                     i1l387:
  6465  0587  0008               	return
  6466  0588                     __end_ofi1_printMenu:
  6467                           
  6468                           	psect	text39
  6469  00C9                     __ptext39:	
  6470 ;; *************** function i1_mainMenu *****************
  6471 ;; Defined at:
  6472 ;;		line 40 in file "menu.c"
  6473 ;; Parameters:    Size  Location     Type
  6474 ;;		None
  6475 ;; Auto vars:     Size  Location     Type
  6476 ;;		None
  6477 ;; Return value:  Size  Location     Type
  6478 ;;                  1    wreg      void 
  6479 ;; Registers used:
  6480 ;;		wreg, fsr0l, fsr0h, status,2, status,0, pclath, cstack
  6481 ;; Tracked objects:
  6482 ;;		On entry : 0/0
  6483 ;;		On exit  : 0/0
  6484 ;;		Unchanged: 0/0
  6485 ;; Data sizes:     COMMON   BANK0   BANK1   BANK2   BANK3   BANK4   BANK5   BANK6   BANK7   BANK8   BANK9  BANK10  BANK1
      +1  BANK12  BANK13  BANK14  BANK15  BANK16  BANK17  BANK18  BANK19  BANK20  BANK21  BANK22  BANK23  BANK24  BANK25
  6486 ;;      Params:         0       0       0       0       0       0       0       0       0       0       0       0       
      +0       0       0       0       0       0       0       0       0       0       0       0       0       0       0
  6487 ;;      Locals:         0       0       0       0       0       0       0       0       0       0       0       0       
      +0       0       0       0       0       0       0       0       0       0       0       0       0       0       0
  6488 ;;      Temps:          0       2       0       0       0       0       0       0       0       0       0       0       
      +0       0       0       0       0       0       0       0       0       0       0       0       0       0       0
  6489 ;;      Totals:         0       2       0       0       0       0       0       0       0       0       0       0       
      +0       0       0       0       0       0       0       0       0       0       0       0       0       0       0
  6490 ;;Total ram usage:        2 bytes
  6491 ;; Hardware stack levels used:    1
  6492 ;; Hardware stack levels required when called:    3
  6493 ;; This function calls:
  6494 ;;		i1_LCDGoto
  6495 ;;		i1_LCDPutStr
  6496 ;; This function is called by:
  6497 ;;		i1_printMenu
  6498 ;; This function uses a non-reentrant model
  6499 ;;
  6500                           
  6501                           
  6502                           ;psect for function i1_mainMenu
  6503  00C9                     i1_mainMenu:
  6504  00C9                     i1l2212:	
  6505                           ;incstack = 0
  6506                           ; Regs used in i1_mainMenu: [wreg-fsr0h+status,2+status,0+pclath+cstack]
  6507                           
  6508                           
  6509                           ;menu.c: 41:     switch (mainState){
  6510  00C9  2932               	goto	i1l2240
  6511  00CA                     i1l2214:
  6512                           
  6513                           ;menu.c: 43:             LCDGoto(0, 0);
  6514  00CA  01F7               	clrf	i1LCDGoto@ln
  6515  00CB  3000               	movlw	0
  6516  00CC  3183  23FD  3180   	fcall	i1_LCDGoto
  6517  00CF                     i1l2216:
  6518                           
  6519                           ;menu.c: 44:             LCDPutStr("Select ship#1");
  6520  00CF  303D               	movlw	low (STR_6| (0+32768))
  6521  00D0  00F7               	movwf	i1LCDPutStr@str
  6522  00D1  3086               	movlw	high (STR_6| (0+32768))
  6523  00D2  00F8               	movwf	i1LCDPutStr@str+1
  6524  00D3  3184  2424  3180   	fcall	i1_LCDPutStr
  6525  00D6                     i1l2218:
  6526                           
  6527                           ;menu.c: 45:             LCDGoto(0, 1);
  6528  00D6  01F7               	clrf	i1LCDGoto@ln
  6529  00D7  0AF7               	incf	i1LCDGoto@ln,f
  6530  00D8  3000               	movlw	0
  6531  00D9  3183  23FD  3180   	fcall	i1_LCDGoto
  6532                           
  6533                           ;menu.c: 46:             LCDPutStr("> Tie Fighter");
  6534  00DC  3067               	movlw	low (STR_7| (0+32768))
  6535  00DD  00F7               	movwf	i1LCDPutStr@str
  6536  00DE  3086               	movlw	high (STR_7| (0+32768))
  6537  00DF  00F8               	movwf	i1LCDPutStr@str+1
  6538  00E0  3184  2424  3180   	fcall	i1_LCDPutStr
  6539                           
  6540                           ;menu.c: 47:         break;
  6541  00E3  2949               	goto	i1l397
  6542  00E4                     i1l2220:
  6543                           
  6544                           ;menu.c: 49:             LCDGoto(0, 0);
  6545  00E4  01F7               	clrf	i1LCDGoto@ln
  6546  00E5  3000               	movlw	0
  6547  00E6  3183  23FD  3180   	fcall	i1_LCDGoto
  6548  00E9                     i1l2222:
  6549                           
  6550                           ;menu.c: 50:             LCDPutStr("  Tie Fighter");
  6551  00E9  3059               	movlw	low (STR_8| (0+32768))
  6552  00EA  00F7               	movwf	i1LCDPutStr@str
  6553  00EB  3086               	movlw	high (STR_8| (0+32768))
  6554  00EC  00F8               	movwf	i1LCDPutStr@str+1
  6555  00ED  3184  2424  3180   	fcall	i1_LCDPutStr
  6556  00F0                     i1l2224:
  6557                           
  6558                           ;menu.c: 51:             LCDGoto(0, 1);
  6559  00F0  01F7               	clrf	i1LCDGoto@ln
  6560  00F1  0AF7               	incf	i1LCDGoto@ln,f
  6561  00F2  3000               	movlw	0
  6562  00F3  3183  23FD  3180   	fcall	i1_LCDGoto
  6563                           
  6564                           ;menu.c: 52:             LCDPutStr("> X wing");
  6565  00F6  3097               	movlw	low (STR_9| (0+32768))
  6566  00F7  00F7               	movwf	i1LCDPutStr@str
  6567  00F8  3086               	movlw	high (STR_9| (0+32768))
  6568  00F9  00F8               	movwf	i1LCDPutStr@str+1
  6569  00FA  3184  2424  3180   	fcall	i1_LCDPutStr
  6570                           
  6571                           ;menu.c: 53:         break;
  6572  00FD  2949               	goto	i1l397
  6573  00FE                     i1l2226:
  6574                           
  6575                           ;menu.c: 55:             LCDGoto(0, 0);
  6576  00FE  01F7               	clrf	i1LCDGoto@ln
  6577  00FF  3000               	movlw	0
  6578  0100  3183  23FD  3180   	fcall	i1_LCDGoto
  6579  0103                     i1l2228:
  6580                           
  6581                           ;menu.c: 56:             LCDPutStr("Select ship#2");
  6582  0103  304B               	movlw	low (STR_10| (0+32768))
  6583  0104  00F7               	movwf	i1LCDPutStr@str
  6584  0105  3086               	movlw	high (STR_10| (0+32768))
  6585  0106  00F8               	movwf	i1LCDPutStr@str+1
  6586  0107  3184  2424  3180   	fcall	i1_LCDPutStr
  6587  010A                     i1l2230:
  6588                           
  6589                           ;menu.c: 57:             LCDGoto(0, 1);
  6590  010A  01F7               	clrf	i1LCDGoto@ln
  6591  010B  0AF7               	incf	i1LCDGoto@ln,f
  6592  010C  3000               	movlw	0
  6593  010D  3183  23FD  3180   	fcall	i1_LCDGoto
  6594                           
  6595                           ;menu.c: 58:             LCDPutStr("> Tie Fighter");
  6596  0110  3067               	movlw	low (STR_7| (0+32768))
  6597  0111  00F7               	movwf	i1LCDPutStr@str
  6598  0112  3086               	movlw	high (STR_7| (0+32768))
  6599  0113  00F8               	movwf	i1LCDPutStr@str+1
  6600  0114  3184  2424  3180   	fcall	i1_LCDPutStr
  6601                           
  6602                           ;menu.c: 59:         break;
  6603  0117  2949               	goto	i1l397
  6604  0118                     i1l2232:
  6605                           
  6606                           ;menu.c: 61:             LCDGoto(0, 0);
  6607  0118  01F7               	clrf	i1LCDGoto@ln
  6608  0119  3000               	movlw	0
  6609  011A  3183  23FD  3180   	fcall	i1_LCDGoto
  6610  011D                     i1l2234:
  6611                           
  6612                           ;menu.c: 62:             LCDPutStr("  Tie Fighter");
  6613  011D  3059               	movlw	low (STR_8| (0+32768))
  6614  011E  00F7               	movwf	i1LCDPutStr@str
  6615  011F  3086               	movlw	high (STR_8| (0+32768))
  6616  0120  00F8               	movwf	i1LCDPutStr@str+1
  6617  0121  3184  2424  3180   	fcall	i1_LCDPutStr
  6618  0124                     i1l2236:
  6619                           
  6620                           ;menu.c: 63:             LCDGoto(0, 1);
  6621  0124  01F7               	clrf	i1LCDGoto@ln
  6622  0125  0AF7               	incf	i1LCDGoto@ln,f
  6623  0126  3000               	movlw	0
  6624  0127  3183  23FD  3180   	fcall	i1_LCDGoto
  6625                           
  6626                           ;menu.c: 64:             LCDPutStr("> X wing");
  6627  012A  3097               	movlw	low (STR_9| (0+32768))
  6628  012B  00F7               	movwf	i1LCDPutStr@str
  6629  012C  3086               	movlw	high (STR_9| (0+32768))
  6630  012D  00F8               	movwf	i1LCDPutStr@str+1
  6631  012E  3184  2424  3180   	fcall	i1_LCDPutStr
  6632                           
  6633                           ;menu.c: 65:         break;
  6634  0131  2949               	goto	i1l397
  6635  0132                     i1l2240:
  6636  0132  0020               	movlb	0	; select bank0
  6637  0133  0854               	movf	_mainState,w
  6638  0134  00A0               	movwf	??i1_mainMenu
  6639  0135  01A1               	clrf	??i1_mainMenu+1
  6640                           
  6641                           ; Switch on 2 bytes has been partitioned into a top level switch of size 1, and 1 sub-sw
      +                          itches
  6642                           ; Switch size 1, requested type "simple"
  6643                           ; Number of cases is 1, Range of values is 0 to 0
  6644                           ; switch strategies available:
  6645                           ; Name         Instructions Cycles
  6646                           ; simple_byte            4     3 (average)
  6647                           ; direct_byte            8     6 (fixed)
  6648                           ; jumptable            260     6 (fixed)
  6649                           ;	Chosen strategy is simple_byte
  6650  0136  0821               	movf	??i1_mainMenu+1,w
  6651  0137  3A00               	xorlw	0	; case 0
  6652  0138  1903               	skipnz
  6653  0139  293B               	goto	i1l2872
  6654  013A  2949               	goto	i1l397
  6655  013B                     i1l2872:
  6656                           
  6657                           ; Switch size 1, requested type "simple"
  6658                           ; Number of cases is 4, Range of values is 0 to 3
  6659                           ; switch strategies available:
  6660                           ; Name         Instructions Cycles
  6661                           ; simple_byte           13     7 (average)
  6662                           ; direct_byte           14     6 (fixed)
  6663                           ; jumptable            260     6 (fixed)
  6664                           ;	Chosen strategy is simple_byte
  6665  013B  0820               	movf	??i1_mainMenu,w
  6666  013C  3A00               	xorlw	0	; case 0
  6667  013D  1903               	skipnz
  6668  013E  28CA               	goto	i1l2214
  6669  013F  3A01               	xorlw	1	; case 1
  6670  0140  1903               	skipnz
  6671  0141  28E4               	goto	i1l2220
  6672  0142  3A03               	xorlw	3	; case 2
  6673  0143  1903               	skipnz
  6674  0144  28FE               	goto	i1l2226
  6675  0145  3A01               	xorlw	1	; case 3
  6676  0146  1903               	skipnz
  6677  0147  2918               	goto	i1l2232
  6678  0148  2949               	goto	i1l397
  6679  0149                     i1l397:
  6680  0149  0008               	return
  6681  014A                     __end_ofi1_mainMenu:
  6682                           
  6683                           	psect	text40
  6684  05A5                     __ptext40:	
  6685 ;; *************** function i1_cleanMenu *****************
  6686 ;; Defined at:
  6687 ;;		line 71 in file "menu.c"
  6688 ;; Parameters:    Size  Location     Type
  6689 ;;		None
  6690 ;; Auto vars:     Size  Location     Type
  6691 ;;		None
  6692 ;; Return value:  Size  Location     Type
  6693 ;;                  1    wreg      void 
  6694 ;; Registers used:
  6695 ;;		wreg, fsr0l, fsr0h, status,2, status,0, pclath, cstack
  6696 ;; Tracked objects:
  6697 ;;		On entry : 0/0
  6698 ;;		On exit  : 0/0
  6699 ;;		Unchanged: 0/0
  6700 ;; Data sizes:     COMMON   BANK0   BANK1   BANK2   BANK3   BANK4   BANK5   BANK6   BANK7   BANK8   BANK9  BANK10  BANK1
      +1  BANK12  BANK13  BANK14  BANK15  BANK16  BANK17  BANK18  BANK19  BANK20  BANK21  BANK22  BANK23  BANK24  BANK25
  6701 ;;      Params:         0       0       0       0       0       0       0       0       0       0       0       0       
      +0       0       0       0       0       0       0       0       0       0       0       0       0       0       0
  6702 ;;      Locals:         0       0       0       0       0       0       0       0       0       0       0       0       
      +0       0       0       0       0       0       0       0       0       0       0       0       0       0       0
  6703 ;;      Temps:          0       0       0       0       0       0       0       0       0       0       0       0       
      +0       0       0       0       0       0       0       0       0       0       0       0       0       0       0
  6704 ;;      Totals:         0       0       0       0       0       0       0       0       0       0       0       0       
      +0       0       0       0       0       0       0       0       0       0       0       0       0       0       0
  6705 ;;Total ram usage:        0 bytes
  6706 ;; Hardware stack levels used:    1
  6707 ;; Hardware stack levels required when called:    3
  6708 ;; This function calls:
  6709 ;;		i1_LCDGoto
  6710 ;;		i1_LCDPutStr
  6711 ;; This function is called by:
  6712 ;;		i1_printMenu
  6713 ;; This function uses a non-reentrant model
  6714 ;;
  6715                           
  6716                           
  6717                           ;psect for function i1_cleanMenu
  6718  05A5                     i1_cleanMenu:
  6719  05A5                     i1l1564:	
  6720                           ;incstack = 0
  6721                           ; Regs used in i1_cleanMenu: [wreg-fsr0h+status,2+status,0+pclath+cstack]
  6722                           
  6723                           
  6724                           ;menu.c: 74:     LCDGoto(lcdOffset, 0);
  6725  05A5  01F7               	clrf	i1LCDGoto@ln
  6726  05A6  0020               	movlb	0	; select bank0
  6727  05A7  0846               	movf	_lcdOffset,w
  6728  05A8  3183  23FD  3185   	fcall	i1_LCDGoto
  6729  05AB                     i1l1566:
  6730                           
  6731                           ;menu.c: 75:     LCDPutStr("          ");
  6732  05AB  3022               	movlw	low ((STR_1+6)| (0+32768))
  6733  05AC  00F7               	movwf	i1LCDPutStr@str
  6734  05AD  3086               	movlw	high ((STR_1+6)| (0+32768))
  6735  05AE  00F8               	movwf	i1LCDPutStr@str+1
  6736  05AF  3184  2424  3185   	fcall	i1_LCDPutStr
  6737  05B2                     i1l1568:
  6738                           
  6739                           ;menu.c: 76:     LCDGoto(lcdOffset, 1);
  6740  05B2  01F7               	clrf	i1LCDGoto@ln
  6741  05B3  0AF7               	incf	i1LCDGoto@ln,f
  6742  05B4  0020               	movlb	0	; select bank0
  6743  05B5  0846               	movf	_lcdOffset,w
  6744  05B6  3183  23FD  3185   	fcall	i1_LCDGoto
  6745                           
  6746                           ;menu.c: 77:     LCDPutStr("          ");
  6747  05B9  3022               	movlw	low ((STR_1+6)| (0+32768))
  6748  05BA  00F7               	movwf	i1LCDPutStr@str
  6749  05BB  3086               	movlw	high ((STR_1+6)| (0+32768))
  6750  05BC  00F8               	movwf	i1LCDPutStr@str+1
  6751  05BD  3184  2424  3185   	fcall	i1_LCDPutStr
  6752  05C0                     i1l400:
  6753  05C0  0008               	return
  6754  05C1                     __end_ofi1_cleanMenu:
  6755                           
  6756                           	psect	text41
  6757  05DB                     __ptext41:	
  6758 ;; *************** function i1_cleanFullMenu *****************
  6759 ;; Defined at:
  6760 ;;		line 97 in file "menu.c"
  6761 ;; Parameters:    Size  Location     Type
  6762 ;;		None
  6763 ;; Auto vars:     Size  Location     Type
  6764 ;;		None
  6765 ;; Return value:  Size  Location     Type
  6766 ;;                  1    wreg      void 
  6767 ;; Registers used:
  6768 ;;		wreg, fsr0l, fsr0h, status,2, status,0, pclath, cstack
  6769 ;; Tracked objects:
  6770 ;;		On entry : 0/0
  6771 ;;		On exit  : 0/0
  6772 ;;		Unchanged: 0/0
  6773 ;; Data sizes:     COMMON   BANK0   BANK1   BANK2   BANK3   BANK4   BANK5   BANK6   BANK7   BANK8   BANK9  BANK10  BANK1
      +1  BANK12  BANK13  BANK14  BANK15  BANK16  BANK17  BANK18  BANK19  BANK20  BANK21  BANK22  BANK23  BANK24  BANK25
  6774 ;;      Params:         0       0       0       0       0       0       0       0       0       0       0       0       
      +0       0       0       0       0       0       0       0       0       0       0       0       0       0       0
  6775 ;;      Locals:         0       0       0       0       0       0       0       0       0       0       0       0       
      +0       0       0       0       0       0       0       0       0       0       0       0       0       0       0
  6776 ;;      Temps:          0       0       0       0       0       0       0       0       0       0       0       0       
      +0       0       0       0       0       0       0       0       0       0       0       0       0       0       0
  6777 ;;      Totals:         0       0       0       0       0       0       0       0       0       0       0       0       
      +0       0       0       0       0       0       0       0       0       0       0       0       0       0       0
  6778 ;;Total ram usage:        0 bytes
  6779 ;; Hardware stack levels used:    1
  6780 ;; Hardware stack levels required when called:    3
  6781 ;; This function calls:
  6782 ;;		i1_LCDGoto
  6783 ;;		i1_LCDPutStr
  6784 ;; This function is called by:
  6785 ;;		_startFight
  6786 ;;		i1_printMenu
  6787 ;; This function uses a non-reentrant model
  6788 ;;
  6789                           
  6790                           
  6791                           ;psect for function i1_cleanFullMenu
  6792  05DB                     i1_cleanFullMenu:
  6793  05DB                     i1l1570:	
  6794                           ;incstack = 0
  6795                           ; Regs used in i1_cleanFullMenu: [wreg-fsr0h+status,2+status,0+pclath+cstack]
  6796                           
  6797                           
  6798                           ;menu.c: 100:     LCDGoto(0, 0);
  6799  05DB  01F7               	clrf	i1LCDGoto@ln
  6800  05DC  3000               	movlw	0
  6801  05DD  3183  23FD  3185   	fcall	i1_LCDGoto
  6802  05E0                     i1l1572:
  6803                           
  6804                           ;menu.c: 101:     LCDPutStr("                ");
  6805  05E0  301C               	movlw	low (STR_1| (0+32768))
  6806  05E1  00F7               	movwf	i1LCDPutStr@str
  6807  05E2  3086               	movlw	high (STR_1| (0+32768))
  6808  05E3  00F8               	movwf	i1LCDPutStr@str+1
  6809  05E4  3184  2424  3185   	fcall	i1_LCDPutStr
  6810  05E7                     i1l1574:
  6811                           
  6812                           ;menu.c: 102:     LCDGoto(0, 1);
  6813  05E7  01F7               	clrf	i1LCDGoto@ln
  6814  05E8  0AF7               	incf	i1LCDGoto@ln,f
  6815  05E9  3000               	movlw	0
  6816  05EA  3183  23FD  3185   	fcall	i1_LCDGoto
  6817                           
  6818                           ;menu.c: 103:     LCDPutStr("                ");
  6819  05ED  301C               	movlw	low (STR_1| (0+32768))
  6820  05EE  00F7               	movwf	i1LCDPutStr@str
  6821  05EF  3086               	movlw	high (STR_1| (0+32768))
  6822  05F0  00F8               	movwf	i1LCDPutStr@str+1
  6823  05F1  3184  2424  3185   	fcall	i1_LCDPutStr
  6824  05F4                     i1l406:
  6825  05F4  0008               	return
  6826  05F5                     __end_ofi1_cleanFullMenu:
  6827                           
  6828                           	psect	text42
  6829  0424                     __ptext42:	
  6830 ;; *************** function i1_LCDPutStr *****************
  6831 ;; Defined at:
  6832 ;;		line 131 in file "lcd.c"
  6833 ;; Parameters:    Size  Location     Type
  6834 ;;  str             2    7[COMMON] PTR const unsigned char 
  6835 ;;		 -> STR_18(17), STR_17(17), STR_16(12), STR_15(11), 
  6836 ;;		 -> STR_14(11), STR_13(9), STR_12(14), STR_11(14), 
  6837 ;;		 -> STR_10(14), STR_9(9), STR_8(14), STR_7(14), 
  6838 ;;		 -> STR_6(14), STR_5(12), STR_4(2), STR_3(2), 
  6839 ;;		 -> STR_2(17), STR_1(17), 
  6840 ;; Auto vars:     Size  Location     Type
  6841 ;;  i               1   12[COMMON] unsigned char 
  6842 ;; Return value:  Size  Location     Type
  6843 ;;                  1    wreg      void 
  6844 ;; Registers used:
  6845 ;;		wreg, fsr0l, fsr0h, status,2, status,0, pclath, cstack
  6846 ;; Tracked objects:
  6847 ;;		On entry : 0/0
  6848 ;;		On exit  : 0/0
  6849 ;;		Unchanged: 0/0
  6850 ;; Data sizes:     COMMON   BANK0   BANK1   BANK2   BANK3   BANK4   BANK5   BANK6   BANK7   BANK8   BANK9  BANK10  BANK1
      +1  BANK12  BANK13  BANK14  BANK15  BANK16  BANK17  BANK18  BANK19  BANK20  BANK21  BANK22  BANK23  BANK24  BANK25
  6851 ;;      Params:         2       0       0       0       0       0       0       0       0       0       0       0       
      +0       0       0       0       0       0       0       0       0       0       0       0       0       0       0
  6852 ;;      Locals:         1       0       0       0       0       0       0       0       0       0       0       0       
      +0       0       0       0       0       0       0       0       0       0       0       0       0       0       0
  6853 ;;      Temps:          3       0       0       0       0       0       0       0       0       0       0       0       
      +0       0       0       0       0       0       0       0       0       0       0       0       0       0       0
  6854 ;;      Totals:         6       0       0       0       0       0       0       0       0       0       0       0       
      +0       0       0       0       0       0       0       0       0       0       0       0       0       0       0
  6855 ;;Total ram usage:        6 bytes
  6856 ;; Hardware stack levels used:    1
  6857 ;; Hardware stack levels required when called:    2
  6858 ;; This function calls:
  6859 ;;		i1_LCDPutChar
  6860 ;; This function is called by:
  6861 ;;		_LCDClear
  6862 ;;		_startFight
  6863 ;;		i1_printMenu
  6864 ;;		i1_mainMenu
  6865 ;;		i1_cleanMenu
  6866 ;;		i1_cleanFullMenu
  6867 ;; This function uses a non-reentrant model
  6868 ;;
  6869                           
  6870                           
  6871                           ;psect for function i1_LCDPutStr
  6872  0424                     i1_LCDPutStr:
  6873  0424                     i1l1488:	
  6874                           ;incstack = 0
  6875                           ; Regs used in i1_LCDPutStr: [wreg-fsr0h+status,2+status,0+pclath+cstack]
  6876                           
  6877                           
  6878                           ;lcd.c: 131: void LCDPutStr(const char *str);lcd.c: 132: {;lcd.c: 133:   uint8_t i = 0;
  6879  0424  01FC               	clrf	i1LCDPutStr@i
  6880                           
  6881                           ;lcd.c: 136:   while (str[i])
  6882  0425  2C39               	goto	i1l1494
  6883  0426                     i1l1490:
  6884                           
  6885                           ;lcd.c: 137:   {;lcd.c: 139:     LCDPutChar(str[i++]);
  6886  0426  0878               	movf	i1LCDPutStr@str+1,w
  6887  0427  00FA               	movwf	??i1_LCDPutStr+1
  6888  0428  0877               	movf	i1LCDPutStr@str,w
  6889  0429  00F9               	movwf	??i1_LCDPutStr
  6890  042A  087C               	movf	i1LCDPutStr@i,w
  6891  042B  0779               	addwf	??i1_LCDPutStr,w
  6892  042C  0084               	movwf	4
  6893  042D  087A               	movf	??i1_LCDPutStr+1,w
  6894  042E  1803               	skipnc
  6895  042F  0A7A               	incf	??i1_LCDPutStr+1,w
  6896  0430  0085               	movwf	5
  6897  0431  0800               	movf	0,w	;code access
  6898  0432  3185  2588  3184   	fcall	i1_LCDPutChar
  6899  0435                     i1l1492:
  6900  0435  3001               	movlw	1
  6901  0436  00F9               	movwf	??i1_LCDPutStr
  6902  0437  0879               	movf	??i1_LCDPutStr,w
  6903  0438  07FC               	addwf	i1LCDPutStr@i,f
  6904  0439                     i1l1494:
  6905                           
  6906                           ;lcd.c: 136:   while (str[i])
  6907  0439  0878               	movf	i1LCDPutStr@str+1,w
  6908  043A  00FA               	movwf	??i1_LCDPutStr+1
  6909  043B  0877               	movf	i1LCDPutStr@str,w
  6910  043C  00F9               	movwf	??i1_LCDPutStr
  6911  043D  087C               	movf	i1LCDPutStr@i,w
  6912  043E  0779               	addwf	??i1_LCDPutStr,w
  6913  043F  0084               	movwf	4
  6914  0440  087A               	movf	??i1_LCDPutStr+1,w
  6915  0441  1803               	skipnc
  6916  0442  0A7A               	incf	??i1_LCDPutStr+1,w
  6917  0443  0085               	movwf	5
  6918  0444  0012               	moviw fsr0++
  6919  0445  1D03               	btfss	3,2
  6920  0446  2C48               	goto	u41_21
  6921  0447  2C49               	goto	u41_20
  6922  0448                     u41_21:
  6923  0448  2C26               	goto	i1l1490
  6924  0449                     u41_20:
  6925  0449                     i1l290:
  6926  0449  0008               	return
  6927  044A                     __end_ofi1_LCDPutStr:
  6928                           
  6929                           	psect	text43
  6930  0588                     __ptext43:	
  6931 ;; *************** function i1_LCDPutChar *****************
  6932 ;; Defined at:
  6933 ;;		line 101 in file "lcd.c"
  6934 ;; Parameters:    Size  Location     Type
  6935 ;;  ch              1    wreg     unsigned char 
  6936 ;; Auto vars:     Size  Location     Type
  6937 ;;  ch              1    6[COMMON] unsigned char 
  6938 ;; Return value:  Size  Location     Type
  6939 ;;                  1    wreg      void 
  6940 ;; Registers used:
  6941 ;;		wreg, status,2, status,0, pclath, cstack
  6942 ;; Tracked objects:
  6943 ;;		On entry : 0/0
  6944 ;;		On exit  : 0/0
  6945 ;;		Unchanged: 0/0
  6946 ;; Data sizes:     COMMON   BANK0   BANK1   BANK2   BANK3   BANK4   BANK5   BANK6   BANK7   BANK8   BANK9  BANK10  BANK1
      +1  BANK12  BANK13  BANK14  BANK15  BANK16  BANK17  BANK18  BANK19  BANK20  BANK21  BANK22  BANK23  BANK24  BANK25
  6947 ;;      Params:         0       0       0       0       0       0       0       0       0       0       0       0       
      +0       0       0       0       0       0       0       0       0       0       0       0       0       0       0
  6948 ;;      Locals:         1       0       0       0       0       0       0       0       0       0       0       0       
      +0       0       0       0       0       0       0       0       0       0       0       0       0       0       0
  6949 ;;      Temps:          2       0       0       0       0       0       0       0       0       0       0       0       
      +0       0       0       0       0       0       0       0       0       0       0       0       0       0       0
  6950 ;;      Totals:         3       0       0       0       0       0       0       0       0       0       0       0       
      +0       0       0       0       0       0       0       0       0       0       0       0       0       0       0
  6951 ;;Total ram usage:        3 bytes
  6952 ;; Hardware stack levels used:    1
  6953 ;; Hardware stack levels required when called:    1
  6954 ;; This function calls:
  6955 ;;		i1_LCDWriteNibble
  6956 ;; This function is called by:
  6957 ;;		_idleScreen
  6958 ;;		i1_LCDPutStr
  6959 ;; This function uses a non-reentrant model
  6960 ;;
  6961                           
  6962                           
  6963                           ;psect for function i1_LCDPutChar
  6964  0588                     i1_LCDPutChar:
  6965                           
  6966                           ;incstack = 0
  6967                           ; Regs used in i1_LCDPutChar: [wreg+status,2+status,0+pclath+cstack]
  6968                           ;i1LCDPutChar@ch stored from wreg
  6969  0588  00F6               	movwf	i1LCDPutChar@ch
  6970  0589                     i1l1470:
  6971                           
  6972                           ;lcd.c: 101: void LCDPutChar(uint8_t ch);lcd.c: 102: {;lcd.c: 103:   _delay((unsigned lo
      +                          ng)((5)*(500000/4000.0)));
  6973  0589  30D0               	movlw	208
  6974  058A                     u128_27:
  6975  058A  0B89               	decfsz	9,f
  6976  058B  2D8A               	goto	u128_27
  6977  058C  0000               	nop
  6978  058D                     i1l1472:
  6979                           
  6980                           ;lcd.c: 106:   LCDWriteNibble(ch, 1);
  6981  058D  01F0               	clrf	i1LCDWriteNibble@rs
  6982  058E  0AF0               	incf	i1LCDWriteNibble@rs,f
  6983  058F  0876               	movf	i1LCDPutChar@ch,w
  6984  0590  3184  24D0  3185   	fcall	i1_LCDWriteNibble
  6985  0593                     i1l1474:
  6986                           
  6987                           ;lcd.c: 109:   ch = (uint8_t)(ch << 4);
  6988  0593  0876               	movf	i1LCDPutChar@ch,w
  6989  0594  00F4               	movwf	??i1_LCDPutChar
  6990  0595  3003               	movlw	3
  6991  0596                     u39_25:
  6992  0596  35F4               	lslf	??i1_LCDPutChar,f
  6993  0597  3EFF               	addlw	-1
  6994  0598  1D03               	skipz
  6995  0599  2D96               	goto	u39_25
  6996  059A  3574               	lslf	??i1_LCDPutChar,w
  6997  059B  00F5               	movwf	??i1_LCDPutChar+1
  6998  059C  0875               	movf	??i1_LCDPutChar+1,w
  6999  059D  00F6               	movwf	i1LCDPutChar@ch
  7000  059E                     i1l1476:
  7001                           
  7002                           ;lcd.c: 112:   LCDWriteNibble(ch, 1);
  7003  059E  01F0               	clrf	i1LCDWriteNibble@rs
  7004  059F  0AF0               	incf	i1LCDWriteNibble@rs,f
  7005  05A0  0876               	movf	i1LCDPutChar@ch,w
  7006  05A1  3184  24D0  3185   	fcall	i1_LCDWriteNibble
  7007  05A4                     i1l281:
  7008  05A4  0008               	return
  7009  05A5                     __end_ofi1_LCDPutChar:
  7010                           
  7011                           	psect	text44
  7012  03FD                     __ptext44:	
  7013 ;; *************** function i1_LCDGoto *****************
  7014 ;; Defined at:
  7015 ;;		line 143 in file "lcd.c"
  7016 ;; Parameters:    Size  Location     Type
  7017 ;;  pos             1    wreg     unsigned char 
  7018 ;;  ln              1    7[COMMON] unsigned char 
  7019 ;; Auto vars:     Size  Location     Type
  7020 ;;  pos             1   10[COMMON] unsigned char 
  7021 ;; Return value:  Size  Location     Type
  7022 ;;                  1    wreg      void 
  7023 ;; Registers used:
  7024 ;;		wreg, status,2, status,0, pclath, cstack
  7025 ;; Tracked objects:
  7026 ;;		On entry : 0/0
  7027 ;;		On exit  : 0/0
  7028 ;;		Unchanged: 0/0
  7029 ;; Data sizes:     COMMON   BANK0   BANK1   BANK2   BANK3   BANK4   BANK5   BANK6   BANK7   BANK8   BANK9  BANK10  BANK1
      +1  BANK12  BANK13  BANK14  BANK15  BANK16  BANK17  BANK18  BANK19  BANK20  BANK21  BANK22  BANK23  BANK24  BANK25
  7030 ;;      Params:         1       0       0       0       0       0       0       0       0       0       0       0       
      +0       0       0       0       0       0       0       0       0       0       0       0       0       0       0
  7031 ;;      Locals:         3       0       0       0       0       0       0       0       0       0       0       0       
      +0       0       0       0       0       0       0       0       0       0       0       0       0       0       0
  7032 ;;      Temps:          0       0       0       0       0       0       0       0       0       0       0       0       
      +0       0       0       0       0       0       0       0       0       0       0       0       0       0       0
  7033 ;;      Totals:         4       0       0       0       0       0       0       0       0       0       0       0       
      +0       0       0       0       0       0       0       0       0       0       0       0       0       0       0
  7034 ;;Total ram usage:        4 bytes
  7035 ;; Hardware stack levels used:    1
  7036 ;; Hardware stack levels required when called:    2
  7037 ;; This function calls:
  7038 ;;		i1_LCDPutCmd
  7039 ;; This function is called by:
  7040 ;;		_LCDClear
  7041 ;;		_idleScreen
  7042 ;;		_startFight
  7043 ;;		i1_printMenu
  7044 ;;		i1_mainMenu
  7045 ;;		i1_cleanMenu
  7046 ;;		i1_cleanFullMenu
  7047 ;; This function uses a non-reentrant model
  7048 ;;
  7049                           
  7050                           
  7051                           ;psect for function i1_LCDGoto
  7052  03FD                     i1_LCDGoto:
  7053                           
  7054                           ;incstack = 0
  7055                           ; Regs used in i1_LCDGoto: [wreg+status,2+status,0+pclath+cstack]
  7056                           ;i1LCDGoto@pos stored from wreg
  7057  03FD  00FA               	movwf	i1LCDGoto@pos
  7058  03FE                     i1l1496:
  7059                           
  7060                           ;lcd.c: 143: void LCDGoto(uint8_t pos, uint8_t ln);lcd.c: 144: {;lcd.c: 146:   if ((ln >
      +                           (2 - 1)) || (pos > (16 - 1)))
  7061  03FE  3002               	movlw	2
  7062  03FF  0277               	subwf	i1LCDGoto@ln,w
  7063  0400  1803               	skipnc
  7064  0401  2C03               	goto	u42_21
  7065  0402  2C04               	goto	u42_20
  7066  0403                     u42_21:
  7067  0403  2C23               	goto	i1l296
  7068  0404                     u42_20:
  7069  0404                     i1l1498:
  7070  0404  3010               	movlw	16
  7071  0405  027A               	subwf	i1LCDGoto@pos,w
  7072  0406  1C03               	skipc
  7073  0407  2C09               	goto	u43_21
  7074  0408  2C0A               	goto	u43_20
  7075  0409                     u43_21:
  7076  0409  2C0B               	goto	i1l1500
  7077  040A                     u43_20:
  7078  040A  2C23               	goto	i1l296
  7079  040B                     i1l1500:
  7080                           
  7081                           ;lcd.c: 153:   LCDPutCmd((ln == 1) ? (0xC0 | pos) : (0x80 | pos));
  7082  040B  0377               	decf	i1LCDGoto@ln,w
  7083  040C  1903               	btfsc	3,2
  7084  040D  2C0F               	goto	u44_21
  7085  040E  2C10               	goto	u44_20
  7086  040F                     u44_21:
  7087  040F  2C16               	goto	i1l1504
  7088  0410                     u44_20:
  7089  0410                     i1l1502:
  7090  0410  3080               	movlw	128
  7091  0411  047A               	iorwf	i1LCDGoto@pos,w
  7092  0412  00F8               	movwf	i1_LCDGoto$473
  7093  0413  3000               	movlw	0
  7094  0414  00F9               	movwf	i1_LCDGoto$473+1
  7095  0415  2C1B               	goto	i1l1506
  7096  0416                     i1l1504:
  7097  0416  30C0               	movlw	192
  7098  0417  047A               	iorwf	i1LCDGoto@pos,w
  7099  0418  00F8               	movwf	i1_LCDGoto$473
  7100  0419  3000               	movlw	0
  7101  041A  00F9               	movwf	i1_LCDGoto$473+1
  7102  041B                     i1l1506:
  7103  041B  0878               	movf	i1_LCDGoto$473,w
  7104  041C  3185  250F  3183   	fcall	i1_LCDPutCmd
  7105  041F                     i1l1508:
  7106                           
  7107                           ;lcd.c: 156:   _delay((unsigned long)((5)*(500000/4000.0)));
  7108  041F  30D0               	movlw	208
  7109  0420                     u129_27:
  7110  0420  0B89               	decfsz	9,f
  7111  0421  2C20               	goto	u129_27
  7112  0422  0000               	nop
  7113  0423                     i1l296:
  7114  0423  0008               	return
  7115  0424                     __end_ofi1_LCDGoto:
  7116                           
  7117                           	psect	text45
  7118  050F                     __ptext45:	
  7119 ;; *************** function i1_LCDPutCmd *****************
  7120 ;; Defined at:
  7121 ;;		line 115 in file "lcd.c"
  7122 ;; Parameters:    Size  Location     Type
  7123 ;;  ch              1    wreg     unsigned char 
  7124 ;; Auto vars:     Size  Location     Type
  7125 ;;  ch              1    6[COMMON] unsigned char 
  7126 ;; Return value:  Size  Location     Type
  7127 ;;                  1    wreg      void 
  7128 ;; Registers used:
  7129 ;;		wreg, status,2, status,0, pclath, cstack
  7130 ;; Tracked objects:
  7131 ;;		On entry : 0/0
  7132 ;;		On exit  : 0/0
  7133 ;;		Unchanged: 0/0
  7134 ;; Data sizes:     COMMON   BANK0   BANK1   BANK2   BANK3   BANK4   BANK5   BANK6   BANK7   BANK8   BANK9  BANK10  BANK1
      +1  BANK12  BANK13  BANK14  BANK15  BANK16  BANK17  BANK18  BANK19  BANK20  BANK21  BANK22  BANK23  BANK24  BANK25
  7135 ;;      Params:         0       0       0       0       0       0       0       0       0       0       0       0       
      +0       0       0       0       0       0       0       0       0       0       0       0       0       0       0
  7136 ;;      Locals:         1       0       0       0       0       0       0       0       0       0       0       0       
      +0       0       0       0       0       0       0       0       0       0       0       0       0       0       0
  7137 ;;      Temps:          2       0       0       0       0       0       0       0       0       0       0       0       
      +0       0       0       0       0       0       0       0       0       0       0       0       0       0       0
  7138 ;;      Totals:         3       0       0       0       0       0       0       0       0       0       0       0       
      +0       0       0       0       0       0       0       0       0       0       0       0       0       0       0
  7139 ;;Total ram usage:        3 bytes
  7140 ;; Hardware stack levels used:    1
  7141 ;; Hardware stack levels required when called:    1
  7142 ;; This function calls:
  7143 ;;		i1_LCDWriteNibble
  7144 ;; This function is called by:
  7145 ;;		i1_LCDGoto
  7146 ;; This function uses a non-reentrant model
  7147 ;;
  7148                           
  7149                           
  7150                           ;psect for function i1_LCDPutCmd
  7151  050F                     i1_LCDPutCmd:
  7152                           
  7153                           ;incstack = 0
  7154                           ; Regs used in i1_LCDPutCmd: [wreg+status,2+status,0+pclath+cstack]
  7155                           ;i1LCDPutCmd@ch stored from wreg
  7156  050F  00F6               	movwf	i1LCDPutCmd@ch
  7157  0510                     i1l1478:
  7158                           
  7159                           ;lcd.c: 115: void LCDPutCmd(uint8_t ch);lcd.c: 116: {;lcd.c: 117:   _delay((unsigned lon
      +                          g)((5)*(500000/4000.0)));
  7160  0510  30D0               	movlw	208
  7161  0511                     u130_27:
  7162  0511  0B89               	decfsz	9,f
  7163  0512  2D11               	goto	u130_27
  7164  0513  0000               	nop
  7165  0514                     i1l1480:
  7166                           
  7167                           ;lcd.c: 120:   LCDWriteNibble(ch, 0);
  7168  0514  01F0               	clrf	i1LCDWriteNibble@rs
  7169  0515  0876               	movf	i1LCDPutCmd@ch,w
  7170  0516  3184  24D0  3185   	fcall	i1_LCDWriteNibble
  7171  0519                     i1l1482:
  7172                           
  7173                           ;lcd.c: 123:   ch = (uint8_t)(ch << 4);
  7174  0519  0876               	movf	i1LCDPutCmd@ch,w
  7175  051A  00F4               	movwf	??i1_LCDPutCmd
  7176  051B  3003               	movlw	3
  7177  051C                     u40_25:
  7178  051C  35F4               	lslf	??i1_LCDPutCmd,f
  7179  051D  3EFF               	addlw	-1
  7180  051E  1D03               	skipz
  7181  051F  2D1C               	goto	u40_25
  7182  0520  3574               	lslf	??i1_LCDPutCmd,w
  7183  0521  00F5               	movwf	??i1_LCDPutCmd+1
  7184  0522  0875               	movf	??i1_LCDPutCmd+1,w
  7185  0523  00F6               	movwf	i1LCDPutCmd@ch
  7186  0524                     i1l1484:
  7187                           
  7188                           ;lcd.c: 125:   _delay((unsigned long)((1)*(500000/4000.0)));
  7189  0524  3029               	movlw	41
  7190  0525                     u131_27:
  7191  0525  0B89               	decfsz	9,f
  7192  0526  2D25               	goto	u131_27
  7193  0527  3200               	nop2
  7194  0528                     i1l1486:
  7195                           
  7196                           ;lcd.c: 128:   LCDWriteNibble(ch, 0);
  7197  0528  01F0               	clrf	i1LCDWriteNibble@rs
  7198  0529  0876               	movf	i1LCDPutCmd@ch,w
  7199  052A  3184  24D0  3185   	fcall	i1_LCDWriteNibble
  7200  052D                     i1l284:
  7201  052D  0008               	return
  7202  052E                     __end_ofi1_LCDPutCmd:
  7203                           
  7204                           	psect	text46
  7205  04D0                     __ptext46:	
  7206 ;; *************** function i1_LCDWriteNibble *****************
  7207 ;; Defined at:
  7208 ;;		line 74 in file "lcd.c"
  7209 ;; Parameters:    Size  Location     Type
  7210 ;;  ch              1    wreg     unsigned char 
  7211 ;;  rs              1    0[COMMON] unsigned char 
  7212 ;; Auto vars:     Size  Location     Type
  7213 ;;  ch              1    3[COMMON] unsigned char 
  7214 ;; Return value:  Size  Location     Type
  7215 ;;                  1    wreg      void 
  7216 ;; Registers used:
  7217 ;;		wreg, status,2, status,0
  7218 ;; Tracked objects:
  7219 ;;		On entry : 0/0
  7220 ;;		On exit  : 0/0
  7221 ;;		Unchanged: 0/0
  7222 ;; Data sizes:     COMMON   BANK0   BANK1   BANK2   BANK3   BANK4   BANK5   BANK6   BANK7   BANK8   BANK9  BANK10  BANK1
      +1  BANK12  BANK13  BANK14  BANK15  BANK16  BANK17  BANK18  BANK19  BANK20  BANK21  BANK22  BANK23  BANK24  BANK25
  7223 ;;      Params:         1       0       0       0       0       0       0       0       0       0       0       0       
      +0       0       0       0       0       0       0       0       0       0       0       0       0       0       0
  7224 ;;      Locals:         1       0       0       0       0       0       0       0       0       0       0       0       
      +0       0       0       0       0       0       0       0       0       0       0       0       0       0       0
  7225 ;;      Temps:          2       0       0       0       0       0       0       0       0       0       0       0       
      +0       0       0       0       0       0       0       0       0       0       0       0       0       0       0
  7226 ;;      Totals:         4       0       0       0       0       0       0       0       0       0       0       0       
      +0       0       0       0       0       0       0       0       0       0       0       0       0       0       0
  7227 ;;Total ram usage:        4 bytes
  7228 ;; Hardware stack levels used:    1
  7229 ;; This function calls:
  7230 ;;		Nothing
  7231 ;; This function is called by:
  7232 ;;		i1_LCDPutChar
  7233 ;;		i1_LCDPutCmd
  7234 ;; This function uses a non-reentrant model
  7235 ;;
  7236                           
  7237                           
  7238                           ;psect for function i1_LCDWriteNibble
  7239  04D0                     i1_LCDWriteNibble:
  7240                           
  7241                           ;incstack = 0
  7242                           ; Regs used in i1_LCDWriteNibble: [wreg+status,2+status,0]
  7243                           ;i1LCDWriteNibble@ch stored from wreg
  7244  04D0  00F3               	movwf	i1LCDWriteNibble@ch
  7245  04D1                     i1l1456:
  7246                           
  7247                           ;lcd.c: 74: void LCDWriteNibble(uint8_t ch, uint8_t rs);lcd.c: 75: {;lcd.c: 77:   ch = (
      +                          ch >> 4);
  7248  04D1  0873               	movf	i1LCDWriteNibble@ch,w
  7249  04D2  00F1               	movwf	??i1_LCDWriteNibble
  7250  04D3  3004               	movlw	4
  7251  04D4                     u38_25:
  7252  04D4  36F1               	lsrf	??i1_LCDWriteNibble,f
  7253  04D5  0B89               	decfsz	9,f
  7254  04D6  2CD4               	goto	u38_25
  7255  04D7  0871               	movf	??i1_LCDWriteNibble,w
  7256  04D8  00F2               	movwf	??i1_LCDWriteNibble+1
  7257  04D9  0872               	movf	??i1_LCDWriteNibble+1,w
  7258  04DA  00F3               	movwf	i1LCDWriteNibble@ch
  7259  04DB                     i1l1458:
  7260                           
  7261                           ;lcd.c: 80:   ch = (ch & 0x0F);
  7262  04DB  0873               	movf	i1LCDWriteNibble@ch,w
  7263  04DC  390F               	andlw	15
  7264  04DD  00F1               	movwf	??i1_LCDWriteNibble
  7265  04DE  0871               	movf	??i1_LCDWriteNibble,w
  7266  04DF  00F3               	movwf	i1LCDWriteNibble@ch
  7267  04E0                     i1l1460:
  7268                           
  7269                           ;lcd.c: 83:   PORTB = (PORTB & 0xF0);
  7270  04E0  0020               	movlb	0	; select bank0
  7271  04E1  080D               	movf	13,w	;volatile
  7272  04E2  39F0               	andlw	240
  7273  04E3  008D               	movwf	13	;volatile
  7274                           
  7275                           ;lcd.c: 86:   PORTB = (PORTB | ch);
  7276  04E4  080D               	movf	13,w	;volatile
  7277  04E5  0473               	iorwf	i1LCDWriteNibble@ch,w
  7278  04E6  008D               	movwf	13	;volatile
  7279  04E7                     i1l1462:
  7280                           
  7281                           ;lcd.c: 89:   PORTBbits.RB5 = rs;
  7282  04E7  0C70               	rrf	i1LCDWriteNibble@rs,w
  7283  04E8  1C03               	skipc
  7284  04E9  128D               	bcf	13,5	;volatile
  7285  04EA  1803               	skipnc
  7286  04EB  168D               	bsf	13,5	;volatile
  7287  04EC                     i1l1464:
  7288                           
  7289                           ;lcd.c: 92:   PORTBbits.RB6 = 0;
  7290  04EC  130D               	bcf	13,6	;volatile
  7291  04ED                     i1l1466:
  7292                           
  7293                           ;lcd.c: 95:   PORTBbits.RB4 = 1;
  7294  04ED  160D               	bsf	13,4	;volatile
  7295  04EE                     i1l1468:
  7296                           
  7297                           ;lcd.c: 98:   PORTBbits.RB4 = 0;
  7298  04EE  120D               	bcf	13,4	;volatile
  7299  04EF                     i1l278:
  7300  04EF  0008               	return
  7301  04F0                     __end_ofi1_LCDWriteNibble:
  7302                           
  7303                           	psect	text47
  7304  06DA                     __ptext47:	
  7305 ;; *************** function _IOCAF0_DefaultInterruptHandler *****************
  7306 ;; Defined at:
  7307 ;;		line 250 in file "mcc_generated_files/pin_manager.c"
  7308 ;; Parameters:    Size  Location     Type
  7309 ;;		None
  7310 ;; Auto vars:     Size  Location     Type
  7311 ;;		None
  7312 ;; Return value:  Size  Location     Type
  7313 ;;                  1    wreg      void 
  7314 ;; Registers used:
  7315 ;;		None
  7316 ;; Tracked objects:
  7317 ;;		On entry : 0/0
  7318 ;;		On exit  : 0/0
  7319 ;;		Unchanged: 0/0
  7320 ;; Data sizes:     COMMON   BANK0   BANK1   BANK2   BANK3   BANK4   BANK5   BANK6   BANK7   BANK8   BANK9  BANK10  BANK1
      +1  BANK12  BANK13  BANK14  BANK15  BANK16  BANK17  BANK18  BANK19  BANK20  BANK21  BANK22  BANK23  BANK24  BANK25
  7321 ;;      Params:         0       0       0       0       0       0       0       0       0       0       0       0       
      +0       0       0       0       0       0       0       0       0       0       0       0       0       0       0
  7322 ;;      Locals:         0       0       0       0       0       0       0       0       0       0       0       0       
      +0       0       0       0       0       0       0       0       0       0       0       0       0       0       0
  7323 ;;      Temps:          0       0       0       0       0       0       0       0       0       0       0       0       
      +0       0       0       0       0       0       0       0       0       0       0       0       0       0       0
  7324 ;;      Totals:         0       0       0       0       0       0       0       0       0       0       0       0       
      +0       0       0       0       0       0       0       0       0       0       0       0       0       0       0
  7325 ;;Total ram usage:        0 bytes
  7326 ;; Hardware stack levels used:    1
  7327 ;; This function calls:
  7328 ;;		Nothing
  7329 ;; This function is called by:
  7330 ;;		_PIN_MANAGER_Initialize
  7331 ;;		_IOCAF0_ISR
  7332 ;; This function uses a non-reentrant model
  7333 ;;
  7334                           
  7335                           
  7336                           ;psect for function _IOCAF0_DefaultInterruptHandler
  7337  06DA                     _IOCAF0_DefaultInterruptHandler:
  7338  06DA                     i1l143:	
  7339                           ;incstack = 0
  7340                           ; Regs used in _IOCAF0_DefaultInterruptHandler: []
  7341                           
  7342  06DA  0008               	return
  7343  06DB                     __end_of_IOCAF0_DefaultInterruptHandler:
  7344  007E                     btemp	set	126	;btemp
  7345  007E                     int$flags	set	126
  7346  007E                     wtemp0	set	126
  7347                           
  7348                           	psect	config
  7349                           
  7350                           ;Config register CONFIG1 @ 0x8007
  7351                           ;	Oscillator Selection Bits
  7352                           ;	FOSC = INTOSC, INTOSC oscillator: I/O function on CLKIN pin
  7353                           ;	Watchdog Timer Enable
  7354                           ;	WDTE = OFF, WDT disabled
  7355                           ;	Power-up Timer Enable
  7356                           ;	PWRTE = OFF, PWRT disabled
  7357                           ;	MCLR Pin Function Select
  7358                           ;	MCLRE = ON, MCLR/VPP pin function is MCLR
  7359                           ;	Flash Program Memory Code Protection
  7360                           ;	CP = OFF, Program memory code protection is disabled
  7361                           ;	Brown-out Reset Enable
  7362                           ;	BOREN = ON, Brown-out Reset enabled
  7363                           ;	Clock Out Enable
  7364                           ;	CLKOUTEN = OFF, CLKOUT function is disabled. I/O or oscillator function on the CLKOUT 
      +                          pin
  7365                           ;	Internal/External Switchover Mode
  7366                           ;	IESO = ON, Internal/External Switchover Mode is enabled
  7367                           ;	Fail-Safe Clock Monitor Enable
  7368                           ;	FCMEN = ON, Fail-Safe Clock Monitor is enabled
  7369  8007                     	org	32775
  7370  8007  3FE4               	dw	16356
  7371                           
  7372                           ;Config register CONFIG2 @ 0x8008
  7373                           ;	Flash Memory Self-Write Protection
  7374                           ;	WRT = OFF, Write protection off
  7375                           ;	Peripheral Pin Select one-way control
  7376                           ;	PPS1WAY = ON, The PPSLOCK bit cannot be cleared once it is set by software
  7377                           ;	Zero-cross detect disable
  7378                           ;	ZCDDIS = ON, Zero-cross detect circuit is disabled at POR and can be enabled with ZCDS
      +                          EN bit.
  7379                           ;	Phase Lock Loop enable
  7380                           ;	PLLEN = ON, 4x PLL is always enabled
  7381                           ;	Stack Overflow/Underflow Reset Enable
  7382                           ;	STVREN = ON, Stack Overflow or Underflow will cause a Reset
  7383                           ;	Brown-out Reset Voltage Selection
  7384                           ;	BORV = LO, Brown-out Reset Voltage (Vbor), low trip point selected.
  7385                           ;	Low-Power Brown Out Reset
  7386                           ;	LPBOR = OFF, Low-Power BOR is disabled
  7387                           ;	Low-Voltage Programming Enable
  7388                           ;	LVP = OFF, High-voltage on MCLR/VPP must be used for programming
  7389  8008                     	org	32776
  7390  8008  1FFF               	dw	8191

Data Sizes:
    Strings     106
    Constant    0
    Data        33
    BSS         3
    Persistent  44
    Stack       0

Auto Spaces:
    Space          Size  Autos    Used
    COMMON           14     14      14
    BANK0            80     22      54
    BANK1            80     32      48
    BANK2            80      0       0
    BANK3            80      0       0
    BANK4            80      0       0
    BANK5            80      0       0
    BANK6            80      0       0
    BANK7            80      0       0
    BANK8            80      0       0
    BANK9            80      0       0
    BANK10           80      0       0
    BANK11           80      0       0
    BANK12           80      0       0
    BANK13           80      0       0
    BANK14           80      0       0
    BANK15           80      0       0
    BANK16           80      0       0
    BANK17           80      0       0
    BANK18           80      0       0
    BANK19           80      0       0
    BANK20           80      0       0
    BANK21           80      0       0
    BANK22           80      0       0
    BANK23           80      0       0
    BANK24           80      0       0
    BANK25           32      0       0

Pointer List with Targets:

    createCustomCharacter@Pattern	PTR unsigned char  size(1) Largest target is 8
		 -> main@Pattern4(BANK1[8]), main@Pattern3(BANK1[8]), main@Pattern2(BANK1[8]), main@Pattern1(BANK1[8]), 

    LCDPutStr@str	PTR const unsigned char  size(2) Largest target is 17
		 -> STR_18(CODE[17]), STR_17(CODE[17]), STR_16(CODE[12]), STR_15(CODE[11]), 
		 -> STR_14(CODE[11]), STR_13(CODE[9]), STR_12(CODE[14]), STR_11(CODE[14]), 
		 -> STR_10(CODE[14]), STR_9(CODE[9]), STR_8(CODE[14]), STR_7(CODE[14]), 
		 -> STR_6(CODE[14]), STR_5(CODE[12]), STR_4(CODE[2]), STR_3(CODE[2]), 
		 -> STR_2(CODE[17]), STR_1(CODE[17]), 

    IOCAF5_SetInterruptHandler@InterruptHandler	PTR FTN()void  size(2) Largest target is 1
		 -> IOCAF5_DefaultInterruptHandler(), 

    IOCAF5_InterruptHandler	PTR FTN()void  size(2) Largest target is 1
		 -> Absolute function(), IOCAF5_DefaultInterruptHandler(), 

    IOCAF4_SetInterruptHandler@InterruptHandler	PTR FTN()void  size(2) Largest target is 1
		 -> IOCAF4_DefaultInterruptHandler(), 

    IOCAF4_InterruptHandler	PTR FTN()void  size(2) Largest target is 1
		 -> Absolute function(), IOCAF4_DefaultInterruptHandler(), 

    IOCAF3_SetInterruptHandler@InterruptHandler	PTR FTN()void  size(2) Largest target is 1
		 -> IOCAF3_DefaultInterruptHandler(), 

    IOCAF3_InterruptHandler	PTR FTN()void  size(2) Largest target is 1
		 -> Absolute function(), IOCAF3_DefaultInterruptHandler(), 

    IOCAF2_SetInterruptHandler@InterruptHandler	PTR FTN()void  size(2) Largest target is 1
		 -> IOCAF2_DefaultInterruptHandler(), 

    IOCAF2_InterruptHandler	PTR FTN()void  size(2) Largest target is 1
		 -> Absolute function(), IOCAF2_DefaultInterruptHandler(), 

    IOCAF1_SetInterruptHandler@InterruptHandler	PTR FTN()void  size(2) Largest target is 1
		 -> IOCAF1_DefaultInterruptHandler(), 

    IOCAF1_InterruptHandler	PTR FTN()void  size(2) Largest target is 1
		 -> Absolute function(), IOCAF1_DefaultInterruptHandler(), 

    IOCAF0_SetInterruptHandler@InterruptHandler	PTR FTN()void  size(2) Largest target is 1
		 -> IOCAF0_DefaultInterruptHandler(), 

    IOCAF0_InterruptHandler	PTR FTN()void  size(2) Largest target is 1
		 -> Absolute function(), IOCAF0_DefaultInterruptHandler(), 


Critical Paths under _main in COMMON

    None.

Critical Paths under _INTERRUPT_InterruptManager in COMMON

    _startFight->i1_LCDPutStr
    _LCDClear->i1_LCDPutStr
    i1_printMenu->i1_LCDPutStr
    i1_mainMenu->i1_LCDPutStr
    i1_cleanMenu->i1_LCDPutStr
    i1_cleanFullMenu->i1_LCDPutStr
    i1_LCDPutStr->i1_LCDPutChar
    i1_LCDPutChar->i1_LCDWriteNibble
    i1_LCDGoto->i1_LCDPutCmd
    i1_LCDPutCmd->i1_LCDWriteNibble

Critical Paths under _main in BANK0

    _printMenu->_mainMenu
    _mainMenu->_LCDPutStr
    _cleanMenu->_LCDPutStr
    _cleanFullMenu->_LCDPutStr
    _LCDPutStr->_LCDPutChar
    _LCDGoto->_LCDPutCmd
    _createCustomCharacter->_LCDPutChar
    _createCustomCharacter->_LCDPutCmd
    _LCDPutChar->_LCDWriteNibble
    _PIN_MANAGER_Initialize->_IOCAF0_SetInterruptHandler
    _PIN_MANAGER_Initialize->_IOCAF1_SetInterruptHandler
    _PIN_MANAGER_Initialize->_IOCAF2_SetInterruptHandler
    _PIN_MANAGER_Initialize->_IOCAF3_SetInterruptHandler
    _PIN_MANAGER_Initialize->_IOCAF4_SetInterruptHandler
    _PIN_MANAGER_Initialize->_IOCAF5_SetInterruptHandler
    _LCD_Initialize->_LCDPutCmd
    _LCDPutCmd->_LCDWriteNibble

Critical Paths under _INTERRUPT_InterruptManager in BANK0

    _PIN_MANAGER_IOC->_IOCAF5_ISR
    _IOCAF5_ISR->_startFight
    i1_printMenu->i1_mainMenu

Critical Paths under _main in BANK1

    None.

Critical Paths under _INTERRUPT_InterruptManager in BANK1

    None.

Critical Paths under _main in BANK2

    None.

Critical Paths under _INTERRUPT_InterruptManager in BANK2

    None.

Critical Paths under _main in BANK3

    None.

Critical Paths under _INTERRUPT_InterruptManager in BANK3

    None.

Critical Paths under _main in BANK4

    None.

Critical Paths under _INTERRUPT_InterruptManager in BANK4

    None.

Critical Paths under _main in BANK5

    None.

Critical Paths under _INTERRUPT_InterruptManager in BANK5

    None.

Critical Paths under _main in BANK6

    None.

Critical Paths under _INTERRUPT_InterruptManager in BANK6

    None.

Critical Paths under _main in BANK7

    None.

Critical Paths under _INTERRUPT_InterruptManager in BANK7

    None.

Critical Paths under _main in BANK8

    None.

Critical Paths under _INTERRUPT_InterruptManager in BANK8

    None.

Critical Paths under _main in BANK9

    None.

Critical Paths under _INTERRUPT_InterruptManager in BANK9

    None.

Critical Paths under _main in BANK10

    None.

Critical Paths under _INTERRUPT_InterruptManager in BANK10

    None.

Critical Paths under _main in BANK11

    None.

Critical Paths under _INTERRUPT_InterruptManager in BANK11

    None.

Critical Paths under _main in BANK12

    None.

Critical Paths under _INTERRUPT_InterruptManager in BANK12

    None.

Critical Paths under _main in BANK13

    None.

Critical Paths under _INTERRUPT_InterruptManager in BANK13

    None.

Critical Paths under _main in BANK14

    None.

Critical Paths under _INTERRUPT_InterruptManager in BANK14

    None.

Critical Paths under _main in BANK15

    None.

Critical Paths under _INTERRUPT_InterruptManager in BANK15

    None.

Critical Paths under _main in BANK16

    None.

Critical Paths under _INTERRUPT_InterruptManager in BANK16

    None.

Critical Paths under _main in BANK17

    None.

Critical Paths under _INTERRUPT_InterruptManager in BANK17

    None.

Critical Paths under _main in BANK18

    None.

Critical Paths under _INTERRUPT_InterruptManager in BANK18

    None.

Critical Paths under _main in BANK19

    None.

Critical Paths under _INTERRUPT_InterruptManager in BANK19

    None.

Critical Paths under _main in BANK20

    None.

Critical Paths under _INTERRUPT_InterruptManager in BANK20

    None.

Critical Paths under _main in BANK21

    None.

Critical Paths under _INTERRUPT_InterruptManager in BANK21

    None.

Critical Paths under _main in BANK22

    None.

Critical Paths under _INTERRUPT_InterruptManager in BANK22

    None.

Critical Paths under _main in BANK23

    None.

Critical Paths under _INTERRUPT_InterruptManager in BANK23

    None.

Critical Paths under _main in BANK24

    None.

Critical Paths under _INTERRUPT_InterruptManager in BANK24

    None.

Critical Paths under _main in BANK25

    None.

Critical Paths under _INTERRUPT_InterruptManager in BANK25

    None.

Call Graph Tables:

 ---------------------------------------------------------------------------------
 (Depth) Function   	        Calls       Base Space   Used Autos Params    Refs
 ---------------------------------------------------------------------------------
 (0) _main                                                33    33      0   22556
                                             21 BANK0      1     1      0
                                              0 BANK1     32    32      0
                     _LCD_Initialize
                  _SYSTEM_Initialize
              _createCustomCharacter
                          _printMenu
 ---------------------------------------------------------------------------------
 (1) _printMenu                                            0     0      0   19256
                            _LCDGoto
                          _LCDPutStr
                      _cleanFullMenu
                          _cleanMenu
                           _mainMenu
 ---------------------------------------------------------------------------------
 (2) _mainMenu                                             2     2      0    4814
                                             19 BANK0      2     2      0
                            _LCDGoto
                          _LCDPutStr
 ---------------------------------------------------------------------------------
 (2) _cleanMenu                                            0     0      0    4814
                            _LCDGoto
                          _LCDPutStr
 ---------------------------------------------------------------------------------
 (2) _cleanFullMenu                                        0     0      0    4814
                            _LCDGoto
                          _LCDPutStr
 ---------------------------------------------------------------------------------
 (3) _LCDPutStr                                            6     4      2    2231
                                             13 BANK0      6     4      2
                         _LCDPutChar
 ---------------------------------------------------------------------------------
 (3) _LCDGoto                                              4     3      1    2583
                                             13 BANK0      4     3      1
                          _LCDPutCmd
 ---------------------------------------------------------------------------------
 (1) _createCustomCharacter                                5     4      1    1840
                                             13 BANK0      5     4      1
                         _LCDPutChar
                          _LCDPutCmd
 ---------------------------------------------------------------------------------
 (4) _LCDPutChar                                           3     3      0     586
                                             10 BANK0      3     3      0
                     _LCDWriteNibble
 ---------------------------------------------------------------------------------
 (1) _SYSTEM_Initialize                                    0     0      0     726
              _OSCILLATOR_Initialize
             _PIN_MANAGER_Initialize
                     _WDT_Initialize
 ---------------------------------------------------------------------------------
 (2) _WDT_Initialize                                       0     0      0       0
 ---------------------------------------------------------------------------------
 (2) _PIN_MANAGER_Initialize                               0     0      0     726
         _IOCAF0_SetInterruptHandler
         _IOCAF1_SetInterruptHandler
         _IOCAF2_SetInterruptHandler
         _IOCAF3_SetInterruptHandler
         _IOCAF4_SetInterruptHandler
         _IOCAF5_SetInterruptHandler
 ---------------------------------------------------------------------------------
 (3) _IOCAF5_SetInterruptHandler                           2     0      2     121
                                              6 BANK0      2     0      2
 ---------------------------------------------------------------------------------
 (3) _IOCAF4_SetInterruptHandler                           2     0      2     121
                                              6 BANK0      2     0      2
 ---------------------------------------------------------------------------------
 (3) _IOCAF3_SetInterruptHandler                           2     0      2     121
                                              6 BANK0      2     0      2
 ---------------------------------------------------------------------------------
 (3) _IOCAF2_SetInterruptHandler                           2     0      2     121
                                              6 BANK0      2     0      2
 ---------------------------------------------------------------------------------
 (3) _IOCAF1_SetInterruptHandler                           2     0      2     121
                                              6 BANK0      2     0      2
 ---------------------------------------------------------------------------------
 (3) _IOCAF0_SetInterruptHandler                           2     0      2     121
                                              6 BANK0      2     0      2
 ---------------------------------------------------------------------------------
 (2) _OSCILLATOR_Initialize                                0     0      0       0
 ---------------------------------------------------------------------------------
 (1) _LCD_Initialize                                       1     1      0     586
                                             13 BANK0      1     1      0
                          _LCDPutCmd
 ---------------------------------------------------------------------------------
 (4) _LCDPutCmd                                            3     3      0     586
                                             10 BANK0      3     3      0
                     _LCDWriteNibble
 ---------------------------------------------------------------------------------
 (5) _LCDWriteNibble                                       4     3      1     490
                                              6 BANK0      4     3      1
 ---------------------------------------------------------------------------------
 Estimated maximum stack depth 5
 ---------------------------------------------------------------------------------
 (Depth) Function   	        Calls       Base Space   Used Autos Params    Refs
 ---------------------------------------------------------------------------------
 (6) _INTERRUPT_InterruptManager                           1     1      0   45134
                                             13 COMMON     1     1      0
                    _PIN_MANAGER_IOC
 ---------------------------------------------------------------------------------
 (7) _PIN_MANAGER_IOC                                      0     0      0   45134
                         _IOCAF0_ISR
                         _IOCAF1_ISR
                         _IOCAF2_ISR
                         _IOCAF3_ISR
                         _IOCAF4_ISR
                         _IOCAF5_ISR
 ---------------------------------------------------------------------------------
 (8) _IOCAF5_ISR                                           2     2      0   12534
                                              4 BANK0      2     2      0
                   Absolute function *
     _IOCAF5_DefaultInterruptHandler *
                         _startFight
 ---------------------------------------------------------------------------------
 (9) _startFight                                           2     2      0   12534
                                              2 BANK0      2     2      0
                         _idleScreen
                          i1_LCDGoto
                        i1_LCDPutStr
                    i1_cleanFullMenu
                        i1_printMenu
 ---------------------------------------------------------------------------------
 (10) _idleScreen                                          0     0      0    2754
                           _LCDClear
                          i1_LCDGoto
                       i1_LCDPutChar
 ---------------------------------------------------------------------------------
 (11) _LCDClear                                            0     0      0    1630
                          i1_LCDGoto
                        i1_LCDPutStr
 ---------------------------------------------------------------------------------
 (9) _IOCAF5_DefaultInterruptHandler                       0     0      0       0
 ---------------------------------------------------------------------------------
 (8) _IOCAF4_ISR                                           2     2      0    6520
                                              2 BANK0      2     2      0
                   Absolute function *
     _IOCAF4_DefaultInterruptHandler *
                        i1_printMenu
 ---------------------------------------------------------------------------------
 (9) _IOCAF4_DefaultInterruptHandler                       0     0      0       0
 ---------------------------------------------------------------------------------
 (8) _IOCAF3_ISR                                           2     2      0    6520
                                              2 BANK0      2     2      0
                   Absolute function *
     _IOCAF3_DefaultInterruptHandler *
                        i1_printMenu
 ---------------------------------------------------------------------------------
 (9) _IOCAF3_DefaultInterruptHandler                       0     0      0       0
 ---------------------------------------------------------------------------------
 (8) _IOCAF2_ISR                                           2     2      0    6520
                                              2 BANK0      2     2      0
                   Absolute function *
     _IOCAF2_DefaultInterruptHandler *
                        i1_printMenu
 ---------------------------------------------------------------------------------
 (9) _IOCAF2_DefaultInterruptHandler                       0     0      0       0
 ---------------------------------------------------------------------------------
 (8) _IOCAF1_ISR                                           2     2      0    6520
                                              2 BANK0      2     2      0
                   Absolute function *
     _IOCAF1_DefaultInterruptHandler *
                        i1_printMenu
 ---------------------------------------------------------------------------------
 (9) _IOCAF1_DefaultInterruptHandler                       0     0      0       0
 ---------------------------------------------------------------------------------
 (8) _IOCAF0_ISR                                           2     2      0    6520
                                              2 BANK0      2     2      0
                   Absolute function *
     _IOCAF0_DefaultInterruptHandler *
                        i1_printMenu
 ---------------------------------------------------------------------------------
 (10) i1_printMenu                                         0     0      0    6520
                          i1_LCDGoto
                        i1_LCDPutStr
                    i1_cleanFullMenu
                        i1_cleanMenu
                         i1_mainMenu
 ---------------------------------------------------------------------------------
 (11) i1_mainMenu                                          2     2      0    1630
                                              0 BANK0      2     2      0
                          i1_LCDGoto
                        i1_LCDPutStr
 ---------------------------------------------------------------------------------
 (11) i1_cleanMenu                                         0     0      0    1630
                          i1_LCDGoto
                        i1_LCDPutStr
 ---------------------------------------------------------------------------------
 (11) i1_cleanFullMenu                                     0     0      0    1630
                          i1_LCDGoto
                        i1_LCDPutStr
 ---------------------------------------------------------------------------------
 (12) i1_LCDPutStr                                         6     4      2     767
                                              7 COMMON     6     4      2
                       i1_LCDPutChar
 ---------------------------------------------------------------------------------
 (13) i1_LCDPutChar                                        3     3      0     261
                                              4 COMMON     3     3      0
                   i1_LCDWriteNibble
 ---------------------------------------------------------------------------------
 (12) i1_LCDGoto                                           4     3      1     863
                                              7 COMMON     4     3      1
                        i1_LCDPutCmd
 ---------------------------------------------------------------------------------
 (13) i1_LCDPutCmd                                         3     3      0     261
                                              4 COMMON     3     3      0
                   i1_LCDWriteNibble
 ---------------------------------------------------------------------------------
 (14) i1_LCDWriteNibble                                    4     3      1     194
                                              0 COMMON     4     3      1
 ---------------------------------------------------------------------------------
 (9) _IOCAF0_DefaultInterruptHandler                       0     0      0       0
 ---------------------------------------------------------------------------------
 (9) Absolute function(Fake)                               0     0      0       0
 ---------------------------------------------------------------------------------
 Estimated maximum stack depth 14
 ---------------------------------------------------------------------------------

 Call Graph Graphs:

 _main (ROOT)
   _LCD_Initialize
     _LCDPutCmd
       _LCDWriteNibble
   _SYSTEM_Initialize
     _OSCILLATOR_Initialize
     _PIN_MANAGER_Initialize
       _IOCAF0_SetInterruptHandler
       _IOCAF1_SetInterruptHandler
       _IOCAF2_SetInterruptHandler
       _IOCAF3_SetInterruptHandler
       _IOCAF4_SetInterruptHandler
       _IOCAF5_SetInterruptHandler
     _WDT_Initialize
   _createCustomCharacter
     _LCDPutChar
       _LCDWriteNibble
     _LCDPutCmd
       _LCDWriteNibble
   _printMenu
     _LCDGoto
       _LCDPutCmd
         _LCDWriteNibble
     _LCDPutStr
       _LCDPutChar
         _LCDWriteNibble
     _cleanFullMenu
       _LCDGoto
         _LCDPutCmd
           _LCDWriteNibble
       _LCDPutStr
         _LCDPutChar
           _LCDWriteNibble
     _cleanMenu
       _LCDGoto
         _LCDPutCmd
           _LCDWriteNibble
       _LCDPutStr
         _LCDPutChar
           _LCDWriteNibble
     _mainMenu
       _LCDGoto
         _LCDPutCmd
           _LCDWriteNibble
       _LCDPutStr
         _LCDPutChar
           _LCDWriteNibble

 _INTERRUPT_InterruptManager (ROOT)
   _PIN_MANAGER_IOC
     _IOCAF0_ISR
       Absolute function(Fake) *
       _IOCAF0_DefaultInterruptHandler *
       i1_printMenu *
         i1_LCDGoto
           i1_LCDPutCmd
             i1_LCDWriteNibble
         i1_LCDPutStr
           i1_LCDPutChar
             i1_LCDWriteNibble
         i1_cleanFullMenu
           i1_LCDGoto
             i1_LCDPutCmd
               i1_LCDWriteNibble
           i1_LCDPutStr
             i1_LCDPutChar
               i1_LCDWriteNibble
         i1_cleanMenu
           i1_LCDGoto
             i1_LCDPutCmd
               i1_LCDWriteNibble
           i1_LCDPutStr
             i1_LCDPutChar
               i1_LCDWriteNibble
         i1_mainMenu
           i1_LCDGoto
             i1_LCDPutCmd
               i1_LCDWriteNibble
           i1_LCDPutStr
             i1_LCDPutChar
               i1_LCDWriteNibble
     _IOCAF1_ISR
       Absolute function(Fake) *
       _IOCAF1_DefaultInterruptHandler *
       i1_printMenu *
         i1_LCDGoto
           i1_LCDPutCmd
             i1_LCDWriteNibble
         i1_LCDPutStr
           i1_LCDPutChar
             i1_LCDWriteNibble
         i1_cleanFullMenu
           i1_LCDGoto
             i1_LCDPutCmd
               i1_LCDWriteNibble
           i1_LCDPutStr
             i1_LCDPutChar
               i1_LCDWriteNibble
         i1_cleanMenu
           i1_LCDGoto
             i1_LCDPutCmd
               i1_LCDWriteNibble
           i1_LCDPutStr
             i1_LCDPutChar
               i1_LCDWriteNibble
         i1_mainMenu
           i1_LCDGoto
             i1_LCDPutCmd
               i1_LCDWriteNibble
           i1_LCDPutStr
             i1_LCDPutChar
               i1_LCDWriteNibble
     _IOCAF2_ISR
       Absolute function(Fake) *
       _IOCAF2_DefaultInterruptHandler *
       i1_printMenu *
         i1_LCDGoto
           i1_LCDPutCmd
             i1_LCDWriteNibble
         i1_LCDPutStr
           i1_LCDPutChar
             i1_LCDWriteNibble
         i1_cleanFullMenu
           i1_LCDGoto
             i1_LCDPutCmd
               i1_LCDWriteNibble
           i1_LCDPutStr
             i1_LCDPutChar
               i1_LCDWriteNibble
         i1_cleanMenu
           i1_LCDGoto
             i1_LCDPutCmd
               i1_LCDWriteNibble
           i1_LCDPutStr
             i1_LCDPutChar
               i1_LCDWriteNibble
         i1_mainMenu
           i1_LCDGoto
             i1_LCDPutCmd
               i1_LCDWriteNibble
           i1_LCDPutStr
             i1_LCDPutChar
               i1_LCDWriteNibble
     _IOCAF3_ISR
       Absolute function(Fake) *
       _IOCAF3_DefaultInterruptHandler *
       i1_printMenu *
         i1_LCDGoto
           i1_LCDPutCmd
             i1_LCDWriteNibble
         i1_LCDPutStr
           i1_LCDPutChar
             i1_LCDWriteNibble
         i1_cleanFullMenu
           i1_LCDGoto
             i1_LCDPutCmd
               i1_LCDWriteNibble
           i1_LCDPutStr
             i1_LCDPutChar
               i1_LCDWriteNibble
         i1_cleanMenu
           i1_LCDGoto
             i1_LCDPutCmd
               i1_LCDWriteNibble
           i1_LCDPutStr
             i1_LCDPutChar
               i1_LCDWriteNibble
         i1_mainMenu
           i1_LCDGoto
             i1_LCDPutCmd
               i1_LCDWriteNibble
           i1_LCDPutStr
             i1_LCDPutChar
               i1_LCDWriteNibble
     _IOCAF4_ISR
       Absolute function(Fake) *
       _IOCAF4_DefaultInterruptHandler *
       i1_printMenu *
         i1_LCDGoto
           i1_LCDPutCmd
             i1_LCDWriteNibble
         i1_LCDPutStr
           i1_LCDPutChar
             i1_LCDWriteNibble
         i1_cleanFullMenu
           i1_LCDGoto
             i1_LCDPutCmd
               i1_LCDWriteNibble
           i1_LCDPutStr
             i1_LCDPutChar
               i1_LCDWriteNibble
         i1_cleanMenu
           i1_LCDGoto
             i1_LCDPutCmd
               i1_LCDWriteNibble
           i1_LCDPutStr
             i1_LCDPutChar
               i1_LCDWriteNibble
         i1_mainMenu
           i1_LCDGoto
             i1_LCDPutCmd
               i1_LCDWriteNibble
           i1_LCDPutStr
             i1_LCDPutChar
               i1_LCDWriteNibble
     _IOCAF5_ISR
       Absolute function(Fake) *
       _IOCAF5_DefaultInterruptHandler *
       _startFight *
         _idleScreen
           _LCDClear
             i1_LCDGoto
               i1_LCDPutCmd
                 i1_LCDWriteNibble
             i1_LCDPutStr
               i1_LCDPutChar
                 i1_LCDWriteNibble
           i1_LCDGoto
             i1_LCDPutCmd
               i1_LCDWriteNibble
           i1_LCDPutChar
             i1_LCDWriteNibble
         i1_LCDGoto
           i1_LCDPutCmd
             i1_LCDWriteNibble
         i1_LCDPutStr
           i1_LCDPutChar
             i1_LCDWriteNibble
         i1_cleanFullMenu
           i1_LCDGoto
             i1_LCDPutCmd
               i1_LCDWriteNibble
           i1_LCDPutStr
             i1_LCDPutChar
               i1_LCDWriteNibble
         i1_printMenu
           i1_LCDGoto
             i1_LCDPutCmd
               i1_LCDWriteNibble
           i1_LCDPutStr
             i1_LCDPutChar
               i1_LCDWriteNibble
           i1_cleanFullMenu
             i1_LCDGoto
               i1_LCDPutCmd
                 i1_LCDWriteNibble
             i1_LCDPutStr
               i1_LCDPutChar
                 i1_LCDWriteNibble
           i1_cleanMenu
             i1_LCDGoto
               i1_LCDPutCmd
                 i1_LCDWriteNibble
             i1_LCDPutStr
               i1_LCDPutChar
                 i1_LCDWriteNibble
           i1_mainMenu
             i1_LCDGoto
               i1_LCDPutCmd
                 i1_LCDWriteNibble
             i1_LCDPutStr
               i1_LCDPutChar
                 i1_LCDWriteNibble

 Address spaces:
Name               Size   Autos  Total    Cost      Usage
BIGRAM             7F0      0       0       0        0.0%
NULL                 0      0       0       0        0.0%
CODE                 0      0       0       0        0.0%
BITCOMMON            E      0       0       1        0.0%
BITSFR0              0      0       0       1        0.0%
SFR0                 0      0       0       1        0.0%
COMMON               E      E       E       2      100.0%
BITSFR1              0      0       0       2        0.0%
SFR1                 0      0       0       2        0.0%
BITSFR2              0      0       0       3        0.0%
SFR2                 0      0       0       3        0.0%
STACK                0      0       0       3        0.0%
BITBANK0            50      0       0       4        0.0%
BITSFR3              0      0       0       4        0.0%
SFR3                 0      0       0       4        0.0%
BANK0               50     16      36       5       67.5%
BITSFR4              0      0       0       5        0.0%
SFR4                 0      0       0       5        0.0%
BITBANK1            50      0       0       6        0.0%
BITSFR5              0      0       0       6        0.0%
SFR5                 0      0       0       6        0.0%
BANK1               50     20      30       7       60.0%
BITSFR6              0      0       0       7        0.0%
SFR6                 0      0       0       7        0.0%
BITBANK2            50      0       0       8        0.0%
BITSFR7              0      0       0       8        0.0%
SFR7                 0      0       0       8        0.0%
BANK2               50      0       0       9        0.0%
BITSFR8              0      0       0       9        0.0%
SFR8                 0      0       0       9        0.0%
BITBANK3            50      0       0      10        0.0%
BITSFR9              0      0       0      10        0.0%
SFR9                 0      0       0      10        0.0%
BANK3               50      0       0      11        0.0%
BITSFR10             0      0       0      11        0.0%
SFR10                0      0       0      11        0.0%
BITBANK4            50      0       0      12        0.0%
BITSFR11             0      0       0      12        0.0%
SFR11                0      0       0      12        0.0%
BANK4               50      0       0      13        0.0%
BITSFR12             0      0       0      13        0.0%
SFR12                0      0       0      13        0.0%
BITSFR13             0      0       0      14        0.0%
SFR13                0      0       0      14        0.0%
ABS                  0      0      74      14        0.0%
BITBANK5            50      0       0      15        0.0%
BITSFR14             0      0       0      15        0.0%
SFR14                0      0       0      15        0.0%
BANK5               50      0       0      16        0.0%
BITSFR15             0      0       0      16        0.0%
SFR15                0      0       0      16        0.0%
BITBANK6            50      0       0      17        0.0%
BITSFR16             0      0       0      17        0.0%
SFR16                0      0       0      17        0.0%
BANK6               50      0       0      18        0.0%
BITSFR17             0      0       0      18        0.0%
SFR17                0      0       0      18        0.0%
BITBANK7            50      0       0      19        0.0%
BITSFR18             0      0       0      19        0.0%
SFR18                0      0       0      19        0.0%
BANK7               50      0       0      20        0.0%
BITSFR19             0      0       0      20        0.0%
SFR19                0      0       0      20        0.0%
BITBANK8            50      0       0      21        0.0%
BITSFR20             0      0       0      21        0.0%
SFR20                0      0       0      21        0.0%
BANK8               50      0       0      22        0.0%
BITSFR21             0      0       0      22        0.0%
SFR21                0      0       0      22        0.0%
BITBANK9            50      0       0      23        0.0%
BITSFR22             0      0       0      23        0.0%
SFR22                0      0       0      23        0.0%
BANK9               50      0       0      24        0.0%
BITSFR23             0      0       0      24        0.0%
SFR23                0      0       0      24        0.0%
BITBANK10           50      0       0      25        0.0%
BITSFR24             0      0       0      25        0.0%
SFR24                0      0       0      25        0.0%
BANK10              50      0       0      26        0.0%
BITSFR25             0      0       0      26        0.0%
SFR25                0      0       0      26        0.0%
BITBANK11           50      0       0      27        0.0%
BITSFR26             0      0       0      27        0.0%
SFR26                0      0       0      27        0.0%
BITSFR27             0      0       0      28        0.0%
SFR27                0      0       0      28        0.0%
DATA                 0      0      74      28        0.0%
BANK11              50      0       0      29        0.0%
BITSFR28             0      0       0      29        0.0%
SFR28                0      0       0      29        0.0%
BITBANK12           50      0       0      30        0.0%
BITSFR29             0      0       0      30        0.0%
SFR29                0      0       0      30        0.0%
BANK12              50      0       0      31        0.0%
BITSFR30             0      0       0      31        0.0%
SFR30                0      0       0      31        0.0%
BITBANK13           50      0       0      32        0.0%
BITSFR31             0      0       0      32        0.0%
SFR31                0      0       0      32        0.0%
BANK13              50      0       0      33        0.0%
BITBANK14           50      0       0      34        0.0%
BANK14              50      0       0      35        0.0%
BITBANK15           50      0       0      36        0.0%
BANK15              50      0       0      37        0.0%
BITBANK16           50      0       0      38        0.0%
BANK16              50      0       0      39        0.0%
BITBANK17           50      0       0      40        0.0%
BANK17              50      0       0      41        0.0%
BITBANK18           50      0       0      42        0.0%
BANK18              50      0       0      43        0.0%
BITBANK19           50      0       0      44        0.0%
BANK19              50      0       0      45        0.0%
BITBANK20           50      0       0      46        0.0%
BANK20              50      0       0      47        0.0%
BITBANK21           50      0       0      48        0.0%
BANK21              50      0       0      49        0.0%
BITBANK22           50      0       0      50        0.0%
BANK22              50      0       0      51        0.0%
BITBANK23           50      0       0      52        0.0%
BANK23              50      0       0      53        0.0%
BITBANK24           50      0       0      54        0.0%
BANK24              50      0       0      55        0.0%
BITBANK25           20      0       0      56        0.0%
BANK25              20      0       0      57        0.0%


Microchip Technology PIC Macro Assembler V2.31 build 20201012212115 
Symbol Table                                                                                   Mon Jul 19 20:55:00 2021

                          ?i1_cleanFullMenu 0070                              _LCD_Initialize 044A  
                       __end_ofi1_printMenu 0588                                 ?_LCDPutChar 0070  
                                       l140 06D0                                         l117 01BB  
                                       l206 06B8                                         l223 06B2  
                                       l320 027F                                         l400 054B  
                                       l243 0696                                         l157 06CA  
                                       l246 06A6                                         l174 06C4  
                                       l190 06BE                                         l406 0569  
                                       l249 06D4                                         l281 04AF  
                                       l290 03AC                                         l275 046C  
                                       l284 048F                                         l357 021D  
                                       l278 04CF                                         l358 021D  
                                       l296 03D4                                         l387 050E  
                                       l397 00C8                                         u900 03C1  
                                       u901 03C0                                         u835 04B5  
                                       u845 047D                                         u870 03AC  
                                       u855 04A1                                         u871 03AB  
                                       u880 03B5                                         u881 03B4  
                                       u890 03BB                                         u891 03BA  
                                       wreg 0009          __end_of_IOCAF2_SetInterruptHandler 06C5  
                _IOCAF2_SetInterruptHandler 06BF          __end_of_IOCAF5_SetInterruptHandler 06B3  
                _IOCAF5_SetInterruptHandler 06AD                                main@Pattern1 00A0  
                              main@Pattern2 00A8                                main@Pattern3 00B0  
                              main@Pattern4 00B8                                  i1_mainMenu 00C9  
                           __end_of_LCDGoto 03D5                                        l2200 04BC  
                                      l2210 04CE                                        l2202 04C1  
                                      l2204 04C7                                        l2300 0385  
                                      l2206 04CC                                        l2310 03B5  
                                      l2302 0388                                        l2208 04CD  
                                      l2320 03D0                                        l2312 03BC  
                                      l2304 0397                                        l2250 0479  
                                      l2330 0156                                        l2322 014A  
                                      l2314 03C1                                        l2306 039C  
                                      l2252 0485                                        l2340 0164  
                                      l2332 015B                                        l2324 014E  
                                      l2260 049D                                        l2316 03C7  
                                      l2308 03AF                                        l2254 0489  
                                      l2246 046F                                        l2350 017A  
                                      l2342 0166                                        l2334 015E  
                                      l2326 0151                                        l2262 04A9  
                                      l2318 03CC                                        l2248 0473  
                                      l2520 06A3                                        l2280 06B9  
                                      l2360 017F                                        l2352 017B  
                                      l2344 0167                                        l2336 0161  
                                      l2328 0154                                        l2256 0492  
                                      l2600 04F9                                        l2610 044E  
                                      l2522 06A4                                        l2274 06CB  
                                      l2282 06B3                                        l2370 0184  
                                      l2362 0180                                        l2354 017C  
                                      l2346 0178                                        l2338 0162  
                                      l2258 0496                                        l2530 053C  
                                      l2602 04FF                                        l2620 0464  
                                      l2612 0450                                        l2276 06C5  
                                      l2284 06AD                                        l2380 0189  
                                      l2372 0185                                        l2364 0181  
                                      l2356 017D                                        l2348 0179  
                                      l2524 06D1                                        l2532 054C  
                                      l2540 003D                                        l2604 0508  
                                      l2198 04B2                                        l2622 0468  
                                      l2614 0458                                        l2518 06A0  
                                      l2278 06BF                                        l2390 01AA  
                                      l2382 018A                                        l2374 0186  
                                      l2366 0182                                        l2358 017E  
                                      l2606 068D                                        l2534 0552  
                                      l2526 052E                                        l2550 0067  
                                      l2542 0042                                        l2616 045C  
                                      l2608 044A                                        l2392 01B2  
                                      l2384 0192                                        l2376 0187  
                                      l2368 0183                                        l2624 0253  
                                      l2536 055A                                        l2528 0534  
                                      l2560 0099                                        l2552 0077  
                                      l2544 004A                                        l2618 0460  
                                      l2394 01BA                                        l2386 019A  
                                      l2378 0188                                        l2634 0262  
                                      l2626 0253                                        l2562 00A1  
                                      l2554 007C                                        l2546 005A  
                                      l2538 003C                                        l2388 01A2  
                                      l2636 026D                                        l2628 025F  
                                      l2556 0084                                        l2548 005F  
                                      l2638 0272                                        l2558 0094  
                                      l2566 00B1                                        l2680 01D1  
                                      l2690 0207                                        l2682 01DF  
                                      l2596 04F0                                        l2692 0210  
                                      l2684 01ED                                        l2676 01BC  
                                      l2598 04F6                                        l2694 0219  
                                      l2686 01FB                                        l2678 01C2  
                                      l2696 021C                                        l2688 0201  
                                      l2858 00BA                                        STR_1 061C  
                                      STR_2 061C                                        STR_5 0675  
                                      STR_6 063D                                        STR_7 0667  
                                      STR_8 0659                                        STR_9 0697  
                                      u1110 027F                                        u1111 027E  
                                      u1200 01F7                                        u1105 0256  
                                      u1115 027B                                        u1217 03D1  
                                      u1090 04F6                                        u1170 01CD  
                                      u1227 0493                                        u1091 04F5  
                                      u1180 01DB                                        u1237 0454  
                                      _LATA 010C                                        u1190 01E9  
                                      _LATB 010D                                        u1247 0470  
                                      _LATC 010E                                        u1257 0486  
                               i1_cleanMenu 05A5                                        _WPUA 020C  
                                      _WPUB 020D                                        _WPUC 020E  
                                      _WPUE 0210                                        _main 01BC  
                                      fsr0h 0005                                        fsr1h 0007  
                                      indf0 0000                                        fsr0l 0004  
                                      indf1 0001                                        fsr1l 0006  
                                      btemp 007E                          __size_of_LCDPutCmd 0023  
                                      start 001B                          __size_of_LCDPutStr 0028  
                    __end_of_LCD_Initialize 046D                          __size_ofi1_LCDGoto 0027  
                          __end_of_LCDClear 05DB                                 LCDPutCmd@ch 002C  
                       __size_of_IOCAF0_ISR 002B                         __size_of_IOCAF1_ISR 002C  
            __size_of_OSCILLATOR_Initialize 0007                         __size_of_IOCAF2_ISR 002E  
                       __size_of_IOCAF3_ISR 002B                         __size_of_IOCAF4_ISR 002B  
                       __size_of_IOCAF5_ISR 002A               __end_of_OSCILLATOR_Initialize 06A7  
                                     ?_main 0070                                       STR_10 064B  
                                     STR_11 0667                                       STR_12 0659  
                                     STR_13 0697                                       STR_14 0622  
                                     STR_15 0622                                       STR_16 0681  
                                     STR_17 061C                                       STR_18 061C  
                              ?i1_LCDPutCmd 0070                                       i1l131 0358  
                                     i1l203 0304                                       i1l220 0384  
                                     i1l150 02C1                                       i1l214 0382  
                                     i1l126 0250                                       i1l143 06DA  
                                     i1l303 05DA                                       i1l400 05C0  
                                     i1l160 06D9                                       i1l137 035A  
                                     i1l209 06D6                                       i1l154 02D9  
                                     i1l226 06D5                                       i1l171 02AD  
                                     i1l323 060A                                       i1l403 03FC  
                                     i1l148 02D7                                       i1l165 02AB  
                                     i1l406 05F4                                       i1l182 032D  
                                     i1l262 0019                                       i1l281 05A4  
                                     i1l177 06D8                                       i1l193 06D7  
                                     i1l290 0449                                       i1l187 032F  
                                     i1l284 052D                                       i1l278 04EF  
                                     i1l198 0302                                       i1l296 0423  
                                     i1l387 0587                                       i1l397 0149  
                              ?i1_LCDPutStr 0077                                       u40_25 051C  
                                     u41_20 0449                                       u41_21 0448  
                                     u42_20 0404                                       u42_21 0403  
                                     u43_20 040A                                       u43_21 0409  
                                     _PORTB 000D                                       u44_20 0410  
                                     u44_21 040F                                       u38_25 04D4  
                                     u39_25 0596                                       _TRISA 008C  
                                     _TRISB 008D                                       _TRISC 008E  
                                     _TRISE 0090                                       u91_20 0337  
                                     u91_21 0336                                       u92_20 0342  
                                     u92_21 0341                                       u93_20 02B5  
                                     u93_21 02B4                                       u86_20 0570  
                                     u94_20 02C0                                       u86_21 056F  
                                     u94_21 02BF                                       u95_20 0287  
                                     u95_21 0286                                       u96_20 0292  
                                     u96_21 0291                                       u97_20 030C  
                                     u97_21 030B                                       u98_20 0317  
                                     u98_21 0316                      ?_createCustomCharacter 002D  
                                     u99_20 02E1                                       u99_21 02E0  
                   __end_of_PIN_MANAGER_IOC 0251                              _WDT_Initialize 06D1  
                                     pclath 000A                         __size_of_LCDPutChar 0020  
                                     status 0003                                       wtemp0 007E  
                               i1_printMenu 056A                       __end_of_cleanFullMenu 056A  
                           ?_LCD_Initialize 0070                             __initialization 001D  
                              __end_of_main 0220                 ?_INTERRUPT_InterruptManager 0070  
                    createCustomCharacter@i 0030                                      ??_main 0035  
                                 ??_LCDGoto 002E                           __end_of_LCDPutCmd 0490  
                              LCDPutChar@ch 002C                     _IOCAF4_InterruptHandler 0049  
                         __end_of_LCDPutStr 03AD                      __end_of_WDT_Initialize 06D5  
              ??_IOCAF0_SetInterruptHandler 0028                                 ?i1_mainMenu 0070  
              ??_IOCAF3_SetInterruptHandler 0028                           __end_ofi1_LCDGoto 0424  
                                    _ANSELA 018C                                      _ANSELB 018D  
                                    _ANSELC 018E                                      _BORCON 0116  
                             ?i1_LCDPutChar 0070                                      u100_20 02EC  
                                    u100_21 02EB                                      u101_20 0362  
                                    u101_21 0361                                      u102_20 036D  
                                    u102_21 036C                                      u103_20 0225  
                                    u103_21 0224                                      i1l1500 040B  
                                    i1l2220 00E4                                      i1l2212 00C9  
                                    i1l1502 0410                                      i1l2230 010A  
                                    i1l2222 00E9                                      i1l2214 00CA  
                                    i1l1504 0416                                      i1l2232 0118  
                                    i1l2224 00F0                                      i1l2216 00CF  
                                    i1l2240 0132                                      i1l2400 033C  
                                    i1l1600 0601                                      u104_20 022D  
                                    u112_20 000A                                      u104_21 022C  
                                    u112_21 0009                                      _ODCONA 028C  
                                    i1l1506 041B                                      i1l2234 011D  
                                    i1l2226 00FE                                      i1l2218 00D6  
                                    i1l2410 0348                                      i1l1602 0606  
                                    _ODCONB 028D                                      _ODCONC 028E  
                                    i1l1460 04E0                                      i1l1508 041F  
                                    i1l2236 0124                                      i1l2228 0103  
                                    i1l2404 0343                                      i1l2420 02BA  
                                    i1l1524 05C1                                      i1l2500 0362  
                                    i1l1462 04E7                                      i1l1470 0589  
                                    i1l2270 0579                                      i1l2406 0344  
                                    i1l1526 05C6                                      i1l2502 0367  
                                    i1l1464 04EC                                      i1l1456 04D1  
                                    i1l1480 0514                                      i1l1472 058D  
                                    i1l2272 0581                                      i1l2264 056A  
                                    i1l2424 02C3                                      i1l2416 02AE  
                                    i1l1528 05CD                                      i1l2512 0372  
                                    u105_20 0235                                      u113_20 000E  
                                    u105_21 0234                                      u113_21 000D  
                                    i1l1466 04ED                                      i1l1458 04DB  
                                    i1l1482 0519                                      i1l1474 0593  
                                    i1l1490 0426                                      i1l1570 05DB  
                                    i1l2266 0570                                      i1l2418 02B5  
                                    i1l2442 0293                                      i1l2434 0280  
                                    i1l2290 03E1                                      i1l2506 036E  
                                    i1l1468 04EE                                      i1l1484 0524  
                                    i1l1476 059E                                      i1l1492 0435  
                                    i1l1572 05E0                                      i1l1564 05A5  
                                    i1l2268 0573                                      i1l2428 02C7  
                                    i1l2444 0297                                      i1l2452 029B  
                                    i1l2436 0287                                      i1l2460 030C  
                                    i1l2292 03E8                                      i1l1486 0528  
                                    i1l1478 0510                                      i1l1494 0439  
                                    i1l1574 05E7                                      i1l1566 05AB  
                                    i1l2438 028C                                      i1l2462 0311  
                                    i1l2294 03F5                                      i1l2286 03D5  
                                    i1l1496 03FE                                      i1l1488 0424  
                                    i1l1568 05B2                                      i1l2472 0320  
                                    i1l2480 02E1                                      i1l2296 03F7  
                                    i1l2288 03DB                                      u106_20 023D  
                                    i1l2640 0006                                      u106_21 023C  
                                    i1l1498 0404                                      i1l2466 0318  
                                    i1l2458 0305                                      i1l2482 02E6  
                                    i1l1594 05F5                                      i1l2298 03F9  
                                    i1l2642 000A                                      i1l2396 0330  
                                    i1l2468 031C                                      i1l2492 02F5  
                                    i1l1596 05F8                                      i1l2580 0230  
                                    i1l2572 0220                                      i1l2644 000E  
                                    i1l2398 0337                                      i1l2486 02ED  
                                    i1l2478 02DA                                      i1l1598 05FD  
                                    i1l2590 0245                                      i1l2582 0235  
                                    i1l2574 0225                                      i1l2646 0015  
                                    u130_27 0511                                      i1l2488 02F1  
                                    i1l2592 0248                                      u107_20 0245  
                                    i1l2584 0238                                      i1l2576 0228  
                                    i1l2648 0018                                      u107_21 0244  
                                    i1l2498 035B                                      i1l2594 024D  
                                    i1l2586 023D                                      i1l2578 022D  
                                    i1l2860 037A                                      i1l2588 0240  
                                    i1l2870 0350                                      i1l2862 02FD  
                                    u131_27 0525                                      i1l2872 013B  
                                    i1l2864 0328                                      u108_20 024D  
                                    u108_21 024C                                      i1l2866 02A3  
                                    i1l2868 02CF                                      u126_27 0011  
                                    u127_27 03EE                                      _INLVLA 038C  
                                    _INLVLB 038D                                      _INLVLC 038E  
                                    _INLVLE 0390                                      u128_27 058A  
                                    u129_27 0420                                      _OSCCON 0099  
                                    _WDTCON 0097                                LCDPutStr@str 002D  
                            _LCDWriteNibble 04B0                            __end_of_mainMenu 00C9  
                                    _inGame 0055         __size_of_IOCAF0_SetInterruptHandler 0006  
       __size_of_IOCAF3_SetInterruptHandler 0006                             ?_WDT_Initialize 0070  
                            i1LCDPutChar@ch 0076  IOCAF5_SetInterruptHandler@InterruptHandler 0026  
IOCAF4_SetInterruptHandler@InterruptHandler 0026  IOCAF3_SetInterruptHandler@InterruptHandler 0026  
IOCAF2_SetInterruptHandler@InterruptHandler 0026  IOCAF1_SetInterruptHandler@InterruptHandler 0026  
IOCAF0_SetInterruptHandler@InterruptHandler 0026                            ?_PIN_MANAGER_IOC 0070  
                            ??i1_LCDPutChar 0074                                ??_IOCAF0_ISR 0022  
                              ??_IOCAF1_ISR 0022                                ??_IOCAF2_ISR 0022  
                              ??_IOCAF3_ISR 0022                                ??_IOCAF4_ISR 0022  
                              ??_IOCAF5_ISR 0024                                   ?_LCDClear 0070  
                         _SYSTEM_Initialize 068D                      __end_of_LCDWriteNibble 04D0  
                   __end_of__initialization 0038      __end_of_IOCAF1_DefaultInterruptHandler 06DA  
   __size_of_IOCAF1_DefaultInterruptHandler 0001              _IOCAF1_DefaultInterruptHandler 06D9  
                        ?_SYSTEM_Initialize 0070                              i1LCDPutStr@str 0077  
                                 LCDGoto@ln 002D                               i1_LCDGoto$473 0078  
                            __pcstackCOMMON 0070                                __pidataBANK0 060B  
                              __pidataBANK1 062D                         ??_SYSTEM_Initialize 0028  
                       __size_ofi1_mainMenu 0081                                ??_LCDPutChar 002A  
    __end_of_IOCAF4_DefaultInterruptHandler 06D7     __size_of_IOCAF4_DefaultInterruptHandler 0001  
            _IOCAF4_DefaultInterruptHandler 06D6                          __size_of_cleanMenu 001E  
                        __end_of_IOCAF0_ISR 035B                          __end_of_IOCAF1_ISR 02DA  
                        __end_of_IOCAF2_ISR 02AE                          __end_of_IOCAF3_ISR 0330  
                        __end_of_IOCAF4_ISR 0305                          __end_of_IOCAF5_ISR 0385  
                 __size_ofi1_LCDWriteNibble 0020                                i1LCDGoto@pos 007A  
                            _OPTION_REGbits 0095                        __size_ofi1_LCDPutCmd 001F  
               ?_IOCAF2_SetInterruptHandler 0026            ??_IOCAF2_DefaultInterruptHandler 0070  
           ?_IOCAF2_DefaultInterruptHandler 0070                        __size_ofi1_LCDPutStr 0026  
               ?_IOCAF5_SetInterruptHandler 0026                   __end_of_SYSTEM_Initialize 0697  
                                __pbssBANK0 0053                                ?i1_cleanMenu 0070  
                              i1LCDPutStr@i 007C                                  ??_LCDClear 007D  
                           ?_LCDWriteNibble 0026                          __end_of_LCDPutChar 04B0  
          ??_IOCAF5_DefaultInterruptHandler 0070             ?_IOCAF5_DefaultInterruptHandler 0070  
                   _IOCAF5_InterruptHandler 0047                                  __pmaintext 01BC  
                                __pintentry 0004                     ??_createCustomCharacter 002E  
                                _idleScreen 05F5                    __size_ofi1_cleanFullMenu 001A  
                                   _LCDGoto 03AD                          __size_of_printMenu 001F  
        __end_of_IOCAF0_SetInterruptHandler 06D1                  _IOCAF0_SetInterruptHandler 06CB  
        __end_of_IOCAF3_SetInterruptHandler 06BF                  _IOCAF3_SetInterruptHandler 06B9  
                                   _OSCTUNE 0098                                     _SLRCONA 030C  
                                   _SLRCONB 030D                                     _SLRCONC 030E  
                                 ?_mainMenu 0070                           __end_of_cleanMenu 054C  
                          ??_LCD_Initialize 002D                                ?i1_printMenu 0070  
                      __end_ofi1_LCDPutChar 05A5                                     __ptext1 04F0  
                                   __ptext2 003C                                     __ptext3 052E  
                                   __ptext4 054C                                     __ptext5 0385  
                                   __ptext6 03AD                                     __ptext7 0251  
                                   __ptext8 0490                                     __ptext9 068D  
                     _OSCILLATOR_Initialize 06A0                    ??_PIN_MANAGER_Initialize 0028  
                                 _IOCAFbits 0393                                   _IOCANbits 0392  
                                 _IOCAPbits 0391                                ??i1_mainMenu 0020  
                                 _LCDPutCmd 046D                  __size_of_SYSTEM_Initialize 000A  
                                 _LCDPutStr 0385                        end_of_initialization 0038  
                                ??_mainMenu 0033                                     init_ram 06A7  
                                   initloop 06A8                                   i1_LCDGoto 03FD  
                                _playerTurn 0053                           __end_of_printMenu 050F  
                        __end_ofi1_mainMenu 014A                            ??_WDT_Initialize 0026  
                                 _PORTBbits 000D                            i1_LCDWriteNibble 04D0  
                               ?_idleScreen 0070                     _IOCAF0_InterruptHandler 0051  
              ??_IOCAF1_SetInterruptHandler 0028                      __size_of_cleanFullMenu 001E  
              ??_IOCAF4_SetInterruptHandler 0028                                  ?_LCDPutCmd 0070  
                                _startFight 03D5                           ??i1_cleanFullMenu 007D  
                                ?_LCDPutStr 002D                                  ?i1_LCDGoto 0077  
                      __size_ofi1_cleanMenu 001C                                  LCDGoto@pos 0030  
                         __size_of_LCDClear 001A                                  LCDPutStr@i 0032  
       __size_of_IOCAF1_SetInterruptHandler 0006         __size_of_IOCAF4_SetInterruptHandler 0006  
                    ?_OSCILLATOR_Initialize 0070                         start_initialization 001D  
           __size_of_PIN_MANAGER_Initialize 0072                            ??_LCDWriteNibble 0027  
              createCustomCharacter@Pattern 002F                         __size_of_idleScreen 0016  
                  __size_of_PIN_MANAGER_IOC 0031      __end_of_IOCAF2_DefaultInterruptHandler 06D9  
   __size_of_IOCAF2_DefaultInterruptHandler 0001              _IOCAF2_DefaultInterruptHandler 06D8  
                     __size_ofi1_LCDPutChar 001D                               _cleanFullMenu 054C  
                      __size_ofi1_printMenu 001E                                 __pdataBANK0 0036  
                               __pdataBANK1 00C0                               i1LCDPutCmd@ch 0076  
          ??_IOCAF0_DefaultInterruptHandler 0070             ?_IOCAF0_DefaultInterruptHandler 0070  
    __end_of_IOCAF5_DefaultInterruptHandler 06D6     __size_of_IOCAF5_DefaultInterruptHandler 0001  
            _IOCAF5_DefaultInterruptHandler 06D5                               ??i1_LCDPutCmd 0074  
                             ??i1_LCDPutStr 0079              __size_of_createCustomCharacter 002F  
             __end_of_createCustomCharacter 0280                                    ?_LCDGoto 002D  
                                 ___latbits 0003                 ?_IOCAF0_SetInterruptHandler 0026  
                             __pcstackBANK0 0020                               __pcstackBANK1 00A0  
               ?_IOCAF3_SetInterruptHandler 0026                                 ??_LCDPutCmd 002A  
                               ?_startFight 0070                                 ??_LCDPutStr 002F  
          ??_IOCAF3_DefaultInterruptHandler 0070             ?_IOCAF3_DefaultInterruptHandler 0070  
                               i1LCDGoto@ln 0077                                i1_LCDPutChar 0588  
                         __size_of_mainMenu 008D                                 ??i1_LCDGoto 0078  
                                 __pnvBANK0 0047                     _IOCAF1_InterruptHandler 004F  
                                 _cleanMenu 052E                      _PIN_MANAGER_Initialize 014A  
                            ?_cleanFullMenu 0070                                   _lcdOffset 0046  
                          LCDWriteNibble@ch 0029                            LCDWriteNibble@rs 0026  
              ??_INTERRUPT_InterruptManager 007D                                   _mainState 0054  
        __end_of_IOCAF1_SetInterruptHandler 06CB                  _IOCAF1_SetInterruptHandler 06C5  
        __end_of_IOCAF4_SetInterruptHandler 06B9                  _IOCAF4_SetInterruptHandler 06B3  
                       __end_ofi1_LCDPutCmd 052E                         __end_ofi1_LCDPutStr 044A  
                                  _LCDClear 05C1                    __end_ofi1_LCDWriteNibble 04F0  
                               _LCDGoto$473 002E                                  ?_cleanMenu 0070  
       __size_of_INTERRUPT_InterruptManager 0017               createCustomCharacter@Location 002D  
                                 main@F5660 00C8                                   main@F5662 00C0  
                                 main@F5656 003E                                   main@F5658 0036  
                                 _printMenu 04F0                         __size_of_startFight 0028  
                         ??_PIN_MANAGER_IOC 007D                             i1_cleanFullMenu 05DB  
                              ??_idleScreen 007D                            __size_of_LCDGoto 0028  
                           ??_cleanFullMenu 0033                          __end_of_idleScreen 060B  
                   ??_OSCILLATOR_Initialize 0026                     __size_of_LCD_Initialize 0023  
                                ?_printMenu 0070                                 i1_LCDPutCmd 050F  
                               i1_LCDPutStr 0424                     _IOCAF2_InterruptHandler 004D  
              ??_IOCAF2_SetInterruptHandler 0028                                    __ptext10 06D1  
                                  __ptext11 014A                                    __ptext20 046D  
                                  __ptext12 06AD                                    __ptext21 04B0  
                                  __ptext13 06B3                                    __ptext30 06D6  
                                  __ptext14 06B9                                    __ptext31 0305  
                                  __ptext23 0220                                    __ptext15 06BF  
                                  __ptext40 05A5                                    __ptext32 06D7  
                                  __ptext24 035B                                    __ptext16 06C5  
                                  __ptext41 05DB                                    __ptext33 0280  
                                  __ptext25 03D5                                    __ptext17 06CB  
                                  __ptext42 0424                                    __ptext34 06D8  
                                  __ptext26 05F5                                    __ptext18 06A0  
                                  __ptext43 0588                                    __ptext35 02AE  
                                  __ptext27 05C1                                    __ptext19 044A  
                                  __ptext44 03FD                                    __ptext36 06D9  
                                  __ptext28 06D5                                    __ptext45 050F  
                                  __ptext37 0330                                    __ptext29 02DA  
                                  __ptext46 04D0                                    __ptext38 056A  
                                  __ptext47 06DA                                    __ptext39 00C9  
              ??_IOCAF5_SetInterruptHandler 0028                                  _IOCAF0_ISR 0330  
                                _IOCAF1_ISR 02AE                                    _mainMenu 003C  
                                _IOCAF2_ISR 0280                               ??i1_cleanMenu 007D  
                                _IOCAF3_ISR 0305                                  _IOCAF4_ISR 02DA  
                                _IOCAF5_ISR 035B                               __size_of_main 0064  
                               ??_cleanMenu 0033                          i1LCDWriteNibble@ch 0073  
                        i1LCDWriteNibble@rs 0070                     __end_ofi1_cleanFullMenu 05F5  
                                  int$flags 007E          __end_of_INTERRUPT_InterruptManager 001B  
                _INTERRUPT_InterruptManager 0004                                  _LCDPutChar 0490  
       __size_of_IOCAF2_SetInterruptHandler 0006         __size_of_IOCAF5_SetInterruptHandler 0006  
                                _INTCONbits 000B                                ??_startFight 0022  
                   __size_of_WDT_Initialize 0004                                    intlevel1 0000  
    __end_of_IOCAF0_DefaultInterruptHandler 06DB     __size_of_IOCAF0_DefaultInterruptHandler 0001  
            _IOCAF0_DefaultInterruptHandler 06DA                     ?_PIN_MANAGER_Initialize 0070  
                             ??i1_printMenu 007D                         __end_ofi1_cleanMenu 05C1  
    __end_of_IOCAF3_DefaultInterruptHandler 06D8     __size_of_IOCAF3_DefaultInterruptHandler 0001  
            _IOCAF3_DefaultInterruptHandler 06D7                                 ??_printMenu 0035  
                        __end_of_startFight 03FD                               __pstringtext1 061C  
                             __pstringtext2 063D                               __pstringtext3 064B  
                             __pstringtext4 0659                               __pstringtext5 0667  
                             __pstringtext6 0675                               __pstringtext7 0681  
                             __pstringtext8 0697                               __pstringtext9 0000  
          ??_IOCAF1_DefaultInterruptHandler 0070             ?_IOCAF1_DefaultInterruptHandler 0070  
               ?_IOCAF1_SetInterruptHandler 0026                       _createCustomCharacter 0251  
               ?_IOCAF4_SetInterruptHandler 0026                                 ?_IOCAF0_ISR 0070  
                               ?_IOCAF1_ISR 0070                                 ?_IOCAF2_ISR 0070  
                               ?_IOCAF3_ISR 0070                                 ?_IOCAF4_ISR 0070  
                               ?_IOCAF5_ISR 0070              __end_of_PIN_MANAGER_Initialize 01BC  
          ??_IOCAF4_DefaultInterruptHandler 0070             ?_IOCAF4_DefaultInterruptHandler 0070  
                           _PIN_MANAGER_IOC 0220                           ?i1_LCDWriteNibble 0070  
                   __size_of_LCDWriteNibble 0020                     _IOCAF3_InterruptHandler 004B  
                        ??i1_LCDWriteNibble 0071  
