

Microchip MPLAB XC8 Assembler V2.31 build 20201012212115 
                                                                                               Mon Jul 19 10:30:50 2021

Microchip MPLAB XC8 C Compiler v2.31 (Free license) build 20201012212115 Og1 
     1                           	processor	16LF1718
     2                           	pagewidth 120
     3                           	opt	flic
     4                           	psect	idataBANK0,global,class=CODE,delta=2,noexec
     5                           	psect	idataBANK1,global,class=CODE,delta=2,noexec
     6                           	psect	nvBANK0,global,class=BANK0,space=1,delta=1,noexec
     7                           	psect	stringtext1,global,class=STRCODE,delta=2,noexec
     8                           	psect	stringtext2,global,class=STRCODE,delta=2,noexec
     9                           	psect	cinit,global,class=CODE,merge=1,delta=2
    10                           	psect	dataBANK0,global,class=BANK0,space=1,delta=1,noexec
    11                           	psect	dataBANK1,global,class=BANK1,space=1,delta=1,noexec
    12                           	psect	inittext,global,class=CODE,delta=2
    13                           	psect	cstackCOMMON,global,class=COMMON,space=1,delta=1,noexec
    14                           	psect	cstackBANK0,global,class=BANK0,space=1,delta=1,noexec
    15                           	psect	maintext,global,class=CODE,merge=1,split=1,delta=2
    16                           	psect	text1,local,class=CODE,merge=1,delta=2
    17                           	psect	text2,local,class=CODE,merge=1,delta=2
    18                           	psect	text3,local,class=CODE,merge=1,delta=2
    19                           	psect	text4,local,class=CODE,merge=1,delta=2
    20                           	psect	text5,local,class=CODE,merge=1,delta=2
    21                           	psect	text6,local,class=CODE,merge=1,delta=2
    22                           	psect	text7,local,class=CODE,merge=1,delta=2
    23                           	psect	text8,local,class=CODE,merge=1,delta=2
    24                           	psect	text9,local,class=CODE,merge=1,delta=2
    25                           	psect	text10,local,class=CODE,merge=1,delta=2
    26                           	psect	text11,local,class=CODE,merge=1,delta=2
    27                           	psect	text12,local,class=CODE,merge=1,delta=2
    28                           	psect	text13,local,class=CODE,merge=1,delta=2
    29                           	psect	text14,local,class=CODE,merge=1,delta=2
    30                           	psect	text15,local,class=CODE,merge=1,delta=2
    31                           	psect	text16,local,class=CODE,merge=1,delta=2
    32                           	psect	text17,local,class=CODE,merge=1,delta=2
    33                           	psect	text18,local,class=CODE,merge=1,delta=2
    34                           	psect	text19,local,class=CODE,merge=1,delta=2
    35                           	psect	intentry,global,class=CODE,delta=2
    36                           	psect	text21,local,class=CODE,merge=1,delta=2
    37                           	psect	text22,local,class=CODE,merge=1,delta=2
    38                           	psect	text23,local,class=CODE,merge=1,delta=2
    39                           	psect	text24,local,class=CODE,merge=1,delta=2
    40                           	psect	text25,local,class=CODE,merge=1,delta=2
    41                           	psect	text26,local,class=CODE,merge=1,delta=2
    42                           	psect	text27,local,class=CODE,merge=1,delta=2
    43                           	psect	text28,local,class=CODE,merge=1,delta=2
    44                           	psect	text29,local,class=CODE,merge=1,delta=2
    45                           	psect	text30,local,class=CODE,merge=1,delta=2
    46                           	psect	text31,local,class=CODE,merge=1,delta=2
    47                           	psect	text32,local,class=CODE,merge=1,delta=2
    48                           	psect	text33,local,class=CODE,merge=1,delta=2
    49                           	psect	text34,local,class=CODE,merge=1,delta=2
    50                           	psect	text35,local,class=CODE,merge=1,delta=2
    51                           	psect	text36,local,class=CODE,merge=1,delta=2
    52                           	psect	text37,local,class=CODE,merge=1,delta=2
    53                           	psect	text38,local,class=CODE,merge=1,delta=2
    54                           	psect	text39,local,class=CODE,merge=1,delta=2
    55                           	psect	config,global,abs,ovrld,class=CONFIG,space=4,delta=2,noexec
    56                           	dabs	1,0x7E,2
    57  0000                     
    58                           ; Version 2.20
    59                           ; Generated 12/02/2020 GMT
    60                           ; 
    61                           ; Copyright © 2020, Microchip Technology Inc. and its subsidiaries ("Microchip")
    62                           ; All rights reserved.
    63                           ; 
    64                           ; This software is developed by Microchip Technology Inc. and its subsidiaries ("Microch
      +                          ip").
    65                           ; 
    66                           ; Redistribution and use in source and binary forms, with or without modification, are
    67                           ; permitted provided that the following conditions are met:
    68                           ; 
    69                           ;     1. Redistributions of source code must retain the above copyright notice, this lis
      +                          t of
    70                           ;        conditions and the following disclaimer.
    71                           ; 
    72                           ;     2. Redistributions in binary form must reproduce the above copyright notice, this 
      +                          list
    73                           ;        of conditions and the following disclaimer in the documentation and/or other
    74                           ;        materials provided with the distribution.
    75                           ; 
    76                           ;     3. Microchip's name may not be used to endorse or promote products derived from th
      +                          is
    77                           ;        software without specific prior written permission.
    78                           ; 
    79                           ; THIS SOFTWARE IS PROVIDED BY MICROCHIP "AS IS" AND ANY EXPRESS OR IMPLIED WARRANTIES,
    80                           ; INCLUDING, BUT NOT LIMITED TO, THE IMPLIED WARRANTIES OF MERCHANTABILITY AND FITNESS F
      +                          OR
    81                           ; PURPOSE ARE DISCLAIMED.  IN NO EVENT SHALL MICROCHIP BE LIABLE FOR ANY DIRECT, INDIREC
      +                          T,
    82                           ; INCIDENTAL, SPECIAL, EXEMPLARY, OR CONSEQUENTIAL DAMAGES (INCLUDING BUT NOT LIMITED TO
    83                           ; PROCUREMENT OF SUBSTITUTE GOODS OR SERVICES; LOSS OF USE, DATA OR PROFITS; OR BUSINESS
    84                           ; INTERRUPTION) HOWSOEVER CAUSED AND ON ANY THEORY OF LIABILITY, WHETHER IN CONTRACT, ST
      +                          RICT
    85                           ; LIABILITY, OR TORT (INCLUDING NEGLIGENCE OR OTHERWISE) ARISING IN ANY WAY OUT OF THE U
      +                          SE OF
    86                           ; THIS SOFTWARE, EVEN IF ADVISED OF THE POSSIBILITY OF SUCH DAMAGE.
    87                           ; 
    88                           ; 
    89                           ; Code-generator required, PIC16LF1718 Definitions
    90                           ; 
    91                           ; SFR Addresses
    92  0000                     	;# 
    93  0001                     	;# 
    94  0002                     	;# 
    95  0003                     	;# 
    96  0004                     	;# 
    97  0005                     	;# 
    98  0006                     	;# 
    99  0007                     	;# 
   100  0008                     	;# 
   101  0009                     	;# 
   102  000A                     	;# 
   103  000B                     	;# 
   104  000C                     	;# 
   105  000D                     	;# 
   106  000E                     	;# 
   107  0010                     	;# 
   108  0011                     	;# 
   109  0012                     	;# 
   110  0013                     	;# 
   111  0015                     	;# 
   112  0016                     	;# 
   113  0016                     	;# 
   114  0017                     	;# 
   115  0018                     	;# 
   116  0019                     	;# 
   117  001A                     	;# 
   118  001B                     	;# 
   119  001C                     	;# 
   120  008C                     	;# 
   121  008D                     	;# 
   122  008E                     	;# 
   123  0090                     	;# 
   124  0091                     	;# 
   125  0092                     	;# 
   126  0093                     	;# 
   127  0095                     	;# 
   128  0096                     	;# 
   129  0097                     	;# 
   130  0098                     	;# 
   131  0099                     	;# 
   132  009A                     	;# 
   133  009B                     	;# 
   134  009B                     	;# 
   135  009C                     	;# 
   136  009D                     	;# 
   137  009E                     	;# 
   138  009F                     	;# 
   139  010C                     	;# 
   140  010D                     	;# 
   141  010E                     	;# 
   142  0111                     	;# 
   143  0112                     	;# 
   144  0113                     	;# 
   145  0114                     	;# 
   146  0115                     	;# 
   147  0116                     	;# 
   148  0117                     	;# 
   149  0118                     	;# 
   150  0119                     	;# 
   151  011A                     	;# 
   152  011B                     	;# 
   153  011B                     	;# 
   154  011C                     	;# 
   155  018C                     	;# 
   156  018D                     	;# 
   157  018E                     	;# 
   158  0191                     	;# 
   159  0191                     	;# 
   160  0192                     	;# 
   161  0193                     	;# 
   162  0193                     	;# 
   163  0194                     	;# 
   164  0195                     	;# 
   165  0196                     	;# 
   166  0199                     	;# 
   167  0199                     	;# 
   168  0199                     	;# 
   169  019A                     	;# 
   170  019A                     	;# 
   171  019A                     	;# 
   172  019B                     	;# 
   173  019B                     	;# 
   174  019B                     	;# 
   175  019B                     	;# 
   176  019B                     	;# 
   177  019C                     	;# 
   178  019C                     	;# 
   179  019C                     	;# 
   180  019D                     	;# 
   181  019D                     	;# 
   182  019D                     	;# 
   183  019E                     	;# 
   184  019E                     	;# 
   185  019E                     	;# 
   186  019F                     	;# 
   187  019F                     	;# 
   188  019F                     	;# 
   189  019F                     	;# 
   190  019F                     	;# 
   191  020C                     	;# 
   192  020D                     	;# 
   193  020E                     	;# 
   194  0210                     	;# 
   195  0211                     	;# 
   196  0211                     	;# 
   197  0212                     	;# 
   198  0212                     	;# 
   199  0213                     	;# 
   200  0213                     	;# 
   201  0214                     	;# 
   202  0214                     	;# 
   203  0215                     	;# 
   204  0215                     	;# 
   205  0215                     	;# 
   206  0215                     	;# 
   207  0216                     	;# 
   208  0216                     	;# 
   209  0217                     	;# 
   210  0217                     	;# 
   211  028C                     	;# 
   212  028D                     	;# 
   213  028E                     	;# 
   214  0291                     	;# 
   215  0291                     	;# 
   216  0292                     	;# 
   217  0293                     	;# 
   218  0293                     	;# 
   219  0298                     	;# 
   220  0298                     	;# 
   221  0299                     	;# 
   222  029A                     	;# 
   223  029A                     	;# 
   224  029E                     	;# 
   225  030C                     	;# 
   226  030D                     	;# 
   227  030E                     	;# 
   228  038C                     	;# 
   229  038D                     	;# 
   230  038E                     	;# 
   231  0390                     	;# 
   232  0391                     	;# 
   233  0392                     	;# 
   234  0393                     	;# 
   235  0394                     	;# 
   236  0395                     	;# 
   237  0396                     	;# 
   238  0397                     	;# 
   239  0398                     	;# 
   240  0399                     	;# 
   241  039D                     	;# 
   242  039E                     	;# 
   243  039F                     	;# 
   244  0415                     	;# 
   245  0416                     	;# 
   246  0417                     	;# 
   247  041C                     	;# 
   248  041D                     	;# 
   249  041E                     	;# 
   250  0498                     	;# 
   251  0498                     	;# 
   252  0499                     	;# 
   253  049A                     	;# 
   254  049B                     	;# 
   255  049B                     	;# 
   256  049C                     	;# 
   257  049D                     	;# 
   258  049E                     	;# 
   259  049F                     	;# 
   260  0511                     	;# 
   261  0515                     	;# 
   262  0617                     	;# 
   263  0618                     	;# 
   264  0619                     	;# 
   265  0619                     	;# 
   266  061A                     	;# 
   267  061B                     	;# 
   268  061C                     	;# 
   269  061C                     	;# 
   270  0691                     	;# 
   271  0692                     	;# 
   272  0693                     	;# 
   273  0694                     	;# 
   274  0695                     	;# 
   275  0696                     	;# 
   276  0697                     	;# 
   277  0698                     	;# 
   278  0699                     	;# 
   279  069A                     	;# 
   280  069B                     	;# 
   281  069C                     	;# 
   282  069D                     	;# 
   283  069E                     	;# 
   284  069F                     	;# 
   285  0E0F                     	;# 
   286  0E10                     	;# 
   287  0E11                     	;# 
   288  0E12                     	;# 
   289  0E13                     	;# 
   290  0E14                     	;# 
   291  0E15                     	;# 
   292  0E17                     	;# 
   293  0E20                     	;# 
   294  0E21                     	;# 
   295  0E22                     	;# 
   296  0E24                     	;# 
   297  0E25                     	;# 
   298  0E28                     	;# 
   299  0E29                     	;# 
   300  0E2A                     	;# 
   301  0E2B                     	;# 
   302  0E90                     	;# 
   303  0E91                     	;# 
   304  0E92                     	;# 
   305  0E93                     	;# 
   306  0E94                     	;# 
   307  0E95                     	;# 
   308  0E96                     	;# 
   309  0E97                     	;# 
   310  0E98                     	;# 
   311  0E99                     	;# 
   312  0E9A                     	;# 
   313  0E9B                     	;# 
   314  0E9C                     	;# 
   315  0E9D                     	;# 
   316  0E9E                     	;# 
   317  0E9F                     	;# 
   318  0EA0                     	;# 
   319  0EA1                     	;# 
   320  0EA2                     	;# 
   321  0EA3                     	;# 
   322  0EA4                     	;# 
   323  0EA5                     	;# 
   324  0EA6                     	;# 
   325  0EA7                     	;# 
   326  0F0F                     	;# 
   327  0F10                     	;# 
   328  0F11                     	;# 
   329  0F12                     	;# 
   330  0F13                     	;# 
   331  0F14                     	;# 
   332  0F15                     	;# 
   333  0F16                     	;# 
   334  0F17                     	;# 
   335  0F18                     	;# 
   336  0F19                     	;# 
   337  0F1A                     	;# 
   338  0F1B                     	;# 
   339  0F1C                     	;# 
   340  0F1D                     	;# 
   341  0F1E                     	;# 
   342  0F1F                     	;# 
   343  0F20                     	;# 
   344  0F21                     	;# 
   345  0F22                     	;# 
   346  0F23                     	;# 
   347  0F24                     	;# 
   348  0F25                     	;# 
   349  0F26                     	;# 
   350  0F27                     	;# 
   351  0F28                     	;# 
   352  0F29                     	;# 
   353  0F2A                     	;# 
   354  0F2B                     	;# 
   355  0F2C                     	;# 
   356  0F2D                     	;# 
   357  0F2E                     	;# 
   358  0F2F                     	;# 
   359  0F30                     	;# 
   360  0F31                     	;# 
   361  0F32                     	;# 
   362  0F33                     	;# 
   363  0F34                     	;# 
   364  0F35                     	;# 
   365  0F36                     	;# 
   366  0F37                     	;# 
   367  0FE4                     	;# 
   368  0FE5                     	;# 
   369  0FE6                     	;# 
   370  0FE7                     	;# 
   371  0FE8                     	;# 
   372  0FE9                     	;# 
   373  0FEA                     	;# 
   374  0FEB                     	;# 
   375  0FED                     	;# 
   376  0FEE                     	;# 
   377  0FEF                     	;# 
   378  0000                     	;# 
   379  0001                     	;# 
   380  0002                     	;# 
   381  0003                     	;# 
   382  0004                     	;# 
   383  0005                     	;# 
   384  0006                     	;# 
   385  0007                     	;# 
   386  0008                     	;# 
   387  0009                     	;# 
   388  000A                     	;# 
   389  000B                     	;# 
   390  000C                     	;# 
   391  000D                     	;# 
   392  000E                     	;# 
   393  0010                     	;# 
   394  0011                     	;# 
   395  0012                     	;# 
   396  0013                     	;# 
   397  0015                     	;# 
   398  0016                     	;# 
   399  0016                     	;# 
   400  0017                     	;# 
   401  0018                     	;# 
   402  0019                     	;# 
   403  001A                     	;# 
   404  001B                     	;# 
   405  001C                     	;# 
   406  008C                     	;# 
   407  008D                     	;# 
   408  008E                     	;# 
   409  0090                     	;# 
   410  0091                     	;# 
   411  0092                     	;# 
   412  0093                     	;# 
   413  0095                     	;# 
   414  0096                     	;# 
   415  0097                     	;# 
   416  0098                     	;# 
   417  0099                     	;# 
   418  009A                     	;# 
   419  009B                     	;# 
   420  009B                     	;# 
   421  009C                     	;# 
   422  009D                     	;# 
   423  009E                     	;# 
   424  009F                     	;# 
   425  010C                     	;# 
   426  010D                     	;# 
   427  010E                     	;# 
   428  0111                     	;# 
   429  0112                     	;# 
   430  0113                     	;# 
   431  0114                     	;# 
   432  0115                     	;# 
   433  0116                     	;# 
   434  0117                     	;# 
   435  0118                     	;# 
   436  0119                     	;# 
   437  011A                     	;# 
   438  011B                     	;# 
   439  011B                     	;# 
   440  011C                     	;# 
   441  018C                     	;# 
   442  018D                     	;# 
   443  018E                     	;# 
   444  0191                     	;# 
   445  0191                     	;# 
   446  0192                     	;# 
   447  0193                     	;# 
   448  0193                     	;# 
   449  0194                     	;# 
   450  0195                     	;# 
   451  0196                     	;# 
   452  0199                     	;# 
   453  0199                     	;# 
   454  0199                     	;# 
   455  019A                     	;# 
   456  019A                     	;# 
   457  019A                     	;# 
   458  019B                     	;# 
   459  019B                     	;# 
   460  019B                     	;# 
   461  019B                     	;# 
   462  019B                     	;# 
   463  019C                     	;# 
   464  019C                     	;# 
   465  019C                     	;# 
   466  019D                     	;# 
   467  019D                     	;# 
   468  019D                     	;# 
   469  019E                     	;# 
   470  019E                     	;# 
   471  019E                     	;# 
   472  019F                     	;# 
   473  019F                     	;# 
   474  019F                     	;# 
   475  019F                     	;# 
   476  019F                     	;# 
   477  020C                     	;# 
   478  020D                     	;# 
   479  020E                     	;# 
   480  0210                     	;# 
   481  0211                     	;# 
   482  0211                     	;# 
   483  0212                     	;# 
   484  0212                     	;# 
   485  0213                     	;# 
   486  0213                     	;# 
   487  0214                     	;# 
   488  0214                     	;# 
   489  0215                     	;# 
   490  0215                     	;# 
   491  0215                     	;# 
   492  0215                     	;# 
   493  0216                     	;# 
   494  0216                     	;# 
   495  0217                     	;# 
   496  0217                     	;# 
   497  028C                     	;# 
   498  028D                     	;# 
   499  028E                     	;# 
   500  0291                     	;# 
   501  0291                     	;# 
   502  0292                     	;# 
   503  0293                     	;# 
   504  0293                     	;# 
   505  0298                     	;# 
   506  0298                     	;# 
   507  0299                     	;# 
   508  029A                     	;# 
   509  029A                     	;# 
   510  029E                     	;# 
   511  030C                     	;# 
   512  030D                     	;# 
   513  030E                     	;# 
   514  038C                     	;# 
   515  038D                     	;# 
   516  038E                     	;# 
   517  0390                     	;# 
   518  0391                     	;# 
   519  0392                     	;# 
   520  0393                     	;# 
   521  0394                     	;# 
   522  0395                     	;# 
   523  0396                     	;# 
   524  0397                     	;# 
   525  0398                     	;# 
   526  0399                     	;# 
   527  039D                     	;# 
   528  039E                     	;# 
   529  039F                     	;# 
   530  0415                     	;# 
   531  0416                     	;# 
   532  0417                     	;# 
   533  041C                     	;# 
   534  041D                     	;# 
   535  041E                     	;# 
   536  0498                     	;# 
   537  0498                     	;# 
   538  0499                     	;# 
   539  049A                     	;# 
   540  049B                     	;# 
   541  049B                     	;# 
   542  049C                     	;# 
   543  049D                     	;# 
   544  049E                     	;# 
   545  049F                     	;# 
   546  0511                     	;# 
   547  0515                     	;# 
   548  0617                     	;# 
   549  0618                     	;# 
   550  0619                     	;# 
   551  0619                     	;# 
   552  061A                     	;# 
   553  061B                     	;# 
   554  061C                     	;# 
   555  061C                     	;# 
   556  0691                     	;# 
   557  0692                     	;# 
   558  0693                     	;# 
   559  0694                     	;# 
   560  0695                     	;# 
   561  0696                     	;# 
   562  0697                     	;# 
   563  0698                     	;# 
   564  0699                     	;# 
   565  069A                     	;# 
   566  069B                     	;# 
   567  069C                     	;# 
   568  069D                     	;# 
   569  069E                     	;# 
   570  069F                     	;# 
   571  0E0F                     	;# 
   572  0E10                     	;# 
   573  0E11                     	;# 
   574  0E12                     	;# 
   575  0E13                     	;# 
   576  0E14                     	;# 
   577  0E15                     	;# 
   578  0E17                     	;# 
   579  0E20                     	;# 
   580  0E21                     	;# 
   581  0E22                     	;# 
   582  0E24                     	;# 
   583  0E25                     	;# 
   584  0E28                     	;# 
   585  0E29                     	;# 
   586  0E2A                     	;# 
   587  0E2B                     	;# 
   588  0E90                     	;# 
   589  0E91                     	;# 
   590  0E92                     	;# 
   591  0E93                     	;# 
   592  0E94                     	;# 
   593  0E95                     	;# 
   594  0E96                     	;# 
   595  0E97                     	;# 
   596  0E98                     	;# 
   597  0E99                     	;# 
   598  0E9A                     	;# 
   599  0E9B                     	;# 
   600  0E9C                     	;# 
   601  0E9D                     	;# 
   602  0E9E                     	;# 
   603  0E9F                     	;# 
   604  0EA0                     	;# 
   605  0EA1                     	;# 
   606  0EA2                     	;# 
   607  0EA3                     	;# 
   608  0EA4                     	;# 
   609  0EA5                     	;# 
   610  0EA6                     	;# 
   611  0EA7                     	;# 
   612  0F0F                     	;# 
   613  0F10                     	;# 
   614  0F11                     	;# 
   615  0F12                     	;# 
   616  0F13                     	;# 
   617  0F14                     	;# 
   618  0F15                     	;# 
   619  0F16                     	;# 
   620  0F17                     	;# 
   621  0F18                     	;# 
   622  0F19                     	;# 
   623  0F1A                     	;# 
   624  0F1B                     	;# 
   625  0F1C                     	;# 
   626  0F1D                     	;# 
   627  0F1E                     	;# 
   628  0F1F                     	;# 
   629  0F20                     	;# 
   630  0F21                     	;# 
   631  0F22                     	;# 
   632  0F23                     	;# 
   633  0F24                     	;# 
   634  0F25                     	;# 
   635  0F26                     	;# 
   636  0F27                     	;# 
   637  0F28                     	;# 
   638  0F29                     	;# 
   639  0F2A                     	;# 
   640  0F2B                     	;# 
   641  0F2C                     	;# 
   642  0F2D                     	;# 
   643  0F2E                     	;# 
   644  0F2F                     	;# 
   645  0F30                     	;# 
   646  0F31                     	;# 
   647  0F32                     	;# 
   648  0F33                     	;# 
   649  0F34                     	;# 
   650  0F35                     	;# 
   651  0F36                     	;# 
   652  0F37                     	;# 
   653  0FE4                     	;# 
   654  0FE5                     	;# 
   655  0FE6                     	;# 
   656  0FE7                     	;# 
   657  0FE8                     	;# 
   658  0FE9                     	;# 
   659  0FEA                     	;# 
   660  0FEB                     	;# 
   661  0FED                     	;# 
   662  0FEE                     	;# 
   663  0FEF                     	;# 
   664  0000                     	;# 
   665  0001                     	;# 
   666  0002                     	;# 
   667  0003                     	;# 
   668  0004                     	;# 
   669  0005                     	;# 
   670  0006                     	;# 
   671  0007                     	;# 
   672  0008                     	;# 
   673  0009                     	;# 
   674  000A                     	;# 
   675  000B                     	;# 
   676  000C                     	;# 
   677  000D                     	;# 
   678  000E                     	;# 
   679  0010                     	;# 
   680  0011                     	;# 
   681  0012                     	;# 
   682  0013                     	;# 
   683  0015                     	;# 
   684  0016                     	;# 
   685  0016                     	;# 
   686  0017                     	;# 
   687  0018                     	;# 
   688  0019                     	;# 
   689  001A                     	;# 
   690  001B                     	;# 
   691  001C                     	;# 
   692  008C                     	;# 
   693  008D                     	;# 
   694  008E                     	;# 
   695  0090                     	;# 
   696  0091                     	;# 
   697  0092                     	;# 
   698  0093                     	;# 
   699  0095                     	;# 
   700  0096                     	;# 
   701  0097                     	;# 
   702  0098                     	;# 
   703  0099                     	;# 
   704  009A                     	;# 
   705  009B                     	;# 
   706  009B                     	;# 
   707  009C                     	;# 
   708  009D                     	;# 
   709  009E                     	;# 
   710  009F                     	;# 
   711  010C                     	;# 
   712  010D                     	;# 
   713  010E                     	;# 
   714  0111                     	;# 
   715  0112                     	;# 
   716  0113                     	;# 
   717  0114                     	;# 
   718  0115                     	;# 
   719  0116                     	;# 
   720  0117                     	;# 
   721  0118                     	;# 
   722  0119                     	;# 
   723  011A                     	;# 
   724  011B                     	;# 
   725  011B                     	;# 
   726  011C                     	;# 
   727  018C                     	;# 
   728  018D                     	;# 
   729  018E                     	;# 
   730  0191                     	;# 
   731  0191                     	;# 
   732  0192                     	;# 
   733  0193                     	;# 
   734  0193                     	;# 
   735  0194                     	;# 
   736  0195                     	;# 
   737  0196                     	;# 
   738  0199                     	;# 
   739  0199                     	;# 
   740  0199                     	;# 
   741  019A                     	;# 
   742  019A                     	;# 
   743  019A                     	;# 
   744  019B                     	;# 
   745  019B                     	;# 
   746  019B                     	;# 
   747  019B                     	;# 
   748  019B                     	;# 
   749  019C                     	;# 
   750  019C                     	;# 
   751  019C                     	;# 
   752  019D                     	;# 
   753  019D                     	;# 
   754  019D                     	;# 
   755  019E                     	;# 
   756  019E                     	;# 
   757  019E                     	;# 
   758  019F                     	;# 
   759  019F                     	;# 
   760  019F                     	;# 
   761  019F                     	;# 
   762  019F                     	;# 
   763  020C                     	;# 
   764  020D                     	;# 
   765  020E                     	;# 
   766  0210                     	;# 
   767  0211                     	;# 
   768  0211                     	;# 
   769  0212                     	;# 
   770  0212                     	;# 
   771  0213                     	;# 
   772  0213                     	;# 
   773  0214                     	;# 
   774  0214                     	;# 
   775  0215                     	;# 
   776  0215                     	;# 
   777  0215                     	;# 
   778  0215                     	;# 
   779  0216                     	;# 
   780  0216                     	;# 
   781  0217                     	;# 
   782  0217                     	;# 
   783  028C                     	;# 
   784  028D                     	;# 
   785  028E                     	;# 
   786  0291                     	;# 
   787  0291                     	;# 
   788  0292                     	;# 
   789  0293                     	;# 
   790  0293                     	;# 
   791  0298                     	;# 
   792  0298                     	;# 
   793  0299                     	;# 
   794  029A                     	;# 
   795  029A                     	;# 
   796  029E                     	;# 
   797  030C                     	;# 
   798  030D                     	;# 
   799  030E                     	;# 
   800  038C                     	;# 
   801  038D                     	;# 
   802  038E                     	;# 
   803  0390                     	;# 
   804  0391                     	;# 
   805  0392                     	;# 
   806  0393                     	;# 
   807  0394                     	;# 
   808  0395                     	;# 
   809  0396                     	;# 
   810  0397                     	;# 
   811  0398                     	;# 
   812  0399                     	;# 
   813  039D                     	;# 
   814  039E                     	;# 
   815  039F                     	;# 
   816  0415                     	;# 
   817  0416                     	;# 
   818  0417                     	;# 
   819  041C                     	;# 
   820  041D                     	;# 
   821  041E                     	;# 
   822  0498                     	;# 
   823  0498                     	;# 
   824  0499                     	;# 
   825  049A                     	;# 
   826  049B                     	;# 
   827  049B                     	;# 
   828  049C                     	;# 
   829  049D                     	;# 
   830  049E                     	;# 
   831  049F                     	;# 
   832  0511                     	;# 
   833  0515                     	;# 
   834  0617                     	;# 
   835  0618                     	;# 
   836  0619                     	;# 
   837  0619                     	;# 
   838  061A                     	;# 
   839  061B                     	;# 
   840  061C                     	;# 
   841  061C                     	;# 
   842  0691                     	;# 
   843  0692                     	;# 
   844  0693                     	;# 
   845  0694                     	;# 
   846  0695                     	;# 
   847  0696                     	;# 
   848  0697                     	;# 
   849  0698                     	;# 
   850  0699                     	;# 
   851  069A                     	;# 
   852  069B                     	;# 
   853  069C                     	;# 
   854  069D                     	;# 
   855  069E                     	;# 
   856  069F                     	;# 
   857  0E0F                     	;# 
   858  0E10                     	;# 
   859  0E11                     	;# 
   860  0E12                     	;# 
   861  0E13                     	;# 
   862  0E14                     	;# 
   863  0E15                     	;# 
   864  0E17                     	;# 
   865  0E20                     	;# 
   866  0E21                     	;# 
   867  0E22                     	;# 
   868  0E24                     	;# 
   869  0E25                     	;# 
   870  0E28                     	;# 
   871  0E29                     	;# 
   872  0E2A                     	;# 
   873  0E2B                     	;# 
   874  0E90                     	;# 
   875  0E91                     	;# 
   876  0E92                     	;# 
   877  0E93                     	;# 
   878  0E94                     	;# 
   879  0E95                     	;# 
   880  0E96                     	;# 
   881  0E97                     	;# 
   882  0E98                     	;# 
   883  0E99                     	;# 
   884  0E9A                     	;# 
   885  0E9B                     	;# 
   886  0E9C                     	;# 
   887  0E9D                     	;# 
   888  0E9E                     	;# 
   889  0E9F                     	;# 
   890  0EA0                     	;# 
   891  0EA1                     	;# 
   892  0EA2                     	;# 
   893  0EA3                     	;# 
   894  0EA4                     	;# 
   895  0EA5                     	;# 
   896  0EA6                     	;# 
   897  0EA7                     	;# 
   898  0F0F                     	;# 
   899  0F10                     	;# 
   900  0F11                     	;# 
   901  0F12                     	;# 
   902  0F13                     	;# 
   903  0F14                     	;# 
   904  0F15                     	;# 
   905  0F16                     	;# 
   906  0F17                     	;# 
   907  0F18                     	;# 
   908  0F19                     	;# 
   909  0F1A                     	;# 
   910  0F1B                     	;# 
   911  0F1C                     	;# 
   912  0F1D                     	;# 
   913  0F1E                     	;# 
   914  0F1F                     	;# 
   915  0F20                     	;# 
   916  0F21                     	;# 
   917  0F22                     	;# 
   918  0F23                     	;# 
   919  0F24                     	;# 
   920  0F25                     	;# 
   921  0F26                     	;# 
   922  0F27                     	;# 
   923  0F28                     	;# 
   924  0F29                     	;# 
   925  0F2A                     	;# 
   926  0F2B                     	;# 
   927  0F2C                     	;# 
   928  0F2D                     	;# 
   929  0F2E                     	;# 
   930  0F2F                     	;# 
   931  0F30                     	;# 
   932  0F31                     	;# 
   933  0F32                     	;# 
   934  0F33                     	;# 
   935  0F34                     	;# 
   936  0F35                     	;# 
   937  0F36                     	;# 
   938  0F37                     	;# 
   939  0FE4                     	;# 
   940  0FE5                     	;# 
   941  0FE6                     	;# 
   942  0FE7                     	;# 
   943  0FE8                     	;# 
   944  0FE9                     	;# 
   945  0FEA                     	;# 
   946  0FEB                     	;# 
   947  0FED                     	;# 
   948  0FEE                     	;# 
   949  0FEF                     	;# 
   950  0000                     	;# 
   951  0001                     	;# 
   952  0002                     	;# 
   953  0003                     	;# 
   954  0004                     	;# 
   955  0005                     	;# 
   956  0006                     	;# 
   957  0007                     	;# 
   958  0008                     	;# 
   959  0009                     	;# 
   960  000A                     	;# 
   961  000B                     	;# 
   962  000C                     	;# 
   963  000D                     	;# 
   964  000E                     	;# 
   965  0010                     	;# 
   966  0011                     	;# 
   967  0012                     	;# 
   968  0013                     	;# 
   969  0015                     	;# 
   970  0016                     	;# 
   971  0016                     	;# 
   972  0017                     	;# 
   973  0018                     	;# 
   974  0019                     	;# 
   975  001A                     	;# 
   976  001B                     	;# 
   977  001C                     	;# 
   978  008C                     	;# 
   979  008D                     	;# 
   980  008E                     	;# 
   981  0090                     	;# 
   982  0091                     	;# 
   983  0092                     	;# 
   984  0093                     	;# 
   985  0095                     	;# 
   986  0096                     	;# 
   987  0097                     	;# 
   988  0098                     	;# 
   989  0099                     	;# 
   990  009A                     	;# 
   991  009B                     	;# 
   992  009B                     	;# 
   993  009C                     	;# 
   994  009D                     	;# 
   995  009E                     	;# 
   996  009F                     	;# 
   997  010C                     	;# 
   998  010D                     	;# 
   999  010E                     	;# 
  1000  0111                     	;# 
  1001  0112                     	;# 
  1002  0113                     	;# 
  1003  0114                     	;# 
  1004  0115                     	;# 
  1005  0116                     	;# 
  1006  0117                     	;# 
  1007  0118                     	;# 
  1008  0119                     	;# 
  1009  011A                     	;# 
  1010  011B                     	;# 
  1011  011B                     	;# 
  1012  011C                     	;# 
  1013  018C                     	;# 
  1014  018D                     	;# 
  1015  018E                     	;# 
  1016  0191                     	;# 
  1017  0191                     	;# 
  1018  0192                     	;# 
  1019  0193                     	;# 
  1020  0193                     	;# 
  1021  0194                     	;# 
  1022  0195                     	;# 
  1023  0196                     	;# 
  1024  0199                     	;# 
  1025  0199                     	;# 
  1026  0199                     	;# 
  1027  019A                     	;# 
  1028  019A                     	;# 
  1029  019A                     	;# 
  1030  019B                     	;# 
  1031  019B                     	;# 
  1032  019B                     	;# 
  1033  019B                     	;# 
  1034  019B                     	;# 
  1035  019C                     	;# 
  1036  019C                     	;# 
  1037  019C                     	;# 
  1038  019D                     	;# 
  1039  019D                     	;# 
  1040  019D                     	;# 
  1041  019E                     	;# 
  1042  019E                     	;# 
  1043  019E                     	;# 
  1044  019F                     	;# 
  1045  019F                     	;# 
  1046  019F                     	;# 
  1047  019F                     	;# 
  1048  019F                     	;# 
  1049  020C                     	;# 
  1050  020D                     	;# 
  1051  020E                     	;# 
  1052  0210                     	;# 
  1053  0211                     	;# 
  1054  0211                     	;# 
  1055  0212                     	;# 
  1056  0212                     	;# 
  1057  0213                     	;# 
  1058  0213                     	;# 
  1059  0214                     	;# 
  1060  0214                     	;# 
  1061  0215                     	;# 
  1062  0215                     	;# 
  1063  0215                     	;# 
  1064  0215                     	;# 
  1065  0216                     	;# 
  1066  0216                     	;# 
  1067  0217                     	;# 
  1068  0217                     	;# 
  1069  028C                     	;# 
  1070  028D                     	;# 
  1071  028E                     	;# 
  1072  0291                     	;# 
  1073  0291                     	;# 
  1074  0292                     	;# 
  1075  0293                     	;# 
  1076  0293                     	;# 
  1077  0298                     	;# 
  1078  0298                     	;# 
  1079  0299                     	;# 
  1080  029A                     	;# 
  1081  029A                     	;# 
  1082  029E                     	;# 
  1083  030C                     	;# 
  1084  030D                     	;# 
  1085  030E                     	;# 
  1086  038C                     	;# 
  1087  038D                     	;# 
  1088  038E                     	;# 
  1089  0390                     	;# 
  1090  0391                     	;# 
  1091  0392                     	;# 
  1092  0393                     	;# 
  1093  0394                     	;# 
  1094  0395                     	;# 
  1095  0396                     	;# 
  1096  0397                     	;# 
  1097  0398                     	;# 
  1098  0399                     	;# 
  1099  039D                     	;# 
  1100  039E                     	;# 
  1101  039F                     	;# 
  1102  0415                     	;# 
  1103  0416                     	;# 
  1104  0417                     	;# 
  1105  041C                     	;# 
  1106  041D                     	;# 
  1107  041E                     	;# 
  1108  0498                     	;# 
  1109  0498                     	;# 
  1110  0499                     	;# 
  1111  049A                     	;# 
  1112  049B                     	;# 
  1113  049B                     	;# 
  1114  049C                     	;# 
  1115  049D                     	;# 
  1116  049E                     	;# 
  1117  049F                     	;# 
  1118  0511                     	;# 
  1119  0515                     	;# 
  1120  0617                     	;# 
  1121  0618                     	;# 
  1122  0619                     	;# 
  1123  0619                     	;# 
  1124  061A                     	;# 
  1125  061B                     	;# 
  1126  061C                     	;# 
  1127  061C                     	;# 
  1128  0691                     	;# 
  1129  0692                     	;# 
  1130  0693                     	;# 
  1131  0694                     	;# 
  1132  0695                     	;# 
  1133  0696                     	;# 
  1134  0697                     	;# 
  1135  0698                     	;# 
  1136  0699                     	;# 
  1137  069A                     	;# 
  1138  069B                     	;# 
  1139  069C                     	;# 
  1140  069D                     	;# 
  1141  069E                     	;# 
  1142  069F                     	;# 
  1143  0E0F                     	;# 
  1144  0E10                     	;# 
  1145  0E11                     	;# 
  1146  0E12                     	;# 
  1147  0E13                     	;# 
  1148  0E14                     	;# 
  1149  0E15                     	;# 
  1150  0E17                     	;# 
  1151  0E20                     	;# 
  1152  0E21                     	;# 
  1153  0E22                     	;# 
  1154  0E24                     	;# 
  1155  0E25                     	;# 
  1156  0E28                     	;# 
  1157  0E29                     	;# 
  1158  0E2A                     	;# 
  1159  0E2B                     	;# 
  1160  0E90                     	;# 
  1161  0E91                     	;# 
  1162  0E92                     	;# 
  1163  0E93                     	;# 
  1164  0E94                     	;# 
  1165  0E95                     	;# 
  1166  0E96                     	;# 
  1167  0E97                     	;# 
  1168  0E98                     	;# 
  1169  0E99                     	;# 
  1170  0E9A                     	;# 
  1171  0E9B                     	;# 
  1172  0E9C                     	;# 
  1173  0E9D                     	;# 
  1174  0E9E                     	;# 
  1175  0E9F                     	;# 
  1176  0EA0                     	;# 
  1177  0EA1                     	;# 
  1178  0EA2                     	;# 
  1179  0EA3                     	;# 
  1180  0EA4                     	;# 
  1181  0EA5                     	;# 
  1182  0EA6                     	;# 
  1183  0EA7                     	;# 
  1184  0F0F                     	;# 
  1185  0F10                     	;# 
  1186  0F11                     	;# 
  1187  0F12                     	;# 
  1188  0F13                     	;# 
  1189  0F14                     	;# 
  1190  0F15                     	;# 
  1191  0F16                     	;# 
  1192  0F17                     	;# 
  1193  0F18                     	;# 
  1194  0F19                     	;# 
  1195  0F1A                     	;# 
  1196  0F1B                     	;# 
  1197  0F1C                     	;# 
  1198  0F1D                     	;# 
  1199  0F1E                     	;# 
  1200  0F1F                     	;# 
  1201  0F20                     	;# 
  1202  0F21                     	;# 
  1203  0F22                     	;# 
  1204  0F23                     	;# 
  1205  0F24                     	;# 
  1206  0F25                     	;# 
  1207  0F26                     	;# 
  1208  0F27                     	;# 
  1209  0F28                     	;# 
  1210  0F29                     	;# 
  1211  0F2A                     	;# 
  1212  0F2B                     	;# 
  1213  0F2C                     	;# 
  1214  0F2D                     	;# 
  1215  0F2E                     	;# 
  1216  0F2F                     	;# 
  1217  0F30                     	;# 
  1218  0F31                     	;# 
  1219  0F32                     	;# 
  1220  0F33                     	;# 
  1221  0F34                     	;# 
  1222  0F35                     	;# 
  1223  0F36                     	;# 
  1224  0F37                     	;# 
  1225  0FE4                     	;# 
  1226  0FE5                     	;# 
  1227  0FE6                     	;# 
  1228  0FE7                     	;# 
  1229  0FE8                     	;# 
  1230  0FE9                     	;# 
  1231  0FEA                     	;# 
  1232  0FEB                     	;# 
  1233  0FED                     	;# 
  1234  0FEE                     	;# 
  1235  0FEF                     	;# 
  1236  0000                     	;# 
  1237  0001                     	;# 
  1238  0002                     	;# 
  1239  0003                     	;# 
  1240  0004                     	;# 
  1241  0005                     	;# 
  1242  0006                     	;# 
  1243  0007                     	;# 
  1244  0008                     	;# 
  1245  0009                     	;# 
  1246  000A                     	;# 
  1247  000B                     	;# 
  1248  000C                     	;# 
  1249  000D                     	;# 
  1250  000E                     	;# 
  1251  0010                     	;# 
  1252  0011                     	;# 
  1253  0012                     	;# 
  1254  0013                     	;# 
  1255  0015                     	;# 
  1256  0016                     	;# 
  1257  0016                     	;# 
  1258  0017                     	;# 
  1259  0018                     	;# 
  1260  0019                     	;# 
  1261  001A                     	;# 
  1262  001B                     	;# 
  1263  001C                     	;# 
  1264  008C                     	;# 
  1265  008D                     	;# 
  1266  008E                     	;# 
  1267  0090                     	;# 
  1268  0091                     	;# 
  1269  0092                     	;# 
  1270  0093                     	;# 
  1271  0095                     	;# 
  1272  0096                     	;# 
  1273  0097                     	;# 
  1274  0098                     	;# 
  1275  0099                     	;# 
  1276  009A                     	;# 
  1277  009B                     	;# 
  1278  009B                     	;# 
  1279  009C                     	;# 
  1280  009D                     	;# 
  1281  009E                     	;# 
  1282  009F                     	;# 
  1283  010C                     	;# 
  1284  010D                     	;# 
  1285  010E                     	;# 
  1286  0111                     	;# 
  1287  0112                     	;# 
  1288  0113                     	;# 
  1289  0114                     	;# 
  1290  0115                     	;# 
  1291  0116                     	;# 
  1292  0117                     	;# 
  1293  0118                     	;# 
  1294  0119                     	;# 
  1295  011A                     	;# 
  1296  011B                     	;# 
  1297  011B                     	;# 
  1298  011C                     	;# 
  1299  018C                     	;# 
  1300  018D                     	;# 
  1301  018E                     	;# 
  1302  0191                     	;# 
  1303  0191                     	;# 
  1304  0192                     	;# 
  1305  0193                     	;# 
  1306  0193                     	;# 
  1307  0194                     	;# 
  1308  0195                     	;# 
  1309  0196                     	;# 
  1310  0199                     	;# 
  1311  0199                     	;# 
  1312  0199                     	;# 
  1313  019A                     	;# 
  1314  019A                     	;# 
  1315  019A                     	;# 
  1316  019B                     	;# 
  1317  019B                     	;# 
  1318  019B                     	;# 
  1319  019B                     	;# 
  1320  019B                     	;# 
  1321  019C                     	;# 
  1322  019C                     	;# 
  1323  019C                     	;# 
  1324  019D                     	;# 
  1325  019D                     	;# 
  1326  019D                     	;# 
  1327  019E                     	;# 
  1328  019E                     	;# 
  1329  019E                     	;# 
  1330  019F                     	;# 
  1331  019F                     	;# 
  1332  019F                     	;# 
  1333  019F                     	;# 
  1334  019F                     	;# 
  1335  020C                     	;# 
  1336  020D                     	;# 
  1337  020E                     	;# 
  1338  0210                     	;# 
  1339  0211                     	;# 
  1340  0211                     	;# 
  1341  0212                     	;# 
  1342  0212                     	;# 
  1343  0213                     	;# 
  1344  0213                     	;# 
  1345  0214                     	;# 
  1346  0214                     	;# 
  1347  0215                     	;# 
  1348  0215                     	;# 
  1349  0215                     	;# 
  1350  0215                     	;# 
  1351  0216                     	;# 
  1352  0216                     	;# 
  1353  0217                     	;# 
  1354  0217                     	;# 
  1355  028C                     	;# 
  1356  028D                     	;# 
  1357  028E                     	;# 
  1358  0291                     	;# 
  1359  0291                     	;# 
  1360  0292                     	;# 
  1361  0293                     	;# 
  1362  0293                     	;# 
  1363  0298                     	;# 
  1364  0298                     	;# 
  1365  0299                     	;# 
  1366  029A                     	;# 
  1367  029A                     	;# 
  1368  029E                     	;# 
  1369  030C                     	;# 
  1370  030D                     	;# 
  1371  030E                     	;# 
  1372  038C                     	;# 
  1373  038D                     	;# 
  1374  038E                     	;# 
  1375  0390                     	;# 
  1376  0391                     	;# 
  1377  0392                     	;# 
  1378  0393                     	;# 
  1379  0394                     	;# 
  1380  0395                     	;# 
  1381  0396                     	;# 
  1382  0397                     	;# 
  1383  0398                     	;# 
  1384  0399                     	;# 
  1385  039D                     	;# 
  1386  039E                     	;# 
  1387  039F                     	;# 
  1388  0415                     	;# 
  1389  0416                     	;# 
  1390  0417                     	;# 
  1391  041C                     	;# 
  1392  041D                     	;# 
  1393  041E                     	;# 
  1394  0498                     	;# 
  1395  0498                     	;# 
  1396  0499                     	;# 
  1397  049A                     	;# 
  1398  049B                     	;# 
  1399  049B                     	;# 
  1400  049C                     	;# 
  1401  049D                     	;# 
  1402  049E                     	;# 
  1403  049F                     	;# 
  1404  0511                     	;# 
  1405  0515                     	;# 
  1406  0617                     	;# 
  1407  0618                     	;# 
  1408  0619                     	;# 
  1409  0619                     	;# 
  1410  061A                     	;# 
  1411  061B                     	;# 
  1412  061C                     	;# 
  1413  061C                     	;# 
  1414  0691                     	;# 
  1415  0692                     	;# 
  1416  0693                     	;# 
  1417  0694                     	;# 
  1418  0695                     	;# 
  1419  0696                     	;# 
  1420  0697                     	;# 
  1421  0698                     	;# 
  1422  0699                     	;# 
  1423  069A                     	;# 
  1424  069B                     	;# 
  1425  069C                     	;# 
  1426  069D                     	;# 
  1427  069E                     	;# 
  1428  069F                     	;# 
  1429  0E0F                     	;# 
  1430  0E10                     	;# 
  1431  0E11                     	;# 
  1432  0E12                     	;# 
  1433  0E13                     	;# 
  1434  0E14                     	;# 
  1435  0E15                     	;# 
  1436  0E17                     	;# 
  1437  0E20                     	;# 
  1438  0E21                     	;# 
  1439  0E22                     	;# 
  1440  0E24                     	;# 
  1441  0E25                     	;# 
  1442  0E28                     	;# 
  1443  0E29                     	;# 
  1444  0E2A                     	;# 
  1445  0E2B                     	;# 
  1446  0E90                     	;# 
  1447  0E91                     	;# 
  1448  0E92                     	;# 
  1449  0E93                     	;# 
  1450  0E94                     	;# 
  1451  0E95                     	;# 
  1452  0E96                     	;# 
  1453  0E97                     	;# 
  1454  0E98                     	;# 
  1455  0E99                     	;# 
  1456  0E9A                     	;# 
  1457  0E9B                     	;# 
  1458  0E9C                     	;# 
  1459  0E9D                     	;# 
  1460  0E9E                     	;# 
  1461  0E9F                     	;# 
  1462  0EA0                     	;# 
  1463  0EA1                     	;# 
  1464  0EA2                     	;# 
  1465  0EA3                     	;# 
  1466  0EA4                     	;# 
  1467  0EA5                     	;# 
  1468  0EA6                     	;# 
  1469  0EA7                     	;# 
  1470  0F0F                     	;# 
  1471  0F10                     	;# 
  1472  0F11                     	;# 
  1473  0F12                     	;# 
  1474  0F13                     	;# 
  1475  0F14                     	;# 
  1476  0F15                     	;# 
  1477  0F16                     	;# 
  1478  0F17                     	;# 
  1479  0F18                     	;# 
  1480  0F19                     	;# 
  1481  0F1A                     	;# 
  1482  0F1B                     	;# 
  1483  0F1C                     	;# 
  1484  0F1D                     	;# 
  1485  0F1E                     	;# 
  1486  0F1F                     	;# 
  1487  0F20                     	;# 
  1488  0F21                     	;# 
  1489  0F22                     	;# 
  1490  0F23                     	;# 
  1491  0F24                     	;# 
  1492  0F25                     	;# 
  1493  0F26                     	;# 
  1494  0F27                     	;# 
  1495  0F28                     	;# 
  1496  0F29                     	;# 
  1497  0F2A                     	;# 
  1498  0F2B                     	;# 
  1499  0F2C                     	;# 
  1500  0F2D                     	;# 
  1501  0F2E                     	;# 
  1502  0F2F                     	;# 
  1503  0F30                     	;# 
  1504  0F31                     	;# 
  1505  0F32                     	;# 
  1506  0F33                     	;# 
  1507  0F34                     	;# 
  1508  0F35                     	;# 
  1509  0F36                     	;# 
  1510  0F37                     	;# 
  1511  0FE4                     	;# 
  1512  0FE5                     	;# 
  1513  0FE6                     	;# 
  1514  0FE7                     	;# 
  1515  0FE8                     	;# 
  1516  0FE9                     	;# 
  1517  0FEA                     	;# 
  1518  0FEB                     	;# 
  1519  0FED                     	;# 
  1520  0FEE                     	;# 
  1521  0FEF                     	;# 
  1522  0000                     	;# 
  1523  0001                     	;# 
  1524  0002                     	;# 
  1525  0003                     	;# 
  1526  0004                     	;# 
  1527  0005                     	;# 
  1528  0006                     	;# 
  1529  0007                     	;# 
  1530  0008                     	;# 
  1531  0009                     	;# 
  1532  000A                     	;# 
  1533  000B                     	;# 
  1534  000C                     	;# 
  1535  000D                     	;# 
  1536  000E                     	;# 
  1537  0010                     	;# 
  1538  0011                     	;# 
  1539  0012                     	;# 
  1540  0013                     	;# 
  1541  0015                     	;# 
  1542  0016                     	;# 
  1543  0016                     	;# 
  1544  0017                     	;# 
  1545  0018                     	;# 
  1546  0019                     	;# 
  1547  001A                     	;# 
  1548  001B                     	;# 
  1549  001C                     	;# 
  1550  008C                     	;# 
  1551  008D                     	;# 
  1552  008E                     	;# 
  1553  0090                     	;# 
  1554  0091                     	;# 
  1555  0092                     	;# 
  1556  0093                     	;# 
  1557  0095                     	;# 
  1558  0096                     	;# 
  1559  0097                     	;# 
  1560  0098                     	;# 
  1561  0099                     	;# 
  1562  009A                     	;# 
  1563  009B                     	;# 
  1564  009B                     	;# 
  1565  009C                     	;# 
  1566  009D                     	;# 
  1567  009E                     	;# 
  1568  009F                     	;# 
  1569  010C                     	;# 
  1570  010D                     	;# 
  1571  010E                     	;# 
  1572  0111                     	;# 
  1573  0112                     	;# 
  1574  0113                     	;# 
  1575  0114                     	;# 
  1576  0115                     	;# 
  1577  0116                     	;# 
  1578  0117                     	;# 
  1579  0118                     	;# 
  1580  0119                     	;# 
  1581  011A                     	;# 
  1582  011B                     	;# 
  1583  011B                     	;# 
  1584  011C                     	;# 
  1585  018C                     	;# 
  1586  018D                     	;# 
  1587  018E                     	;# 
  1588  0191                     	;# 
  1589  0191                     	;# 
  1590  0192                     	;# 
  1591  0193                     	;# 
  1592  0193                     	;# 
  1593  0194                     	;# 
  1594  0195                     	;# 
  1595  0196                     	;# 
  1596  0199                     	;# 
  1597  0199                     	;# 
  1598  0199                     	;# 
  1599  019A                     	;# 
  1600  019A                     	;# 
  1601  019A                     	;# 
  1602  019B                     	;# 
  1603  019B                     	;# 
  1604  019B                     	;# 
  1605  019B                     	;# 
  1606  019B                     	;# 
  1607  019C                     	;# 
  1608  019C                     	;# 
  1609  019C                     	;# 
  1610  019D                     	;# 
  1611  019D                     	;# 
  1612  019D                     	;# 
  1613  019E                     	;# 
  1614  019E                     	;# 
  1615  019E                     	;# 
  1616  019F                     	;# 
  1617  019F                     	;# 
  1618  019F                     	;# 
  1619  019F                     	;# 
  1620  019F                     	;# 
  1621  020C                     	;# 
  1622  020D                     	;# 
  1623  020E                     	;# 
  1624  0210                     	;# 
  1625  0211                     	;# 
  1626  0211                     	;# 
  1627  0212                     	;# 
  1628  0212                     	;# 
  1629  0213                     	;# 
  1630  0213                     	;# 
  1631  0214                     	;# 
  1632  0214                     	;# 
  1633  0215                     	;# 
  1634  0215                     	;# 
  1635  0215                     	;# 
  1636  0215                     	;# 
  1637  0216                     	;# 
  1638  0216                     	;# 
  1639  0217                     	;# 
  1640  0217                     	;# 
  1641  028C                     	;# 
  1642  028D                     	;# 
  1643  028E                     	;# 
  1644  0291                     	;# 
  1645  0291                     	;# 
  1646  0292                     	;# 
  1647  0293                     	;# 
  1648  0293                     	;# 
  1649  0298                     	;# 
  1650  0298                     	;# 
  1651  0299                     	;# 
  1652  029A                     	;# 
  1653  029A                     	;# 
  1654  029E                     	;# 
  1655  030C                     	;# 
  1656  030D                     	;# 
  1657  030E                     	;# 
  1658  038C                     	;# 
  1659  038D                     	;# 
  1660  038E                     	;# 
  1661  0390                     	;# 
  1662  0391                     	;# 
  1663  0392                     	;# 
  1664  0393                     	;# 
  1665  0394                     	;# 
  1666  0395                     	;# 
  1667  0396                     	;# 
  1668  0397                     	;# 
  1669  0398                     	;# 
  1670  0399                     	;# 
  1671  039D                     	;# 
  1672  039E                     	;# 
  1673  039F                     	;# 
  1674  0415                     	;# 
  1675  0416                     	;# 
  1676  0417                     	;# 
  1677  041C                     	;# 
  1678  041D                     	;# 
  1679  041E                     	;# 
  1680  0498                     	;# 
  1681  0498                     	;# 
  1682  0499                     	;# 
  1683  049A                     	;# 
  1684  049B                     	;# 
  1685  049B                     	;# 
  1686  049C                     	;# 
  1687  049D                     	;# 
  1688  049E                     	;# 
  1689  049F                     	;# 
  1690  0511                     	;# 
  1691  0515                     	;# 
  1692  0617                     	;# 
  1693  0618                     	;# 
  1694  0619                     	;# 
  1695  0619                     	;# 
  1696  061A                     	;# 
  1697  061B                     	;# 
  1698  061C                     	;# 
  1699  061C                     	;# 
  1700  0691                     	;# 
  1701  0692                     	;# 
  1702  0693                     	;# 
  1703  0694                     	;# 
  1704  0695                     	;# 
  1705  0696                     	;# 
  1706  0697                     	;# 
  1707  0698                     	;# 
  1708  0699                     	;# 
  1709  069A                     	;# 
  1710  069B                     	;# 
  1711  069C                     	;# 
  1712  069D                     	;# 
  1713  069E                     	;# 
  1714  069F                     	;# 
  1715  0E0F                     	;# 
  1716  0E10                     	;# 
  1717  0E11                     	;# 
  1718  0E12                     	;# 
  1719  0E13                     	;# 
  1720  0E14                     	;# 
  1721  0E15                     	;# 
  1722  0E17                     	;# 
  1723  0E20                     	;# 
  1724  0E21                     	;# 
  1725  0E22                     	;# 
  1726  0E24                     	;# 
  1727  0E25                     	;# 
  1728  0E28                     	;# 
  1729  0E29                     	;# 
  1730  0E2A                     	;# 
  1731  0E2B                     	;# 
  1732  0E90                     	;# 
  1733  0E91                     	;# 
  1734  0E92                     	;# 
  1735  0E93                     	;# 
  1736  0E94                     	;# 
  1737  0E95                     	;# 
  1738  0E96                     	;# 
  1739  0E97                     	;# 
  1740  0E98                     	;# 
  1741  0E99                     	;# 
  1742  0E9A                     	;# 
  1743  0E9B                     	;# 
  1744  0E9C                     	;# 
  1745  0E9D                     	;# 
  1746  0E9E                     	;# 
  1747  0E9F                     	;# 
  1748  0EA0                     	;# 
  1749  0EA1                     	;# 
  1750  0EA2                     	;# 
  1751  0EA3                     	;# 
  1752  0EA4                     	;# 
  1753  0EA5                     	;# 
  1754  0EA6                     	;# 
  1755  0EA7                     	;# 
  1756  0F0F                     	;# 
  1757  0F10                     	;# 
  1758  0F11                     	;# 
  1759  0F12                     	;# 
  1760  0F13                     	;# 
  1761  0F14                     	;# 
  1762  0F15                     	;# 
  1763  0F16                     	;# 
  1764  0F17                     	;# 
  1765  0F18                     	;# 
  1766  0F19                     	;# 
  1767  0F1A                     	;# 
  1768  0F1B                     	;# 
  1769  0F1C                     	;# 
  1770  0F1D                     	;# 
  1771  0F1E                     	;# 
  1772  0F1F                     	;# 
  1773  0F20                     	;# 
  1774  0F21                     	;# 
  1775  0F22                     	;# 
  1776  0F23                     	;# 
  1777  0F24                     	;# 
  1778  0F25                     	;# 
  1779  0F26                     	;# 
  1780  0F27                     	;# 
  1781  0F28                     	;# 
  1782  0F29                     	;# 
  1783  0F2A                     	;# 
  1784  0F2B                     	;# 
  1785  0F2C                     	;# 
  1786  0F2D                     	;# 
  1787  0F2E                     	;# 
  1788  0F2F                     	;# 
  1789  0F30                     	;# 
  1790  0F31                     	;# 
  1791  0F32                     	;# 
  1792  0F33                     	;# 
  1793  0F34                     	;# 
  1794  0F35                     	;# 
  1795  0F36                     	;# 
  1796  0F37                     	;# 
  1797  0FE4                     	;# 
  1798  0FE5                     	;# 
  1799  0FE6                     	;# 
  1800  0FE7                     	;# 
  1801  0FE8                     	;# 
  1802  0FE9                     	;# 
  1803  0FEA                     	;# 
  1804  0FEB                     	;# 
  1805  0FED                     	;# 
  1806  0FEE                     	;# 
  1807  0FEF                     	;# 
  1808                           
  1809                           	psect	idataBANK0
  1810  0439                     __pidataBANK0:
  1811                           
  1812                           ;initializer for main@F5648
  1813  0439  3418               	retlw	24
  1814  043A  3410               	retlw	16
  1815  043B  341F               	retlw	31
  1816  043C  341F               	retlw	31
  1817  043D  341F               	retlw	31
  1818  043E  3410               	retlw	16
  1819  043F  3418               	retlw	24
  1820  0440  3400               	retlw	0
  1821                           
  1822                           	psect	idataBANK1
  1823  0385                     __pidataBANK1:
  1824                           
  1825                           ;initializer for main@F5654
  1826  0385  3400               	retlw	0
  1827  0386  3400               	retlw	0
  1828  0387  340A               	retlw	10
  1829  0388  341F               	retlw	31
  1830  0389  341F               	retlw	31
  1831  038A  340E               	retlw	14
  1832  038B  3404               	retlw	4
  1833  038C  3400               	retlw	0
  1834                           
  1835                           ;initializer for main@F5652
  1836  038D  3400               	retlw	0
  1837  038E  3400               	retlw	0
  1838  038F  340E               	retlw	14
  1839  0390  341F               	retlw	31
  1840  0391  340E               	retlw	14
  1841  0392  3400               	retlw	0
  1842  0393  3400               	retlw	0
  1843  0394  3400               	retlw	0
  1844                           
  1845                           ;initializer for main@F5650
  1846  0395  3400               	retlw	0
  1847  0396  340A               	retlw	10
  1848  0397  3411               	retlw	17
  1849  0398  3415               	retlw	21
  1850  0399  3415               	retlw	21
  1851  039A  3411               	retlw	17
  1852  039B  340A               	retlw	10
  1853  039C  3400               	retlw	0
  1854                           
  1855                           	psect	nvBANK0
  1856  0055                     __pnvBANK0:
  1857  0055                     _IOCAF5_InterruptHandler:
  1858  0055                     	ds	2
  1859  0057                     _IOCAF4_InterruptHandler:
  1860  0057                     	ds	2
  1861  0059                     _IOCAF3_InterruptHandler:
  1862  0059                     	ds	2
  1863  005B                     _IOCAF2_InterruptHandler:
  1864  005B                     	ds	2
  1865  005D                     _IOCAF1_InterruptHandler:
  1866  005D                     	ds	2
  1867  005F                     _IOCAF0_InterruptHandler:
  1868  005F                     	ds	2
  1869  000D                     _PORTBbits	set	13
  1870  000D                     _PORTB	set	13
  1871  000B                     _INTCONbits	set	11
  1872  0097                     _WDTCON	set	151
  1873  0098                     _OSCTUNE	set	152
  1874  0099                     _OSCCON	set	153
  1875  0095                     _OPTION_REGbits	set	149
  1876  008E                     _TRISC	set	142
  1877  008D                     _TRISB	set	141
  1878  008C                     _TRISA	set	140
  1879  0090                     _TRISE	set	144
  1880  0116                     _BORCON	set	278
  1881  010E                     _LATC	set	270
  1882  010D                     _LATB	set	269
  1883  010C                     _LATA	set	268
  1884  018C                     _ANSELA	set	396
  1885  018D                     _ANSELB	set	397
  1886  018E                     _ANSELC	set	398
  1887  020E                     _WPUC	set	526
  1888  020C                     _WPUA	set	524
  1889  020D                     _WPUB	set	525
  1890  0210                     _WPUE	set	528
  1891  028E                     _ODCONC	set	654
  1892  028D                     _ODCONB	set	653
  1893  028C                     _ODCONA	set	652
  1894  030E                     _SLRCONC	set	782
  1895  030D                     _SLRCONB	set	781
  1896  030C                     _SLRCONA	set	780
  1897  0391                     _IOCAPbits	set	913
  1898  0392                     _IOCANbits	set	914
  1899  0393                     _IOCAFbits	set	915
  1900  0390                     _INLVLE	set	912
  1901  038E                     _INLVLC	set	910
  1902  038D                     _INLVLB	set	909
  1903  038C                     _INLVLA	set	908
  1904                           
  1905                           	psect	stringtext1
  1906  03E2                     __pstringtext1:
  1907  03E2                     STR_1:
  1908  03E2  3420               	retlw	32	;' '
  1909  03E3  3420               	retlw	32	;' '
  1910  03E4  3420               	retlw	32	;' '
  1911  03E5  3420               	retlw	32	;' '
  1912  03E6  3420               	retlw	32	;' '
  1913  03E7  3420               	retlw	32	;' '
  1914  03E8  3420               	retlw	32	;' '
  1915  03E9  3420               	retlw	32	;' '
  1916  03EA  3420               	retlw	32	;' '
  1917  03EB  3420               	retlw	32	;' '
  1918  03EC  3420               	retlw	32	;' '
  1919  03ED  3420               	retlw	32	;' '
  1920  03EE  3420               	retlw	32	;' '
  1921  03EF  3420               	retlw	32	;' '
  1922  03F0  3420               	retlw	32	;' '
  1923  03F1  3420               	retlw	32	;' '
  1924  03F2  3400               	retlw	0
  1925                           
  1926                           	psect	stringtext2
  1927  0000                     __pstringtext2:
  1928  03F1                     
  1929                           	psect	cinit
  1930  001F                     start_initialization:	
  1931                           ; #config settings
  1932                           
  1933  001F                     __initialization:
  1934                           
  1935                           ; Initialize objects allocated to BANK0
  1936  001F  3039               	movlw	low __pidataBANK0
  1937  0020  0084               	movwf	4
  1938  0021  3084               	movlw	(high __pidataBANK0)| (0+128)
  1939  0022  0085               	movwf	5
  1940  0023  3061               	movlw	low __pdataBANK0
  1941  0024  0086               	movwf	6
  1942  0025  3000               	movlw	high __pdataBANK0
  1943  0026  0087               	movwf	7
  1944  0027  3008               	movlw	8
  1945  0028  3184  2448  3180   	fcall	init_ram
  1946                           
  1947                           ; Initialize objects allocated to BANK1
  1948  002B  3085               	movlw	low __pidataBANK1
  1949  002C  0084               	movwf	4
  1950  002D  3083               	movlw	(high __pidataBANK1)| (0+128)
  1951  002E  0085               	movwf	5
  1952  002F  30A0               	movlw	low __pdataBANK1
  1953  0030  0086               	movwf	6
  1954  0031  3000               	movlw	high __pdataBANK1
  1955  0032  0087               	movwf	7
  1956  0033  3018               	movlw	24
  1957  0034  3184  2448  3180   	fcall	init_ram
  1958  0037                     end_of_initialization:	
  1959                           ;End of C runtime variable initialization code
  1960                           
  1961  0037                     __end_of__initialization:
  1962  0037  107E               	bcf	int$flags,0	;clear compiler interrupt flag (level 1)
  1963  0038  0020               	movlb	0
  1964  0039  3181  2924         	ljmp	_main	;jump to C main() function
  1965                           
  1966                           	psect	dataBANK0
  1967  0061                     __pdataBANK0:
  1968  0061                     main@F5648:
  1969  0061                     	ds	8
  1970                           
  1971                           	psect	dataBANK1
  1972  00A0                     __pdataBANK1:
  1973  00A0                     main@F5654:
  1974  00A0                     	ds	8
  1975  00A8                     main@F5652:
  1976  00A8                     	ds	8
  1977  00B0                     main@F5650:
  1978  00B0                     	ds	8
  1979                           
  1980                           	psect	inittext
  1981  0448                     init_ram:
  1982  0448  00FE               	movwf	btemp
  1983  0449                     initloop:
  1984  0449  0012               	moviw fsr0++
  1985  044A  001E               	movwi fsr1++
  1986  044B  0BFE               	decfsz	btemp,f
  1987  044C  2C49               	goto	initloop
  1988  044D  3400               	retlw	0
  1989                           
  1990                           	psect	cstackCOMMON
  1991  0070                     __pcstackCOMMON:
  1992  0070                     ?_IOCAF0_DefaultInterruptHandler:
  1993  0070                     ??_IOCAF0_DefaultInterruptHandler:	
  1994                           ; 1 bytes @ 0x0
  1995                           
  1996  0070                     ?_IOCAF1_DefaultInterruptHandler:	
  1997                           ; 1 bytes @ 0x0
  1998                           
  1999  0070                     ??_IOCAF1_DefaultInterruptHandler:	
  2000                           ; 1 bytes @ 0x0
  2001                           
  2002  0070                     ?_IOCAF2_DefaultInterruptHandler:	
  2003                           ; 1 bytes @ 0x0
  2004                           
  2005  0070                     ??_IOCAF2_DefaultInterruptHandler:	
  2006                           ; 1 bytes @ 0x0
  2007                           
  2008  0070                     ?_IOCAF3_DefaultInterruptHandler:	
  2009                           ; 1 bytes @ 0x0
  2010                           
  2011  0070                     ??_IOCAF3_DefaultInterruptHandler:	
  2012                           ; 1 bytes @ 0x0
  2013                           
  2014  0070                     ?_IOCAF4_DefaultInterruptHandler:	
  2015                           ; 1 bytes @ 0x0
  2016                           
  2017  0070                     ??_IOCAF4_DefaultInterruptHandler:	
  2018                           ; 1 bytes @ 0x0
  2019                           
  2020  0070                     ?_IOCAF5_DefaultInterruptHandler:	
  2021                           ; 1 bytes @ 0x0
  2022                           
  2023  0070                     ??_IOCAF5_DefaultInterruptHandler:	
  2024                           ; 1 bytes @ 0x0
  2025                           
  2026  0070                     ?_IOCAF0_ISR:	
  2027                           ; 1 bytes @ 0x0
  2028                           
  2029  0070                     ?_IOCAF1_ISR:	
  2030                           ; 1 bytes @ 0x0
  2031                           
  2032  0070                     ??_IOCAF1_ISR:	
  2033                           ; 1 bytes @ 0x0
  2034                           
  2035  0070                     ?_IOCAF2_ISR:	
  2036                           ; 1 bytes @ 0x0
  2037                           
  2038  0070                     ??_IOCAF2_ISR:	
  2039                           ; 1 bytes @ 0x0
  2040                           
  2041  0070                     ?_IOCAF3_ISR:	
  2042                           ; 1 bytes @ 0x0
  2043                           
  2044  0070                     ?_IOCAF4_ISR:	
  2045                           ; 1 bytes @ 0x0
  2046                           
  2047  0070                     ??_IOCAF4_ISR:	
  2048                           ; 1 bytes @ 0x0
  2049                           
  2050  0070                     ?_IOCAF5_ISR:	
  2051                           ; 1 bytes @ 0x0
  2052                           
  2053  0070                     ??_IOCAF5_ISR:	
  2054                           ; 1 bytes @ 0x0
  2055                           
  2056  0070                     ?_OSCILLATOR_Initialize:	
  2057                           ; 1 bytes @ 0x0
  2058                           
  2059  0070                     ?_WDT_Initialize:	
  2060                           ; 1 bytes @ 0x0
  2061                           
  2062  0070                     ?_LCDPutCmd:	
  2063                           ; 1 bytes @ 0x0
  2064                           
  2065  0070                     ?_PIN_MANAGER_Initialize:	
  2066                           ; 1 bytes @ 0x0
  2067                           
  2068  0070                     ?_PIN_MANAGER_IOC:	
  2069                           ; 1 bytes @ 0x0
  2070                           
  2071  0070                     ?_SYSTEM_Initialize:	
  2072                           ; 1 bytes @ 0x0
  2073                           
  2074  0070                     ?_INTERRUPT_InterruptManager:	
  2075                           ; 1 bytes @ 0x0
  2076                           
  2077  0070                     ?_LCD_Initialize:	
  2078                           ; 1 bytes @ 0x0
  2079                           
  2080  0070                     ?_LCDPutChar:	
  2081                           ; 1 bytes @ 0x0
  2082                           
  2083  0070                     ?_LCDClear:	
  2084                           ; 1 bytes @ 0x0
  2085                           
  2086  0070                     ?_idleScreen:	
  2087                           ; 1 bytes @ 0x0
  2088                           
  2089  0070                     ?_main:	
  2090                           ; 1 bytes @ 0x0
  2091                           
  2092  0070                     ?i1_LCDWriteNibble:	
  2093                           ; 1 bytes @ 0x0
  2094                           
  2095  0070                     ?i1_LCDPutChar:	
  2096                           ; 1 bytes @ 0x0
  2097                           
  2098  0070                     ?i1_LCDPutCmd:	
  2099                           ; 1 bytes @ 0x0
  2100                           
  2101  0070                     i1LCDWriteNibble@rs:	
  2102                           ; 1 bytes @ 0x0
  2103                           
  2104                           
  2105                           ; 1 bytes @ 0x0
  2106  0070                     	ds	1
  2107  0071                     ??i1_LCDWriteNibble:
  2108                           
  2109                           ; 1 bytes @ 0x1
  2110  0071                     	ds	2
  2111  0073                     i1LCDWriteNibble@ch:
  2112                           
  2113                           ; 1 bytes @ 0x3
  2114  0073                     	ds	1
  2115  0074                     ??i1_LCDPutChar:
  2116  0074                     ??i1_LCDPutCmd:	
  2117                           ; 1 bytes @ 0x4
  2118                           
  2119                           
  2120                           ; 1 bytes @ 0x4
  2121  0074                     	ds	2
  2122  0076                     i1LCDPutChar@ch:
  2123  0076                     i1LCDPutCmd@ch:	
  2124                           ; 1 bytes @ 0x6
  2125                           
  2126                           
  2127                           ; 1 bytes @ 0x6
  2128  0076                     	ds	1
  2129  0077                     ?i1_LCDPutStr:
  2130  0077                     ?i1_LCDGoto:	
  2131                           ; 1 bytes @ 0x7
  2132                           
  2133  0077                     i1LCDGoto@ln:	
  2134                           ; 1 bytes @ 0x7
  2135                           
  2136  0077                     i1LCDPutStr@str:	
  2137                           ; 1 bytes @ 0x7
  2138                           
  2139                           
  2140                           ; 2 bytes @ 0x7
  2141  0077                     	ds	1
  2142  0078                     ??i1_LCDGoto:
  2143  0078                     i1_LCDGoto$468:	
  2144                           ; 1 bytes @ 0x8
  2145                           
  2146                           
  2147                           ; 2 bytes @ 0x8
  2148  0078                     	ds	1
  2149  0079                     ??i1_LCDPutStr:
  2150                           
  2151                           ; 1 bytes @ 0x9
  2152  0079                     	ds	1
  2153  007A                     i1LCDGoto@pos:
  2154                           
  2155                           ; 1 bytes @ 0xA
  2156  007A                     	ds	2
  2157  007C                     i1LCDPutStr@i:
  2158                           
  2159                           ; 1 bytes @ 0xC
  2160  007C                     	ds	1
  2161  007D                     ??_basicShoot:
  2162                           
  2163                           ; 1 bytes @ 0xD
  2164  007D                     	ds	1
  2165  007E                     ??_IOCAF0_ISR:
  2166  007E                     ??_IOCAF3_ISR:	
  2167                           ; 1 bytes @ 0xE
  2168                           
  2169  007E                     ??_PIN_MANAGER_IOC:	
  2170                           ; 1 bytes @ 0xE
  2171                           
  2172                           
  2173                           	psect	cstackBANK0
  2174  0020                     __pcstackBANK0:	
  2175                           ; 1 bytes @ 0xE
  2176                           
  2177  0020                     ?_basicShoot:
  2178  0020                     basicShoot@direction:	
  2179                           ; 1 bytes @ 0x0
  2180                           
  2181                           
  2182                           ; 2 bytes @ 0x0
  2183  0020                     	ds	2
  2184  0022                     basicShoot@j:
  2185                           
  2186                           ; 2 bytes @ 0x2
  2187  0022                     	ds	2
  2188  0024                     basicShoot@j_491:
  2189                           
  2190                           ; 2 bytes @ 0x4
  2191  0024                     	ds	2
  2192  0026                     ??_INTERRUPT_InterruptManager:
  2193                           
  2194                           ; 1 bytes @ 0x6
  2195  0026                     	ds	1
  2196  0027                     ?_IOCAF0_SetInterruptHandler:
  2197  0027                     ?_IOCAF1_SetInterruptHandler:	
  2198                           ; 1 bytes @ 0x7
  2199                           
  2200  0027                     ?_IOCAF2_SetInterruptHandler:	
  2201                           ; 1 bytes @ 0x7
  2202                           
  2203  0027                     ?_IOCAF3_SetInterruptHandler:	
  2204                           ; 1 bytes @ 0x7
  2205                           
  2206  0027                     ?_IOCAF4_SetInterruptHandler:	
  2207                           ; 1 bytes @ 0x7
  2208                           
  2209  0027                     ?_IOCAF5_SetInterruptHandler:	
  2210                           ; 1 bytes @ 0x7
  2211                           
  2212  0027                     ??_OSCILLATOR_Initialize:	
  2213                           ; 1 bytes @ 0x7
  2214                           
  2215  0027                     ??_WDT_Initialize:	
  2216                           ; 1 bytes @ 0x7
  2217                           
  2218  0027                     ?_LCDWriteNibble:	
  2219                           ; 1 bytes @ 0x7
  2220                           
  2221  0027                     LCDWriteNibble@rs:	
  2222                           ; 1 bytes @ 0x7
  2223                           
  2224  0027                     IOCAF0_SetInterruptHandler@InterruptHandler:	
  2225                           ; 1 bytes @ 0x7
  2226                           
  2227  0027                     IOCAF1_SetInterruptHandler@InterruptHandler:	
  2228                           ; 2 bytes @ 0x7
  2229                           
  2230  0027                     IOCAF2_SetInterruptHandler@InterruptHandler:	
  2231                           ; 2 bytes @ 0x7
  2232                           
  2233  0027                     IOCAF3_SetInterruptHandler@InterruptHandler:	
  2234                           ; 2 bytes @ 0x7
  2235                           
  2236  0027                     IOCAF4_SetInterruptHandler@InterruptHandler:	
  2237                           ; 2 bytes @ 0x7
  2238                           
  2239  0027                     IOCAF5_SetInterruptHandler@InterruptHandler:	
  2240                           ; 2 bytes @ 0x7
  2241                           
  2242                           
  2243                           ; 2 bytes @ 0x7
  2244  0027                     	ds	1
  2245  0028                     ??_LCDWriteNibble:
  2246                           
  2247                           ; 1 bytes @ 0x8
  2248  0028                     	ds	1
  2249  0029                     ??_IOCAF0_SetInterruptHandler:
  2250  0029                     ??_IOCAF1_SetInterruptHandler:	
  2251                           ; 1 bytes @ 0x9
  2252                           
  2253  0029                     ??_IOCAF2_SetInterruptHandler:	
  2254                           ; 1 bytes @ 0x9
  2255                           
  2256  0029                     ??_IOCAF3_SetInterruptHandler:	
  2257                           ; 1 bytes @ 0x9
  2258                           
  2259  0029                     ??_IOCAF4_SetInterruptHandler:	
  2260                           ; 1 bytes @ 0x9
  2261                           
  2262  0029                     ??_IOCAF5_SetInterruptHandler:	
  2263                           ; 1 bytes @ 0x9
  2264                           
  2265  0029                     ??_PIN_MANAGER_Initialize:	
  2266                           ; 1 bytes @ 0x9
  2267                           
  2268  0029                     ??_SYSTEM_Initialize:	
  2269                           ; 1 bytes @ 0x9
  2270                           
  2271                           
  2272                           ; 1 bytes @ 0x9
  2273  0029                     	ds	1
  2274  002A                     LCDWriteNibble@ch:
  2275                           
  2276                           ; 1 bytes @ 0xA
  2277  002A                     	ds	1
  2278  002B                     ??_LCDPutCmd:
  2279  002B                     ??_LCDPutChar:	
  2280                           ; 1 bytes @ 0xB
  2281                           
  2282                           
  2283                           ; 1 bytes @ 0xB
  2284  002B                     	ds	2
  2285  002D                     LCDPutChar@ch:
  2286  002D                     LCDPutCmd@ch:	
  2287                           ; 1 bytes @ 0xD
  2288                           
  2289                           
  2290                           ; 1 bytes @ 0xD
  2291  002D                     	ds	1
  2292  002E                     ??_LCD_Initialize:
  2293  002E                     ?_LCDPutStr:	
  2294                           ; 1 bytes @ 0xE
  2295                           
  2296  002E                     ?_LCDGoto:	
  2297                           ; 1 bytes @ 0xE
  2298                           
  2299  002E                     ?_createCustomCharacter:	
  2300                           ; 1 bytes @ 0xE
  2301                           
  2302  002E                     LCDGoto@ln:	
  2303                           ; 1 bytes @ 0xE
  2304                           
  2305  002E                     createCustomCharacter@Location:	
  2306                           ; 1 bytes @ 0xE
  2307                           
  2308  002E                     LCDPutStr@str:	
  2309                           ; 1 bytes @ 0xE
  2310                           
  2311                           
  2312                           ; 2 bytes @ 0xE
  2313  002E                     	ds	1
  2314  002F                     ??_LCDGoto:
  2315  002F                     ??_createCustomCharacter:	
  2316                           ; 1 bytes @ 0xF
  2317                           
  2318  002F                     _LCDGoto$468:	
  2319                           ; 1 bytes @ 0xF
  2320                           
  2321                           
  2322                           ; 2 bytes @ 0xF
  2323  002F                     	ds	1
  2324  0030                     ??_LCDPutStr:
  2325  0030                     createCustomCharacter@Pattern:	
  2326                           ; 1 bytes @ 0x10
  2327                           
  2328                           
  2329                           ; 1 bytes @ 0x10
  2330  0030                     	ds	1
  2331  0031                     LCDGoto@pos:
  2332  0031                     createCustomCharacter@i:	
  2333                           ; 1 bytes @ 0x11
  2334                           
  2335                           
  2336                           ; 2 bytes @ 0x11
  2337  0031                     	ds	2
  2338  0033                     LCDPutStr@i:
  2339                           
  2340                           ; 1 bytes @ 0x13
  2341  0033                     	ds	1
  2342  0034                     ??_LCDClear:
  2343  0034                     ??_idleScreen:	
  2344                           ; 1 bytes @ 0x14
  2345                           
  2346  0034                     ??_main:	
  2347                           ; 1 bytes @ 0x14
  2348                           
  2349                           
  2350                           ; 1 bytes @ 0x14
  2351  0034                     	ds	1
  2352  0035                     main@Pattern1:
  2353                           
  2354                           ; 8 bytes @ 0x15
  2355  0035                     	ds	8
  2356  003D                     main@Pattern2:
  2357                           
  2358                           ; 8 bytes @ 0x1D
  2359  003D                     	ds	8
  2360  0045                     main@Pattern3:
  2361                           
  2362                           ; 8 bytes @ 0x25
  2363  0045                     	ds	8
  2364  004D                     main@Pattern4:
  2365                           
  2366                           ; 8 bytes @ 0x2D
  2367  004D                     	ds	8
  2368                           
  2369                           	psect	maintext
  2370  0124                     __pmaintext:	
  2371 ;;
  2372 ;;Main: autosize = 0, tempsize = 1, incstack = 0, save=0
  2373 ;;
  2374 ;; *************** function _main *****************
  2375 ;; Defined at:
  2376 ;;		line 28 in file "main.c"
  2377 ;; Parameters:    Size  Location     Type
  2378 ;;		None
  2379 ;; Auto vars:     Size  Location     Type
  2380 ;;  Pattern4        8   45[BANK0 ] unsigned char [8]
  2381 ;;  Pattern3        8   37[BANK0 ] unsigned char [8]
  2382 ;;  Pattern2        8   29[BANK0 ] unsigned char [8]
  2383 ;;  Pattern1        8   21[BANK0 ] unsigned char [8]
  2384 ;; Return value:  Size  Location     Type
  2385 ;;                  1    wreg      void 
  2386 ;; Registers used:
  2387 ;;		wreg, fsr0l, fsr0h, fsr1l, fsr1h, status,2, status,0, pclath, cstack
  2388 ;; Tracked objects:
  2389 ;;		On entry : B1F/0
  2390 ;;		On exit  : 0/0
  2391 ;;		Unchanged: 0/0
  2392 ;; Data sizes:     COMMON   BANK0   BANK1   BANK2   BANK3   BANK4   BANK5   BANK6   BANK7   BANK8   BANK9  BANK10  BANK1
      +1  BANK12  BANK13  BANK14  BANK15  BANK16  BANK17  BANK18  BANK19  BANK20  BANK21  BANK22  BANK23  BANK24  BANK25
  2393 ;;      Params:         0       0       0       0       0       0       0       0       0       0       0       0       
      +0       0       0       0       0       0       0       0       0       0       0       0       0       0       0
  2394 ;;      Locals:         0      32       0       0       0       0       0       0       0       0       0       0       
      +0       0       0       0       0       0       0       0       0       0       0       0       0       0       0
  2395 ;;      Temps:          0       1       0       0       0       0       0       0       0       0       0       0       
      +0       0       0       0       0       0       0       0       0       0       0       0       0       0       0
  2396 ;;      Totals:         0      33       0       0       0       0       0       0       0       0       0       0       
      +0       0       0       0       0       0       0       0       0       0       0       0       0       0       0
  2397 ;;Total ram usage:       33 bytes
  2398 ;; Hardware stack levels required when called:   12
  2399 ;; This function calls:
  2400 ;;		_LCD_Initialize
  2401 ;;		_SYSTEM_Initialize
  2402 ;;		_createCustomCharacter
  2403 ;;		_idleScreen
  2404 ;; This function is called by:
  2405 ;;		Startup code after reset
  2406 ;; This function uses a non-reentrant model
  2407 ;;
  2408                           
  2409                           
  2410                           ;psect for function _main
  2411  0124                     _main:
  2412  0124                     l1566:	
  2413                           ;incstack = 0
  2414                           ; Regs used in _main: [wreg-fsr1h+status,2+status,0+pclath+cstack]
  2415                           
  2416                           
  2417                           ;main.c: 34:     SYSTEM_Initialize();
  2418  0124  3184  242F  3181   	fcall	_SYSTEM_Initialize
  2419                           
  2420                           ;main.c: 35:     LCD_Initialize();
  2421  0127  3182  2285  3181   	fcall	_LCD_Initialize
  2422  012A                     l1568:
  2423                           
  2424                           ;main.c: 39:     unsigned char Pattern1 [ ] = {0x18,0x10,0x1F,0x1F,0x1F,0x10,0x18,0x00};
  2425  012A  3061               	movlw	low main@F5648
  2426  012B  0086               	movwf	6
  2427  012C  3000               	movlw	high main@F5648
  2428  012D  0087               	movwf	7
  2429  012E  3035               	movlw	low main@Pattern1
  2430  012F  0084               	movwf	4
  2431  0130  3000               	movlw	high main@Pattern1
  2432  0131  0085               	movwf	5
  2433  0132  3008               	movlw	8
  2434  0133  0020               	movlb	0	; select bank0
  2435  0134  00B4               	movwf	??_main
  2436  0135                     u710:
  2437  0135  0016               	moviw fsr1++
  2438  0136  001A               	movwi fsr0++
  2439  0137  0BB4               	decfsz	??_main,f
  2440  0138  2935               	goto	u710
  2441  0139                     l1570:
  2442                           
  2443                           ;main.c: 41:     unsigned char Pattern2 [ ] = {0x00,0x0A,0x11,0x15,0x15,0x11,0x0A,0x00};
  2444  0139  30B0               	movlw	low main@F5650
  2445  013A  0086               	movwf	6
  2446  013B  3000               	movlw	high main@F5650
  2447  013C  0087               	movwf	7
  2448  013D  303D               	movlw	low main@Pattern2
  2449  013E  0084               	movwf	4
  2450  013F  3000               	movlw	high main@Pattern2
  2451  0140  0085               	movwf	5
  2452  0141  3008               	movlw	8
  2453  0142  00B4               	movwf	??_main
  2454  0143                     u720:
  2455  0143  0016               	moviw fsr1++
  2456  0144  001A               	movwi fsr0++
  2457  0145  0BB4               	decfsz	??_main,f
  2458  0146  2943               	goto	u720
  2459  0147                     l1572:
  2460                           
  2461                           ;main.c: 43:     unsigned char Pattern3 [ ] = {0x00,0x00,0x0E,0x1F,0x0E,0x00,0x00,0x00} 
      +                          ;
  2462  0147  30A8               	movlw	low main@F5652
  2463  0148  0086               	movwf	6
  2464  0149  3000               	movlw	high main@F5652
  2465  014A  0087               	movwf	7
  2466  014B  3045               	movlw	low main@Pattern3
  2467  014C  0084               	movwf	4
  2468  014D  3000               	movlw	high main@Pattern3
  2469  014E  0085               	movwf	5
  2470  014F  3008               	movlw	8
  2471  0150  00B4               	movwf	??_main
  2472  0151                     u730:
  2473  0151  0016               	moviw fsr1++
  2474  0152  001A               	movwi fsr0++
  2475  0153  0BB4               	decfsz	??_main,f
  2476  0154  2951               	goto	u730
  2477  0155                     l1574:
  2478                           
  2479                           ;main.c: 45:     unsigned char Pattern4 [ ] = {0x00,0x00,0x0A,0x1F,0x1F,0x0E,0x04,0x00} 
      +                          ;
  2480  0155  30A0               	movlw	low main@F5654
  2481  0156  0086               	movwf	6
  2482  0157  3000               	movlw	high main@F5654
  2483  0158  0087               	movwf	7
  2484  0159  304D               	movlw	low main@Pattern4
  2485  015A  0084               	movwf	4
  2486  015B  3000               	movlw	high main@Pattern4
  2487  015C  0085               	movwf	5
  2488  015D  3008               	movlw	8
  2489  015E  00B4               	movwf	??_main
  2490  015F                     u740:
  2491  015F  0016               	moviw fsr1++
  2492  0160  001A               	movwi fsr0++
  2493  0161  0BB4               	decfsz	??_main,f
  2494  0162  295F               	goto	u740
  2495  0163                     l1576:
  2496                           
  2497                           ;main.c: 49:     createCustomCharacter(Pattern1,1);
  2498  0163  01AE               	clrf	createCustomCharacter@Location
  2499  0164  0AAE               	incf	createCustomCharacter@Location,f
  2500  0165  3035               	movlw	(low (main@Pattern1| 0))& (0+255)
  2501  0166  3181  21B9  3181   	fcall	_createCustomCharacter
  2502  0169                     l1578:
  2503                           
  2504                           ;main.c: 50:     createCustomCharacter(Pattern2,0);
  2505  0169  0020               	movlb	0	; select bank0
  2506  016A  01AE               	clrf	createCustomCharacter@Location
  2507  016B  303D               	movlw	(low (main@Pattern2| 0))& (0+255)
  2508  016C  3181  21B9  3181   	fcall	_createCustomCharacter
  2509  016F                     l1580:
  2510                           
  2511                           ;main.c: 51:     createCustomCharacter(Pattern3,2);
  2512  016F  3002               	movlw	2
  2513  0170  0020               	movlb	0	; select bank0
  2514  0171  00B4               	movwf	??_main
  2515  0172  0834               	movf	??_main,w
  2516  0173  00AE               	movwf	createCustomCharacter@Location
  2517  0174  3045               	movlw	(low (main@Pattern3| 0))& (0+255)
  2518  0175  3181  21B9  3181   	fcall	_createCustomCharacter
  2519  0178                     l1582:
  2520                           
  2521                           ;main.c: 52:     createCustomCharacter(Pattern4,3);
  2522  0178  3003               	movlw	3
  2523  0179  0020               	movlb	0	; select bank0
  2524  017A  00B4               	movwf	??_main
  2525  017B  0834               	movf	??_main,w
  2526  017C  00AE               	movwf	createCustomCharacter@Location
  2527  017D  304D               	movlw	(low (main@Pattern4| 0))& (0+255)
  2528  017E  3181  21B9  3181   	fcall	_createCustomCharacter
  2529  0181                     l1584:
  2530                           
  2531                           ;main.c: 56:     idleScreen();
  2532  0181  3183  239D  3181   	fcall	_idleScreen
  2533  0184                     l1586:
  2534                           
  2535                           ;main.c: 59:     (INTCONbits.GIE = 1);
  2536  0184  178B               	bsf	11,7	;volatile
  2537  0185                     l311:	
  2538                           ;main.c: 61:     while (1)
  2539                           
  2540  0185                     l312:	
  2541                           ;main.c: 62:     {;main.c: 64:     }
  2542                           
  2543  0185  2985               	goto	l311
  2544  0186  3180  281D         	ljmp	start
  2545  0188                     __end_of_main:
  2546                           
  2547                           	psect	text1
  2548  039D                     __ptext1:	
  2549 ;; *************** function _idleScreen *****************
  2550 ;; Defined at:
  2551 ;;		line 51 in file "functions.c"
  2552 ;; Parameters:    Size  Location     Type
  2553 ;;		None
  2554 ;; Auto vars:     Size  Location     Type
  2555 ;;		None
  2556 ;; Return value:  Size  Location     Type
  2557 ;;                  1    wreg      void 
  2558 ;; Registers used:
  2559 ;;		wreg, fsr0l, fsr0h, status,2, status,0, pclath, cstack
  2560 ;; Tracked objects:
  2561 ;;		On entry : 0/0
  2562 ;;		On exit  : 0/0
  2563 ;;		Unchanged: 0/0
  2564 ;; Data sizes:     COMMON   BANK0   BANK1   BANK2   BANK3   BANK4   BANK5   BANK6   BANK7   BANK8   BANK9  BANK10  BANK1
      +1  BANK12  BANK13  BANK14  BANK15  BANK16  BANK17  BANK18  BANK19  BANK20  BANK21  BANK22  BANK23  BANK24  BANK25
  2565 ;;      Params:         0       0       0       0       0       0       0       0       0       0       0       0       
      +0       0       0       0       0       0       0       0       0       0       0       0       0       0       0
  2566 ;;      Locals:         0       0       0       0       0       0       0       0       0       0       0       0       
      +0       0       0       0       0       0       0       0       0       0       0       0       0       0       0
  2567 ;;      Temps:          0       0       0       0       0       0       0       0       0       0       0       0       
      +0       0       0       0       0       0       0       0       0       0       0       0       0       0       0
  2568 ;;      Totals:         0       0       0       0       0       0       0       0       0       0       0       0       
      +0       0       0       0       0       0       0       0       0       0       0       0       0       0       0
  2569 ;;Total ram usage:        0 bytes
  2570 ;; Hardware stack levels used:    1
  2571 ;; Hardware stack levels required when called:   11
  2572 ;; This function calls:
  2573 ;;		_LCDClear
  2574 ;;		_LCDGoto
  2575 ;;		_LCDPutChar
  2576 ;; This function is called by:
  2577 ;;		_main
  2578 ;; This function uses a non-reentrant model
  2579 ;;
  2580                           
  2581                           
  2582                           ;psect for function _idleScreen
  2583  039D                     _idleScreen:
  2584  039D                     l1546:	
  2585                           ;incstack = 0
  2586                           ; Regs used in _idleScreen: [wreg-fsr0h+status,2+status,0+pclath+cstack]
  2587                           
  2588                           
  2589                           ;functions.c: 64:         LCDClear();
  2590  039D  3183  234A  3183   	fcall	_LCDClear
  2591  03A0                     l1548:
  2592                           
  2593                           ;functions.c: 65:         LCDGoto(0,0);
  2594  03A0  0020               	movlb	0	; select bank0
  2595  03A1  01AE               	clrf	LCDGoto@ln
  2596  03A2  3000               	movlw	0
  2597  03A3  3182  2210  3183   	fcall	_LCDGoto
  2598  03A6                     l1550:
  2599                           
  2600                           ;functions.c: 66:         LCDPutChar(1);
  2601  03A6  3001               	movlw	1
  2602  03A7  3182  22CB  3183   	fcall	_LCDPutChar
  2603  03AA                     l1552:
  2604                           
  2605                           ;functions.c: 67:         LCDGoto(15,0);
  2606  03AA  0020               	movlb	0	; select bank0
  2607  03AB  01AE               	clrf	LCDGoto@ln
  2608  03AC  300F               	movlw	15
  2609  03AD  3182  2210  3183   	fcall	_LCDGoto
  2610  03B0                     l1554:
  2611                           
  2612                           ;functions.c: 68:         LCDPutChar(0);
  2613  03B0  3000               	movlw	0
  2614  03B1  3182  22CB  3183   	fcall	_LCDPutChar
  2615  03B4                     l277:
  2616  03B4  0008               	return
  2617  03B5                     __end_of_idleScreen:
  2618                           
  2619                           	psect	text2
  2620  034A                     __ptext2:	
  2621 ;; *************** function _LCDClear *****************
  2622 ;; Defined at:
  2623 ;;		line 159 in file "lcd.c"
  2624 ;; Parameters:    Size  Location     Type
  2625 ;;		None
  2626 ;; Auto vars:     Size  Location     Type
  2627 ;;		None
  2628 ;; Return value:  Size  Location     Type
  2629 ;;                  1    wreg      void 
  2630 ;; Registers used:
  2631 ;;		wreg, fsr0l, fsr0h, status,2, status,0, pclath, cstack
  2632 ;; Tracked objects:
  2633 ;;		On entry : 0/0
  2634 ;;		On exit  : 0/0
  2635 ;;		Unchanged: 0/0
  2636 ;; Data sizes:     COMMON   BANK0   BANK1   BANK2   BANK3   BANK4   BANK5   BANK6   BANK7   BANK8   BANK9  BANK10  BANK1
      +1  BANK12  BANK13  BANK14  BANK15  BANK16  BANK17  BANK18  BANK19  BANK20  BANK21  BANK22  BANK23  BANK24  BANK25
  2637 ;;      Params:         0       0       0       0       0       0       0       0       0       0       0       0       
      +0       0       0       0       0       0       0       0       0       0       0       0       0       0       0
  2638 ;;      Locals:         0       0       0       0       0       0       0       0       0       0       0       0       
      +0       0       0       0       0       0       0       0       0       0       0       0       0       0       0
  2639 ;;      Temps:          0       0       0       0       0       0       0       0       0       0       0       0       
      +0       0       0       0       0       0       0       0       0       0       0       0       0       0       0
  2640 ;;      Totals:         0       0       0       0       0       0       0       0       0       0       0       0       
      +0       0       0       0       0       0       0       0       0       0       0       0       0       0       0
  2641 ;;Total ram usage:        0 bytes
  2642 ;; Hardware stack levels used:    1
  2643 ;; Hardware stack levels required when called:   10
  2644 ;; This function calls:
  2645 ;;		_LCDGoto
  2646 ;;		_LCDPutStr
  2647 ;; This function is called by:
  2648 ;;		_idleScreen
  2649 ;; This function uses a non-reentrant model
  2650 ;;
  2651                           
  2652                           
  2653                           ;psect for function _LCDClear
  2654  034A                     _LCDClear:
  2655  034A                     l1482:	
  2656                           ;incstack = 0
  2657                           ; Regs used in _LCDClear: [wreg-fsr0h+status,2+status,0+pclath+cstack]
  2658                           
  2659                           
  2660                           ;lcd.c: 161:   LCDGoto(0, 0);
  2661  034A  0020               	movlb	0	; select bank0
  2662  034B  01AE               	clrf	LCDGoto@ln
  2663  034C  3000               	movlw	0
  2664  034D  3182  2210  3183   	fcall	_LCDGoto
  2665  0350                     l1484:
  2666                           
  2667                           ;lcd.c: 162:   LCDPutStr("                ");
  2668  0350  30E2               	movlw	low (STR_1| (0+32768))
  2669  0351  0020               	movlb	0	; select bank0
  2670  0352  00AE               	movwf	LCDPutStr@str
  2671  0353  3083               	movlw	high (STR_1| (0+32768))
  2672  0354  00AF               	movwf	LCDPutStr@str+1
  2673  0355  3181  21E8  3183   	fcall	_LCDPutStr
  2674  0358                     l1486:
  2675                           
  2676                           ;lcd.c: 163:   LCDGoto(0, 1);
  2677  0358  0020               	movlb	0	; select bank0
  2678  0359  01AE               	clrf	LCDGoto@ln
  2679  035A  0AAE               	incf	LCDGoto@ln,f
  2680  035B  3000               	movlw	0
  2681  035C  3182  2210  3183   	fcall	_LCDGoto
  2682                           
  2683                           ;lcd.c: 164:   LCDPutStr("                ");
  2684  035F  30E2               	movlw	low (STR_1| (0+32768))
  2685  0360  0020               	movlb	0	; select bank0
  2686  0361  00AE               	movwf	LCDPutStr@str
  2687  0362  3083               	movlw	high (STR_1| (0+32768))
  2688  0363  00AF               	movwf	LCDPutStr@str+1
  2689  0364  3181  21E8  3183   	fcall	_LCDPutStr
  2690  0367                     l257:
  2691  0367  0008               	return
  2692  0368                     __end_of_LCDClear:
  2693                           
  2694                           	psect	text3
  2695  01E8                     __ptext3:	
  2696 ;; *************** function _LCDPutStr *****************
  2697 ;; Defined at:
  2698 ;;		line 131 in file "lcd.c"
  2699 ;; Parameters:    Size  Location     Type
  2700 ;;  str             2   14[BANK0 ] PTR const unsigned char 
  2701 ;;		 -> STR_4(2), STR_3(2), STR_2(17), STR_1(17), 
  2702 ;; Auto vars:     Size  Location     Type
  2703 ;;  i               1   19[BANK0 ] unsigned char 
  2704 ;; Return value:  Size  Location     Type
  2705 ;;                  1    wreg      void 
  2706 ;; Registers used:
  2707 ;;		wreg, fsr0l, fsr0h, status,2, status,0, pclath, cstack
  2708 ;; Tracked objects:
  2709 ;;		On entry : 0/0
  2710 ;;		On exit  : 0/0
  2711 ;;		Unchanged: 0/0
  2712 ;; Data sizes:     COMMON   BANK0   BANK1   BANK2   BANK3   BANK4   BANK5   BANK6   BANK7   BANK8   BANK9  BANK10  BANK1
      +1  BANK12  BANK13  BANK14  BANK15  BANK16  BANK17  BANK18  BANK19  BANK20  BANK21  BANK22  BANK23  BANK24  BANK25
  2713 ;;      Params:         0       2       0       0       0       0       0       0       0       0       0       0       
      +0       0       0       0       0       0       0       0       0       0       0       0       0       0       0
  2714 ;;      Locals:         0       1       0       0       0       0       0       0       0       0       0       0       
      +0       0       0       0       0       0       0       0       0       0       0       0       0       0       0
  2715 ;;      Temps:          0       3       0       0       0       0       0       0       0       0       0       0       
      +0       0       0       0       0       0       0       0       0       0       0       0       0       0       0
  2716 ;;      Totals:         0       6       0       0       0       0       0       0       0       0       0       0       
      +0       0       0       0       0       0       0       0       0       0       0       0       0       0       0
  2717 ;;Total ram usage:        6 bytes
  2718 ;; Hardware stack levels used:    1
  2719 ;; Hardware stack levels required when called:    9
  2720 ;; This function calls:
  2721 ;;		_LCDPutChar
  2722 ;; This function is called by:
  2723 ;;		_LCDClear
  2724 ;; This function uses a non-reentrant model
  2725 ;;
  2726                           
  2727                           
  2728                           ;psect for function _LCDPutStr
  2729  01E8                     _LCDPutStr:
  2730  01E8                     l1338:	
  2731                           ;incstack = 0
  2732                           ; Regs used in _LCDPutStr: [wreg-fsr0h+status,2+status,0+pclath+cstack]
  2733                           
  2734                           
  2735                           ;lcd.c: 131: void LCDPutStr(const char *str);lcd.c: 132: {;lcd.c: 133:   uint8_t i = 0;
  2736  01E8  0020               	movlb	0	; select bank0
  2737  01E9  01B3               	clrf	LCDPutStr@i
  2738                           
  2739                           ;lcd.c: 136:   while (str[i])
  2740  01EA  29FF               	goto	l1344
  2741  01EB                     l1340:
  2742                           
  2743                           ;lcd.c: 137:   {;lcd.c: 139:     LCDPutChar(str[i++]);
  2744  01EB  082F               	movf	LCDPutStr@str+1,w
  2745  01EC  00B1               	movwf	??_LCDPutStr+1
  2746  01ED  082E               	movf	LCDPutStr@str,w
  2747  01EE  00B0               	movwf	??_LCDPutStr
  2748  01EF  0833               	movf	LCDPutStr@i,w
  2749  01F0  0730               	addwf	??_LCDPutStr,w
  2750  01F1  0084               	movwf	4
  2751  01F2  0831               	movf	??_LCDPutStr+1,w
  2752  01F3  1803               	skipnc
  2753  01F4  0A31               	incf	??_LCDPutStr+1,w
  2754  01F5  0085               	movwf	5
  2755  01F6  0800               	movf	0,w	;code access
  2756  01F7  3182  22CB  3181   	fcall	_LCDPutChar
  2757  01FA                     l1342:
  2758  01FA  3001               	movlw	1
  2759  01FB  0020               	movlb	0	; select bank0
  2760  01FC  00B0               	movwf	??_LCDPutStr
  2761  01FD  0830               	movf	??_LCDPutStr,w
  2762  01FE  07B3               	addwf	LCDPutStr@i,f
  2763  01FF                     l1344:
  2764                           
  2765                           ;lcd.c: 136:   while (str[i])
  2766  01FF  082F               	movf	LCDPutStr@str+1,w
  2767  0200  00B1               	movwf	??_LCDPutStr+1
  2768  0201  082E               	movf	LCDPutStr@str,w
  2769  0202  00B0               	movwf	??_LCDPutStr
  2770  0203  0833               	movf	LCDPutStr@i,w
  2771  0204  0730               	addwf	??_LCDPutStr,w
  2772  0205  0084               	movwf	4
  2773  0206  0831               	movf	??_LCDPutStr+1,w
  2774  0207  1803               	skipnc
  2775  0208  0A31               	incf	??_LCDPutStr+1,w
  2776  0209  0085               	movwf	5
  2777  020A  0012               	moviw fsr0++
  2778  020B  1D03               	btfss	3,2
  2779  020C  2A0E               	goto	u511
  2780  020D  2A0F               	goto	u510
  2781  020E                     u511:
  2782  020E  29EB               	goto	l1340
  2783  020F                     u510:
  2784  020F                     l244:
  2785  020F  0008               	return
  2786  0210                     __end_of_LCDPutStr:
  2787                           
  2788                           	psect	text4
  2789  0210                     __ptext4:	
  2790 ;; *************** function _LCDGoto *****************
  2791 ;; Defined at:
  2792 ;;		line 143 in file "lcd.c"
  2793 ;; Parameters:    Size  Location     Type
  2794 ;;  pos             1    wreg     unsigned char 
  2795 ;;  ln              1   14[BANK0 ] unsigned char 
  2796 ;; Auto vars:     Size  Location     Type
  2797 ;;  pos             1   17[BANK0 ] unsigned char 
  2798 ;; Return value:  Size  Location     Type
  2799 ;;                  1    wreg      void 
  2800 ;; Registers used:
  2801 ;;		wreg, status,2, status,0, pclath, cstack
  2802 ;; Tracked objects:
  2803 ;;		On entry : 0/0
  2804 ;;		On exit  : 0/0
  2805 ;;		Unchanged: 0/0
  2806 ;; Data sizes:     COMMON   BANK0   BANK1   BANK2   BANK3   BANK4   BANK5   BANK6   BANK7   BANK8   BANK9  BANK10  BANK1
      +1  BANK12  BANK13  BANK14  BANK15  BANK16  BANK17  BANK18  BANK19  BANK20  BANK21  BANK22  BANK23  BANK24  BANK25
  2807 ;;      Params:         0       1       0       0       0       0       0       0       0       0       0       0       
      +0       0       0       0       0       0       0       0       0       0       0       0       0       0       0
  2808 ;;      Locals:         0       3       0       0       0       0       0       0       0       0       0       0       
      +0       0       0       0       0       0       0       0       0       0       0       0       0       0       0
  2809 ;;      Temps:          0       0       0       0       0       0       0       0       0       0       0       0       
      +0       0       0       0       0       0       0       0       0       0       0       0       0       0       0
  2810 ;;      Totals:         0       4       0       0       0       0       0       0       0       0       0       0       
      +0       0       0       0       0       0       0       0       0       0       0       0       0       0       0
  2811 ;;Total ram usage:        4 bytes
  2812 ;; Hardware stack levels used:    1
  2813 ;; Hardware stack levels required when called:    9
  2814 ;; This function calls:
  2815 ;;		_LCDPutCmd
  2816 ;; This function is called by:
  2817 ;;		_LCDClear
  2818 ;;		_idleScreen
  2819 ;; This function uses a non-reentrant model
  2820 ;;
  2821                           
  2822                           
  2823                           ;psect for function _LCDGoto
  2824  0210                     _LCDGoto:
  2825                           
  2826                           ;incstack = 0
  2827                           ; Regs used in _LCDGoto: [wreg+status,2+status,0+pclath+cstack]
  2828                           ;LCDGoto@pos stored from wreg
  2829  0210  0020               	movlb	0	; select bank0
  2830  0211  00B1               	movwf	LCDGoto@pos
  2831  0212                     l1346:
  2832                           
  2833                           ;lcd.c: 143: void LCDGoto(uint8_t pos, uint8_t ln);lcd.c: 144: {;lcd.c: 146:   if ((ln >
      +                           (2 - 1)) || (pos > (16 - 1)))
  2834  0212  3002               	movlw	2
  2835  0213  022E               	subwf	LCDGoto@ln,w
  2836  0214  1803               	skipnc
  2837  0215  2A17               	goto	u521
  2838  0216  2A18               	goto	u520
  2839  0217                     u521:
  2840  0217  2A37               	goto	l250
  2841  0218                     u520:
  2842  0218                     l1348:
  2843  0218  3010               	movlw	16
  2844  0219  0231               	subwf	LCDGoto@pos,w
  2845  021A  1C03               	skipc
  2846  021B  2A1D               	goto	u531
  2847  021C  2A1E               	goto	u530
  2848  021D                     u531:
  2849  021D  2A1F               	goto	l1350
  2850  021E                     u530:
  2851  021E  2A37               	goto	l250
  2852  021F                     l1350:
  2853                           
  2854                           ;lcd.c: 153:   LCDPutCmd((ln == 1) ? (0xC0 | pos) : (0x80 | pos));
  2855  021F  032E               	decf	LCDGoto@ln,w
  2856  0220  1903               	btfsc	3,2
  2857  0221  2A23               	goto	u541
  2858  0222  2A24               	goto	u540
  2859  0223                     u541:
  2860  0223  2A2A               	goto	l1354
  2861  0224                     u540:
  2862  0224                     l1352:
  2863  0224  3080               	movlw	128
  2864  0225  0431               	iorwf	LCDGoto@pos,w
  2865  0226  00AF               	movwf	_LCDGoto$468
  2866  0227  3000               	movlw	0
  2867  0228  00B0               	movwf	_LCDGoto$468+1
  2868  0229  2A2F               	goto	l1356
  2869  022A                     l1354:
  2870  022A  30C0               	movlw	192
  2871  022B  0431               	iorwf	LCDGoto@pos,w
  2872  022C  00AF               	movwf	_LCDGoto$468
  2873  022D  3000               	movlw	0
  2874  022E  00B0               	movwf	_LCDGoto$468+1
  2875  022F                     l1356:
  2876  022F  082F               	movf	_LCDGoto$468,w
  2877  0230  3182  22A8  3182   	fcall	_LCDPutCmd
  2878  0233                     l1358:
  2879                           
  2880                           ;lcd.c: 156:   _delay((unsigned long)((5)*(500000/4000.0)));
  2881  0233  30D0               	movlw	208
  2882  0234                     u757:
  2883  0234  0B89               	decfsz	9,f
  2884  0235  2A34               	goto	u757
  2885  0236  0000               	nop
  2886  0237                     l250:
  2887  0237  0008               	return
  2888  0238                     __end_of_LCDGoto:
  2889                           
  2890                           	psect	text5
  2891  01B9                     __ptext5:	
  2892 ;; *************** function _createCustomCharacter *****************
  2893 ;; Defined at:
  2894 ;;		line 26 in file "functions.c"
  2895 ;; Parameters:    Size  Location     Type
  2896 ;;  Pattern         1    wreg     PTR unsigned char 
  2897 ;;		 -> main@Pattern4(8), main@Pattern3(8), main@Pattern2(8), main@Pattern1(8), 
  2898 ;;  Location        1   14[BANK0 ] const unsigned char 
  2899 ;; Auto vars:     Size  Location     Type
  2900 ;;  Pattern         1   16[BANK0 ] PTR unsigned char 
  2901 ;;		 -> main@Pattern4(8), main@Pattern3(8), main@Pattern2(8), main@Pattern1(8), 
  2902 ;;  i               2   17[BANK0 ] int 
  2903 ;; Return value:  Size  Location     Type
  2904 ;;                  1    wreg      void 
  2905 ;; Registers used:
  2906 ;;		wreg, fsr1l, fsr1h, status,2, status,0, pclath, cstack
  2907 ;; Tracked objects:
  2908 ;;		On entry : 0/0
  2909 ;;		On exit  : 0/0
  2910 ;;		Unchanged: 0/0
  2911 ;; Data sizes:     COMMON   BANK0   BANK1   BANK2   BANK3   BANK4   BANK5   BANK6   BANK7   BANK8   BANK9  BANK10  BANK1
      +1  BANK12  BANK13  BANK14  BANK15  BANK16  BANK17  BANK18  BANK19  BANK20  BANK21  BANK22  BANK23  BANK24  BANK25
  2912 ;;      Params:         0       1       0       0       0       0       0       0       0       0       0       0       
      +0       0       0       0       0       0       0       0       0       0       0       0       0       0       0
  2913 ;;      Locals:         0       3       0       0       0       0       0       0       0       0       0       0       
      +0       0       0       0       0       0       0       0       0       0       0       0       0       0       0
  2914 ;;      Temps:          0       1       0       0       0       0       0       0       0       0       0       0       
      +0       0       0       0       0       0       0       0       0       0       0       0       0       0       0
  2915 ;;      Totals:         0       5       0       0       0       0       0       0       0       0       0       0       
      +0       0       0       0       0       0       0       0       0       0       0       0       0       0       0
  2916 ;;Total ram usage:        5 bytes
  2917 ;; Hardware stack levels used:    1
  2918 ;; Hardware stack levels required when called:    9
  2919 ;; This function calls:
  2920 ;;		_LCDPutChar
  2921 ;;		_LCDPutCmd
  2922 ;; This function is called by:
  2923 ;;		_main
  2924 ;; This function uses a non-reentrant model
  2925 ;;
  2926                           
  2927                           
  2928                           ;psect for function _createCustomCharacter
  2929  01B9                     _createCustomCharacter:
  2930                           
  2931                           ;incstack = 0
  2932                           ; Regs used in _createCustomCharacter: [wreg+fsr1l+fsr1h+status,2+status,0+pclath+cstack
      +                          ]
  2933                           ;createCustomCharacter@Pattern stored from wreg
  2934  01B9  0020               	movlb	0	; select bank0
  2935  01BA  00B0               	movwf	createCustomCharacter@Pattern
  2936  01BB                     l1530:
  2937  01BB                     l1532:
  2938                           
  2939                           ;functions.c: 43:     LCDPutCmd (0x40+(Location*8));
  2940  01BB  082E               	movf	createCustomCharacter@Location,w
  2941  01BC  00AF               	movwf	??_createCustomCharacter
  2942  01BD  3002               	movlw	2
  2943  01BE                     u675:
  2944  01BE  35AF               	lslf	??_createCustomCharacter,f
  2945  01BF  3EFF               	addlw	-1
  2946  01C0  1D03               	skipz
  2947  01C1  29BE               	goto	u675
  2948  01C2  352F               	lslf	??_createCustomCharacter,w
  2949  01C3  3E40               	addlw	64
  2950  01C4  3182  22A8  3181   	fcall	_LCDPutCmd
  2951  01C7                     l1534:
  2952                           
  2953                           ;functions.c: 45:     for (i=0; i<8; i++)
  2954  01C7  0020               	movlb	0	; select bank0
  2955  01C8  01B1               	clrf	createCustomCharacter@i
  2956  01C9  01B2               	clrf	createCustomCharacter@i+1
  2957  01CA                     l1540:
  2958                           
  2959                           ;functions.c: 47:         LCDPutChar (Pattern [ i ] );
  2960  01CA  0020               	movlb	0	; select bank0
  2961  01CB  0831               	movf	createCustomCharacter@i,w
  2962  01CC  0730               	addwf	createCustomCharacter@Pattern,w
  2963  01CD  00AF               	movwf	??_createCustomCharacter
  2964  01CE  082F               	movf	??_createCustomCharacter,w
  2965  01CF  0086               	movwf	6
  2966  01D0  0187               	clrf	7
  2967  01D1  0801               	movf	1,w
  2968  01D2  3182  22CB  3181   	fcall	_LCDPutChar
  2969  01D5                     l1542:
  2970  01D5  3001               	movlw	1
  2971  01D6  0020               	movlb	0	; select bank0
  2972  01D7  07B1               	addwf	createCustomCharacter@i,f
  2973  01D8  3000               	movlw	0
  2974  01D9  3DB2               	addwfc	createCustomCharacter@i+1,f
  2975  01DA                     l1544:
  2976  01DA  0832               	movf	createCustomCharacter@i+1,w
  2977  01DB  3A80               	xorlw	128
  2978  01DC  00AF               	movwf	??_createCustomCharacter
  2979  01DD  3080               	movlw	128
  2980  01DE  022F               	subwf	??_createCustomCharacter,w
  2981  01DF  1D03               	skipz
  2982  01E0  29E3               	goto	u685
  2983  01E1  3008               	movlw	8
  2984  01E2  0231               	subwf	createCustomCharacter@i,w
  2985  01E3                     u685:
  2986  01E3  1C03               	skipc
  2987  01E4  29E6               	goto	u681
  2988  01E5  29E7               	goto	u680
  2989  01E6                     u681:
  2990  01E6  29CA               	goto	l1540
  2991  01E7                     u680:
  2992  01E7                     l274:
  2993  01E7  0008               	return
  2994  01E8                     __end_of_createCustomCharacter:
  2995                           
  2996                           	psect	text6
  2997  02CB                     __ptext6:	
  2998 ;; *************** function _LCDPutChar *****************
  2999 ;; Defined at:
  3000 ;;		line 101 in file "lcd.c"
  3001 ;; Parameters:    Size  Location     Type
  3002 ;;  ch              1    wreg     unsigned char 
  3003 ;; Auto vars:     Size  Location     Type
  3004 ;;  ch              1   13[BANK0 ] unsigned char 
  3005 ;; Return value:  Size  Location     Type
  3006 ;;                  1    wreg      void 
  3007 ;; Registers used:
  3008 ;;		wreg, status,2, status,0, pclath, cstack
  3009 ;; Tracked objects:
  3010 ;;		On entry : 0/0
  3011 ;;		On exit  : 0/0
  3012 ;;		Unchanged: 0/0
  3013 ;; Data sizes:     COMMON   BANK0   BANK1   BANK2   BANK3   BANK4   BANK5   BANK6   BANK7   BANK8   BANK9  BANK10  BANK1
      +1  BANK12  BANK13  BANK14  BANK15  BANK16  BANK17  BANK18  BANK19  BANK20  BANK21  BANK22  BANK23  BANK24  BANK25
  3014 ;;      Params:         0       0       0       0       0       0       0       0       0       0       0       0       
      +0       0       0       0       0       0       0       0       0       0       0       0       0       0       0
  3015 ;;      Locals:         0       1       0       0       0       0       0       0       0       0       0       0       
      +0       0       0       0       0       0       0       0       0       0       0       0       0       0       0
  3016 ;;      Temps:          0       2       0       0       0       0       0       0       0       0       0       0       
      +0       0       0       0       0       0       0       0       0       0       0       0       0       0       0
  3017 ;;      Totals:         0       3       0       0       0       0       0       0       0       0       0       0       
      +0       0       0       0       0       0       0       0       0       0       0       0       0       0       0
  3018 ;;Total ram usage:        3 bytes
  3019 ;; Hardware stack levels used:    1
  3020 ;; Hardware stack levels required when called:    8
  3021 ;; This function calls:
  3022 ;;		_LCDWriteNibble
  3023 ;; This function is called by:
  3024 ;;		_LCDPutStr
  3025 ;;		_createCustomCharacter
  3026 ;;		_idleScreen
  3027 ;; This function uses a non-reentrant model
  3028 ;;
  3029                           
  3030                           
  3031                           ;psect for function _LCDPutChar
  3032  02CB                     _LCDPutChar:
  3033                           
  3034                           ;incstack = 0
  3035                           ; Regs used in _LCDPutChar: [wreg+status,2+status,0+pclath+cstack]
  3036                           ;LCDPutChar@ch stored from wreg
  3037  02CB  0020               	movlb	0	; select bank0
  3038  02CC  00AD               	movwf	LCDPutChar@ch
  3039  02CD                     l1270:
  3040                           
  3041                           ;lcd.c: 101: void LCDPutChar(uint8_t ch);lcd.c: 102: {;lcd.c: 103:   _delay((unsigned lo
      +                          ng)((5)*(500000/4000.0)));
  3042  02CD  30D0               	movlw	208
  3043  02CE                     u767:
  3044  02CE  0B89               	decfsz	9,f
  3045  02CF  2ACE               	goto	u767
  3046  02D0  0000               	nop
  3047  02D1                     l1272:
  3048                           
  3049                           ;lcd.c: 106:   LCDWriteNibble(ch, 1);
  3050  02D1  0020               	movlb	0	; select bank0
  3051  02D2  01A7               	clrf	LCDWriteNibble@rs
  3052  02D3  0AA7               	incf	LCDWriteNibble@rs,f
  3053  02D4  082D               	movf	LCDPutChar@ch,w
  3054  02D5  3182  22EB  3182   	fcall	_LCDWriteNibble
  3055  02D8                     l1274:
  3056                           
  3057                           ;lcd.c: 109:   ch = (uint8_t)(ch << 4);
  3058  02D8  0020               	movlb	0	; select bank0
  3059  02D9  082D               	movf	LCDPutChar@ch,w
  3060  02DA  00AB               	movwf	??_LCDPutChar
  3061  02DB  3003               	movlw	3
  3062  02DC                     u435:
  3063  02DC  35AB               	lslf	??_LCDPutChar,f
  3064  02DD  3EFF               	addlw	-1
  3065  02DE  1D03               	skipz
  3066  02DF  2ADC               	goto	u435
  3067  02E0  352B               	lslf	??_LCDPutChar,w
  3068  02E1  00AC               	movwf	??_LCDPutChar+1
  3069  02E2  082C               	movf	??_LCDPutChar+1,w
  3070  02E3  00AD               	movwf	LCDPutChar@ch
  3071  02E4                     l1276:
  3072                           
  3073                           ;lcd.c: 112:   LCDWriteNibble(ch, 1);
  3074  02E4  01A7               	clrf	LCDWriteNibble@rs
  3075  02E5  0AA7               	incf	LCDWriteNibble@rs,f
  3076  02E6  082D               	movf	LCDPutChar@ch,w
  3077  02E7  3182  22EB  3182   	fcall	_LCDWriteNibble
  3078  02EA                     l235:
  3079  02EA  0008               	return
  3080  02EB                     __end_of_LCDPutChar:
  3081                           
  3082                           	psect	text7
  3083  042F                     __ptext7:	
  3084 ;; *************** function _SYSTEM_Initialize *****************
  3085 ;; Defined at:
  3086 ;;		line 50 in file "mcc_generated_files/mcc.c"
  3087 ;; Parameters:    Size  Location     Type
  3088 ;;		None
  3089 ;; Auto vars:     Size  Location     Type
  3090 ;;		None
  3091 ;; Return value:  Size  Location     Type
  3092 ;;                  1    wreg      void 
  3093 ;; Registers used:
  3094 ;;		wreg, status,2, status,0, pclath, cstack
  3095 ;; Tracked objects:
  3096 ;;		On entry : 0/0
  3097 ;;		On exit  : 0/0
  3098 ;;		Unchanged: 0/0
  3099 ;; Data sizes:     COMMON   BANK0   BANK1   BANK2   BANK3   BANK4   BANK5   BANK6   BANK7   BANK8   BANK9  BANK10  BANK1
      +1  BANK12  BANK13  BANK14  BANK15  BANK16  BANK17  BANK18  BANK19  BANK20  BANK21  BANK22  BANK23  BANK24  BANK25
  3100 ;;      Params:         0       0       0       0       0       0       0       0       0       0       0       0       
      +0       0       0       0       0       0       0       0       0       0       0       0       0       0       0
  3101 ;;      Locals:         0       0       0       0       0       0       0       0       0       0       0       0       
      +0       0       0       0       0       0       0       0       0       0       0       0       0       0       0
  3102 ;;      Temps:          0       0       0       0       0       0       0       0       0       0       0       0       
      +0       0       0       0       0       0       0       0       0       0       0       0       0       0       0
  3103 ;;      Totals:         0       0       0       0       0       0       0       0       0       0       0       0       
      +0       0       0       0       0       0       0       0       0       0       0       0       0       0       0
  3104 ;;Total ram usage:        0 bytes
  3105 ;; Hardware stack levels used:    1
  3106 ;; Hardware stack levels required when called:    9
  3107 ;; This function calls:
  3108 ;;		_OSCILLATOR_Initialize
  3109 ;;		_PIN_MANAGER_Initialize
  3110 ;;		_WDT_Initialize
  3111 ;; This function is called by:
  3112 ;;		_main
  3113 ;; This function uses a non-reentrant model
  3114 ;;
  3115                           
  3116                           
  3117                           ;psect for function _SYSTEM_Initialize
  3118  042F                     _SYSTEM_Initialize:
  3119  042F                     l1512:	
  3120                           ;incstack = 0
  3121                           ; Regs used in _SYSTEM_Initialize: [wreg+status,2+status,0+pclath+cstack]
  3122                           
  3123                           
  3124                           ;mcc_generated_files/mcc.c: 53:     PIN_MANAGER_Initialize();
  3125  042F  3180  20B2  3184   	fcall	_PIN_MANAGER_Initialize
  3126                           
  3127                           ;mcc_generated_files/mcc.c: 54:     OSCILLATOR_Initialize();
  3128  0432  3184  2441  3184   	fcall	_OSCILLATOR_Initialize
  3129                           
  3130                           ;mcc_generated_files/mcc.c: 55:     WDT_Initialize();
  3131  0435  3184  2472  3184   	fcall	_WDT_Initialize
  3132  0438                     l197:
  3133  0438  0008               	return
  3134  0439                     __end_of_SYSTEM_Initialize:
  3135                           
  3136                           	psect	text8
  3137  0472                     __ptext8:	
  3138 ;; *************** function _WDT_Initialize *****************
  3139 ;; Defined at:
  3140 ;;		line 68 in file "mcc_generated_files/mcc.c"
  3141 ;; Parameters:    Size  Location     Type
  3142 ;;		None
  3143 ;; Auto vars:     Size  Location     Type
  3144 ;;		None
  3145 ;; Return value:  Size  Location     Type
  3146 ;;                  1    wreg      void 
  3147 ;; Registers used:
  3148 ;;		wreg
  3149 ;; Tracked objects:
  3150 ;;		On entry : 0/0
  3151 ;;		On exit  : 0/0
  3152 ;;		Unchanged: 0/0
  3153 ;; Data sizes:     COMMON   BANK0   BANK1   BANK2   BANK3   BANK4   BANK5   BANK6   BANK7   BANK8   BANK9  BANK10  BANK1
      +1  BANK12  BANK13  BANK14  BANK15  BANK16  BANK17  BANK18  BANK19  BANK20  BANK21  BANK22  BANK23  BANK24  BANK25
  3154 ;;      Params:         0       0       0       0       0       0       0       0       0       0       0       0       
      +0       0       0       0       0       0       0       0       0       0       0       0       0       0       0
  3155 ;;      Locals:         0       0       0       0       0       0       0       0       0       0       0       0       
      +0       0       0       0       0       0       0       0       0       0       0       0       0       0       0
  3156 ;;      Temps:          0       0       0       0       0       0       0       0       0       0       0       0       
      +0       0       0       0       0       0       0       0       0       0       0       0       0       0       0
  3157 ;;      Totals:         0       0       0       0       0       0       0       0       0       0       0       0       
      +0       0       0       0       0       0       0       0       0       0       0       0       0       0       0
  3158 ;;Total ram usage:        0 bytes
  3159 ;; Hardware stack levels used:    1
  3160 ;; Hardware stack levels required when called:    7
  3161 ;; This function calls:
  3162 ;;		Nothing
  3163 ;; This function is called by:
  3164 ;;		_SYSTEM_Initialize
  3165 ;; This function uses a non-reentrant model
  3166 ;;
  3167                           
  3168                           
  3169                           ;psect for function _WDT_Initialize
  3170  0472                     _WDT_Initialize:
  3171  0472                     l1480:	
  3172                           ;incstack = 0
  3173                           ; Regs used in _WDT_Initialize: [wreg]
  3174                           
  3175                           
  3176                           ;mcc_generated_files/mcc.c: 71:     WDTCON = 0x16;
  3177  0472  3016               	movlw	22
  3178  0473  0021               	movlb	1	; select bank1
  3179  0474  0097               	movwf	23	;volatile
  3180  0475                     l203:
  3181  0475  0008               	return
  3182  0476                     __end_of_WDT_Initialize:
  3183                           
  3184                           	psect	text9
  3185  00B2                     __ptext9:	
  3186 ;; *************** function _PIN_MANAGER_Initialize *****************
  3187 ;; Defined at:
  3188 ;;		line 62 in file "mcc_generated_files/pin_manager.c"
  3189 ;; Parameters:    Size  Location     Type
  3190 ;;		None
  3191 ;; Auto vars:     Size  Location     Type
  3192 ;;		None
  3193 ;; Return value:  Size  Location     Type
  3194 ;;                  1    wreg      void 
  3195 ;; Registers used:
  3196 ;;		wreg, status,2, status,0, pclath, cstack
  3197 ;; Tracked objects:
  3198 ;;		On entry : 0/0
  3199 ;;		On exit  : 0/0
  3200 ;;		Unchanged: 0/0
  3201 ;; Data sizes:     COMMON   BANK0   BANK1   BANK2   BANK3   BANK4   BANK5   BANK6   BANK7   BANK8   BANK9  BANK10  BANK1
      +1  BANK12  BANK13  BANK14  BANK15  BANK16  BANK17  BANK18  BANK19  BANK20  BANK21  BANK22  BANK23  BANK24  BANK25
  3202 ;;      Params:         0       0       0       0       0       0       0       0       0       0       0       0       
      +0       0       0       0       0       0       0       0       0       0       0       0       0       0       0
  3203 ;;      Locals:         0       0       0       0       0       0       0       0       0       0       0       0       
      +0       0       0       0       0       0       0       0       0       0       0       0       0       0       0
  3204 ;;      Temps:          0       0       0       0       0       0       0       0       0       0       0       0       
      +0       0       0       0       0       0       0       0       0       0       0       0       0       0       0
  3205 ;;      Totals:         0       0       0       0       0       0       0       0       0       0       0       0       
      +0       0       0       0       0       0       0       0       0       0       0       0       0       0       0
  3206 ;;Total ram usage:        0 bytes
  3207 ;; Hardware stack levels used:    1
  3208 ;; Hardware stack levels required when called:    8
  3209 ;; This function calls:
  3210 ;;		_IOCAF0_SetInterruptHandler
  3211 ;;		_IOCAF1_SetInterruptHandler
  3212 ;;		_IOCAF2_SetInterruptHandler
  3213 ;;		_IOCAF3_SetInterruptHandler
  3214 ;;		_IOCAF4_SetInterruptHandler
  3215 ;;		_IOCAF5_SetInterruptHandler
  3216 ;; This function is called by:
  3217 ;;		_SYSTEM_Initialize
  3218 ;; This function uses a non-reentrant model
  3219 ;;
  3220                           
  3221                           
  3222                           ;psect for function _PIN_MANAGER_Initialize
  3223  00B2                     _PIN_MANAGER_Initialize:
  3224  00B2                     l1360:	
  3225                           ;incstack = 0
  3226                           ; Regs used in _PIN_MANAGER_Initialize: [wreg+status,2+status,0+pclath+cstack]
  3227                           
  3228                           
  3229                           ;mcc_generated_files/pin_manager.c: 67:     LATA = 0x00;
  3230  00B2  0022               	movlb	2	; select bank2
  3231  00B3  018C               	clrf	12	;volatile
  3232                           
  3233                           ;mcc_generated_files/pin_manager.c: 68:     LATB = 0x00;
  3234  00B4  018D               	clrf	13	;volatile
  3235                           
  3236                           ;mcc_generated_files/pin_manager.c: 69:     LATC = 0x00;
  3237  00B5  018E               	clrf	14	;volatile
  3238  00B6                     l1362:
  3239                           
  3240                           ;mcc_generated_files/pin_manager.c: 74:     TRISE = 0x08;
  3241  00B6  3008               	movlw	8
  3242  00B7  0021               	movlb	1	; select bank1
  3243  00B8  0090               	movwf	16	;volatile
  3244  00B9                     l1364:
  3245                           
  3246                           ;mcc_generated_files/pin_manager.c: 75:     TRISA = 0xFF;
  3247  00B9  30FF               	movlw	255
  3248  00BA  008C               	movwf	12	;volatile
  3249                           
  3250                           ;mcc_generated_files/pin_manager.c: 76:     TRISB = 0x00;
  3251  00BB  018D               	clrf	13	;volatile
  3252  00BC                     l1366:
  3253                           
  3254                           ;mcc_generated_files/pin_manager.c: 77:     TRISC = 0xFF;
  3255  00BC  30FF               	movlw	255
  3256  00BD  008E               	movwf	14	;volatile
  3257  00BE                     l1368:
  3258                           
  3259                           ;mcc_generated_files/pin_manager.c: 82:     ANSELC = 0xFC;
  3260  00BE  30FC               	movlw	252
  3261  00BF  0023               	movlb	3	; select bank3
  3262  00C0  008E               	movwf	14	;volatile
  3263                           
  3264                           ;mcc_generated_files/pin_manager.c: 83:     ANSELB = 0x00;
  3265  00C1  018D               	clrf	13	;volatile
  3266                           
  3267                           ;mcc_generated_files/pin_manager.c: 84:     ANSELA = 0x00;
  3268  00C2  018C               	clrf	12	;volatile
  3269  00C3                     l1370:
  3270                           
  3271                           ;mcc_generated_files/pin_manager.c: 89:     WPUE = 0x08;
  3272  00C3  3008               	movlw	8
  3273  00C4  0024               	movlb	4	; select bank4
  3274  00C5  0090               	movwf	16	;volatile
  3275  00C6                     l1372:
  3276                           
  3277                           ;mcc_generated_files/pin_manager.c: 90:     WPUB = 0x00;
  3278  00C6  018D               	clrf	13	;volatile
  3279                           
  3280                           ;mcc_generated_files/pin_manager.c: 91:     WPUA = 0x3F;
  3281  00C7  303F               	movlw	63
  3282  00C8  008C               	movwf	12	;volatile
  3283  00C9                     l1374:
  3284                           
  3285                           ;mcc_generated_files/pin_manager.c: 92:     WPUC = 0x00;
  3286  00C9  018E               	clrf	14	;volatile
  3287  00CA                     l1376:
  3288                           
  3289                           ;mcc_generated_files/pin_manager.c: 93:     OPTION_REGbits.nWPUEN = 0;
  3290  00CA  0021               	movlb	1	; select bank1
  3291  00CB  1395               	bcf	21,7	;volatile
  3292  00CC                     l1378:
  3293                           
  3294                           ;mcc_generated_files/pin_manager.c: 98:     ODCONA = 0x00;
  3295  00CC  0025               	movlb	5	; select bank5
  3296  00CD  018C               	clrf	12	;volatile
  3297  00CE                     l1380:
  3298                           
  3299                           ;mcc_generated_files/pin_manager.c: 99:     ODCONB = 0x00;
  3300  00CE  018D               	clrf	13	;volatile
  3301  00CF                     l1382:
  3302                           
  3303                           ;mcc_generated_files/pin_manager.c: 100:     ODCONC = 0x00;
  3304  00CF  018E               	clrf	14	;volatile
  3305                           
  3306                           ;mcc_generated_files/pin_manager.c: 105:     SLRCONA = 0xFF;
  3307  00D0  30FF               	movlw	255
  3308  00D1  0026               	movlb	6	; select bank6
  3309  00D2  008C               	movwf	12	;volatile
  3310                           
  3311                           ;mcc_generated_files/pin_manager.c: 106:     SLRCONB = 0xFF;
  3312  00D3  30FF               	movlw	255
  3313  00D4  008D               	movwf	13	;volatile
  3314                           
  3315                           ;mcc_generated_files/pin_manager.c: 107:     SLRCONC = 0xFF;
  3316  00D5  30FF               	movlw	255
  3317  00D6  008E               	movwf	14	;volatile
  3318                           
  3319                           ;mcc_generated_files/pin_manager.c: 112:     INLVLA = 0xFF;
  3320  00D7  30FF               	movlw	255
  3321  00D8  0027               	movlb	7	; select bank7
  3322  00D9  008C               	movwf	12	;volatile
  3323                           
  3324                           ;mcc_generated_files/pin_manager.c: 113:     INLVLB = 0xFF;
  3325  00DA  30FF               	movlw	255
  3326  00DB  008D               	movwf	13	;volatile
  3327                           
  3328                           ;mcc_generated_files/pin_manager.c: 114:     INLVLC = 0xFF;
  3329  00DC  30FF               	movlw	255
  3330  00DD  008E               	movwf	14	;volatile
  3331                           
  3332                           ;mcc_generated_files/pin_manager.c: 115:     INLVLE = 0x08;
  3333  00DE  3008               	movlw	8
  3334  00DF  0090               	movwf	16	;volatile
  3335  00E0                     l1384:
  3336                           
  3337                           ;mcc_generated_files/pin_manager.c: 122:     IOCAFbits.IOCAF0 = 0;
  3338  00E0  1013               	bcf	19,0	;volatile
  3339  00E1                     l1386:
  3340                           
  3341                           ;mcc_generated_files/pin_manager.c: 124:     IOCAFbits.IOCAF1 = 0;
  3342  00E1  1093               	bcf	19,1	;volatile
  3343  00E2                     l1388:
  3344                           
  3345                           ;mcc_generated_files/pin_manager.c: 126:     IOCAFbits.IOCAF2 = 0;
  3346  00E2  1113               	bcf	19,2	;volatile
  3347  00E3                     l1390:
  3348                           
  3349                           ;mcc_generated_files/pin_manager.c: 128:     IOCAFbits.IOCAF3 = 0;
  3350  00E3  1193               	bcf	19,3	;volatile
  3351  00E4                     l1392:
  3352                           
  3353                           ;mcc_generated_files/pin_manager.c: 130:     IOCAFbits.IOCAF4 = 0;
  3354  00E4  1213               	bcf	19,4	;volatile
  3355  00E5                     l1394:
  3356                           
  3357                           ;mcc_generated_files/pin_manager.c: 132:     IOCAFbits.IOCAF5 = 0;
  3358  00E5  1293               	bcf	19,5	;volatile
  3359  00E6                     l1396:
  3360                           
  3361                           ;mcc_generated_files/pin_manager.c: 134:     IOCANbits.IOCAN0 = 1;
  3362  00E6  1412               	bsf	18,0	;volatile
  3363  00E7                     l1398:
  3364                           
  3365                           ;mcc_generated_files/pin_manager.c: 136:     IOCANbits.IOCAN1 = 1;
  3366  00E7  1492               	bsf	18,1	;volatile
  3367  00E8                     l1400:
  3368                           
  3369                           ;mcc_generated_files/pin_manager.c: 138:     IOCANbits.IOCAN2 = 1;
  3370  00E8  1512               	bsf	18,2	;volatile
  3371  00E9                     l1402:
  3372                           
  3373                           ;mcc_generated_files/pin_manager.c: 140:     IOCANbits.IOCAN3 = 1;
  3374  00E9  1592               	bsf	18,3	;volatile
  3375  00EA                     l1404:
  3376                           
  3377                           ;mcc_generated_files/pin_manager.c: 142:     IOCANbits.IOCAN4 = 1;
  3378  00EA  1612               	bsf	18,4	;volatile
  3379  00EB                     l1406:
  3380                           
  3381                           ;mcc_generated_files/pin_manager.c: 144:     IOCANbits.IOCAN5 = 1;
  3382  00EB  1692               	bsf	18,5	;volatile
  3383  00EC                     l1408:
  3384                           
  3385                           ;mcc_generated_files/pin_manager.c: 146:     IOCAPbits.IOCAP0 = 1;
  3386  00EC  1411               	bsf	17,0	;volatile
  3387  00ED                     l1410:
  3388                           
  3389                           ;mcc_generated_files/pin_manager.c: 148:     IOCAPbits.IOCAP1 = 0;
  3390  00ED  1091               	bcf	17,1	;volatile
  3391  00EE                     l1412:
  3392                           
  3393                           ;mcc_generated_files/pin_manager.c: 150:     IOCAPbits.IOCAP2 = 0;
  3394  00EE  1111               	bcf	17,2	;volatile
  3395  00EF                     l1414:
  3396                           
  3397                           ;mcc_generated_files/pin_manager.c: 152:     IOCAPbits.IOCAP3 = 1;
  3398  00EF  1591               	bsf	17,3	;volatile
  3399  00F0                     l1416:
  3400                           
  3401                           ;mcc_generated_files/pin_manager.c: 154:     IOCAPbits.IOCAP4 = 0;
  3402  00F0  1211               	bcf	17,4	;volatile
  3403  00F1                     l1418:
  3404                           
  3405                           ;mcc_generated_files/pin_manager.c: 156:     IOCAPbits.IOCAP5 = 0;
  3406  00F1  1291               	bcf	17,5	;volatile
  3407  00F2                     l1420:
  3408                           
  3409                           ;mcc_generated_files/pin_manager.c: 161:     IOCAF0_SetInterruptHandler(IOCAF0_DefaultIn
      +                          terruptHandler);
  3410  00F2  307B               	movlw	low _IOCAF0_DefaultInterruptHandler
  3411  00F3  0020               	movlb	0	; select bank0
  3412  00F4  00A7               	movwf	IOCAF0_SetInterruptHandler@InterruptHandler
  3413  00F5  3004               	movlw	high _IOCAF0_DefaultInterruptHandler
  3414  00F6  00A8               	movwf	IOCAF0_SetInterruptHandler@InterruptHandler+1
  3415  00F7  3184  246C  3180   	fcall	_IOCAF0_SetInterruptHandler
  3416  00FA                     l1422:
  3417                           
  3418                           ;mcc_generated_files/pin_manager.c: 162:     IOCAF1_SetInterruptHandler(IOCAF1_DefaultIn
      +                          terruptHandler);
  3419  00FA  307A               	movlw	low _IOCAF1_DefaultInterruptHandler
  3420  00FB  0020               	movlb	0	; select bank0
  3421  00FC  00A7               	movwf	IOCAF1_SetInterruptHandler@InterruptHandler
  3422  00FD  3004               	movlw	high _IOCAF1_DefaultInterruptHandler
  3423  00FE  00A8               	movwf	IOCAF1_SetInterruptHandler@InterruptHandler+1
  3424  00FF  3184  2466  3180   	fcall	_IOCAF1_SetInterruptHandler
  3425  0102                     l1424:
  3426                           
  3427                           ;mcc_generated_files/pin_manager.c: 163:     IOCAF2_SetInterruptHandler(IOCAF2_DefaultIn
      +                          terruptHandler);
  3428  0102  3079               	movlw	low _IOCAF2_DefaultInterruptHandler
  3429  0103  0020               	movlb	0	; select bank0
  3430  0104  00A7               	movwf	IOCAF2_SetInterruptHandler@InterruptHandler
  3431  0105  3004               	movlw	high _IOCAF2_DefaultInterruptHandler
  3432  0106  00A8               	movwf	IOCAF2_SetInterruptHandler@InterruptHandler+1
  3433  0107  3184  2460  3180   	fcall	_IOCAF2_SetInterruptHandler
  3434  010A                     l1426:
  3435                           
  3436                           ;mcc_generated_files/pin_manager.c: 164:     IOCAF3_SetInterruptHandler(IOCAF3_DefaultIn
      +                          terruptHandler);
  3437  010A  3078               	movlw	low _IOCAF3_DefaultInterruptHandler
  3438  010B  0020               	movlb	0	; select bank0
  3439  010C  00A7               	movwf	IOCAF3_SetInterruptHandler@InterruptHandler
  3440  010D  3004               	movlw	high _IOCAF3_DefaultInterruptHandler
  3441  010E  00A8               	movwf	IOCAF3_SetInterruptHandler@InterruptHandler+1
  3442  010F  3184  245A  3180   	fcall	_IOCAF3_SetInterruptHandler
  3443  0112                     l1428:
  3444                           
  3445                           ;mcc_generated_files/pin_manager.c: 165:     IOCAF4_SetInterruptHandler(IOCAF4_DefaultIn
      +                          terruptHandler);
  3446  0112  3077               	movlw	low _IOCAF4_DefaultInterruptHandler
  3447  0113  0020               	movlb	0	; select bank0
  3448  0114  00A7               	movwf	IOCAF4_SetInterruptHandler@InterruptHandler
  3449  0115  3004               	movlw	high _IOCAF4_DefaultInterruptHandler
  3450  0116  00A8               	movwf	IOCAF4_SetInterruptHandler@InterruptHandler+1
  3451  0117  3184  2454  3180   	fcall	_IOCAF4_SetInterruptHandler
  3452  011A                     l1430:
  3453                           
  3454                           ;mcc_generated_files/pin_manager.c: 166:     IOCAF5_SetInterruptHandler(IOCAF5_DefaultIn
      +                          terruptHandler);
  3455  011A  3076               	movlw	low _IOCAF5_DefaultInterruptHandler
  3456  011B  0020               	movlb	0	; select bank0
  3457  011C  00A7               	movwf	IOCAF5_SetInterruptHandler@InterruptHandler
  3458  011D  3004               	movlw	high _IOCAF5_DefaultInterruptHandler
  3459  011E  00A8               	movwf	IOCAF5_SetInterruptHandler@InterruptHandler+1
  3460  011F  3184  244E  3180   	fcall	_IOCAF5_SetInterruptHandler
  3461  0122                     l1432:
  3462                           
  3463                           ;mcc_generated_files/pin_manager.c: 169:     INTCONbits.IOCIE = 1;
  3464  0122  158B               	bsf	11,3	;volatile
  3465  0123                     l111:
  3466  0123  0008               	return
  3467  0124                     __end_of_PIN_MANAGER_Initialize:
  3468                           
  3469                           	psect	text10
  3470  044E                     __ptext10:	
  3471 ;; *************** function _IOCAF5_SetInterruptHandler *****************
  3472 ;; Defined at:
  3473 ;;		line 377 in file "mcc_generated_files/pin_manager.c"
  3474 ;; Parameters:    Size  Location     Type
  3475 ;;  InterruptHan    2    7[BANK0 ] PTR FTN()void 
  3476 ;;		 -> IOCAF5_DefaultInterruptHandler(1), 
  3477 ;; Auto vars:     Size  Location     Type
  3478 ;;		None
  3479 ;; Return value:  Size  Location     Type
  3480 ;;                  1    wreg      void 
  3481 ;; Registers used:
  3482 ;;		wreg
  3483 ;; Tracked objects:
  3484 ;;		On entry : 0/0
  3485 ;;		On exit  : 0/0
  3486 ;;		Unchanged: 0/0
  3487 ;; Data sizes:     COMMON   BANK0   BANK1   BANK2   BANK3   BANK4   BANK5   BANK6   BANK7   BANK8   BANK9  BANK10  BANK1
      +1  BANK12  BANK13  BANK14  BANK15  BANK16  BANK17  BANK18  BANK19  BANK20  BANK21  BANK22  BANK23  BANK24  BANK25
  3488 ;;      Params:         0       2       0       0       0       0       0       0       0       0       0       0       
      +0       0       0       0       0       0       0       0       0       0       0       0       0       0       0
  3489 ;;      Locals:         0       0       0       0       0       0       0       0       0       0       0       0       
      +0       0       0       0       0       0       0       0       0       0       0       0       0       0       0
  3490 ;;      Temps:          0       0       0       0       0       0       0       0       0       0       0       0       
      +0       0       0       0       0       0       0       0       0       0       0       0       0       0       0
  3491 ;;      Totals:         0       2       0       0       0       0       0       0       0       0       0       0       
      +0       0       0       0       0       0       0       0       0       0       0       0       0       0       0
  3492 ;;Total ram usage:        2 bytes
  3493 ;; Hardware stack levels used:    1
  3494 ;; Hardware stack levels required when called:    7
  3495 ;; This function calls:
  3496 ;;		Nothing
  3497 ;; This function is called by:
  3498 ;;		_PIN_MANAGER_Initialize
  3499 ;; This function uses a non-reentrant model
  3500 ;;
  3501                           
  3502                           
  3503                           ;psect for function _IOCAF5_SetInterruptHandler
  3504  044E                     _IOCAF5_SetInterruptHandler:
  3505  044E                     l1310:	
  3506                           ;incstack = 0
  3507                           ; Regs used in _IOCAF5_SetInterruptHandler: [wreg]
  3508                           
  3509                           
  3510                           ;mcc_generated_files/pin_manager.c: 378:     IOCAF5_InterruptHandler = InterruptHandler;
  3511  044E  0020               	movlb	0	; select bank0
  3512  044F  0828               	movf	IOCAF5_SetInterruptHandler@InterruptHandler+1,w
  3513  0450  00D6               	movwf	_IOCAF5_InterruptHandler+1
  3514  0451  0827               	movf	IOCAF5_SetInterruptHandler@InterruptHandler,w
  3515  0452  00D5               	movwf	_IOCAF5_InterruptHandler
  3516  0453                     l177:
  3517  0453  0008               	return
  3518  0454                     __end_of_IOCAF5_SetInterruptHandler:
  3519                           
  3520                           	psect	text11
  3521  0454                     __ptext11:	
  3522 ;; *************** function _IOCAF4_SetInterruptHandler *****************
  3523 ;; Defined at:
  3524 ;;		line 347 in file "mcc_generated_files/pin_manager.c"
  3525 ;; Parameters:    Size  Location     Type
  3526 ;;  InterruptHan    2    7[BANK0 ] PTR FTN()void 
  3527 ;;		 -> IOCAF4_DefaultInterruptHandler(1), 
  3528 ;; Auto vars:     Size  Location     Type
  3529 ;;		None
  3530 ;; Return value:  Size  Location     Type
  3531 ;;                  1    wreg      void 
  3532 ;; Registers used:
  3533 ;;		wreg
  3534 ;; Tracked objects:
  3535 ;;		On entry : 0/0
  3536 ;;		On exit  : 0/0
  3537 ;;		Unchanged: 0/0
  3538 ;; Data sizes:     COMMON   BANK0   BANK1   BANK2   BANK3   BANK4   BANK5   BANK6   BANK7   BANK8   BANK9  BANK10  BANK1
      +1  BANK12  BANK13  BANK14  BANK15  BANK16  BANK17  BANK18  BANK19  BANK20  BANK21  BANK22  BANK23  BANK24  BANK25
  3539 ;;      Params:         0       2       0       0       0       0       0       0       0       0       0       0       
      +0       0       0       0       0       0       0       0       0       0       0       0       0       0       0
  3540 ;;      Locals:         0       0       0       0       0       0       0       0       0       0       0       0       
      +0       0       0       0       0       0       0       0       0       0       0       0       0       0       0
  3541 ;;      Temps:          0       0       0       0       0       0       0       0       0       0       0       0       
      +0       0       0       0       0       0       0       0       0       0       0       0       0       0       0
  3542 ;;      Totals:         0       2       0       0       0       0       0       0       0       0       0       0       
      +0       0       0       0       0       0       0       0       0       0       0       0       0       0       0
  3543 ;;Total ram usage:        2 bytes
  3544 ;; Hardware stack levels used:    1
  3545 ;; Hardware stack levels required when called:    7
  3546 ;; This function calls:
  3547 ;;		Nothing
  3548 ;; This function is called by:
  3549 ;;		_PIN_MANAGER_Initialize
  3550 ;; This function uses a non-reentrant model
  3551 ;;
  3552                           
  3553                           
  3554                           ;psect for function _IOCAF4_SetInterruptHandler
  3555  0454                     _IOCAF4_SetInterruptHandler:
  3556  0454                     l1308:	
  3557                           ;incstack = 0
  3558                           ; Regs used in _IOCAF4_SetInterruptHandler: [wreg]
  3559                           
  3560                           
  3561                           ;mcc_generated_files/pin_manager.c: 348:     IOCAF4_InterruptHandler = InterruptHandler;
  3562  0454  0020               	movlb	0	; select bank0
  3563  0455  0828               	movf	IOCAF4_SetInterruptHandler@InterruptHandler+1,w
  3564  0456  00D8               	movwf	_IOCAF4_InterruptHandler+1
  3565  0457  0827               	movf	IOCAF4_SetInterruptHandler@InterruptHandler,w
  3566  0458  00D7               	movwf	_IOCAF4_InterruptHandler
  3567  0459                     l167:
  3568  0459  0008               	return
  3569  045A                     __end_of_IOCAF4_SetInterruptHandler:
  3570                           
  3571                           	psect	text12
  3572  045A                     __ptext12:	
  3573 ;; *************** function _IOCAF3_SetInterruptHandler *****************
  3574 ;; Defined at:
  3575 ;;		line 317 in file "mcc_generated_files/pin_manager.c"
  3576 ;; Parameters:    Size  Location     Type
  3577 ;;  InterruptHan    2    7[BANK0 ] PTR FTN()void 
  3578 ;;		 -> IOCAF3_DefaultInterruptHandler(1), 
  3579 ;; Auto vars:     Size  Location     Type
  3580 ;;		None
  3581 ;; Return value:  Size  Location     Type
  3582 ;;                  1    wreg      void 
  3583 ;; Registers used:
  3584 ;;		wreg
  3585 ;; Tracked objects:
  3586 ;;		On entry : 0/0
  3587 ;;		On exit  : 0/0
  3588 ;;		Unchanged: 0/0
  3589 ;; Data sizes:     COMMON   BANK0   BANK1   BANK2   BANK3   BANK4   BANK5   BANK6   BANK7   BANK8   BANK9  BANK10  BANK1
      +1  BANK12  BANK13  BANK14  BANK15  BANK16  BANK17  BANK18  BANK19  BANK20  BANK21  BANK22  BANK23  BANK24  BANK25
  3590 ;;      Params:         0       2       0       0       0       0       0       0       0       0       0       0       
      +0       0       0       0       0       0       0       0       0       0       0       0       0       0       0
  3591 ;;      Locals:         0       0       0       0       0       0       0       0       0       0       0       0       
      +0       0       0       0       0       0       0       0       0       0       0       0       0       0       0
  3592 ;;      Temps:          0       0       0       0       0       0       0       0       0       0       0       0       
      +0       0       0       0       0       0       0       0       0       0       0       0       0       0       0
  3593 ;;      Totals:         0       2       0       0       0       0       0       0       0       0       0       0       
      +0       0       0       0       0       0       0       0       0       0       0       0       0       0       0
  3594 ;;Total ram usage:        2 bytes
  3595 ;; Hardware stack levels used:    1
  3596 ;; Hardware stack levels required when called:    7
  3597 ;; This function calls:
  3598 ;;		Nothing
  3599 ;; This function is called by:
  3600 ;;		_PIN_MANAGER_Initialize
  3601 ;; This function uses a non-reentrant model
  3602 ;;
  3603                           
  3604                           
  3605                           ;psect for function _IOCAF3_SetInterruptHandler
  3606  045A                     _IOCAF3_SetInterruptHandler:
  3607  045A                     l1306:	
  3608                           ;incstack = 0
  3609                           ; Regs used in _IOCAF3_SetInterruptHandler: [wreg]
  3610                           
  3611                           
  3612                           ;mcc_generated_files/pin_manager.c: 318:     IOCAF3_InterruptHandler = InterruptHandler;
  3613  045A  0020               	movlb	0	; select bank0
  3614  045B  0828               	movf	IOCAF3_SetInterruptHandler@InterruptHandler+1,w
  3615  045C  00DA               	movwf	_IOCAF3_InterruptHandler+1
  3616  045D  0827               	movf	IOCAF3_SetInterruptHandler@InterruptHandler,w
  3617  045E  00D9               	movwf	_IOCAF3_InterruptHandler
  3618  045F                     l157:
  3619  045F  0008               	return
  3620  0460                     __end_of_IOCAF3_SetInterruptHandler:
  3621                           
  3622                           	psect	text13
  3623  0460                     __ptext13:	
  3624 ;; *************** function _IOCAF2_SetInterruptHandler *****************
  3625 ;; Defined at:
  3626 ;;		line 286 in file "mcc_generated_files/pin_manager.c"
  3627 ;; Parameters:    Size  Location     Type
  3628 ;;  InterruptHan    2    7[BANK0 ] PTR FTN()void 
  3629 ;;		 -> IOCAF2_DefaultInterruptHandler(1), 
  3630 ;; Auto vars:     Size  Location     Type
  3631 ;;		None
  3632 ;; Return value:  Size  Location     Type
  3633 ;;                  1    wreg      void 
  3634 ;; Registers used:
  3635 ;;		wreg
  3636 ;; Tracked objects:
  3637 ;;		On entry : 0/0
  3638 ;;		On exit  : 0/0
  3639 ;;		Unchanged: 0/0
  3640 ;; Data sizes:     COMMON   BANK0   BANK1   BANK2   BANK3   BANK4   BANK5   BANK6   BANK7   BANK8   BANK9  BANK10  BANK1
      +1  BANK12  BANK13  BANK14  BANK15  BANK16  BANK17  BANK18  BANK19  BANK20  BANK21  BANK22  BANK23  BANK24  BANK25
  3641 ;;      Params:         0       2       0       0       0       0       0       0       0       0       0       0       
      +0       0       0       0       0       0       0       0       0       0       0       0       0       0       0
  3642 ;;      Locals:         0       0       0       0       0       0       0       0       0       0       0       0       
      +0       0       0       0       0       0       0       0       0       0       0       0       0       0       0
  3643 ;;      Temps:          0       0       0       0       0       0       0       0       0       0       0       0       
      +0       0       0       0       0       0       0       0       0       0       0       0       0       0       0
  3644 ;;      Totals:         0       2       0       0       0       0       0       0       0       0       0       0       
      +0       0       0       0       0       0       0       0       0       0       0       0       0       0       0
  3645 ;;Total ram usage:        2 bytes
  3646 ;; Hardware stack levels used:    1
  3647 ;; Hardware stack levels required when called:    7
  3648 ;; This function calls:
  3649 ;;		Nothing
  3650 ;; This function is called by:
  3651 ;;		_PIN_MANAGER_Initialize
  3652 ;; This function uses a non-reentrant model
  3653 ;;
  3654                           
  3655                           
  3656                           ;psect for function _IOCAF2_SetInterruptHandler
  3657  0460                     _IOCAF2_SetInterruptHandler:
  3658  0460                     l1304:	
  3659                           ;incstack = 0
  3660                           ; Regs used in _IOCAF2_SetInterruptHandler: [wreg]
  3661                           
  3662                           
  3663                           ;mcc_generated_files/pin_manager.c: 287:     IOCAF2_InterruptHandler = InterruptHandler;
  3664  0460  0020               	movlb	0	; select bank0
  3665  0461  0828               	movf	IOCAF2_SetInterruptHandler@InterruptHandler+1,w
  3666  0462  00DC               	movwf	_IOCAF2_InterruptHandler+1
  3667  0463  0827               	movf	IOCAF2_SetInterruptHandler@InterruptHandler,w
  3668  0464  00DB               	movwf	_IOCAF2_InterruptHandler
  3669  0465                     l147:
  3670  0465  0008               	return
  3671  0466                     __end_of_IOCAF2_SetInterruptHandler:
  3672                           
  3673                           	psect	text14
  3674  0466                     __ptext14:	
  3675 ;; *************** function _IOCAF1_SetInterruptHandler *****************
  3676 ;; Defined at:
  3677 ;;		line 256 in file "mcc_generated_files/pin_manager.c"
  3678 ;; Parameters:    Size  Location     Type
  3679 ;;  InterruptHan    2    7[BANK0 ] PTR FTN()void 
  3680 ;;		 -> IOCAF1_DefaultInterruptHandler(1), 
  3681 ;; Auto vars:     Size  Location     Type
  3682 ;;		None
  3683 ;; Return value:  Size  Location     Type
  3684 ;;                  1    wreg      void 
  3685 ;; Registers used:
  3686 ;;		wreg
  3687 ;; Tracked objects:
  3688 ;;		On entry : 0/0
  3689 ;;		On exit  : 0/0
  3690 ;;		Unchanged: 0/0
  3691 ;; Data sizes:     COMMON   BANK0   BANK1   BANK2   BANK3   BANK4   BANK5   BANK6   BANK7   BANK8   BANK9  BANK10  BANK1
      +1  BANK12  BANK13  BANK14  BANK15  BANK16  BANK17  BANK18  BANK19  BANK20  BANK21  BANK22  BANK23  BANK24  BANK25
  3692 ;;      Params:         0       2       0       0       0       0       0       0       0       0       0       0       
      +0       0       0       0       0       0       0       0       0       0       0       0       0       0       0
  3693 ;;      Locals:         0       0       0       0       0       0       0       0       0       0       0       0       
      +0       0       0       0       0       0       0       0       0       0       0       0       0       0       0
  3694 ;;      Temps:          0       0       0       0       0       0       0       0       0       0       0       0       
      +0       0       0       0       0       0       0       0       0       0       0       0       0       0       0
  3695 ;;      Totals:         0       2       0       0       0       0       0       0       0       0       0       0       
      +0       0       0       0       0       0       0       0       0       0       0       0       0       0       0
  3696 ;;Total ram usage:        2 bytes
  3697 ;; Hardware stack levels used:    1
  3698 ;; Hardware stack levels required when called:    7
  3699 ;; This function calls:
  3700 ;;		Nothing
  3701 ;; This function is called by:
  3702 ;;		_PIN_MANAGER_Initialize
  3703 ;; This function uses a non-reentrant model
  3704 ;;
  3705                           
  3706                           
  3707                           ;psect for function _IOCAF1_SetInterruptHandler
  3708  0466                     _IOCAF1_SetInterruptHandler:
  3709  0466                     l1302:	
  3710                           ;incstack = 0
  3711                           ; Regs used in _IOCAF1_SetInterruptHandler: [wreg]
  3712                           
  3713                           
  3714                           ;mcc_generated_files/pin_manager.c: 257:     IOCAF1_InterruptHandler = InterruptHandler;
  3715  0466  0020               	movlb	0	; select bank0
  3716  0467  0828               	movf	IOCAF1_SetInterruptHandler@InterruptHandler+1,w
  3717  0468  00DE               	movwf	_IOCAF1_InterruptHandler+1
  3718  0469  0827               	movf	IOCAF1_SetInterruptHandler@InterruptHandler,w
  3719  046A  00DD               	movwf	_IOCAF1_InterruptHandler
  3720  046B                     l137:
  3721  046B  0008               	return
  3722  046C                     __end_of_IOCAF1_SetInterruptHandler:
  3723                           
  3724                           	psect	text15
  3725  046C                     __ptext15:	
  3726 ;; *************** function _IOCAF0_SetInterruptHandler *****************
  3727 ;; Defined at:
  3728 ;;		line 226 in file "mcc_generated_files/pin_manager.c"
  3729 ;; Parameters:    Size  Location     Type
  3730 ;;  InterruptHan    2    7[BANK0 ] PTR FTN()void 
  3731 ;;		 -> IOCAF0_DefaultInterruptHandler(1), 
  3732 ;; Auto vars:     Size  Location     Type
  3733 ;;		None
  3734 ;; Return value:  Size  Location     Type
  3735 ;;                  1    wreg      void 
  3736 ;; Registers used:
  3737 ;;		wreg
  3738 ;; Tracked objects:
  3739 ;;		On entry : 0/0
  3740 ;;		On exit  : 0/0
  3741 ;;		Unchanged: 0/0
  3742 ;; Data sizes:     COMMON   BANK0   BANK1   BANK2   BANK3   BANK4   BANK5   BANK6   BANK7   BANK8   BANK9  BANK10  BANK1
      +1  BANK12  BANK13  BANK14  BANK15  BANK16  BANK17  BANK18  BANK19  BANK20  BANK21  BANK22  BANK23  BANK24  BANK25
  3743 ;;      Params:         0       2       0       0       0       0       0       0       0       0       0       0       
      +0       0       0       0       0       0       0       0       0       0       0       0       0       0       0
  3744 ;;      Locals:         0       0       0       0       0       0       0       0       0       0       0       0       
      +0       0       0       0       0       0       0       0       0       0       0       0       0       0       0
  3745 ;;      Temps:          0       0       0       0       0       0       0       0       0       0       0       0       
      +0       0       0       0       0       0       0       0       0       0       0       0       0       0       0
  3746 ;;      Totals:         0       2       0       0       0       0       0       0       0       0       0       0       
      +0       0       0       0       0       0       0       0       0       0       0       0       0       0       0
  3747 ;;Total ram usage:        2 bytes
  3748 ;; Hardware stack levels used:    1
  3749 ;; Hardware stack levels required when called:    7
  3750 ;; This function calls:
  3751 ;;		Nothing
  3752 ;; This function is called by:
  3753 ;;		_PIN_MANAGER_Initialize
  3754 ;; This function uses a non-reentrant model
  3755 ;;
  3756                           
  3757                           
  3758                           ;psect for function _IOCAF0_SetInterruptHandler
  3759  046C                     _IOCAF0_SetInterruptHandler:
  3760  046C                     l1300:	
  3761                           ;incstack = 0
  3762                           ; Regs used in _IOCAF0_SetInterruptHandler: [wreg]
  3763                           
  3764                           
  3765                           ;mcc_generated_files/pin_manager.c: 227:     IOCAF0_InterruptHandler = InterruptHandler;
  3766  046C  0020               	movlb	0	; select bank0
  3767  046D  0828               	movf	IOCAF0_SetInterruptHandler@InterruptHandler+1,w
  3768  046E  00E0               	movwf	_IOCAF0_InterruptHandler+1
  3769  046F  0827               	movf	IOCAF0_SetInterruptHandler@InterruptHandler,w
  3770  0470  00DF               	movwf	_IOCAF0_InterruptHandler
  3771  0471                     l127:
  3772  0471  0008               	return
  3773  0472                     __end_of_IOCAF0_SetInterruptHandler:
  3774                           
  3775                           	psect	text16
  3776  0441                     __ptext16:	
  3777 ;; *************** function _OSCILLATOR_Initialize *****************
  3778 ;; Defined at:
  3779 ;;		line 58 in file "mcc_generated_files/mcc.c"
  3780 ;; Parameters:    Size  Location     Type
  3781 ;;		None
  3782 ;; Auto vars:     Size  Location     Type
  3783 ;;		None
  3784 ;; Return value:  Size  Location     Type
  3785 ;;                  1    wreg      void 
  3786 ;; Registers used:
  3787 ;;		wreg, status,2
  3788 ;; Tracked objects:
  3789 ;;		On entry : 0/0
  3790 ;;		On exit  : 0/0
  3791 ;;		Unchanged: 0/0
  3792 ;; Data sizes:     COMMON   BANK0   BANK1   BANK2   BANK3   BANK4   BANK5   BANK6   BANK7   BANK8   BANK9  BANK10  BANK1
      +1  BANK12  BANK13  BANK14  BANK15  BANK16  BANK17  BANK18  BANK19  BANK20  BANK21  BANK22  BANK23  BANK24  BANK25
  3793 ;;      Params:         0       0       0       0       0       0       0       0       0       0       0       0       
      +0       0       0       0       0       0       0       0       0       0       0       0       0       0       0
  3794 ;;      Locals:         0       0       0       0       0       0       0       0       0       0       0       0       
      +0       0       0       0       0       0       0       0       0       0       0       0       0       0       0
  3795 ;;      Temps:          0       0       0       0       0       0       0       0       0       0       0       0       
      +0       0       0       0       0       0       0       0       0       0       0       0       0       0       0
  3796 ;;      Totals:         0       0       0       0       0       0       0       0       0       0       0       0       
      +0       0       0       0       0       0       0       0       0       0       0       0       0       0       0
  3797 ;;Total ram usage:        0 bytes
  3798 ;; Hardware stack levels used:    1
  3799 ;; Hardware stack levels required when called:    7
  3800 ;; This function calls:
  3801 ;;		Nothing
  3802 ;; This function is called by:
  3803 ;;		_SYSTEM_Initialize
  3804 ;; This function uses a non-reentrant model
  3805 ;;
  3806                           
  3807                           
  3808                           ;psect for function _OSCILLATOR_Initialize
  3809  0441                     _OSCILLATOR_Initialize:
  3810  0441                     l1474:	
  3811                           ;incstack = 0
  3812                           ; Regs used in _OSCILLATOR_Initialize: [wreg+status,2]
  3813                           
  3814                           
  3815                           ;mcc_generated_files/mcc.c: 61:     OSCCON = 0x3A;
  3816  0441  303A               	movlw	58
  3817  0442  0021               	movlb	1	; select bank1
  3818  0443  0099               	movwf	25	;volatile
  3819  0444                     l1476:
  3820                           
  3821                           ;mcc_generated_files/mcc.c: 63:     OSCTUNE = 0x00;
  3822  0444  0198               	clrf	24	;volatile
  3823  0445                     l1478:
  3824                           
  3825                           ;mcc_generated_files/mcc.c: 65:     BORCON = 0x00;
  3826  0445  0022               	movlb	2	; select bank2
  3827  0446  0196               	clrf	22	;volatile
  3828  0447                     l200:
  3829  0447  0008               	return
  3830  0448                     __end_of_OSCILLATOR_Initialize:
  3831                           
  3832                           	psect	text17
  3833  0285                     __ptext17:	
  3834 ;; *************** function _LCD_Initialize *****************
  3835 ;; Defined at:
  3836 ;;		line 46 in file "lcd.c"
  3837 ;; Parameters:    Size  Location     Type
  3838 ;;		None
  3839 ;; Auto vars:     Size  Location     Type
  3840 ;;		None
  3841 ;; Return value:  Size  Location     Type
  3842 ;;                  1    wreg      void 
  3843 ;; Registers used:
  3844 ;;		wreg, status,2, status,0, pclath, cstack
  3845 ;; Tracked objects:
  3846 ;;		On entry : 0/0
  3847 ;;		On exit  : 0/0
  3848 ;;		Unchanged: 0/0
  3849 ;; Data sizes:     COMMON   BANK0   BANK1   BANK2   BANK3   BANK4   BANK5   BANK6   BANK7   BANK8   BANK9  BANK10  BANK1
      +1  BANK12  BANK13  BANK14  BANK15  BANK16  BANK17  BANK18  BANK19  BANK20  BANK21  BANK22  BANK23  BANK24  BANK25
  3850 ;;      Params:         0       0       0       0       0       0       0       0       0       0       0       0       
      +0       0       0       0       0       0       0       0       0       0       0       0       0       0       0
  3851 ;;      Locals:         0       0       0       0       0       0       0       0       0       0       0       0       
      +0       0       0       0       0       0       0       0       0       0       0       0       0       0       0
  3852 ;;      Temps:          0       1       0       0       0       0       0       0       0       0       0       0       
      +0       0       0       0       0       0       0       0       0       0       0       0       0       0       0
  3853 ;;      Totals:         0       1       0       0       0       0       0       0       0       0       0       0       
      +0       0       0       0       0       0       0       0       0       0       0       0       0       0       0
  3854 ;;Total ram usage:        1 bytes
  3855 ;; Hardware stack levels used:    1
  3856 ;; Hardware stack levels required when called:    9
  3857 ;; This function calls:
  3858 ;;		_LCDPutCmd
  3859 ;; This function is called by:
  3860 ;;		_main
  3861 ;; This function uses a non-reentrant model
  3862 ;;
  3863                           
  3864                           
  3865                           ;psect for function _LCD_Initialize
  3866  0285                     _LCD_Initialize:
  3867  0285                     l1514:	
  3868                           ;incstack = 0
  3869                           ; Regs used in _LCD_Initialize: [wreg+status,2+status,0+pclath+cstack]
  3870                           
  3871                           
  3872                           ;lcd.c: 49:   PORTB = 0;
  3873  0285  0020               	movlb	0	; select bank0
  3874  0286  018D               	clrf	13	;volatile
  3875                           
  3876                           ;lcd.c: 51:   TRISB = 0x00;
  3877  0287  0021               	movlb	1	; select bank1
  3878  0288  018D               	clrf	13	;volatile
  3879  0289                     l1516:
  3880                           
  3881                           ;lcd.c: 54:   PORTBbits.RB7 = 1;
  3882  0289  0020               	movlb	0	; select bank0
  3883  028A  178D               	bsf	13,7	;volatile
  3884  028B                     l1518:
  3885                           
  3886                           ;lcd.c: 57:   _delay((unsigned long)((15)*(500000/4000.0)));
  3887  028B  3003               	movlw	3
  3888  028C  0020               	movlb	0	; select bank0
  3889  028D  00AE               	movwf	??_LCD_Initialize
  3890  028E  306E               	movlw	110
  3891  028F                     u777:
  3892  028F  0B89               	decfsz	9,f
  3893  0290  2A8F               	goto	u777
  3894  0291  0BAE               	decfsz	??_LCD_Initialize,f
  3895  0292  2A8F               	goto	u777
  3896  0293                     l1520:
  3897                           
  3898                           ;lcd.c: 60:   LCDPutCmd(0x32);
  3899  0293  3032               	movlw	50
  3900  0294  3182  22A8  3182   	fcall	_LCDPutCmd
  3901  0297                     l1522:
  3902                           
  3903                           ;lcd.c: 63:   LCDPutCmd(0x28);
  3904  0297  3028               	movlw	40
  3905  0298  3182  22A8  3182   	fcall	_LCDPutCmd
  3906  029B                     l1524:
  3907                           
  3908                           ;lcd.c: 66:   LCDPutCmd(0x0C);
  3909  029B  300C               	movlw	12
  3910  029C  3182  22A8  3182   	fcall	_LCDPutCmd
  3911  029F                     l1526:
  3912                           
  3913                           ;lcd.c: 68:   LCDPutCmd(0x01);
  3914  029F  3001               	movlw	1
  3915  02A0  3182  22A8  3182   	fcall	_LCDPutCmd
  3916  02A3                     l1528:
  3917                           
  3918                           ;lcd.c: 71:   LCDPutCmd(0x06);
  3919  02A3  3006               	movlw	6
  3920  02A4  3182  22A8  3182   	fcall	_LCDPutCmd
  3921  02A7                     l229:
  3922  02A7  0008               	return
  3923  02A8                     __end_of_LCD_Initialize:
  3924                           
  3925                           	psect	text18
  3926  02A8                     __ptext18:	
  3927 ;; *************** function _LCDPutCmd *****************
  3928 ;; Defined at:
  3929 ;;		line 115 in file "lcd.c"
  3930 ;; Parameters:    Size  Location     Type
  3931 ;;  ch              1    wreg     unsigned char 
  3932 ;; Auto vars:     Size  Location     Type
  3933 ;;  ch              1   13[BANK0 ] unsigned char 
  3934 ;; Return value:  Size  Location     Type
  3935 ;;                  1    wreg      void 
  3936 ;; Registers used:
  3937 ;;		wreg, status,2, status,0, pclath, cstack
  3938 ;; Tracked objects:
  3939 ;;		On entry : 0/0
  3940 ;;		On exit  : 0/0
  3941 ;;		Unchanged: 0/0
  3942 ;; Data sizes:     COMMON   BANK0   BANK1   BANK2   BANK3   BANK4   BANK5   BANK6   BANK7   BANK8   BANK9  BANK10  BANK1
      +1  BANK12  BANK13  BANK14  BANK15  BANK16  BANK17  BANK18  BANK19  BANK20  BANK21  BANK22  BANK23  BANK24  BANK25
  3943 ;;      Params:         0       0       0       0       0       0       0       0       0       0       0       0       
      +0       0       0       0       0       0       0       0       0       0       0       0       0       0       0
  3944 ;;      Locals:         0       1       0       0       0       0       0       0       0       0       0       0       
      +0       0       0       0       0       0       0       0       0       0       0       0       0       0       0
  3945 ;;      Temps:          0       2       0       0       0       0       0       0       0       0       0       0       
      +0       0       0       0       0       0       0       0       0       0       0       0       0       0       0
  3946 ;;      Totals:         0       3       0       0       0       0       0       0       0       0       0       0       
      +0       0       0       0       0       0       0       0       0       0       0       0       0       0       0
  3947 ;;Total ram usage:        3 bytes
  3948 ;; Hardware stack levels used:    1
  3949 ;; Hardware stack levels required when called:    8
  3950 ;; This function calls:
  3951 ;;		_LCDWriteNibble
  3952 ;; This function is called by:
  3953 ;;		_LCD_Initialize
  3954 ;;		_LCDGoto
  3955 ;;		_createCustomCharacter
  3956 ;; This function uses a non-reentrant model
  3957 ;;
  3958                           
  3959                           
  3960                           ;psect for function _LCDPutCmd
  3961  02A8                     _LCDPutCmd:
  3962                           
  3963                           ;incstack = 0
  3964                           ; Regs used in _LCDPutCmd: [wreg+status,2+status,0+pclath+cstack]
  3965                           ;LCDPutCmd@ch stored from wreg
  3966  02A8  0020               	movlb	0	; select bank0
  3967  02A9  00AD               	movwf	LCDPutCmd@ch
  3968  02AA                     l1260:
  3969                           
  3970                           ;lcd.c: 115: void LCDPutCmd(uint8_t ch);lcd.c: 116: {;lcd.c: 117:   _delay((unsigned lon
      +                          g)((5)*(500000/4000.0)));
  3971  02AA  30D0               	movlw	208
  3972  02AB                     u787:
  3973  02AB  0B89               	decfsz	9,f
  3974  02AC  2AAB               	goto	u787
  3975  02AD  0000               	nop
  3976  02AE                     l1262:
  3977                           
  3978                           ;lcd.c: 120:   LCDWriteNibble(ch, 0);
  3979  02AE  0020               	movlb	0	; select bank0
  3980  02AF  01A7               	clrf	LCDWriteNibble@rs
  3981  02B0  082D               	movf	LCDPutCmd@ch,w
  3982  02B1  3182  22EB  3182   	fcall	_LCDWriteNibble
  3983  02B4                     l1264:
  3984                           
  3985                           ;lcd.c: 123:   ch = (uint8_t)(ch << 4);
  3986  02B4  0020               	movlb	0	; select bank0
  3987  02B5  082D               	movf	LCDPutCmd@ch,w
  3988  02B6  00AB               	movwf	??_LCDPutCmd
  3989  02B7  3003               	movlw	3
  3990  02B8                     u425:
  3991  02B8  35AB               	lslf	??_LCDPutCmd,f
  3992  02B9  3EFF               	addlw	-1
  3993  02BA  1D03               	skipz
  3994  02BB  2AB8               	goto	u425
  3995  02BC  352B               	lslf	??_LCDPutCmd,w
  3996  02BD  00AC               	movwf	??_LCDPutCmd+1
  3997  02BE  082C               	movf	??_LCDPutCmd+1,w
  3998  02BF  00AD               	movwf	LCDPutCmd@ch
  3999  02C0                     l1266:
  4000                           
  4001                           ;lcd.c: 125:   _delay((unsigned long)((1)*(500000/4000.0)));
  4002  02C0  3029               	movlw	41
  4003  02C1                     u797:
  4004  02C1  0B89               	decfsz	9,f
  4005  02C2  2AC1               	goto	u797
  4006  02C3  3200               	nop2
  4007  02C4                     l1268:
  4008                           
  4009                           ;lcd.c: 128:   LCDWriteNibble(ch, 0);
  4010  02C4  0020               	movlb	0	; select bank0
  4011  02C5  01A7               	clrf	LCDWriteNibble@rs
  4012  02C6  082D               	movf	LCDPutCmd@ch,w
  4013  02C7  3182  22EB  3182   	fcall	_LCDWriteNibble
  4014  02CA                     l238:
  4015  02CA  0008               	return
  4016  02CB                     __end_of_LCDPutCmd:
  4017                           
  4018                           	psect	text19
  4019  02EB                     __ptext19:	
  4020 ;; *************** function _LCDWriteNibble *****************
  4021 ;; Defined at:
  4022 ;;		line 74 in file "lcd.c"
  4023 ;; Parameters:    Size  Location     Type
  4024 ;;  ch              1    wreg     unsigned char 
  4025 ;;  rs              1    7[BANK0 ] unsigned char 
  4026 ;; Auto vars:     Size  Location     Type
  4027 ;;  ch              1   10[BANK0 ] unsigned char 
  4028 ;; Return value:  Size  Location     Type
  4029 ;;                  1    wreg      void 
  4030 ;; Registers used:
  4031 ;;		wreg, status,2, status,0
  4032 ;; Tracked objects:
  4033 ;;		On entry : 0/0
  4034 ;;		On exit  : 0/0
  4035 ;;		Unchanged: 0/0
  4036 ;; Data sizes:     COMMON   BANK0   BANK1   BANK2   BANK3   BANK4   BANK5   BANK6   BANK7   BANK8   BANK9  BANK10  BANK1
      +1  BANK12  BANK13  BANK14  BANK15  BANK16  BANK17  BANK18  BANK19  BANK20  BANK21  BANK22  BANK23  BANK24  BANK25
  4037 ;;      Params:         0       1       0       0       0       0       0       0       0       0       0       0       
      +0       0       0       0       0       0       0       0       0       0       0       0       0       0       0
  4038 ;;      Locals:         0       1       0       0       0       0       0       0       0       0       0       0       
      +0       0       0       0       0       0       0       0       0       0       0       0       0       0       0
  4039 ;;      Temps:          0       2       0       0       0       0       0       0       0       0       0       0       
      +0       0       0       0       0       0       0       0       0       0       0       0       0       0       0
  4040 ;;      Totals:         0       4       0       0       0       0       0       0       0       0       0       0       
      +0       0       0       0       0       0       0       0       0       0       0       0       0       0       0
  4041 ;;Total ram usage:        4 bytes
  4042 ;; Hardware stack levels used:    1
  4043 ;; Hardware stack levels required when called:    7
  4044 ;; This function calls:
  4045 ;;		Nothing
  4046 ;; This function is called by:
  4047 ;;		_LCDPutChar
  4048 ;;		_LCDPutCmd
  4049 ;; This function uses a non-reentrant model
  4050 ;;
  4051                           
  4052                           
  4053                           ;psect for function _LCDWriteNibble
  4054  02EB                     _LCDWriteNibble:
  4055                           
  4056                           ;incstack = 0
  4057                           ; Regs used in _LCDWriteNibble: [wreg+status,2+status,0]
  4058                           ;LCDWriteNibble@ch stored from wreg
  4059  02EB  0020               	movlb	0	; select bank0
  4060  02EC  00AA               	movwf	LCDWriteNibble@ch
  4061  02ED                     l1228:
  4062                           
  4063                           ;lcd.c: 74: void LCDWriteNibble(uint8_t ch, uint8_t rs);lcd.c: 75: {;lcd.c: 77:   ch = (
      +                          ch >> 4);
  4064  02ED  082A               	movf	LCDWriteNibble@ch,w
  4065  02EE  00A8               	movwf	??_LCDWriteNibble
  4066  02EF  3004               	movlw	4
  4067  02F0                     u395:
  4068  02F0  36A8               	lsrf	??_LCDWriteNibble,f
  4069  02F1  0B89               	decfsz	9,f
  4070  02F2  2AF0               	goto	u395
  4071  02F3  0828               	movf	??_LCDWriteNibble,w
  4072  02F4  00A9               	movwf	??_LCDWriteNibble+1
  4073  02F5  0829               	movf	??_LCDWriteNibble+1,w
  4074  02F6  00AA               	movwf	LCDWriteNibble@ch
  4075  02F7                     l1230:
  4076                           
  4077                           ;lcd.c: 80:   ch = (ch & 0x0F);
  4078  02F7  082A               	movf	LCDWriteNibble@ch,w
  4079  02F8  390F               	andlw	15
  4080  02F9  00A8               	movwf	??_LCDWriteNibble
  4081  02FA  0828               	movf	??_LCDWriteNibble,w
  4082  02FB  00AA               	movwf	LCDWriteNibble@ch
  4083  02FC                     l1232:
  4084                           
  4085                           ;lcd.c: 83:   PORTB = (PORTB & 0xF0);
  4086  02FC  080D               	movf	13,w	;volatile
  4087  02FD  39F0               	andlw	240
  4088  02FE  008D               	movwf	13	;volatile
  4089                           
  4090                           ;lcd.c: 86:   PORTB = (PORTB | ch);
  4091  02FF  080D               	movf	13,w	;volatile
  4092  0300  042A               	iorwf	LCDWriteNibble@ch,w
  4093  0301  008D               	movwf	13	;volatile
  4094  0302                     l1234:
  4095                           
  4096                           ;lcd.c: 89:   PORTBbits.RB5 = rs;
  4097  0302  0C27               	rrf	LCDWriteNibble@rs,w
  4098  0303  1C03               	skipc
  4099  0304  128D               	bcf	13,5	;volatile
  4100  0305  1803               	skipnc
  4101  0306  168D               	bsf	13,5	;volatile
  4102  0307                     l1236:
  4103                           
  4104                           ;lcd.c: 92:   PORTBbits.RB6 = 0;
  4105  0307  130D               	bcf	13,6	;volatile
  4106  0308                     l1238:
  4107                           
  4108                           ;lcd.c: 95:   PORTBbits.RB4 = 1;
  4109  0308  160D               	bsf	13,4	;volatile
  4110  0309                     l1240:
  4111                           
  4112                           ;lcd.c: 98:   PORTBbits.RB4 = 0;
  4113  0309  120D               	bcf	13,4	;volatile
  4114  030A                     l232:
  4115  030A  0008               	return
  4116  030B                     __end_of_LCDWriteNibble:
  4117                           
  4118                           	psect	intentry
  4119  0004                     __pintentry:	
  4120 ;; *************** function _INTERRUPT_InterruptManager *****************
  4121 ;; Defined at:
  4122 ;;		line 52 in file "mcc_generated_files/interrupt_manager.c"
  4123 ;; Parameters:    Size  Location     Type
  4124 ;;		None
  4125 ;; Auto vars:     Size  Location     Type
  4126 ;;		None
  4127 ;; Return value:  Size  Location     Type
  4128 ;;                  1    wreg      void 
  4129 ;; Registers used:
  4130 ;;		wreg, fsr0l, fsr0h, status,2, status,0, pclath, cstack
  4131 ;; Tracked objects:
  4132 ;;		On entry : 0/0
  4133 ;;		On exit  : 0/0
  4134 ;;		Unchanged: 0/0
  4135 ;; Data sizes:     COMMON   BANK0   BANK1   BANK2   BANK3   BANK4   BANK5   BANK6   BANK7   BANK8   BANK9  BANK10  BANK1
      +1  BANK12  BANK13  BANK14  BANK15  BANK16  BANK17  BANK18  BANK19  BANK20  BANK21  BANK22  BANK23  BANK24  BANK25
  4136 ;;      Params:         0       0       0       0       0       0       0       0       0       0       0       0       
      +0       0       0       0       0       0       0       0       0       0       0       0       0       0       0
  4137 ;;      Locals:         0       0       0       0       0       0       0       0       0       0       0       0       
      +0       0       0       0       0       0       0       0       0       0       0       0       0       0       0
  4138 ;;      Temps:          0       1       0       0       0       0       0       0       0       0       0       0       
      +0       0       0       0       0       0       0       0       0       0       0       0       0       0       0
  4139 ;;      Totals:         0       1       0       0       0       0       0       0       0       0       0       0       
      +0       0       0       0       0       0       0       0       0       0       0       0       0       0       0
  4140 ;;Total ram usage:        1 bytes
  4141 ;; Hardware stack levels used:    1
  4142 ;; Hardware stack levels required when called:    6
  4143 ;; This function calls:
  4144 ;;		_PIN_MANAGER_IOC
  4145 ;; This function is called by:
  4146 ;;		Interrupt level 1
  4147 ;; This function uses a non-reentrant model
  4148 ;;
  4149                           
  4150  0004                     _INTERRUPT_InterruptManager:
  4151                           
  4152                           ;incstack = 0
  4153  0004  147E               	bsf	int$flags,0	;set compiler interrupt flag (level 1)
  4154                           
  4155                           ; Regs used in _INTERRUPT_InterruptManager: [wreg-fsr0h+status,2+status,0+pclath+cstack]
  4156  0005  3180               	pagesel	$
  4157  0006                     i1l1556:
  4158                           
  4159                           ;mcc_generated_files/interrupt_manager.c: 55:     if(INTCONbits.IOCIE == 1 && INTCONbits
      +                          .IOCIF == 1)
  4160  0006  1D8B               	btfss	11,3	;volatile
  4161  0007  2809               	goto	u69_21
  4162  0008  280A               	goto	u69_20
  4163  0009                     u69_21:
  4164  0009  281B               	goto	i1l216
  4165  000A                     u69_20:
  4166  000A                     i1l1558:
  4167  000A  1C0B               	btfss	11,0	;volatile
  4168  000B  280D               	goto	u70_21
  4169  000C  280E               	goto	u70_20
  4170  000D                     u70_21:
  4171  000D  281B               	goto	i1l216
  4172  000E                     u70_20:
  4173  000E                     i1l1560:
  4174                           
  4175                           ;mcc_generated_files/interrupt_manager.c: 56:     {;mcc_generated_files/interrupt_manage
      +                          r.c: 57:         _delay((unsigned long)((80)*(500000/4000.0)));
  4176  000E  300D               	movlw	13
  4177  000F  0020               	movlb	0	; select bank0
  4178  0010  00A6               	movwf	??_INTERRUPT_InterruptManager
  4179  0011  30FB               	movlw	251
  4180  0012                     u80_27:
  4181  0012  0B89               	decfsz	9,f
  4182  0013  2812               	goto	u80_27
  4183  0014  0BA6               	decfsz	??_INTERRUPT_InterruptManager,f
  4184  0015  2812               	goto	u80_27
  4185  0016  3200               	nop2
  4186  0017                     i1l1562:
  4187                           
  4188                           ;mcc_generated_files/interrupt_manager.c: 58:         PIN_MANAGER_IOC();
  4189  0017  3181  2188  3180   	fcall	_PIN_MANAGER_IOC
  4190  001A                     i1l1564:
  4191                           
  4192                           ;mcc_generated_files/interrupt_manager.c: 60:         INTCONbits.IOCIF = 0;
  4193  001A  100B               	bcf	11,0	;volatile
  4194  001B                     i1l216:	
  4195                           ;mcc_generated_files/interrupt_manager.c: 61:     }
  4196                           
  4197  001B  107E               	bcf	int$flags,0	;clear compiler interrupt flag (level 1)
  4198  001C  0009               	retfie
  4199  001D                     __end_of_INTERRUPT_InterruptManager:
  4200                           
  4201                           	psect	text21
  4202  0188                     __ptext21:	
  4203 ;; *************** function _PIN_MANAGER_IOC *****************
  4204 ;; Defined at:
  4205 ;;		line 173 in file "mcc_generated_files/pin_manager.c"
  4206 ;; Parameters:    Size  Location     Type
  4207 ;;		None
  4208 ;; Auto vars:     Size  Location     Type
  4209 ;;		None
  4210 ;; Return value:  Size  Location     Type
  4211 ;;                  1    wreg      void 
  4212 ;; Registers used:
  4213 ;;		wreg, fsr0l, fsr0h, status,2, status,0, pclath, cstack
  4214 ;; Tracked objects:
  4215 ;;		On entry : 0/0
  4216 ;;		On exit  : 0/0
  4217 ;;		Unchanged: 0/0
  4218 ;; Data sizes:     COMMON   BANK0   BANK1   BANK2   BANK3   BANK4   BANK5   BANK6   BANK7   BANK8   BANK9  BANK10  BANK1
      +1  BANK12  BANK13  BANK14  BANK15  BANK16  BANK17  BANK18  BANK19  BANK20  BANK21  BANK22  BANK23  BANK24  BANK25
  4219 ;;      Params:         0       0       0       0       0       0       0       0       0       0       0       0       
      +0       0       0       0       0       0       0       0       0       0       0       0       0       0       0
  4220 ;;      Locals:         0       0       0       0       0       0       0       0       0       0       0       0       
      +0       0       0       0       0       0       0       0       0       0       0       0       0       0       0
  4221 ;;      Temps:          0       0       0       0       0       0       0       0       0       0       0       0       
      +0       0       0       0       0       0       0       0       0       0       0       0       0       0       0
  4222 ;;      Totals:         0       0       0       0       0       0       0       0       0       0       0       0       
      +0       0       0       0       0       0       0       0       0       0       0       0       0       0       0
  4223 ;;Total ram usage:        0 bytes
  4224 ;; Hardware stack levels used:    1
  4225 ;; Hardware stack levels required when called:    5
  4226 ;; This function calls:
  4227 ;;		_IOCAF0_ISR
  4228 ;;		_IOCAF1_ISR
  4229 ;;		_IOCAF2_ISR
  4230 ;;		_IOCAF3_ISR
  4231 ;;		_IOCAF4_ISR
  4232 ;;		_IOCAF5_ISR
  4233 ;; This function is called by:
  4234 ;;		_INTERRUPT_InterruptManager
  4235 ;; This function uses a non-reentrant model
  4236 ;;
  4237                           
  4238                           
  4239                           ;psect for function _PIN_MANAGER_IOC
  4240  0188                     _PIN_MANAGER_IOC:
  4241  0188                     i1l1488:	
  4242                           ;incstack = 0
  4243                           ; Regs used in _PIN_MANAGER_IOC: [wreg-fsr0h+status,2+status,0+pclath+cstack]
  4244                           
  4245                           
  4246                           ;mcc_generated_files/pin_manager.c: 176:     if(IOCAFbits.IOCAF0 == 1)
  4247  0188  0027               	movlb	7	; select bank7
  4248  0189  1C13               	btfss	19,0	;volatile
  4249  018A  298C               	goto	u61_21
  4250  018B  298D               	goto	u61_20
  4251  018C                     u61_21:
  4252  018C  2990               	goto	i1l1492
  4253  018D                     u61_20:
  4254  018D                     i1l1490:
  4255                           
  4256                           ;mcc_generated_files/pin_manager.c: 177:     {;mcc_generated_files/pin_manager.c: 178:  
      +                                 IOCAF0_ISR();
  4257  018D  3183  23CC  3181   	fcall	_IOCAF0_ISR
  4258  0190                     i1l1492:
  4259                           
  4260                           ;mcc_generated_files/pin_manager.c: 181:     if(IOCAFbits.IOCAF1 == 1)
  4261  0190  0027               	movlb	7	; select bank7
  4262  0191  1C93               	btfss	19,1	;volatile
  4263  0192  2994               	goto	u62_21
  4264  0193  2995               	goto	u62_20
  4265  0194                     u62_21:
  4266  0194  2998               	goto	i1l1496
  4267  0195                     u62_20:
  4268  0195                     i1l1494:
  4269                           
  4270                           ;mcc_generated_files/pin_manager.c: 182:     {;mcc_generated_files/pin_manager.c: 183:  
      +                                 IOCAF1_ISR();
  4271  0195  3184  2420  3181   	fcall	_IOCAF1_ISR
  4272  0198                     i1l1496:
  4273                           
  4274                           ;mcc_generated_files/pin_manager.c: 186:     if(IOCAFbits.IOCAF2 == 1)
  4275  0198  0027               	movlb	7	; select bank7
  4276  0199  1D13               	btfss	19,2	;volatile
  4277  019A  299C               	goto	u63_21
  4278  019B  299D               	goto	u63_20
  4279  019C                     u63_21:
  4280  019C  29A0               	goto	i1l1500
  4281  019D                     u63_20:
  4282  019D                     i1l1498:
  4283                           
  4284                           ;mcc_generated_files/pin_manager.c: 187:     {;mcc_generated_files/pin_manager.c: 188:  
      +                                 IOCAF2_ISR();
  4285  019D  3184  2411  3181   	fcall	_IOCAF2_ISR
  4286  01A0                     i1l1500:
  4287                           
  4288                           ;mcc_generated_files/pin_manager.c: 191:     if(IOCAFbits.IOCAF3 == 1)
  4289  01A0  0027               	movlb	7	; select bank7
  4290  01A1  1D93               	btfss	19,3	;volatile
  4291  01A2  29A4               	goto	u64_21
  4292  01A3  29A5               	goto	u64_20
  4293  01A4                     u64_21:
  4294  01A4  29A8               	goto	i1l1504
  4295  01A5                     u64_20:
  4296  01A5                     i1l1502:
  4297                           
  4298                           ;mcc_generated_files/pin_manager.c: 192:     {;mcc_generated_files/pin_manager.c: 193:  
      +                                 IOCAF3_ISR();
  4299  01A5  3183  23B5  3181   	fcall	_IOCAF3_ISR
  4300  01A8                     i1l1504:
  4301                           
  4302                           ;mcc_generated_files/pin_manager.c: 196:     if(IOCAFbits.IOCAF4 == 1)
  4303  01A8  0027               	movlb	7	; select bank7
  4304  01A9  1E13               	btfss	19,4	;volatile
  4305  01AA  29AC               	goto	u65_21
  4306  01AB  29AD               	goto	u65_20
  4307  01AC                     u65_21:
  4308  01AC  29B0               	goto	i1l1508
  4309  01AD                     u65_20:
  4310  01AD                     i1l1506:
  4311                           
  4312                           ;mcc_generated_files/pin_manager.c: 197:     {;mcc_generated_files/pin_manager.c: 198:  
      +                                 IOCAF4_ISR();
  4313  01AD  3184  2402  3181   	fcall	_IOCAF4_ISR
  4314  01B0                     i1l1508:
  4315                           
  4316                           ;mcc_generated_files/pin_manager.c: 201:     if(IOCAFbits.IOCAF5 == 1)
  4317  01B0  0027               	movlb	7	; select bank7
  4318  01B1  1E93               	btfss	19,5	;volatile
  4319  01B2  29B4               	goto	u66_21
  4320  01B3  29B5               	goto	u66_20
  4321  01B4                     u66_21:
  4322  01B4  29B8               	goto	i1l120
  4323  01B5                     u66_20:
  4324  01B5                     i1l1510:
  4325                           
  4326                           ;mcc_generated_files/pin_manager.c: 202:     {;mcc_generated_files/pin_manager.c: 203:  
      +                                 IOCAF5_ISR();
  4327  01B5  3183  23F3  3181   	fcall	_IOCAF5_ISR
  4328  01B8                     i1l120:
  4329  01B8  0008               	return
  4330  01B9                     __end_of_PIN_MANAGER_IOC:
  4331                           
  4332                           	psect	text22
  4333  03F3                     __ptext22:	
  4334 ;; *************** function _IOCAF5_ISR *****************
  4335 ;; Defined at:
  4336 ;;		line 362 in file "mcc_generated_files/pin_manager.c"
  4337 ;; Parameters:    Size  Location     Type
  4338 ;;		None
  4339 ;; Auto vars:     Size  Location     Type
  4340 ;;		None
  4341 ;; Return value:  Size  Location     Type
  4342 ;;                  1    wreg      void 
  4343 ;; Registers used:
  4344 ;;		wreg, status,2, status,0, pclath, cstack
  4345 ;; Tracked objects:
  4346 ;;		On entry : 0/0
  4347 ;;		On exit  : 0/0
  4348 ;;		Unchanged: 0/0
  4349 ;; Data sizes:     COMMON   BANK0   BANK1   BANK2   BANK3   BANK4   BANK5   BANK6   BANK7   BANK8   BANK9  BANK10  BANK1
      +1  BANK12  BANK13  BANK14  BANK15  BANK16  BANK17  BANK18  BANK19  BANK20  BANK21  BANK22  BANK23  BANK24  BANK25
  4350 ;;      Params:         0       0       0       0       0       0       0       0       0       0       0       0       
      +0       0       0       0       0       0       0       0       0       0       0       0       0       0       0
  4351 ;;      Locals:         0       0       0       0       0       0       0       0       0       0       0       0       
      +0       0       0       0       0       0       0       0       0       0       0       0       0       0       0
  4352 ;;      Temps:          0       0       0       0       0       0       0       0       0       0       0       0       
      +0       0       0       0       0       0       0       0       0       0       0       0       0       0       0
  4353 ;;      Totals:         0       0       0       0       0       0       0       0       0       0       0       0       
      +0       0       0       0       0       0       0       0       0       0       0       0       0       0       0
  4354 ;;Total ram usage:        0 bytes
  4355 ;; Hardware stack levels used:    1
  4356 ;; Hardware stack levels required when called:    1
  4357 ;; This function calls:
  4358 ;;		Absolute function
  4359 ;;		_IOCAF5_DefaultInterruptHandler
  4360 ;; This function is called by:
  4361 ;;		_PIN_MANAGER_IOC
  4362 ;; This function uses a non-reentrant model
  4363 ;;
  4364                           
  4365                           
  4366                           ;psect for function _IOCAF5_ISR
  4367  03F3                     _IOCAF5_ISR:
  4368  03F3                     i1l1468:	
  4369                           ;incstack = 0
  4370                           ; Regs used in _IOCAF5_ISR: [wreg+status,2+status,0+pclath+cstack]
  4371                           
  4372                           
  4373                           ;mcc_generated_files/pin_manager.c: 367:     if(IOCAF5_InterruptHandler)
  4374  03F3  0020               	movlb	0	; select bank0
  4375  03F4  0855               	movf	_IOCAF5_InterruptHandler,w
  4376  03F5  0456               	iorwf	_IOCAF5_InterruptHandler+1,w
  4377  03F6  1903               	btfsc	3,2
  4378  03F7  2BF9               	goto	u60_21
  4379  03F8  2BFA               	goto	u60_20
  4380  03F9                     u60_21:
  4381  03F9  2BFF               	goto	i1l1472
  4382  03FA                     u60_20:
  4383  03FA                     i1l1470:
  4384                           
  4385                           ;mcc_generated_files/pin_manager.c: 368:     {;mcc_generated_files/pin_manager.c: 369:  
      +                                 IOCAF5_InterruptHandler();
  4386  03FA  0856               	movf	_IOCAF5_InterruptHandler+1,w
  4387  03FB  008A               	movwf	10
  4388  03FC  0855               	movf	_IOCAF5_InterruptHandler,w
  4389  03FD  000A               	callw
  4390  03FE  3183               	pagesel	$
  4391  03FF                     i1l1472:
  4392                           
  4393                           ;mcc_generated_files/pin_manager.c: 371:     IOCAFbits.IOCAF5 = 0;
  4394  03FF  0027               	movlb	7	; select bank7
  4395  0400  1293               	bcf	19,5	;volatile
  4396  0401                     i1l174:
  4397  0401  0008               	return
  4398  0402                     __end_of_IOCAF5_ISR:
  4399                           
  4400                           	psect	text23
  4401  0476                     __ptext23:	
  4402 ;; *************** function _IOCAF5_DefaultInterruptHandler *****************
  4403 ;; Defined at:
  4404 ;;		line 384 in file "mcc_generated_files/pin_manager.c"
  4405 ;; Parameters:    Size  Location     Type
  4406 ;;		None
  4407 ;; Auto vars:     Size  Location     Type
  4408 ;;		None
  4409 ;; Return value:  Size  Location     Type
  4410 ;;                  1    wreg      void 
  4411 ;; Registers used:
  4412 ;;		None
  4413 ;; Tracked objects:
  4414 ;;		On entry : 0/0
  4415 ;;		On exit  : 0/0
  4416 ;;		Unchanged: 0/0
  4417 ;; Data sizes:     COMMON   BANK0   BANK1   BANK2   BANK3   BANK4   BANK5   BANK6   BANK7   BANK8   BANK9  BANK10  BANK1
      +1  BANK12  BANK13  BANK14  BANK15  BANK16  BANK17  BANK18  BANK19  BANK20  BANK21  BANK22  BANK23  BANK24  BANK25
  4418 ;;      Params:         0       0       0       0       0       0       0       0       0       0       0       0       
      +0       0       0       0       0       0       0       0       0       0       0       0       0       0       0
  4419 ;;      Locals:         0       0       0       0       0       0       0       0       0       0       0       0       
      +0       0       0       0       0       0       0       0       0       0       0       0       0       0       0
  4420 ;;      Temps:          0       0       0       0       0       0       0       0       0       0       0       0       
      +0       0       0       0       0       0       0       0       0       0       0       0       0       0       0
  4421 ;;      Totals:         0       0       0       0       0       0       0       0       0       0       0       0       
      +0       0       0       0       0       0       0       0       0       0       0       0       0       0       0
  4422 ;;Total ram usage:        0 bytes
  4423 ;; Hardware stack levels used:    1
  4424 ;; This function calls:
  4425 ;;		Nothing
  4426 ;; This function is called by:
  4427 ;;		_PIN_MANAGER_Initialize
  4428 ;;		_IOCAF5_ISR
  4429 ;; This function uses a non-reentrant model
  4430 ;;
  4431                           
  4432                           
  4433                           ;psect for function _IOCAF5_DefaultInterruptHandler
  4434  0476                     _IOCAF5_DefaultInterruptHandler:
  4435  0476                     i1l180:	
  4436                           ;incstack = 0
  4437                           ; Regs used in _IOCAF5_DefaultInterruptHandler: []
  4438                           
  4439  0476  0008               	return
  4440  0477                     __end_of_IOCAF5_DefaultInterruptHandler:
  4441                           
  4442                           	psect	text24
  4443  0402                     __ptext24:	
  4444 ;; *************** function _IOCAF4_ISR *****************
  4445 ;; Defined at:
  4446 ;;		line 332 in file "mcc_generated_files/pin_manager.c"
  4447 ;; Parameters:    Size  Location     Type
  4448 ;;		None
  4449 ;; Auto vars:     Size  Location     Type
  4450 ;;		None
  4451 ;; Return value:  Size  Location     Type
  4452 ;;                  1    wreg      void 
  4453 ;; Registers used:
  4454 ;;		wreg, status,2, status,0, pclath, cstack
  4455 ;; Tracked objects:
  4456 ;;		On entry : 0/0
  4457 ;;		On exit  : 0/0
  4458 ;;		Unchanged: 0/0
  4459 ;; Data sizes:     COMMON   BANK0   BANK1   BANK2   BANK3   BANK4   BANK5   BANK6   BANK7   BANK8   BANK9  BANK10  BANK1
      +1  BANK12  BANK13  BANK14  BANK15  BANK16  BANK17  BANK18  BANK19  BANK20  BANK21  BANK22  BANK23  BANK24  BANK25
  4460 ;;      Params:         0       0       0       0       0       0       0       0       0       0       0       0       
      +0       0       0       0       0       0       0       0       0       0       0       0       0       0       0
  4461 ;;      Locals:         0       0       0       0       0       0       0       0       0       0       0       0       
      +0       0       0       0       0       0       0       0       0       0       0       0       0       0       0
  4462 ;;      Temps:          0       0       0       0       0       0       0       0       0       0       0       0       
      +0       0       0       0       0       0       0       0       0       0       0       0       0       0       0
  4463 ;;      Totals:         0       0       0       0       0       0       0       0       0       0       0       0       
      +0       0       0       0       0       0       0       0       0       0       0       0       0       0       0
  4464 ;;Total ram usage:        0 bytes
  4465 ;; Hardware stack levels used:    1
  4466 ;; Hardware stack levels required when called:    1
  4467 ;; This function calls:
  4468 ;;		Absolute function
  4469 ;;		_IOCAF4_DefaultInterruptHandler
  4470 ;; This function is called by:
  4471 ;;		_PIN_MANAGER_IOC
  4472 ;; This function uses a non-reentrant model
  4473 ;;
  4474                           
  4475                           
  4476                           ;psect for function _IOCAF4_ISR
  4477  0402                     _IOCAF4_ISR:
  4478  0402                     i1l1462:	
  4479                           ;incstack = 0
  4480                           ; Regs used in _IOCAF4_ISR: [wreg+status,2+status,0+pclath+cstack]
  4481                           
  4482                           
  4483                           ;mcc_generated_files/pin_manager.c: 337:     if(IOCAF4_InterruptHandler)
  4484  0402  0020               	movlb	0	; select bank0
  4485  0403  0857               	movf	_IOCAF4_InterruptHandler,w
  4486  0404  0458               	iorwf	_IOCAF4_InterruptHandler+1,w
  4487  0405  1903               	btfsc	3,2
  4488  0406  2C08               	goto	u59_21
  4489  0407  2C09               	goto	u59_20
  4490  0408                     u59_21:
  4491  0408  2C0E               	goto	i1l1466
  4492  0409                     u59_20:
  4493  0409                     i1l1464:
  4494                           
  4495                           ;mcc_generated_files/pin_manager.c: 338:     {;mcc_generated_files/pin_manager.c: 339:  
      +                                 IOCAF4_InterruptHandler();
  4496  0409  0858               	movf	_IOCAF4_InterruptHandler+1,w
  4497  040A  008A               	movwf	10
  4498  040B  0857               	movf	_IOCAF4_InterruptHandler,w
  4499  040C  000A               	callw
  4500  040D  3184               	pagesel	$
  4501  040E                     i1l1466:
  4502                           
  4503                           ;mcc_generated_files/pin_manager.c: 341:     IOCAFbits.IOCAF4 = 0;
  4504  040E  0027               	movlb	7	; select bank7
  4505  040F  1213               	bcf	19,4	;volatile
  4506  0410                     i1l164:
  4507  0410  0008               	return
  4508  0411                     __end_of_IOCAF4_ISR:
  4509                           
  4510                           	psect	text25
  4511  0477                     __ptext25:	
  4512 ;; *************** function _IOCAF4_DefaultInterruptHandler *****************
  4513 ;; Defined at:
  4514 ;;		line 354 in file "mcc_generated_files/pin_manager.c"
  4515 ;; Parameters:    Size  Location     Type
  4516 ;;		None
  4517 ;; Auto vars:     Size  Location     Type
  4518 ;;		None
  4519 ;; Return value:  Size  Location     Type
  4520 ;;                  1    wreg      void 
  4521 ;; Registers used:
  4522 ;;		None
  4523 ;; Tracked objects:
  4524 ;;		On entry : 0/0
  4525 ;;		On exit  : 0/0
  4526 ;;		Unchanged: 0/0
  4527 ;; Data sizes:     COMMON   BANK0   BANK1   BANK2   BANK3   BANK4   BANK5   BANK6   BANK7   BANK8   BANK9  BANK10  BANK1
      +1  BANK12  BANK13  BANK14  BANK15  BANK16  BANK17  BANK18  BANK19  BANK20  BANK21  BANK22  BANK23  BANK24  BANK25
  4528 ;;      Params:         0       0       0       0       0       0       0       0       0       0       0       0       
      +0       0       0       0       0       0       0       0       0       0       0       0       0       0       0
  4529 ;;      Locals:         0       0       0       0       0       0       0       0       0       0       0       0       
      +0       0       0       0       0       0       0       0       0       0       0       0       0       0       0
  4530 ;;      Temps:          0       0       0       0       0       0       0       0       0       0       0       0       
      +0       0       0       0       0       0       0       0       0       0       0       0       0       0       0
  4531 ;;      Totals:         0       0       0       0       0       0       0       0       0       0       0       0       
      +0       0       0       0       0       0       0       0       0       0       0       0       0       0       0
  4532 ;;Total ram usage:        0 bytes
  4533 ;; Hardware stack levels used:    1
  4534 ;; This function calls:
  4535 ;;		Nothing
  4536 ;; This function is called by:
  4537 ;;		_PIN_MANAGER_Initialize
  4538 ;;		_IOCAF4_ISR
  4539 ;; This function uses a non-reentrant model
  4540 ;;
  4541                           
  4542                           
  4543                           ;psect for function _IOCAF4_DefaultInterruptHandler
  4544  0477                     _IOCAF4_DefaultInterruptHandler:
  4545  0477                     i1l170:	
  4546                           ;incstack = 0
  4547                           ; Regs used in _IOCAF4_DefaultInterruptHandler: []
  4548                           
  4549  0477  0008               	return
  4550  0478                     __end_of_IOCAF4_DefaultInterruptHandler:
  4551                           
  4552                           	psect	text26
  4553  03B5                     __ptext26:	
  4554 ;; *************** function _IOCAF3_ISR *****************
  4555 ;; Defined at:
  4556 ;;		line 301 in file "mcc_generated_files/pin_manager.c"
  4557 ;; Parameters:    Size  Location     Type
  4558 ;;		None
  4559 ;; Auto vars:     Size  Location     Type
  4560 ;;		None
  4561 ;; Return value:  Size  Location     Type
  4562 ;;                  1    wreg      void 
  4563 ;; Registers used:
  4564 ;;		wreg, fsr0l, fsr0h, status,2, status,0, pclath, cstack
  4565 ;; Tracked objects:
  4566 ;;		On entry : 0/0
  4567 ;;		On exit  : 0/0
  4568 ;;		Unchanged: 0/0
  4569 ;; Data sizes:     COMMON   BANK0   BANK1   BANK2   BANK3   BANK4   BANK5   BANK6   BANK7   BANK8   BANK9  BANK10  BANK1
      +1  BANK12  BANK13  BANK14  BANK15  BANK16  BANK17  BANK18  BANK19  BANK20  BANK21  BANK22  BANK23  BANK24  BANK25
  4570 ;;      Params:         0       0       0       0       0       0       0       0       0       0       0       0       
      +0       0       0       0       0       0       0       0       0       0       0       0       0       0       0
  4571 ;;      Locals:         0       0       0       0       0       0       0       0       0       0       0       0       
      +0       0       0       0       0       0       0       0       0       0       0       0       0       0       0
  4572 ;;      Temps:          0       0       0       0       0       0       0       0       0       0       0       0       
      +0       0       0       0       0       0       0       0       0       0       0       0       0       0       0
  4573 ;;      Totals:         0       0       0       0       0       0       0       0       0       0       0       0       
      +0       0       0       0       0       0       0       0       0       0       0       0       0       0       0
  4574 ;;Total ram usage:        0 bytes
  4575 ;; Hardware stack levels used:    1
  4576 ;; Hardware stack levels required when called:    4
  4577 ;; This function calls:
  4578 ;;		Absolute function
  4579 ;;		_IOCAF3_DefaultInterruptHandler
  4580 ;;		_basicShoot
  4581 ;; This function is called by:
  4582 ;;		_PIN_MANAGER_IOC
  4583 ;; This function uses a non-reentrant model
  4584 ;;
  4585                           
  4586                           
  4587                           ;psect for function _IOCAF3_ISR
  4588  03B5                     _IOCAF3_ISR:
  4589  03B5                     i1l1454:	
  4590                           ;incstack = 0
  4591                           ; Regs used in _IOCAF3_ISR: [wreg-fsr0h+status,2+status,0+pclath+cstack]
  4592                           
  4593                           
  4594                           ;mcc_generated_files/pin_manager.c: 306:     if(IOCAF3_InterruptHandler)
  4595  03B5  0020               	movlb	0	; select bank0
  4596  03B6  0859               	movf	_IOCAF3_InterruptHandler,w
  4597  03B7  045A               	iorwf	_IOCAF3_InterruptHandler+1,w
  4598  03B8  1903               	btfsc	3,2
  4599  03B9  2BBB               	goto	u58_21
  4600  03BA  2BBC               	goto	u58_20
  4601  03BB                     u58_21:
  4602  03BB  2BC1               	goto	i1l1458
  4603  03BC                     u58_20:
  4604  03BC                     i1l1456:
  4605                           
  4606                           ;mcc_generated_files/pin_manager.c: 307:     {;mcc_generated_files/pin_manager.c: 308:  
      +                                 IOCAF3_InterruptHandler();
  4607  03BC  085A               	movf	_IOCAF3_InterruptHandler+1,w
  4608  03BD  008A               	movwf	10
  4609  03BE  0859               	movf	_IOCAF3_InterruptHandler,w
  4610  03BF  000A               	callw
  4611  03C0  3183               	pagesel	$
  4612  03C1                     i1l1458:
  4613                           
  4614                           ;mcc_generated_files/pin_manager.c: 310:     basicShoot(1);
  4615  03C1  3001               	movlw	1
  4616  03C2  0020               	movlb	0	; select bank0
  4617  03C3  00A0               	movwf	basicShoot@direction
  4618  03C4  3000               	movlw	0
  4619  03C5  00A1               	movwf	basicShoot@direction+1
  4620  03C6  3180  203B  3183   	fcall	_basicShoot
  4621  03C9                     i1l1460:
  4622                           
  4623                           ;mcc_generated_files/pin_manager.c: 311:     IOCAFbits.IOCAF3 = 0;
  4624  03C9  0027               	movlb	7	; select bank7
  4625  03CA  1193               	bcf	19,3	;volatile
  4626  03CB                     i1l154:
  4627  03CB  0008               	return
  4628  03CC                     __end_of_IOCAF3_ISR:
  4629                           
  4630                           	psect	text27
  4631  0478                     __ptext27:	
  4632 ;; *************** function _IOCAF3_DefaultInterruptHandler *****************
  4633 ;; Defined at:
  4634 ;;		line 324 in file "mcc_generated_files/pin_manager.c"
  4635 ;; Parameters:    Size  Location     Type
  4636 ;;		None
  4637 ;; Auto vars:     Size  Location     Type
  4638 ;;		None
  4639 ;; Return value:  Size  Location     Type
  4640 ;;                  1    wreg      void 
  4641 ;; Registers used:
  4642 ;;		None
  4643 ;; Tracked objects:
  4644 ;;		On entry : 0/0
  4645 ;;		On exit  : 0/0
  4646 ;;		Unchanged: 0/0
  4647 ;; Data sizes:     COMMON   BANK0   BANK1   BANK2   BANK3   BANK4   BANK5   BANK6   BANK7   BANK8   BANK9  BANK10  BANK1
      +1  BANK12  BANK13  BANK14  BANK15  BANK16  BANK17  BANK18  BANK19  BANK20  BANK21  BANK22  BANK23  BANK24  BANK25
  4648 ;;      Params:         0       0       0       0       0       0       0       0       0       0       0       0       
      +0       0       0       0       0       0       0       0       0       0       0       0       0       0       0
  4649 ;;      Locals:         0       0       0       0       0       0       0       0       0       0       0       0       
      +0       0       0       0       0       0       0       0       0       0       0       0       0       0       0
  4650 ;;      Temps:          0       0       0       0       0       0       0       0       0       0       0       0       
      +0       0       0       0       0       0       0       0       0       0       0       0       0       0       0
  4651 ;;      Totals:         0       0       0       0       0       0       0       0       0       0       0       0       
      +0       0       0       0       0       0       0       0       0       0       0       0       0       0       0
  4652 ;;Total ram usage:        0 bytes
  4653 ;; Hardware stack levels used:    1
  4654 ;; This function calls:
  4655 ;;		Nothing
  4656 ;; This function is called by:
  4657 ;;		_PIN_MANAGER_Initialize
  4658 ;;		_IOCAF3_ISR
  4659 ;; This function uses a non-reentrant model
  4660 ;;
  4661                           
  4662                           
  4663                           ;psect for function _IOCAF3_DefaultInterruptHandler
  4664  0478                     _IOCAF3_DefaultInterruptHandler:
  4665  0478                     i1l160:	
  4666                           ;incstack = 0
  4667                           ; Regs used in _IOCAF3_DefaultInterruptHandler: []
  4668                           
  4669  0478  0008               	return
  4670  0479                     __end_of_IOCAF3_DefaultInterruptHandler:
  4671                           
  4672                           	psect	text28
  4673  0411                     __ptext28:	
  4674 ;; *************** function _IOCAF2_ISR *****************
  4675 ;; Defined at:
  4676 ;;		line 271 in file "mcc_generated_files/pin_manager.c"
  4677 ;; Parameters:    Size  Location     Type
  4678 ;;		None
  4679 ;; Auto vars:     Size  Location     Type
  4680 ;;		None
  4681 ;; Return value:  Size  Location     Type
  4682 ;;                  1    wreg      void 
  4683 ;; Registers used:
  4684 ;;		wreg, status,2, status,0, pclath, cstack
  4685 ;; Tracked objects:
  4686 ;;		On entry : 0/0
  4687 ;;		On exit  : 0/0
  4688 ;;		Unchanged: 0/0
  4689 ;; Data sizes:     COMMON   BANK0   BANK1   BANK2   BANK3   BANK4   BANK5   BANK6   BANK7   BANK8   BANK9  BANK10  BANK1
      +1  BANK12  BANK13  BANK14  BANK15  BANK16  BANK17  BANK18  BANK19  BANK20  BANK21  BANK22  BANK23  BANK24  BANK25
  4690 ;;      Params:         0       0       0       0       0       0       0       0       0       0       0       0       
      +0       0       0       0       0       0       0       0       0       0       0       0       0       0       0
  4691 ;;      Locals:         0       0       0       0       0       0       0       0       0       0       0       0       
      +0       0       0       0       0       0       0       0       0       0       0       0       0       0       0
  4692 ;;      Temps:          0       0       0       0       0       0       0       0       0       0       0       0       
      +0       0       0       0       0       0       0       0       0       0       0       0       0       0       0
  4693 ;;      Totals:         0       0       0       0       0       0       0       0       0       0       0       0       
      +0       0       0       0       0       0       0       0       0       0       0       0       0       0       0
  4694 ;;Total ram usage:        0 bytes
  4695 ;; Hardware stack levels used:    1
  4696 ;; Hardware stack levels required when called:    1
  4697 ;; This function calls:
  4698 ;;		Absolute function
  4699 ;;		_IOCAF2_DefaultInterruptHandler
  4700 ;; This function is called by:
  4701 ;;		_PIN_MANAGER_IOC
  4702 ;; This function uses a non-reentrant model
  4703 ;;
  4704                           
  4705                           
  4706                           ;psect for function _IOCAF2_ISR
  4707  0411                     _IOCAF2_ISR:
  4708  0411                     i1l1448:	
  4709                           ;incstack = 0
  4710                           ; Regs used in _IOCAF2_ISR: [wreg+status,2+status,0+pclath+cstack]
  4711                           
  4712                           
  4713                           ;mcc_generated_files/pin_manager.c: 276:     if(IOCAF2_InterruptHandler)
  4714  0411  0020               	movlb	0	; select bank0
  4715  0412  085B               	movf	_IOCAF2_InterruptHandler,w
  4716  0413  045C               	iorwf	_IOCAF2_InterruptHandler+1,w
  4717  0414  1903               	btfsc	3,2
  4718  0415  2C17               	goto	u57_21
  4719  0416  2C18               	goto	u57_20
  4720  0417                     u57_21:
  4721  0417  2C1D               	goto	i1l1452
  4722  0418                     u57_20:
  4723  0418                     i1l1450:
  4724                           
  4725                           ;mcc_generated_files/pin_manager.c: 277:     {;mcc_generated_files/pin_manager.c: 278:  
      +                                 IOCAF2_InterruptHandler();
  4726  0418  085C               	movf	_IOCAF2_InterruptHandler+1,w
  4727  0419  008A               	movwf	10
  4728  041A  085B               	movf	_IOCAF2_InterruptHandler,w
  4729  041B  000A               	callw
  4730  041C  3184               	pagesel	$
  4731  041D                     i1l1452:
  4732                           
  4733                           ;mcc_generated_files/pin_manager.c: 280:     IOCAFbits.IOCAF2 = 0;
  4734  041D  0027               	movlb	7	; select bank7
  4735  041E  1113               	bcf	19,2	;volatile
  4736  041F                     i1l144:
  4737  041F  0008               	return
  4738  0420                     __end_of_IOCAF2_ISR:
  4739                           
  4740                           	psect	text29
  4741  0479                     __ptext29:	
  4742 ;; *************** function _IOCAF2_DefaultInterruptHandler *****************
  4743 ;; Defined at:
  4744 ;;		line 293 in file "mcc_generated_files/pin_manager.c"
  4745 ;; Parameters:    Size  Location     Type
  4746 ;;		None
  4747 ;; Auto vars:     Size  Location     Type
  4748 ;;		None
  4749 ;; Return value:  Size  Location     Type
  4750 ;;                  1    wreg      void 
  4751 ;; Registers used:
  4752 ;;		None
  4753 ;; Tracked objects:
  4754 ;;		On entry : 0/0
  4755 ;;		On exit  : 0/0
  4756 ;;		Unchanged: 0/0
  4757 ;; Data sizes:     COMMON   BANK0   BANK1   BANK2   BANK3   BANK4   BANK5   BANK6   BANK7   BANK8   BANK9  BANK10  BANK1
      +1  BANK12  BANK13  BANK14  BANK15  BANK16  BANK17  BANK18  BANK19  BANK20  BANK21  BANK22  BANK23  BANK24  BANK25
  4758 ;;      Params:         0       0       0       0       0       0       0       0       0       0       0       0       
      +0       0       0       0       0       0       0       0       0       0       0       0       0       0       0
  4759 ;;      Locals:         0       0       0       0       0       0       0       0       0       0       0       0       
      +0       0       0       0       0       0       0       0       0       0       0       0       0       0       0
  4760 ;;      Temps:          0       0       0       0       0       0       0       0       0       0       0       0       
      +0       0       0       0       0       0       0       0       0       0       0       0       0       0       0
  4761 ;;      Totals:         0       0       0       0       0       0       0       0       0       0       0       0       
      +0       0       0       0       0       0       0       0       0       0       0       0       0       0       0
  4762 ;;Total ram usage:        0 bytes
  4763 ;; Hardware stack levels used:    1
  4764 ;; This function calls:
  4765 ;;		Nothing
  4766 ;; This function is called by:
  4767 ;;		_PIN_MANAGER_Initialize
  4768 ;;		_IOCAF2_ISR
  4769 ;; This function uses a non-reentrant model
  4770 ;;
  4771                           
  4772                           
  4773                           ;psect for function _IOCAF2_DefaultInterruptHandler
  4774  0479                     _IOCAF2_DefaultInterruptHandler:
  4775  0479                     i1l150:	
  4776                           ;incstack = 0
  4777                           ; Regs used in _IOCAF2_DefaultInterruptHandler: []
  4778                           
  4779  0479  0008               	return
  4780  047A                     __end_of_IOCAF2_DefaultInterruptHandler:
  4781                           
  4782                           	psect	text30
  4783  0420                     __ptext30:	
  4784 ;; *************** function _IOCAF1_ISR *****************
  4785 ;; Defined at:
  4786 ;;		line 241 in file "mcc_generated_files/pin_manager.c"
  4787 ;; Parameters:    Size  Location     Type
  4788 ;;		None
  4789 ;; Auto vars:     Size  Location     Type
  4790 ;;		None
  4791 ;; Return value:  Size  Location     Type
  4792 ;;                  1    wreg      void 
  4793 ;; Registers used:
  4794 ;;		wreg, status,2, status,0, pclath, cstack
  4795 ;; Tracked objects:
  4796 ;;		On entry : 0/0
  4797 ;;		On exit  : 0/0
  4798 ;;		Unchanged: 0/0
  4799 ;; Data sizes:     COMMON   BANK0   BANK1   BANK2   BANK3   BANK4   BANK5   BANK6   BANK7   BANK8   BANK9  BANK10  BANK1
      +1  BANK12  BANK13  BANK14  BANK15  BANK16  BANK17  BANK18  BANK19  BANK20  BANK21  BANK22  BANK23  BANK24  BANK25
  4800 ;;      Params:         0       0       0       0       0       0       0       0       0       0       0       0       
      +0       0       0       0       0       0       0       0       0       0       0       0       0       0       0
  4801 ;;      Locals:         0       0       0       0       0       0       0       0       0       0       0       0       
      +0       0       0       0       0       0       0       0       0       0       0       0       0       0       0
  4802 ;;      Temps:          0       0       0       0       0       0       0       0       0       0       0       0       
      +0       0       0       0       0       0       0       0       0       0       0       0       0       0       0
  4803 ;;      Totals:         0       0       0       0       0       0       0       0       0       0       0       0       
      +0       0       0       0       0       0       0       0       0       0       0       0       0       0       0
  4804 ;;Total ram usage:        0 bytes
  4805 ;; Hardware stack levels used:    1
  4806 ;; Hardware stack levels required when called:    1
  4807 ;; This function calls:
  4808 ;;		Absolute function
  4809 ;;		_IOCAF1_DefaultInterruptHandler
  4810 ;; This function is called by:
  4811 ;;		_PIN_MANAGER_IOC
  4812 ;; This function uses a non-reentrant model
  4813 ;;
  4814                           
  4815                           
  4816                           ;psect for function _IOCAF1_ISR
  4817  0420                     _IOCAF1_ISR:
  4818  0420                     i1l1442:	
  4819                           ;incstack = 0
  4820                           ; Regs used in _IOCAF1_ISR: [wreg+status,2+status,0+pclath+cstack]
  4821                           
  4822                           
  4823                           ;mcc_generated_files/pin_manager.c: 246:     if(IOCAF1_InterruptHandler)
  4824  0420  0020               	movlb	0	; select bank0
  4825  0421  085D               	movf	_IOCAF1_InterruptHandler,w
  4826  0422  045E               	iorwf	_IOCAF1_InterruptHandler+1,w
  4827  0423  1903               	btfsc	3,2
  4828  0424  2C26               	goto	u56_21
  4829  0425  2C27               	goto	u56_20
  4830  0426                     u56_21:
  4831  0426  2C2C               	goto	i1l1446
  4832  0427                     u56_20:
  4833  0427                     i1l1444:
  4834                           
  4835                           ;mcc_generated_files/pin_manager.c: 247:     {;mcc_generated_files/pin_manager.c: 248:  
      +                                 IOCAF1_InterruptHandler();
  4836  0427  085E               	movf	_IOCAF1_InterruptHandler+1,w
  4837  0428  008A               	movwf	10
  4838  0429  085D               	movf	_IOCAF1_InterruptHandler,w
  4839  042A  000A               	callw
  4840  042B  3184               	pagesel	$
  4841  042C                     i1l1446:
  4842                           
  4843                           ;mcc_generated_files/pin_manager.c: 250:     IOCAFbits.IOCAF1 = 0;
  4844  042C  0027               	movlb	7	; select bank7
  4845  042D  1093               	bcf	19,1	;volatile
  4846  042E                     i1l134:
  4847  042E  0008               	return
  4848  042F                     __end_of_IOCAF1_ISR:
  4849                           
  4850                           	psect	text31
  4851  047A                     __ptext31:	
  4852 ;; *************** function _IOCAF1_DefaultInterruptHandler *****************
  4853 ;; Defined at:
  4854 ;;		line 263 in file "mcc_generated_files/pin_manager.c"
  4855 ;; Parameters:    Size  Location     Type
  4856 ;;		None
  4857 ;; Auto vars:     Size  Location     Type
  4858 ;;		None
  4859 ;; Return value:  Size  Location     Type
  4860 ;;                  1    wreg      void 
  4861 ;; Registers used:
  4862 ;;		None
  4863 ;; Tracked objects:
  4864 ;;		On entry : 0/0
  4865 ;;		On exit  : 0/0
  4866 ;;		Unchanged: 0/0
  4867 ;; Data sizes:     COMMON   BANK0   BANK1   BANK2   BANK3   BANK4   BANK5   BANK6   BANK7   BANK8   BANK9  BANK10  BANK1
      +1  BANK12  BANK13  BANK14  BANK15  BANK16  BANK17  BANK18  BANK19  BANK20  BANK21  BANK22  BANK23  BANK24  BANK25
  4868 ;;      Params:         0       0       0       0       0       0       0       0       0       0       0       0       
      +0       0       0       0       0       0       0       0       0       0       0       0       0       0       0
  4869 ;;      Locals:         0       0       0       0       0       0       0       0       0       0       0       0       
      +0       0       0       0       0       0       0       0       0       0       0       0       0       0       0
  4870 ;;      Temps:          0       0       0       0       0       0       0       0       0       0       0       0       
      +0       0       0       0       0       0       0       0       0       0       0       0       0       0       0
  4871 ;;      Totals:         0       0       0       0       0       0       0       0       0       0       0       0       
      +0       0       0       0       0       0       0       0       0       0       0       0       0       0       0
  4872 ;;Total ram usage:        0 bytes
  4873 ;; Hardware stack levels used:    1
  4874 ;; This function calls:
  4875 ;;		Nothing
  4876 ;; This function is called by:
  4877 ;;		_PIN_MANAGER_Initialize
  4878 ;;		_IOCAF1_ISR
  4879 ;; This function uses a non-reentrant model
  4880 ;;
  4881                           
  4882                           
  4883                           ;psect for function _IOCAF1_DefaultInterruptHandler
  4884  047A                     _IOCAF1_DefaultInterruptHandler:
  4885  047A                     i1l140:	
  4886                           ;incstack = 0
  4887                           ; Regs used in _IOCAF1_DefaultInterruptHandler: []
  4888                           
  4889  047A  0008               	return
  4890  047B                     __end_of_IOCAF1_DefaultInterruptHandler:
  4891                           
  4892                           	psect	text32
  4893  03CC                     __ptext32:	
  4894 ;; *************** function _IOCAF0_ISR *****************
  4895 ;; Defined at:
  4896 ;;		line 210 in file "mcc_generated_files/pin_manager.c"
  4897 ;; Parameters:    Size  Location     Type
  4898 ;;		None
  4899 ;; Auto vars:     Size  Location     Type
  4900 ;;		None
  4901 ;; Return value:  Size  Location     Type
  4902 ;;                  1    wreg      void 
  4903 ;; Registers used:
  4904 ;;		wreg, fsr0l, fsr0h, status,2, status,0, pclath, cstack
  4905 ;; Tracked objects:
  4906 ;;		On entry : 0/0
  4907 ;;		On exit  : 0/0
  4908 ;;		Unchanged: 0/0
  4909 ;; Data sizes:     COMMON   BANK0   BANK1   BANK2   BANK3   BANK4   BANK5   BANK6   BANK7   BANK8   BANK9  BANK10  BANK1
      +1  BANK12  BANK13  BANK14  BANK15  BANK16  BANK17  BANK18  BANK19  BANK20  BANK21  BANK22  BANK23  BANK24  BANK25
  4910 ;;      Params:         0       0       0       0       0       0       0       0       0       0       0       0       
      +0       0       0       0       0       0       0       0       0       0       0       0       0       0       0
  4911 ;;      Locals:         0       0       0       0       0       0       0       0       0       0       0       0       
      +0       0       0       0       0       0       0       0       0       0       0       0       0       0       0
  4912 ;;      Temps:          0       0       0       0       0       0       0       0       0       0       0       0       
      +0       0       0       0       0       0       0       0       0       0       0       0       0       0       0
  4913 ;;      Totals:         0       0       0       0       0       0       0       0       0       0       0       0       
      +0       0       0       0       0       0       0       0       0       0       0       0       0       0       0
  4914 ;;Total ram usage:        0 bytes
  4915 ;; Hardware stack levels used:    1
  4916 ;; Hardware stack levels required when called:    4
  4917 ;; This function calls:
  4918 ;;		Absolute function
  4919 ;;		_IOCAF0_DefaultInterruptHandler
  4920 ;;		_basicShoot
  4921 ;; This function is called by:
  4922 ;;		_PIN_MANAGER_IOC
  4923 ;; This function uses a non-reentrant model
  4924 ;;
  4925                           
  4926                           
  4927                           ;psect for function _IOCAF0_ISR
  4928  03CC                     _IOCAF0_ISR:
  4929  03CC                     i1l1434:	
  4930                           ;incstack = 0
  4931                           ; Regs used in _IOCAF0_ISR: [wreg-fsr0h+status,2+status,0+pclath+cstack]
  4932                           
  4933                           
  4934                           ;mcc_generated_files/pin_manager.c: 215:     if(IOCAF0_InterruptHandler)
  4935  03CC  0020               	movlb	0	; select bank0
  4936  03CD  085F               	movf	_IOCAF0_InterruptHandler,w
  4937  03CE  0460               	iorwf	_IOCAF0_InterruptHandler+1,w
  4938  03CF  1903               	btfsc	3,2
  4939  03D0  2BD2               	goto	u55_21
  4940  03D1  2BD3               	goto	u55_20
  4941  03D2                     u55_21:
  4942  03D2  2BD8               	goto	i1l1438
  4943  03D3                     u55_20:
  4944  03D3                     i1l1436:
  4945                           
  4946                           ;mcc_generated_files/pin_manager.c: 216:     {;mcc_generated_files/pin_manager.c: 217:  
      +                                 IOCAF0_InterruptHandler();
  4947  03D3  0860               	movf	_IOCAF0_InterruptHandler+1,w
  4948  03D4  008A               	movwf	10
  4949  03D5  085F               	movf	_IOCAF0_InterruptHandler,w
  4950  03D6  000A               	callw
  4951  03D7  3183               	pagesel	$
  4952  03D8                     i1l1438:
  4953                           
  4954                           ;mcc_generated_files/pin_manager.c: 219:     basicShoot(0);
  4955  03D8  3000               	movlw	0
  4956  03D9  0020               	movlb	0	; select bank0
  4957  03DA  00A0               	movwf	basicShoot@direction
  4958  03DB  00A1               	movwf	basicShoot@direction+1
  4959  03DC  3180  203B  3183   	fcall	_basicShoot
  4960  03DF                     i1l1440:
  4961                           
  4962                           ;mcc_generated_files/pin_manager.c: 220:     IOCAFbits.IOCAF0 = 0;
  4963  03DF  0027               	movlb	7	; select bank7
  4964  03E0  1013               	bcf	19,0	;volatile
  4965  03E1                     i1l124:
  4966  03E1  0008               	return
  4967  03E2                     __end_of_IOCAF0_ISR:
  4968                           
  4969                           	psect	text33
  4970  003B                     __ptext33:	
  4971 ;; *************** function _basicShoot *****************
  4972 ;; Defined at:
  4973 ;;		line 71 in file "functions.c"
  4974 ;; Parameters:    Size  Location     Type
  4975 ;;  direction       2    0[BANK0 ] int 
  4976 ;; Auto vars:     Size  Location     Type
  4977 ;;  j               2    4[BANK0 ] int 
  4978 ;;  j               2    2[BANK0 ] int 
  4979 ;; Return value:  Size  Location     Type
  4980 ;;                  1    wreg      void 
  4981 ;; Registers used:
  4982 ;;		wreg, fsr0l, fsr0h, status,2, status,0, pclath, cstack
  4983 ;; Tracked objects:
  4984 ;;		On entry : 0/0
  4985 ;;		On exit  : 0/0
  4986 ;;		Unchanged: 0/0
  4987 ;; Data sizes:     COMMON   BANK0   BANK1   BANK2   BANK3   BANK4   BANK5   BANK6   BANK7   BANK8   BANK9  BANK10  BANK1
      +1  BANK12  BANK13  BANK14  BANK15  BANK16  BANK17  BANK18  BANK19  BANK20  BANK21  BANK22  BANK23  BANK24  BANK25
  4988 ;;      Params:         0       2       0       0       0       0       0       0       0       0       0       0       
      +0       0       0       0       0       0       0       0       0       0       0       0       0       0       0
  4989 ;;      Locals:         0       4       0       0       0       0       0       0       0       0       0       0       
      +0       0       0       0       0       0       0       0       0       0       0       0       0       0       0
  4990 ;;      Temps:          1       0       0       0       0       0       0       0       0       0       0       0       
      +0       0       0       0       0       0       0       0       0       0       0       0       0       0       0
  4991 ;;      Totals:         1       6       0       0       0       0       0       0       0       0       0       0       
      +0       0       0       0       0       0       0       0       0       0       0       0       0       0       0
  4992 ;;Total ram usage:        7 bytes
  4993 ;; Hardware stack levels used:    1
  4994 ;; Hardware stack levels required when called:    3
  4995 ;; This function calls:
  4996 ;;		i1_LCDGoto
  4997 ;;		i1_LCDPutChar
  4998 ;;		i1_LCDPutStr
  4999 ;; This function is called by:
  5000 ;;		_IOCAF0_ISR
  5001 ;;		_IOCAF3_ISR
  5002 ;; This function uses a non-reentrant model
  5003 ;;
  5004                           
  5005                           
  5006                           ;psect for function _basicShoot
  5007  003B                     _basicShoot:
  5008  003B                     i1l1312:	
  5009                           ;incstack = 0
  5010                           ; Regs used in _basicShoot: [wreg-fsr0h+status,2+status,0+pclath+cstack]
  5011                           
  5012                           
  5013                           ;functions.c: 71: void basicShoot(int direction);functions.c: 84:     {;functions.c: 86:
      +                                   if (direction == 0)
  5014  003B  0020               	movlb	0	; select bank0
  5015  003C  0820               	movf	basicShoot@direction,w
  5016  003D  0421               	iorwf	basicShoot@direction+1,w
  5017  003E  1D03               	btfss	3,2
  5018  003F  2841               	goto	u48_21
  5019  0040  2842               	goto	u48_20
  5020  0041                     u48_21:
  5021  0041  287A               	goto	i1l1326
  5022  0042                     u48_20:
  5023  0042                     i1l1314:
  5024                           
  5025                           ;functions.c: 87:         {;functions.c: 88:             int j = 1;
  5026  0042  3001               	movlw	1
  5027  0043  00A2               	movwf	basicShoot@j
  5028  0044  3000               	movlw	0
  5029  0045  00A3               	movwf	basicShoot@j+1
  5030                           
  5031                           ;functions.c: 90:             while(j<=14)
  5032  0046  286B               	goto	i1l1324
  5033  0047                     i1l1316:
  5034                           
  5035                           ;functions.c: 92:             {;functions.c: 93:                 LCDGoto(j,0);
  5036  0047  01F7               	clrf	i1LCDGoto@ln
  5037  0048  0020               	movlb	0	; select bank0
  5038  0049  0822               	movf	basicShoot@j,w
  5039  004A  3182  2238  3180   	fcall	i1_LCDGoto
  5040                           
  5041                           ;functions.c: 94:                 LCDPutChar(2);
  5042  004D  3002               	movlw	2
  5043  004E  3183  2368  3180   	fcall	i1_LCDPutChar
  5044  0051                     i1l1318:
  5045                           
  5046                           ;functions.c: 95:                 _delay((unsigned long)((200)*(500000/4000.0)));
  5047  0051  3021               	movlw	33
  5048  0052  00FD               	movwf	??_basicShoot
  5049  0053  3076               	movlw	118
  5050  0054                     u81_27:
  5051  0054  0B89               	decfsz	9,f
  5052  0055  2854               	goto	u81_27
  5053  0056  0BFD               	decfsz	??_basicShoot,f
  5054  0057  2854               	goto	u81_27
  5055  0058  3200               	nop2
  5056  0059                     i1l1320:
  5057                           
  5058                           ;functions.c: 96:                 j++;
  5059  0059  3001               	movlw	1
  5060  005A  0020               	movlb	0	; select bank0
  5061  005B  07A2               	addwf	basicShoot@j,f
  5062  005C  3000               	movlw	0
  5063  005D  3DA3               	addwfc	basicShoot@j+1,f
  5064                           
  5065                           ;functions.c: 97:                 LCDGoto(j-1,0);
  5066  005E  01F7               	clrf	i1LCDGoto@ln
  5067  005F  0822               	movf	basicShoot@j,w
  5068  0060  3EFF               	addlw	255
  5069  0061  3182  2238  3180   	fcall	i1_LCDGoto
  5070  0064                     i1l1322:
  5071                           
  5072                           ;functions.c: 98:                 LCDPutStr(" ");
  5073  0064  30F1               	movlw	low ((STR_1+15)| (0+32768))
  5074  0065  00F7               	movwf	i1LCDPutStr@str
  5075  0066  3083               	movlw	high ((STR_1+15)| (0+32768))
  5076  0067  00F8               	movwf	i1LCDPutStr@str+1
  5077  0068  3182  225F  3180   	fcall	i1_LCDPutStr
  5078  006B                     i1l1324:
  5079                           
  5080                           ;functions.c: 90:             while(j<=14)
  5081  006B  0020               	movlb	0	; select bank0
  5082  006C  0823               	movf	basicShoot@j+1,w
  5083  006D  3A80               	xorlw	128
  5084  006E  00FD               	movwf	??_basicShoot
  5085  006F  3080               	movlw	128
  5086  0070  027D               	subwf	??_basicShoot,w
  5087  0071  1D03               	skipz
  5088  0072  2875               	goto	u49_25
  5089  0073  300F               	movlw	15
  5090  0074  0222               	subwf	basicShoot@j,w
  5091  0075                     u49_25:
  5092  0075  1C03               	skipc
  5093  0076  2878               	goto	u49_21
  5094  0077  2879               	goto	u49_20
  5095  0078                     u49_21:
  5096  0078  2847               	goto	i1l1316
  5097  0079                     u49_20:
  5098  0079  28B1               	goto	i1l288
  5099  007A                     i1l1326:
  5100                           
  5101                           ;functions.c: 103:         {;functions.c: 104:             int j=14;
  5102  007A  300E               	movlw	14
  5103  007B  00A4               	movwf	basicShoot@j_491
  5104  007C  3000               	movlw	0
  5105  007D  00A5               	movwf	basicShoot@j_491+1
  5106                           
  5107                           ;functions.c: 106:             while(j>=1)
  5108  007E  28A3               	goto	i1l1336
  5109  007F                     i1l1328:
  5110                           
  5111                           ;functions.c: 108:             {;functions.c: 109:                 LCDGoto(j,0);
  5112  007F  01F7               	clrf	i1LCDGoto@ln
  5113  0080  0020               	movlb	0	; select bank0
  5114  0081  0824               	movf	basicShoot@j_491,w
  5115  0082  3182  2238  3180   	fcall	i1_LCDGoto
  5116                           
  5117                           ;functions.c: 110:                 LCDPutChar(2);
  5118  0085  3002               	movlw	2
  5119  0086  3183  2368  3180   	fcall	i1_LCDPutChar
  5120  0089                     i1l1330:
  5121                           
  5122                           ;functions.c: 111:                 _delay((unsigned long)((200)*(500000/4000.0)));
  5123  0089  3021               	movlw	33
  5124  008A  00FD               	movwf	??_basicShoot
  5125  008B  3076               	movlw	118
  5126  008C                     u82_27:
  5127  008C  0B89               	decfsz	9,f
  5128  008D  288C               	goto	u82_27
  5129  008E  0BFD               	decfsz	??_basicShoot,f
  5130  008F  288C               	goto	u82_27
  5131  0090  3200               	nop2
  5132  0091                     i1l1332:
  5133                           
  5134                           ;functions.c: 112:                 j--;
  5135  0091  30FF               	movlw	255
  5136  0092  0020               	movlb	0	; select bank0
  5137  0093  07A4               	addwf	basicShoot@j_491,f
  5138  0094  30FF               	movlw	255
  5139  0095  3DA5               	addwfc	basicShoot@j_491+1,f
  5140                           
  5141                           ;functions.c: 113:                 LCDGoto(j+1,0);
  5142  0096  01F7               	clrf	i1LCDGoto@ln
  5143  0097  0824               	movf	basicShoot@j_491,w
  5144  0098  3E01               	addlw	1
  5145  0099  3182  2238  3180   	fcall	i1_LCDGoto
  5146  009C                     i1l1334:
  5147                           
  5148                           ;functions.c: 114:                 LCDPutStr(" ");
  5149  009C  30F1               	movlw	low ((STR_1+15)| (0+32768))
  5150  009D  00F7               	movwf	i1LCDPutStr@str
  5151  009E  3083               	movlw	high ((STR_1+15)| (0+32768))
  5152  009F  00F8               	movwf	i1LCDPutStr@str+1
  5153  00A0  3182  225F  3180   	fcall	i1_LCDPutStr
  5154  00A3                     i1l1336:
  5155                           
  5156                           ;functions.c: 106:             while(j>=1)
  5157  00A3  0020               	movlb	0	; select bank0
  5158  00A4  0825               	movf	basicShoot@j_491+1,w
  5159  00A5  3A80               	xorlw	128
  5160  00A6  00FD               	movwf	??_basicShoot
  5161  00A7  3080               	movlw	128
  5162  00A8  027D               	subwf	??_basicShoot,w
  5163  00A9  1D03               	skipz
  5164  00AA  28AD               	goto	u50_25
  5165  00AB  3001               	movlw	1
  5166  00AC  0224               	subwf	basicShoot@j_491,w
  5167  00AD                     u50_25:
  5168  00AD  1803               	skipnc
  5169  00AE  28B0               	goto	u50_21
  5170  00AF  28B1               	goto	u50_20
  5171  00B0                     u50_21:
  5172  00B0  287F               	goto	i1l1328
  5173  00B1                     u50_20:
  5174  00B1                     i1l288:
  5175  00B1  0008               	return
  5176  00B2                     __end_of_basicShoot:
  5177                           
  5178                           	psect	text34
  5179  025F                     __ptext34:	
  5180 ;; *************** function i1_LCDPutStr *****************
  5181 ;; Defined at:
  5182 ;;		line 131 in file "lcd.c"
  5183 ;; Parameters:    Size  Location     Type
  5184 ;;  str             2    7[COMMON] PTR const unsigned char 
  5185 ;;		 -> STR_4(2), STR_3(2), STR_2(17), STR_1(17), 
  5186 ;; Auto vars:     Size  Location     Type
  5187 ;;  i               1   12[COMMON] unsigned char 
  5188 ;; Return value:  Size  Location     Type
  5189 ;;                  1    wreg      void 
  5190 ;; Registers used:
  5191 ;;		wreg, fsr0l, fsr0h, status,2, status,0, pclath, cstack
  5192 ;; Tracked objects:
  5193 ;;		On entry : 0/0
  5194 ;;		On exit  : 0/0
  5195 ;;		Unchanged: 0/0
  5196 ;; Data sizes:     COMMON   BANK0   BANK1   BANK2   BANK3   BANK4   BANK5   BANK6   BANK7   BANK8   BANK9  BANK10  BANK1
      +1  BANK12  BANK13  BANK14  BANK15  BANK16  BANK17  BANK18  BANK19  BANK20  BANK21  BANK22  BANK23  BANK24  BANK25
  5197 ;;      Params:         2       0       0       0       0       0       0       0       0       0       0       0       
      +0       0       0       0       0       0       0       0       0       0       0       0       0       0       0
  5198 ;;      Locals:         1       0       0       0       0       0       0       0       0       0       0       0       
      +0       0       0       0       0       0       0       0       0       0       0       0       0       0       0
  5199 ;;      Temps:          3       0       0       0       0       0       0       0       0       0       0       0       
      +0       0       0       0       0       0       0       0       0       0       0       0       0       0       0
  5200 ;;      Totals:         6       0       0       0       0       0       0       0       0       0       0       0       
      +0       0       0       0       0       0       0       0       0       0       0       0       0       0       0
  5201 ;;Total ram usage:        6 bytes
  5202 ;; Hardware stack levels used:    1
  5203 ;; Hardware stack levels required when called:    2
  5204 ;; This function calls:
  5205 ;;		i1_LCDPutChar
  5206 ;; This function is called by:
  5207 ;;		_basicShoot
  5208 ;; This function uses a non-reentrant model
  5209 ;;
  5210                           
  5211                           
  5212                           ;psect for function i1_LCDPutStr
  5213  025F                     i1_LCDPutStr:
  5214  025F                     i1l1278:	
  5215                           ;incstack = 0
  5216                           ; Regs used in i1_LCDPutStr: [wreg-fsr0h+status,2+status,0+pclath+cstack]
  5217                           
  5218                           
  5219                           ;lcd.c: 131: void LCDPutStr(const char *str);lcd.c: 132: {;lcd.c: 133:   uint8_t i = 0;
  5220  025F  01FC               	clrf	i1LCDPutStr@i
  5221                           
  5222                           ;lcd.c: 136:   while (str[i])
  5223  0260  2A74               	goto	i1l1284
  5224  0261                     i1l1280:
  5225                           
  5226                           ;lcd.c: 137:   {;lcd.c: 139:     LCDPutChar(str[i++]);
  5227  0261  0878               	movf	i1LCDPutStr@str+1,w
  5228  0262  00FA               	movwf	??i1_LCDPutStr+1
  5229  0263  0877               	movf	i1LCDPutStr@str,w
  5230  0264  00F9               	movwf	??i1_LCDPutStr
  5231  0265  087C               	movf	i1LCDPutStr@i,w
  5232  0266  0779               	addwf	??i1_LCDPutStr,w
  5233  0267  0084               	movwf	4
  5234  0268  087A               	movf	??i1_LCDPutStr+1,w
  5235  0269  1803               	skipnc
  5236  026A  0A7A               	incf	??i1_LCDPutStr+1,w
  5237  026B  0085               	movwf	5
  5238  026C  0800               	movf	0,w	;code access
  5239  026D  3183  2368  3182   	fcall	i1_LCDPutChar
  5240  0270                     i1l1282:
  5241  0270  3001               	movlw	1
  5242  0271  00F9               	movwf	??i1_LCDPutStr
  5243  0272  0879               	movf	??i1_LCDPutStr,w
  5244  0273  07FC               	addwf	i1LCDPutStr@i,f
  5245  0274                     i1l1284:
  5246                           
  5247                           ;lcd.c: 136:   while (str[i])
  5248  0274  0878               	movf	i1LCDPutStr@str+1,w
  5249  0275  00FA               	movwf	??i1_LCDPutStr+1
  5250  0276  0877               	movf	i1LCDPutStr@str,w
  5251  0277  00F9               	movwf	??i1_LCDPutStr
  5252  0278  087C               	movf	i1LCDPutStr@i,w
  5253  0279  0779               	addwf	??i1_LCDPutStr,w
  5254  027A  0084               	movwf	4
  5255  027B  087A               	movf	??i1_LCDPutStr+1,w
  5256  027C  1803               	skipnc
  5257  027D  0A7A               	incf	??i1_LCDPutStr+1,w
  5258  027E  0085               	movwf	5
  5259  027F  0012               	moviw fsr0++
  5260  0280  1D03               	btfss	3,2
  5261  0281  2A83               	goto	u44_21
  5262  0282  2A84               	goto	u44_20
  5263  0283                     u44_21:
  5264  0283  2A61               	goto	i1l1280
  5265  0284                     u44_20:
  5266  0284                     i1l244:
  5267  0284  0008               	return
  5268  0285                     __end_ofi1_LCDPutStr:
  5269                           
  5270                           	psect	text35
  5271  0368                     __ptext35:	
  5272 ;; *************** function i1_LCDPutChar *****************
  5273 ;; Defined at:
  5274 ;;		line 101 in file "lcd.c"
  5275 ;; Parameters:    Size  Location     Type
  5276 ;;  ch              1    wreg     unsigned char 
  5277 ;; Auto vars:     Size  Location     Type
  5278 ;;  ch              1    6[COMMON] unsigned char 
  5279 ;; Return value:  Size  Location     Type
  5280 ;;                  1    wreg      void 
  5281 ;; Registers used:
  5282 ;;		wreg, status,2, status,0, pclath, cstack
  5283 ;; Tracked objects:
  5284 ;;		On entry : 0/0
  5285 ;;		On exit  : 0/0
  5286 ;;		Unchanged: 0/0
  5287 ;; Data sizes:     COMMON   BANK0   BANK1   BANK2   BANK3   BANK4   BANK5   BANK6   BANK7   BANK8   BANK9  BANK10  BANK1
      +1  BANK12  BANK13  BANK14  BANK15  BANK16  BANK17  BANK18  BANK19  BANK20  BANK21  BANK22  BANK23  BANK24  BANK25
  5288 ;;      Params:         0       0       0       0       0       0       0       0       0       0       0       0       
      +0       0       0       0       0       0       0       0       0       0       0       0       0       0       0
  5289 ;;      Locals:         1       0       0       0       0       0       0       0       0       0       0       0       
      +0       0       0       0       0       0       0       0       0       0       0       0       0       0       0
  5290 ;;      Temps:          2       0       0       0       0       0       0       0       0       0       0       0       
      +0       0       0       0       0       0       0       0       0       0       0       0       0       0       0
  5291 ;;      Totals:         3       0       0       0       0       0       0       0       0       0       0       0       
      +0       0       0       0       0       0       0       0       0       0       0       0       0       0       0
  5292 ;;Total ram usage:        3 bytes
  5293 ;; Hardware stack levels used:    1
  5294 ;; Hardware stack levels required when called:    1
  5295 ;; This function calls:
  5296 ;;		i1_LCDWriteNibble
  5297 ;; This function is called by:
  5298 ;;		_basicShoot
  5299 ;;		i1_LCDPutStr
  5300 ;; This function uses a non-reentrant model
  5301 ;;
  5302                           
  5303                           
  5304                           ;psect for function i1_LCDPutChar
  5305  0368                     i1_LCDPutChar:
  5306                           
  5307                           ;incstack = 0
  5308                           ; Regs used in i1_LCDPutChar: [wreg+status,2+status,0+pclath+cstack]
  5309                           ;i1LCDPutChar@ch stored from wreg
  5310  0368  00F6               	movwf	i1LCDPutChar@ch
  5311  0369                     i1l1242:
  5312                           
  5313                           ;lcd.c: 101: void LCDPutChar(uint8_t ch);lcd.c: 102: {;lcd.c: 103:   _delay((unsigned lo
      +                          ng)((5)*(500000/4000.0)));
  5314  0369  30D0               	movlw	208
  5315  036A                     u83_27:
  5316  036A  0B89               	decfsz	9,f
  5317  036B  2B6A               	goto	u83_27
  5318  036C  0000               	nop
  5319  036D                     i1l1244:
  5320                           
  5321                           ;lcd.c: 106:   LCDWriteNibble(ch, 1);
  5322  036D  01F0               	clrf	i1LCDWriteNibble@rs
  5323  036E  0AF0               	incf	i1LCDWriteNibble@rs,f
  5324  036F  0876               	movf	i1LCDPutChar@ch,w
  5325  0370  3183  230B  3183   	fcall	i1_LCDWriteNibble
  5326  0373                     i1l1246:
  5327                           
  5328                           ;lcd.c: 109:   ch = (uint8_t)(ch << 4);
  5329  0373  0876               	movf	i1LCDPutChar@ch,w
  5330  0374  00F4               	movwf	??i1_LCDPutChar
  5331  0375  3003               	movlw	3
  5332  0376                     u40_25:
  5333  0376  35F4               	lslf	??i1_LCDPutChar,f
  5334  0377  3EFF               	addlw	-1
  5335  0378  1D03               	skipz
  5336  0379  2B76               	goto	u40_25
  5337  037A  3574               	lslf	??i1_LCDPutChar,w
  5338  037B  00F5               	movwf	??i1_LCDPutChar+1
  5339  037C  0875               	movf	??i1_LCDPutChar+1,w
  5340  037D  00F6               	movwf	i1LCDPutChar@ch
  5341  037E                     i1l1248:
  5342                           
  5343                           ;lcd.c: 112:   LCDWriteNibble(ch, 1);
  5344  037E  01F0               	clrf	i1LCDWriteNibble@rs
  5345  037F  0AF0               	incf	i1LCDWriteNibble@rs,f
  5346  0380  0876               	movf	i1LCDPutChar@ch,w
  5347  0381  3183  230B  3183   	fcall	i1_LCDWriteNibble
  5348  0384                     i1l235:
  5349  0384  0008               	return
  5350  0385                     __end_ofi1_LCDPutChar:
  5351                           
  5352                           	psect	text36
  5353  0238                     __ptext36:	
  5354 ;; *************** function i1_LCDGoto *****************
  5355 ;; Defined at:
  5356 ;;		line 143 in file "lcd.c"
  5357 ;; Parameters:    Size  Location     Type
  5358 ;;  pos             1    wreg     unsigned char 
  5359 ;;  ln              1    7[COMMON] unsigned char 
  5360 ;; Auto vars:     Size  Location     Type
  5361 ;;  pos             1   10[COMMON] unsigned char 
  5362 ;; Return value:  Size  Location     Type
  5363 ;;                  1    wreg      void 
  5364 ;; Registers used:
  5365 ;;		wreg, status,2, status,0, pclath, cstack
  5366 ;; Tracked objects:
  5367 ;;		On entry : 0/0
  5368 ;;		On exit  : 0/0
  5369 ;;		Unchanged: 0/0
  5370 ;; Data sizes:     COMMON   BANK0   BANK1   BANK2   BANK3   BANK4   BANK5   BANK6   BANK7   BANK8   BANK9  BANK10  BANK1
      +1  BANK12  BANK13  BANK14  BANK15  BANK16  BANK17  BANK18  BANK19  BANK20  BANK21  BANK22  BANK23  BANK24  BANK25
  5371 ;;      Params:         1       0       0       0       0       0       0       0       0       0       0       0       
      +0       0       0       0       0       0       0       0       0       0       0       0       0       0       0
  5372 ;;      Locals:         3       0       0       0       0       0       0       0       0       0       0       0       
      +0       0       0       0       0       0       0       0       0       0       0       0       0       0       0
  5373 ;;      Temps:          0       0       0       0       0       0       0       0       0       0       0       0       
      +0       0       0       0       0       0       0       0       0       0       0       0       0       0       0
  5374 ;;      Totals:         4       0       0       0       0       0       0       0       0       0       0       0       
      +0       0       0       0       0       0       0       0       0       0       0       0       0       0       0
  5375 ;;Total ram usage:        4 bytes
  5376 ;; Hardware stack levels used:    1
  5377 ;; Hardware stack levels required when called:    2
  5378 ;; This function calls:
  5379 ;;		i1_LCDPutCmd
  5380 ;; This function is called by:
  5381 ;;		_basicShoot
  5382 ;; This function uses a non-reentrant model
  5383 ;;
  5384                           
  5385                           
  5386                           ;psect for function i1_LCDGoto
  5387  0238                     i1_LCDGoto:
  5388                           
  5389                           ;incstack = 0
  5390                           ; Regs used in i1_LCDGoto: [wreg+status,2+status,0+pclath+cstack]
  5391                           ;i1LCDGoto@pos stored from wreg
  5392  0238  00FA               	movwf	i1LCDGoto@pos
  5393  0239                     i1l1286:
  5394                           
  5395                           ;lcd.c: 143: void LCDGoto(uint8_t pos, uint8_t ln);lcd.c: 144: {;lcd.c: 146:   if ((ln >
      +                           (2 - 1)) || (pos > (16 - 1)))
  5396  0239  3002               	movlw	2
  5397  023A  0277               	subwf	i1LCDGoto@ln,w
  5398  023B  1803               	skipnc
  5399  023C  2A3E               	goto	u45_21
  5400  023D  2A3F               	goto	u45_20
  5401  023E                     u45_21:
  5402  023E  2A5E               	goto	i1l250
  5403  023F                     u45_20:
  5404  023F                     i1l1288:
  5405  023F  3010               	movlw	16
  5406  0240  027A               	subwf	i1LCDGoto@pos,w
  5407  0241  1C03               	skipc
  5408  0242  2A44               	goto	u46_21
  5409  0243  2A45               	goto	u46_20
  5410  0244                     u46_21:
  5411  0244  2A46               	goto	i1l1290
  5412  0245                     u46_20:
  5413  0245  2A5E               	goto	i1l250
  5414  0246                     i1l1290:
  5415                           
  5416                           ;lcd.c: 153:   LCDPutCmd((ln == 1) ? (0xC0 | pos) : (0x80 | pos));
  5417  0246  0377               	decf	i1LCDGoto@ln,w
  5418  0247  1903               	btfsc	3,2
  5419  0248  2A4A               	goto	u47_21
  5420  0249  2A4B               	goto	u47_20
  5421  024A                     u47_21:
  5422  024A  2A51               	goto	i1l1294
  5423  024B                     u47_20:
  5424  024B                     i1l1292:
  5425  024B  3080               	movlw	128
  5426  024C  047A               	iorwf	i1LCDGoto@pos,w
  5427  024D  00F8               	movwf	i1_LCDGoto$468
  5428  024E  3000               	movlw	0
  5429  024F  00F9               	movwf	i1_LCDGoto$468+1
  5430  0250  2A56               	goto	i1l1296
  5431  0251                     i1l1294:
  5432  0251  30C0               	movlw	192
  5433  0252  047A               	iorwf	i1LCDGoto@pos,w
  5434  0253  00F8               	movwf	i1_LCDGoto$468
  5435  0254  3000               	movlw	0
  5436  0255  00F9               	movwf	i1_LCDGoto$468+1
  5437  0256                     i1l1296:
  5438  0256  0878               	movf	i1_LCDGoto$468,w
  5439  0257  3183  232B  3182   	fcall	i1_LCDPutCmd
  5440  025A                     i1l1298:
  5441                           
  5442                           ;lcd.c: 156:   _delay((unsigned long)((5)*(500000/4000.0)));
  5443  025A  30D0               	movlw	208
  5444  025B                     u84_27:
  5445  025B  0B89               	decfsz	9,f
  5446  025C  2A5B               	goto	u84_27
  5447  025D  0000               	nop
  5448  025E                     i1l250:
  5449  025E  0008               	return
  5450  025F                     __end_ofi1_LCDGoto:
  5451                           
  5452                           	psect	text37
  5453  032B                     __ptext37:	
  5454 ;; *************** function i1_LCDPutCmd *****************
  5455 ;; Defined at:
  5456 ;;		line 115 in file "lcd.c"
  5457 ;; Parameters:    Size  Location     Type
  5458 ;;  ch              1    wreg     unsigned char 
  5459 ;; Auto vars:     Size  Location     Type
  5460 ;;  ch              1    6[COMMON] unsigned char 
  5461 ;; Return value:  Size  Location     Type
  5462 ;;                  1    wreg      void 
  5463 ;; Registers used:
  5464 ;;		wreg, status,2, status,0, pclath, cstack
  5465 ;; Tracked objects:
  5466 ;;		On entry : 0/0
  5467 ;;		On exit  : 0/0
  5468 ;;		Unchanged: 0/0
  5469 ;; Data sizes:     COMMON   BANK0   BANK1   BANK2   BANK3   BANK4   BANK5   BANK6   BANK7   BANK8   BANK9  BANK10  BANK1
      +1  BANK12  BANK13  BANK14  BANK15  BANK16  BANK17  BANK18  BANK19  BANK20  BANK21  BANK22  BANK23  BANK24  BANK25
  5470 ;;      Params:         0       0       0       0       0       0       0       0       0       0       0       0       
      +0       0       0       0       0       0       0       0       0       0       0       0       0       0       0
  5471 ;;      Locals:         1       0       0       0       0       0       0       0       0       0       0       0       
      +0       0       0       0       0       0       0       0       0       0       0       0       0       0       0
  5472 ;;      Temps:          2       0       0       0       0       0       0       0       0       0       0       0       
      +0       0       0       0       0       0       0       0       0       0       0       0       0       0       0
  5473 ;;      Totals:         3       0       0       0       0       0       0       0       0       0       0       0       
      +0       0       0       0       0       0       0       0       0       0       0       0       0       0       0
  5474 ;;Total ram usage:        3 bytes
  5475 ;; Hardware stack levels used:    1
  5476 ;; Hardware stack levels required when called:    1
  5477 ;; This function calls:
  5478 ;;		i1_LCDWriteNibble
  5479 ;; This function is called by:
  5480 ;;		i1_LCDGoto
  5481 ;; This function uses a non-reentrant model
  5482 ;;
  5483                           
  5484                           
  5485                           ;psect for function i1_LCDPutCmd
  5486  032B                     i1_LCDPutCmd:
  5487                           
  5488                           ;incstack = 0
  5489                           ; Regs used in i1_LCDPutCmd: [wreg+status,2+status,0+pclath+cstack]
  5490                           ;i1LCDPutCmd@ch stored from wreg
  5491  032B  00F6               	movwf	i1LCDPutCmd@ch
  5492  032C                     i1l1250:
  5493                           
  5494                           ;lcd.c: 115: void LCDPutCmd(uint8_t ch);lcd.c: 116: {;lcd.c: 117:   _delay((unsigned lon
      +                          g)((5)*(500000/4000.0)));
  5495  032C  30D0               	movlw	208
  5496  032D                     u85_27:
  5497  032D  0B89               	decfsz	9,f
  5498  032E  2B2D               	goto	u85_27
  5499  032F  0000               	nop
  5500  0330                     i1l1252:
  5501                           
  5502                           ;lcd.c: 120:   LCDWriteNibble(ch, 0);
  5503  0330  01F0               	clrf	i1LCDWriteNibble@rs
  5504  0331  0876               	movf	i1LCDPutCmd@ch,w
  5505  0332  3183  230B  3183   	fcall	i1_LCDWriteNibble
  5506  0335                     i1l1254:
  5507                           
  5508                           ;lcd.c: 123:   ch = (uint8_t)(ch << 4);
  5509  0335  0876               	movf	i1LCDPutCmd@ch,w
  5510  0336  00F4               	movwf	??i1_LCDPutCmd
  5511  0337  3003               	movlw	3
  5512  0338                     u41_25:
  5513  0338  35F4               	lslf	??i1_LCDPutCmd,f
  5514  0339  3EFF               	addlw	-1
  5515  033A  1D03               	skipz
  5516  033B  2B38               	goto	u41_25
  5517  033C  3574               	lslf	??i1_LCDPutCmd,w
  5518  033D  00F5               	movwf	??i1_LCDPutCmd+1
  5519  033E  0875               	movf	??i1_LCDPutCmd+1,w
  5520  033F  00F6               	movwf	i1LCDPutCmd@ch
  5521  0340                     i1l1256:
  5522                           
  5523                           ;lcd.c: 125:   _delay((unsigned long)((1)*(500000/4000.0)));
  5524  0340  3029               	movlw	41
  5525  0341                     u86_27:
  5526  0341  0B89               	decfsz	9,f
  5527  0342  2B41               	goto	u86_27
  5528  0343  3200               	nop2
  5529  0344                     i1l1258:
  5530                           
  5531                           ;lcd.c: 128:   LCDWriteNibble(ch, 0);
  5532  0344  01F0               	clrf	i1LCDWriteNibble@rs
  5533  0345  0876               	movf	i1LCDPutCmd@ch,w
  5534  0346  3183  230B  3183   	fcall	i1_LCDWriteNibble
  5535  0349                     i1l238:
  5536  0349  0008               	return
  5537  034A                     __end_ofi1_LCDPutCmd:
  5538                           
  5539                           	psect	text38
  5540  030B                     __ptext38:	
  5541 ;; *************** function i1_LCDWriteNibble *****************
  5542 ;; Defined at:
  5543 ;;		line 74 in file "lcd.c"
  5544 ;; Parameters:    Size  Location     Type
  5545 ;;  ch              1    wreg     unsigned char 
  5546 ;;  rs              1    0[COMMON] unsigned char 
  5547 ;; Auto vars:     Size  Location     Type
  5548 ;;  ch              1    3[COMMON] unsigned char 
  5549 ;; Return value:  Size  Location     Type
  5550 ;;                  1    wreg      void 
  5551 ;; Registers used:
  5552 ;;		wreg, status,2, status,0
  5553 ;; Tracked objects:
  5554 ;;		On entry : 0/0
  5555 ;;		On exit  : 0/0
  5556 ;;		Unchanged: 0/0
  5557 ;; Data sizes:     COMMON   BANK0   BANK1   BANK2   BANK3   BANK4   BANK5   BANK6   BANK7   BANK8   BANK9  BANK10  BANK1
      +1  BANK12  BANK13  BANK14  BANK15  BANK16  BANK17  BANK18  BANK19  BANK20  BANK21  BANK22  BANK23  BANK24  BANK25
  5558 ;;      Params:         1       0       0       0       0       0       0       0       0       0       0       0       
      +0       0       0       0       0       0       0       0       0       0       0       0       0       0       0
  5559 ;;      Locals:         1       0       0       0       0       0       0       0       0       0       0       0       
      +0       0       0       0       0       0       0       0       0       0       0       0       0       0       0
  5560 ;;      Temps:          2       0       0       0       0       0       0       0       0       0       0       0       
      +0       0       0       0       0       0       0       0       0       0       0       0       0       0       0
  5561 ;;      Totals:         4       0       0       0       0       0       0       0       0       0       0       0       
      +0       0       0       0       0       0       0       0       0       0       0       0       0       0       0
  5562 ;;Total ram usage:        4 bytes
  5563 ;; Hardware stack levels used:    1
  5564 ;; This function calls:
  5565 ;;		Nothing
  5566 ;; This function is called by:
  5567 ;;		i1_LCDPutChar
  5568 ;;		i1_LCDPutCmd
  5569 ;; This function uses a non-reentrant model
  5570 ;;
  5571                           
  5572                           
  5573                           ;psect for function i1_LCDWriteNibble
  5574  030B                     i1_LCDWriteNibble:
  5575                           
  5576                           ;incstack = 0
  5577                           ; Regs used in i1_LCDWriteNibble: [wreg+status,2+status,0]
  5578                           ;i1LCDWriteNibble@ch stored from wreg
  5579  030B  00F3               	movwf	i1LCDWriteNibble@ch
  5580  030C                     i1l1214:
  5581                           
  5582                           ;lcd.c: 74: void LCDWriteNibble(uint8_t ch, uint8_t rs);lcd.c: 75: {;lcd.c: 77:   ch = (
      +                          ch >> 4);
  5583  030C  0873               	movf	i1LCDWriteNibble@ch,w
  5584  030D  00F1               	movwf	??i1_LCDWriteNibble
  5585  030E  3004               	movlw	4
  5586  030F                     u38_25:
  5587  030F  36F1               	lsrf	??i1_LCDWriteNibble,f
  5588  0310  0B89               	decfsz	9,f
  5589  0311  2B0F               	goto	u38_25
  5590  0312  0871               	movf	??i1_LCDWriteNibble,w
  5591  0313  00F2               	movwf	??i1_LCDWriteNibble+1
  5592  0314  0872               	movf	??i1_LCDWriteNibble+1,w
  5593  0315  00F3               	movwf	i1LCDWriteNibble@ch
  5594  0316                     i1l1216:
  5595                           
  5596                           ;lcd.c: 80:   ch = (ch & 0x0F);
  5597  0316  0873               	movf	i1LCDWriteNibble@ch,w
  5598  0317  390F               	andlw	15
  5599  0318  00F1               	movwf	??i1_LCDWriteNibble
  5600  0319  0871               	movf	??i1_LCDWriteNibble,w
  5601  031A  00F3               	movwf	i1LCDWriteNibble@ch
  5602  031B                     i1l1218:
  5603                           
  5604                           ;lcd.c: 83:   PORTB = (PORTB & 0xF0);
  5605  031B  0020               	movlb	0	; select bank0
  5606  031C  080D               	movf	13,w	;volatile
  5607  031D  39F0               	andlw	240
  5608  031E  008D               	movwf	13	;volatile
  5609                           
  5610                           ;lcd.c: 86:   PORTB = (PORTB | ch);
  5611  031F  080D               	movf	13,w	;volatile
  5612  0320  0473               	iorwf	i1LCDWriteNibble@ch,w
  5613  0321  008D               	movwf	13	;volatile
  5614  0322                     i1l1220:
  5615                           
  5616                           ;lcd.c: 89:   PORTBbits.RB5 = rs;
  5617  0322  0C70               	rrf	i1LCDWriteNibble@rs,w
  5618  0323  1C03               	skipc
  5619  0324  128D               	bcf	13,5	;volatile
  5620  0325  1803               	skipnc
  5621  0326  168D               	bsf	13,5	;volatile
  5622  0327                     i1l1222:
  5623                           
  5624                           ;lcd.c: 92:   PORTBbits.RB6 = 0;
  5625  0327  130D               	bcf	13,6	;volatile
  5626  0328                     i1l1224:
  5627                           
  5628                           ;lcd.c: 95:   PORTBbits.RB4 = 1;
  5629  0328  160D               	bsf	13,4	;volatile
  5630  0329                     i1l1226:
  5631                           
  5632                           ;lcd.c: 98:   PORTBbits.RB4 = 0;
  5633  0329  120D               	bcf	13,4	;volatile
  5634  032A                     i1l232:
  5635  032A  0008               	return
  5636  032B                     __end_ofi1_LCDWriteNibble:
  5637                           
  5638                           	psect	text39
  5639  047B                     __ptext39:	
  5640 ;; *************** function _IOCAF0_DefaultInterruptHandler *****************
  5641 ;; Defined at:
  5642 ;;		line 233 in file "mcc_generated_files/pin_manager.c"
  5643 ;; Parameters:    Size  Location     Type
  5644 ;;		None
  5645 ;; Auto vars:     Size  Location     Type
  5646 ;;		None
  5647 ;; Return value:  Size  Location     Type
  5648 ;;                  1    wreg      void 
  5649 ;; Registers used:
  5650 ;;		None
  5651 ;; Tracked objects:
  5652 ;;		On entry : 0/0
  5653 ;;		On exit  : 0/0
  5654 ;;		Unchanged: 0/0
  5655 ;; Data sizes:     COMMON   BANK0   BANK1   BANK2   BANK3   BANK4   BANK5   BANK6   BANK7   BANK8   BANK9  BANK10  BANK1
      +1  BANK12  BANK13  BANK14  BANK15  BANK16  BANK17  BANK18  BANK19  BANK20  BANK21  BANK22  BANK23  BANK24  BANK25
  5656 ;;      Params:         0       0       0       0       0       0       0       0       0       0       0       0       
      +0       0       0       0       0       0       0       0       0       0       0       0       0       0       0
  5657 ;;      Locals:         0       0       0       0       0       0       0       0       0       0       0       0       
      +0       0       0       0       0       0       0       0       0       0       0       0       0       0       0
  5658 ;;      Temps:          0       0       0       0       0       0       0       0       0       0       0       0       
      +0       0       0       0       0       0       0       0       0       0       0       0       0       0       0
  5659 ;;      Totals:         0       0       0       0       0       0       0       0       0       0       0       0       
      +0       0       0       0       0       0       0       0       0       0       0       0       0       0       0
  5660 ;;Total ram usage:        0 bytes
  5661 ;; Hardware stack levels used:    1
  5662 ;; This function calls:
  5663 ;;		Nothing
  5664 ;; This function is called by:
  5665 ;;		_PIN_MANAGER_Initialize
  5666 ;;		_IOCAF0_ISR
  5667 ;; This function uses a non-reentrant model
  5668 ;;
  5669                           
  5670                           
  5671                           ;psect for function _IOCAF0_DefaultInterruptHandler
  5672  047B                     _IOCAF0_DefaultInterruptHandler:
  5673  047B                     i1l130:	
  5674                           ;incstack = 0
  5675                           ; Regs used in _IOCAF0_DefaultInterruptHandler: []
  5676                           
  5677  047B  0008               	return
  5678  047C                     __end_of_IOCAF0_DefaultInterruptHandler:
  5679  007E                     btemp	set	126	;btemp
  5680  007E                     int$flags	set	126
  5681  007E                     wtemp0	set	126
  5682                           
  5683                           	psect	config
  5684                           
  5685                           ;Config register CONFIG1 @ 0x8007
  5686                           ;	Oscillator Selection Bits
  5687                           ;	FOSC = INTOSC, INTOSC oscillator: I/O function on CLKIN pin
  5688                           ;	Watchdog Timer Enable
  5689                           ;	WDTE = OFF, WDT disabled
  5690                           ;	Power-up Timer Enable
  5691                           ;	PWRTE = OFF, PWRT disabled
  5692                           ;	MCLR Pin Function Select
  5693                           ;	MCLRE = ON, MCLR/VPP pin function is MCLR
  5694                           ;	Flash Program Memory Code Protection
  5695                           ;	CP = OFF, Program memory code protection is disabled
  5696                           ;	Brown-out Reset Enable
  5697                           ;	BOREN = ON, Brown-out Reset enabled
  5698                           ;	Clock Out Enable
  5699                           ;	CLKOUTEN = OFF, CLKOUT function is disabled. I/O or oscillator function on the CLKOUT 
      +                          pin
  5700                           ;	Internal/External Switchover Mode
  5701                           ;	IESO = ON, Internal/External Switchover Mode is enabled
  5702                           ;	Fail-Safe Clock Monitor Enable
  5703                           ;	FCMEN = ON, Fail-Safe Clock Monitor is enabled
  5704  8007                     	org	32775
  5705  8007  3FE4               	dw	16356
  5706                           
  5707                           ;Config register CONFIG2 @ 0x8008
  5708                           ;	Flash Memory Self-Write Protection
  5709                           ;	WRT = OFF, Write protection off
  5710                           ;	Peripheral Pin Select one-way control
  5711                           ;	PPS1WAY = ON, The PPSLOCK bit cannot be cleared once it is set by software
  5712                           ;	Zero-cross detect disable
  5713                           ;	ZCDDIS = ON, Zero-cross detect circuit is disabled at POR and can be enabled with ZCDS
      +                          EN bit.
  5714                           ;	Phase Lock Loop enable
  5715                           ;	PLLEN = ON, 4x PLL is always enabled
  5716                           ;	Stack Overflow/Underflow Reset Enable
  5717                           ;	STVREN = ON, Stack Overflow or Underflow will cause a Reset
  5718                           ;	Brown-out Reset Voltage Selection
  5719                           ;	BORV = LO, Brown-out Reset Voltage (Vbor), low trip point selected.
  5720                           ;	Low-Power Brown Out Reset
  5721                           ;	LPBOR = OFF, Low-Power BOR is disabled
  5722                           ;	Low-Voltage Programming Enable
  5723                           ;	LVP = OFF, High-voltage on MCLR/VPP must be used for programming
  5724  8008                     	org	32776
  5725  8008  1FFF               	dw	8191

Data Sizes:
    Strings     17
    Constant    0
    Data        32
    BSS         0
    Persistent  44
    Stack       0

Auto Spaces:
    Space          Size  Autos    Used
    COMMON           14     14      14
    BANK0            80     53      73
    BANK1            80      0      24
    BANK2            80      0       0
    BANK3            80      0       0
    BANK4            80      0       0
    BANK5            80      0       0
    BANK6            80      0       0
    BANK7            80      0       0
    BANK8            80      0       0
    BANK9            80      0       0
    BANK10           80      0       0
    BANK11           80      0       0
    BANK12           80      0       0
    BANK13           80      0       0
    BANK14           80      0       0
    BANK15           80      0       0
    BANK16           80      0       0
    BANK17           80      0       0
    BANK18           80      0       0
    BANK19           80      0       0
    BANK20           80      0       0
    BANK21           80      0       0
    BANK22           80      0       0
    BANK23           80      0       0
    BANK24           80      0       0
    BANK25           32      0       0

Pointer List with Targets:

    createCustomCharacter@Pattern	PTR unsigned char  size(1) Largest target is 8
		 -> main@Pattern4(BANK0[8]), main@Pattern3(BANK0[8]), main@Pattern2(BANK0[8]), main@Pattern1(BANK0[8]), 

    LCDPutStr@str	PTR const unsigned char  size(2) Largest target is 17
		 -> STR_4(CODE[2]), STR_3(CODE[2]), STR_2(CODE[17]), STR_1(CODE[17]), 

    IOCAF5_SetInterruptHandler@InterruptHandler	PTR FTN()void  size(2) Largest target is 1
		 -> IOCAF5_DefaultInterruptHandler(), 

    IOCAF5_InterruptHandler	PTR FTN()void  size(2) Largest target is 1
		 -> Absolute function(), IOCAF5_DefaultInterruptHandler(), 

    IOCAF4_SetInterruptHandler@InterruptHandler	PTR FTN()void  size(2) Largest target is 1
		 -> IOCAF4_DefaultInterruptHandler(), 

    IOCAF4_InterruptHandler	PTR FTN()void  size(2) Largest target is 1
		 -> Absolute function(), IOCAF4_DefaultInterruptHandler(), 

    IOCAF3_SetInterruptHandler@InterruptHandler	PTR FTN()void  size(2) Largest target is 1
		 -> IOCAF3_DefaultInterruptHandler(), 

    IOCAF3_InterruptHandler	PTR FTN()void  size(2) Largest target is 1
		 -> Absolute function(), IOCAF3_DefaultInterruptHandler(), 

    IOCAF2_SetInterruptHandler@InterruptHandler	PTR FTN()void  size(2) Largest target is 1
		 -> IOCAF2_DefaultInterruptHandler(), 

    IOCAF2_InterruptHandler	PTR FTN()void  size(2) Largest target is 1
		 -> Absolute function(), IOCAF2_DefaultInterruptHandler(), 

    IOCAF1_SetInterruptHandler@InterruptHandler	PTR FTN()void  size(2) Largest target is 1
		 -> IOCAF1_DefaultInterruptHandler(), 

    IOCAF1_InterruptHandler	PTR FTN()void  size(2) Largest target is 1
		 -> Absolute function(), IOCAF1_DefaultInterruptHandler(), 

    IOCAF0_SetInterruptHandler@InterruptHandler	PTR FTN()void  size(2) Largest target is 1
		 -> IOCAF0_DefaultInterruptHandler(), 

    IOCAF0_InterruptHandler	PTR FTN()void  size(2) Largest target is 1
		 -> Absolute function(), IOCAF0_DefaultInterruptHandler(), 


Critical Paths under _main in COMMON

    None.

Critical Paths under _INTERRUPT_InterruptManager in COMMON

    _IOCAF3_ISR->_basicShoot
    _IOCAF0_ISR->_basicShoot
    _basicShoot->i1_LCDPutStr
    i1_LCDPutStr->i1_LCDPutChar
    i1_LCDPutChar->i1_LCDWriteNibble
    i1_LCDGoto->i1_LCDPutCmd
    i1_LCDPutCmd->i1_LCDWriteNibble

Critical Paths under _main in BANK0

    _LCDClear->_LCDPutStr
    _LCDPutStr->_LCDPutChar
    _LCDGoto->_LCDPutCmd
    _createCustomCharacter->_LCDPutChar
    _createCustomCharacter->_LCDPutCmd
    _LCDPutChar->_LCDWriteNibble
    _PIN_MANAGER_Initialize->_IOCAF0_SetInterruptHandler
    _PIN_MANAGER_Initialize->_IOCAF1_SetInterruptHandler
    _PIN_MANAGER_Initialize->_IOCAF2_SetInterruptHandler
    _PIN_MANAGER_Initialize->_IOCAF3_SetInterruptHandler
    _PIN_MANAGER_Initialize->_IOCAF4_SetInterruptHandler
    _PIN_MANAGER_Initialize->_IOCAF5_SetInterruptHandler
    _LCD_Initialize->_LCDPutCmd
    _LCDPutCmd->_LCDWriteNibble

Critical Paths under _INTERRUPT_InterruptManager in BANK0

    _IOCAF3_ISR->_basicShoot
    _IOCAF0_ISR->_basicShoot

Critical Paths under _main in BANK1

    None.

Critical Paths under _INTERRUPT_InterruptManager in BANK1

    None.

Critical Paths under _main in BANK2

    None.

Critical Paths under _INTERRUPT_InterruptManager in BANK2

    None.

Critical Paths under _main in BANK3

    None.

Critical Paths under _INTERRUPT_InterruptManager in BANK3

    None.

Critical Paths under _main in BANK4

    None.

Critical Paths under _INTERRUPT_InterruptManager in BANK4

    None.

Critical Paths under _main in BANK5

    None.

Critical Paths under _INTERRUPT_InterruptManager in BANK5

    None.

Critical Paths under _main in BANK6

    None.

Critical Paths under _INTERRUPT_InterruptManager in BANK6

    None.

Critical Paths under _main in BANK7

    None.

Critical Paths under _INTERRUPT_InterruptManager in BANK7

    None.

Critical Paths under _main in BANK8

    None.

Critical Paths under _INTERRUPT_InterruptManager in BANK8

    None.

Critical Paths under _main in BANK9

    None.

Critical Paths under _INTERRUPT_InterruptManager in BANK9

    None.

Critical Paths under _main in BANK10

    None.

Critical Paths under _INTERRUPT_InterruptManager in BANK10

    None.

Critical Paths under _main in BANK11

    None.

Critical Paths under _INTERRUPT_InterruptManager in BANK11

    None.

Critical Paths under _main in BANK12

    None.

Critical Paths under _INTERRUPT_InterruptManager in BANK12

    None.

Critical Paths under _main in BANK13

    None.

Critical Paths under _INTERRUPT_InterruptManager in BANK13

    None.

Critical Paths under _main in BANK14

    None.

Critical Paths under _INTERRUPT_InterruptManager in BANK14

    None.

Critical Paths under _main in BANK15

    None.

Critical Paths under _INTERRUPT_InterruptManager in BANK15

    None.

Critical Paths under _main in BANK16

    None.

Critical Paths under _INTERRUPT_InterruptManager in BANK16

    None.

Critical Paths under _main in BANK17

    None.

Critical Paths under _INTERRUPT_InterruptManager in BANK17

    None.

Critical Paths under _main in BANK18

    None.

Critical Paths under _INTERRUPT_InterruptManager in BANK18

    None.

Critical Paths under _main in BANK19

    None.

Critical Paths under _INTERRUPT_InterruptManager in BANK19

    None.

Critical Paths under _main in BANK20

    None.

Critical Paths under _INTERRUPT_InterruptManager in BANK20

    None.

Critical Paths under _main in BANK21

    None.

Critical Paths under _INTERRUPT_InterruptManager in BANK21

    None.

Critical Paths under _main in BANK22

    None.

Critical Paths under _INTERRUPT_InterruptManager in BANK22

    None.

Critical Paths under _main in BANK23

    None.

Critical Paths under _INTERRUPT_InterruptManager in BANK23

    None.

Critical Paths under _main in BANK24

    None.

Critical Paths under _INTERRUPT_InterruptManager in BANK24

    None.

Critical Paths under _main in BANK25

    None.

Critical Paths under _INTERRUPT_InterruptManager in BANK25

    None.

Call Graph Tables:

 ---------------------------------------------------------------------------------
 (Depth) Function   	        Calls       Base Space   Used Autos Params    Refs
 ---------------------------------------------------------------------------------
 (0) _main                                                33    33      0    6078
                                             20 BANK0     33    33      0
                     _LCD_Initialize
                  _SYSTEM_Initialize
              _createCustomCharacter
                         _idleScreen
 ---------------------------------------------------------------------------------
 (1) _idleScreen                                           0     0      0    3462
                           _LCDClear
                            _LCDGoto
                         _LCDPutChar
 ---------------------------------------------------------------------------------
 (2) _LCDClear                                             0     0      0    1902
                            _LCDGoto
                          _LCDPutStr
 ---------------------------------------------------------------------------------
 (3) _LCDPutStr                                            6     4      2     803
                                             14 BANK0      6     4      2
                         _LCDPutChar
 ---------------------------------------------------------------------------------
 (2) _LCDGoto                                              4     3      1    1099
                                             14 BANK0      4     3      1
                          _LCDPutCmd
 ---------------------------------------------------------------------------------
 (1) _createCustomCharacter                                5     4      1    1471
                                             14 BANK0      5     4      1
                         _LCDPutChar
                          _LCDPutCmd
 ---------------------------------------------------------------------------------
 (2) _LCDPutChar                                           3     3      0     461
                                             11 BANK0      3     3      0
                     _LCDWriteNibble
 ---------------------------------------------------------------------------------
 (1) _SYSTEM_Initialize                                    0     0      0     588
              _OSCILLATOR_Initialize
             _PIN_MANAGER_Initialize
                     _WDT_Initialize
 ---------------------------------------------------------------------------------
 (2) _WDT_Initialize                                       0     0      0       0
 ---------------------------------------------------------------------------------
 (2) _PIN_MANAGER_Initialize                               0     0      0     588
         _IOCAF0_SetInterruptHandler
         _IOCAF1_SetInterruptHandler
         _IOCAF2_SetInterruptHandler
         _IOCAF3_SetInterruptHandler
         _IOCAF4_SetInterruptHandler
         _IOCAF5_SetInterruptHandler
 ---------------------------------------------------------------------------------
 (3) _IOCAF5_SetInterruptHandler                           2     0      2      98
                                              7 BANK0      2     0      2
 ---------------------------------------------------------------------------------
 (3) _IOCAF4_SetInterruptHandler                           2     0      2      98
                                              7 BANK0      2     0      2
 ---------------------------------------------------------------------------------
 (3) _IOCAF3_SetInterruptHandler                           2     0      2      98
                                              7 BANK0      2     0      2
 ---------------------------------------------------------------------------------
 (3) _IOCAF2_SetInterruptHandler                           2     0      2      98
                                              7 BANK0      2     0      2
 ---------------------------------------------------------------------------------
 (3) _IOCAF1_SetInterruptHandler                           2     0      2      98
                                              7 BANK0      2     0      2
 ---------------------------------------------------------------------------------
 (3) _IOCAF0_SetInterruptHandler                           2     0      2      98
                                              7 BANK0      2     0      2
 ---------------------------------------------------------------------------------
 (2) _OSCILLATOR_Initialize                                0     0      0       0
 ---------------------------------------------------------------------------------
 (1) _LCD_Initialize                                       1     1      0     461
                                             14 BANK0      1     1      0
                          _LCDPutCmd
 ---------------------------------------------------------------------------------
 (3) _LCDPutCmd                                            3     3      0     461
                                             11 BANK0      3     3      0
                     _LCDWriteNibble
 ---------------------------------------------------------------------------------
 (3) _LCDWriteNibble                                       4     3      1     394
                                              7 BANK0      4     3      1
 ---------------------------------------------------------------------------------
 Estimated maximum stack depth 3
 ---------------------------------------------------------------------------------
 (Depth) Function   	        Calls       Base Space   Used Autos Params    Refs
 ---------------------------------------------------------------------------------
 (6) _INTERRUPT_InterruptManager                           1     1      0    2946
                                              6 BANK0      1     1      0
                    _PIN_MANAGER_IOC
 ---------------------------------------------------------------------------------
 (7) _PIN_MANAGER_IOC                                      0     0      0    2946
                         _IOCAF0_ISR
                         _IOCAF1_ISR
                         _IOCAF2_ISR
                         _IOCAF3_ISR
                         _IOCAF4_ISR
                         _IOCAF5_ISR
 ---------------------------------------------------------------------------------
 (8) _IOCAF5_ISR                                           0     0      0       0
                   Absolute function *
     _IOCAF5_DefaultInterruptHandler *
 ---------------------------------------------------------------------------------
 (9) _IOCAF5_DefaultInterruptHandler                       0     0      0       0
 ---------------------------------------------------------------------------------
 (8) _IOCAF4_ISR                                           0     0      0       0
                   Absolute function *
     _IOCAF4_DefaultInterruptHandler *
 ---------------------------------------------------------------------------------
 (9) _IOCAF4_DefaultInterruptHandler                       0     0      0       0
 ---------------------------------------------------------------------------------
 (8) _IOCAF3_ISR                                           0     0      0    1473
                   Absolute function *
     _IOCAF3_DefaultInterruptHandler *
                         _basicShoot
 ---------------------------------------------------------------------------------
 (9) _IOCAF3_DefaultInterruptHandler                       0     0      0       0
 ---------------------------------------------------------------------------------
 (8) _IOCAF2_ISR                                           0     0      0       0
                   Absolute function *
     _IOCAF2_DefaultInterruptHandler *
 ---------------------------------------------------------------------------------
 (9) _IOCAF2_DefaultInterruptHandler                       0     0      0       0
 ---------------------------------------------------------------------------------
 (8) _IOCAF1_ISR                                           0     0      0       0
                   Absolute function *
     _IOCAF1_DefaultInterruptHandler *
 ---------------------------------------------------------------------------------
 (9) _IOCAF1_DefaultInterruptHandler                       0     0      0       0
 ---------------------------------------------------------------------------------
 (8) _IOCAF0_ISR                                           0     0      0    1473
                   Absolute function *
     _IOCAF0_DefaultInterruptHandler *
                         _basicShoot
 ---------------------------------------------------------------------------------
 (9) _basicShoot                                           7     5      2    1473
                                             13 COMMON     1     1      0
                                              0 BANK0      6     4      2
                          i1_LCDGoto
                       i1_LCDPutChar
                        i1_LCDPutStr
 ---------------------------------------------------------------------------------
 (10) i1_LCDPutStr                                         6     4      2     403
                                              7 COMMON     6     4      2
                       i1_LCDPutChar
 ---------------------------------------------------------------------------------
 (11) i1_LCDPutChar                                        3     3      0     261
                                              4 COMMON     3     3      0
                   i1_LCDWriteNibble
 ---------------------------------------------------------------------------------
 (10) i1_LCDGoto                                           4     3      1     499
                                              7 COMMON     4     3      1
                        i1_LCDPutCmd
 ---------------------------------------------------------------------------------
 (11) i1_LCDPutCmd                                         3     3      0     261
                                              4 COMMON     3     3      0
                   i1_LCDWriteNibble
 ---------------------------------------------------------------------------------
 (12) i1_LCDWriteNibble                                    4     3      1     194
                                              0 COMMON     4     3      1
 ---------------------------------------------------------------------------------
 (9) _IOCAF0_DefaultInterruptHandler                       0     0      0       0
 ---------------------------------------------------------------------------------
 (9) Absolute function(Fake)                               0     0      0       0
 ---------------------------------------------------------------------------------
 Estimated maximum stack depth 12
 ---------------------------------------------------------------------------------

 Call Graph Graphs:

 _main (ROOT)
   _LCD_Initialize
     _LCDPutCmd
       _LCDWriteNibble
   _SYSTEM_Initialize
     _OSCILLATOR_Initialize
     _PIN_MANAGER_Initialize
       _IOCAF0_SetInterruptHandler
       _IOCAF1_SetInterruptHandler
       _IOCAF2_SetInterruptHandler
       _IOCAF3_SetInterruptHandler
       _IOCAF4_SetInterruptHandler
       _IOCAF5_SetInterruptHandler
     _WDT_Initialize
   _createCustomCharacter
     _LCDPutChar
       _LCDWriteNibble
     _LCDPutCmd
       _LCDWriteNibble
   _idleScreen
     _LCDClear
       _LCDGoto
         _LCDPutCmd
           _LCDWriteNibble
       _LCDPutStr
         _LCDPutChar
           _LCDWriteNibble
     _LCDGoto
       _LCDPutCmd
         _LCDWriteNibble
     _LCDPutChar
       _LCDWriteNibble

 _INTERRUPT_InterruptManager (ROOT)
   _PIN_MANAGER_IOC
     _IOCAF0_ISR
       Absolute function(Fake) *
       _IOCAF0_DefaultInterruptHandler *
       _basicShoot *
         i1_LCDGoto
           i1_LCDPutCmd
             i1_LCDWriteNibble
         i1_LCDPutChar
           i1_LCDWriteNibble
         i1_LCDPutStr
           i1_LCDPutChar
             i1_LCDWriteNibble
     _IOCAF1_ISR
       Absolute function(Fake) *
       _IOCAF1_DefaultInterruptHandler *
     _IOCAF2_ISR
       Absolute function(Fake) *
       _IOCAF2_DefaultInterruptHandler *
     _IOCAF3_ISR
       Absolute function(Fake) *
       _IOCAF3_DefaultInterruptHandler *
       _basicShoot *
         i1_LCDGoto
           i1_LCDPutCmd
             i1_LCDWriteNibble
         i1_LCDPutChar
           i1_LCDWriteNibble
         i1_LCDPutStr
           i1_LCDPutChar
             i1_LCDWriteNibble
     _IOCAF4_ISR
       Absolute function(Fake) *
       _IOCAF4_DefaultInterruptHandler *
     _IOCAF5_ISR
       Absolute function(Fake) *
       _IOCAF5_DefaultInterruptHandler *

 Address spaces:
Name               Size   Autos  Total    Cost      Usage
BIGRAM             7F0      0       0       0        0.0%
NULL                 0      0       0       0        0.0%
CODE                 0      0       0       0        0.0%
BITCOMMON            E      0       0       1        0.0%
BITSFR0              0      0       0       1        0.0%
SFR0                 0      0       0       1        0.0%
COMMON               E      E       E       2      100.0%
BITSFR1              0      0       0       2        0.0%
SFR1                 0      0       0       2        0.0%
BITSFR2              0      0       0       3        0.0%
SFR2                 0      0       0       3        0.0%
STACK                0      0       0       3        0.0%
BITBANK0            50      0       0       4        0.0%
BITSFR3              0      0       0       4        0.0%
SFR3                 0      0       0       4        0.0%
BANK0               50     35      49       5       91.2%
BITSFR4              0      0       0       5        0.0%
SFR4                 0      0       0       5        0.0%
BITBANK1            50      0       0       6        0.0%
BITSFR5              0      0       0       6        0.0%
SFR5                 0      0       0       6        0.0%
BANK1               50      0      18       7       30.0%
BITSFR6              0      0       0       7        0.0%
SFR6                 0      0       0       7        0.0%
BITBANK2            50      0       0       8        0.0%
BITSFR7              0      0       0       8        0.0%
SFR7                 0      0       0       8        0.0%
BANK2               50      0       0       9        0.0%
BITSFR8              0      0       0       9        0.0%
SFR8                 0      0       0       9        0.0%
BITBANK3            50      0       0      10        0.0%
BITSFR9              0      0       0      10        0.0%
SFR9                 0      0       0      10        0.0%
BANK3               50      0       0      11        0.0%
BITSFR10             0      0       0      11        0.0%
SFR10                0      0       0      11        0.0%
BITBANK4            50      0       0      12        0.0%
BITSFR11             0      0       0      12        0.0%
SFR11                0      0       0      12        0.0%
BANK4               50      0       0      13        0.0%
BITSFR12             0      0       0      13        0.0%
SFR12                0      0       0      13        0.0%
BITSFR13             0      0       0      14        0.0%
SFR13                0      0       0      14        0.0%
ABS                  0      0      6F      14        0.0%
BITBANK5            50      0       0      15        0.0%
BITSFR14             0      0       0      15        0.0%
SFR14                0      0       0      15        0.0%
BANK5               50      0       0      16        0.0%
BITSFR15             0      0       0      16        0.0%
SFR15                0      0       0      16        0.0%
BITBANK6            50      0       0      17        0.0%
BITSFR16             0      0       0      17        0.0%
SFR16                0      0       0      17        0.0%
BANK6               50      0       0      18        0.0%
BITSFR17             0      0       0      18        0.0%
SFR17                0      0       0      18        0.0%
BITBANK7            50      0       0      19        0.0%
BITSFR18             0      0       0      19        0.0%
SFR18                0      0       0      19        0.0%
BANK7               50      0       0      20        0.0%
BITSFR19             0      0       0      20        0.0%
SFR19                0      0       0      20        0.0%
BITBANK8            50      0       0      21        0.0%
BITSFR20             0      0       0      21        0.0%
SFR20                0      0       0      21        0.0%
BANK8               50      0       0      22        0.0%
BITSFR21             0      0       0      22        0.0%
SFR21                0      0       0      22        0.0%
BITBANK9            50      0       0      23        0.0%
BITSFR22             0      0       0      23        0.0%
SFR22                0      0       0      23        0.0%
BANK9               50      0       0      24        0.0%
BITSFR23             0      0       0      24        0.0%
SFR23                0      0       0      24        0.0%
BITBANK10           50      0       0      25        0.0%
BITSFR24             0      0       0      25        0.0%
SFR24                0      0       0      25        0.0%
BANK10              50      0       0      26        0.0%
BITSFR25             0      0       0      26        0.0%
SFR25                0      0       0      26        0.0%
BITBANK11           50      0       0      27        0.0%
BITSFR26             0      0       0      27        0.0%
SFR26                0      0       0      27        0.0%
BITSFR27             0      0       0      28        0.0%
SFR27                0      0       0      28        0.0%
DATA                 0      0      6F      28        0.0%
BANK11              50      0       0      29        0.0%
BITSFR28             0      0       0      29        0.0%
SFR28                0      0       0      29        0.0%
BITBANK12           50      0       0      30        0.0%
BITSFR29             0      0       0      30        0.0%
SFR29                0      0       0      30        0.0%
BANK12              50      0       0      31        0.0%
BITSFR30             0      0       0      31        0.0%
SFR30                0      0       0      31        0.0%
BITBANK13           50      0       0      32        0.0%
BITSFR31             0      0       0      32        0.0%
SFR31                0      0       0      32        0.0%
BANK13              50      0       0      33        0.0%
BITBANK14           50      0       0      34        0.0%
BANK14              50      0       0      35        0.0%
BITBANK15           50      0       0      36        0.0%
BANK15              50      0       0      37        0.0%
BITBANK16           50      0       0      38        0.0%
BANK16              50      0       0      39        0.0%
BITBANK17           50      0       0      40        0.0%
BANK17              50      0       0      41        0.0%
BITBANK18           50      0       0      42        0.0%
BANK18              50      0       0      43        0.0%
BITBANK19           50      0       0      44        0.0%
BANK19              50      0       0      45        0.0%
BITBANK20           50      0       0      46        0.0%
BANK20              50      0       0      47        0.0%
BITBANK21           50      0       0      48        0.0%
BANK21              50      0       0      49        0.0%
BITBANK22           50      0       0      50        0.0%
BANK22              50      0       0      51        0.0%
BITBANK23           50      0       0      52        0.0%
BANK23              50      0       0      53        0.0%
BITBANK24           50      0       0      54        0.0%
BANK24              50      0       0      55        0.0%
BITBANK25           20      0       0      56        0.0%
BANK25              20      0       0      57        0.0%


Microchip Technology PIC Macro Assembler V2.31 build 20201012212115 
Symbol Table                                                                                   Mon Jul 19 10:30:50 2021

                            _LCD_Initialize 0285                                 ?_LCDPutChar 0070  
                                       l111 0123                                         l200 0447  
                                       l203 0475                                         l127 0471  
                                       l311 0185                                         l232 030A  
                                       l312 0185                                         l137 046B  
                                       l250 0237                                         l147 0465  
                                       l235 02EA                                         l244 020F  
                                       l229 02A7                                         l157 045F  
                                       l238 02CA                                         l167 0459  
                                       l177 0453                                         l257 0367  
                                       l274 01E7                                         l197 0438  
                                       l277 03B4                                         u510 020F  
                                       u511 020E                                         u520 0218  
                                       u425 02B8                                         u521 0217  
                                       u530 021E                                         u435 02DC  
                                       u531 021D                                         u540 0224  
                                       u541 0223                                         u710 0135  
                                       u720 0143                                         u730 0151  
                                       u395 02F0                                         u740 015F  
                                       u680 01E7                                         u681 01E6  
                                       u675 01BE                                         u685 01E3  
                                       u757 0234                                         u767 02CE  
                                       u777 028F                                         u787 02AB  
                                       u797 02C1                                         wreg 0009  
        __end_of_IOCAF2_SetInterruptHandler 0466                  _IOCAF2_SetInterruptHandler 0460  
        __end_of_IOCAF5_SetInterruptHandler 0454                  _IOCAF5_SetInterruptHandler 044E  
                              main@Pattern1 0035                                main@Pattern2 003D  
                              main@Pattern3 0045                                main@Pattern4 004D  
                           __end_of_LCDGoto 0238                                        l1300 046C  
                                      l1230 02F7                                        l1302 0466  
                                      l1310 044E                                        l1240 0309  
                                      l1232 02FC                                        l1304 0460  
                                      l1400 00E8                                        l1234 0302  
                                      l1306 045A                                        l1410 00ED  
                                      l1402 00E9                                        l1236 0307  
                                      l1228 02ED                                        l1260 02AA  
                                      l1308 0454                                        l1420 00F2  
                                      l1412 00EE                                        l1404 00EA  
                                      l1340 01EB                                        l1238 0308  
                                      l1262 02AE                                        l1430 011A  
                                      l1422 00FA                                        l1414 00EF  
                                      l1406 00EB                                        l1270 02CD  
                                      l1350 021F                                        l1342 01FA  
                                      l1264 02B4                                        l1520 0293  
                                      l1432 0122                                        l1424 0102  
                                      l1416 00F0                                        l1408 00EC  
                                      l1360 00B2                                        l1512 042F  
                                      l1272 02D1                                        l1352 0224  
                                      l1344 01FF                                        l1266 02C0  
                                      l1522 0297                                        l1514 0285  
                                      l1426 010A                                        l1418 00F1  
                                      l1370 00C3                                        l1362 00B6  
                                      l1274 02D8                                        l1530 01BB  
                                      l1354 022A                                        l1346 0212  
                                      l1338 01E8                                        l1268 02C4  
                                      l1524 029B                                        l1516 0289  
                                      l1428 0112                                        l1380 00CE  
                                      l1372 00C6                                        l1364 00B9  
                                      l1276 02E4                                        l1540 01CA  
                                      l1532 01BB                                        l1356 022F  
                                      l1348 0218                                        l1526 029F  
                                      l1518 028B                                        l1390 00E3  
                                      l1382 00CF                                        l1374 00C9  
                                      l1366 00BC                                        l1542 01D5  
                                      l1534 01C7                                        l1358 0233  
                                      l1550 03A6                                        l1528 02A3  
                                      l1392 00E4                                        l1384 00E0  
                                      l1376 00CA                                        l1368 00BE  
                                      l1480 0472                                        l1544 01DA  
                                      l1552 03AA                                        l1474 0441  
                                      l1394 00E5                                        l1386 00E1  
                                      l1378 00CC                                        l1482 034A  
                                      l1554 03B0                                        l1546 039D  
                                      l1570 0139                                        l1476 0444  
                                      l1396 00E6                                        l1388 00E2  
                                      l1484 0350                                        l1548 03A0  
                                      l1580 016F                                        l1572 0147  
                                      l1478 0445                                        l1398 00E7  
                                      l1486 0358                                        l1582 0178  
                                      l1574 0155                                        l1566 0124  
                                      l1584 0181                                        l1576 0163  
                                      l1568 012A                                        l1586 0184  
                                      l1578 0169                                        STR_1 03E2  
                                      STR_2 03E2                                        STR_3 03F1  
                                      STR_4 03F1                                        _LATA 010C  
                                      _LATB 010D                                        _LATC 010E  
                                      _WPUA 020C                                        _WPUB 020D  
                                      _WPUC 020E                                        _WPUE 0210  
                                      _main 0124                                        fsr0h 0005  
                                      fsr1h 0007                                        indf0 0000  
                                      fsr0l 0004                                        indf1 0001  
                                      fsr1l 0006                                        btemp 007E  
                        __size_of_LCDPutCmd 0023                                        start 001D  
                        __size_of_LCDPutStr 0028                      __end_of_LCD_Initialize 02A8  
                        __size_ofi1_LCDGoto 0027                            __end_of_LCDClear 0368  
                               LCDPutCmd@ch 002D                         __size_of_IOCAF0_ISR 0016  
                       __size_of_IOCAF1_ISR 000F              __size_of_OSCILLATOR_Initialize 0007  
                       __size_of_IOCAF2_ISR 000F                         __size_of_IOCAF3_ISR 0017  
                       __size_of_IOCAF4_ISR 000F                         __size_of_IOCAF5_ISR 000F  
             __end_of_OSCILLATOR_Initialize 0448                                       ?_main 0070  
                              ?i1_LCDPutCmd 0070                                       i1l120 01B8  
                                     i1l130 047B                                       i1l124 03E1  
                                     i1l140 047A                                       i1l134 042E  
                                     i1l150 0479                                       i1l232 032A  
                                     i1l144 041F                                       i1l160 0478  
                                     i1l216 001B                                       i1l250 025E  
                                     i1l154 03CB                                       i1l170 0477  
                                     i1l235 0384                                       i1l244 0284  
                                     i1l164 0410                                       i1l180 0476  
                                     i1l238 0349                                       i1l174 0401  
                                     i1l288 00B1                                ?i1_LCDPutStr 0077  
                                     u40_25 0376                                       u41_25 0338  
                                     u50_20 00B1                                       u50_21 00B0  
                                     u50_25 00AD                                       _PORTB 000D  
                                     u44_20 0284                                       u60_20 03FA  
                                     u44_21 0283                                       u60_21 03F9  
                                     u45_20 023F                                       u61_20 018D  
                                     u45_21 023E                                       u61_21 018C  
                                     u46_20 0245                                       u62_20 0195  
                                     u70_20 000E                                       u46_21 0244  
                                     u62_21 0194                                       u70_21 000D  
                                     u38_25 030F                                       u47_20 024B  
                                     u55_20 03D3                                       u63_20 019D  
                                     u47_21 024A                                       u55_21 03D2  
                                     u63_21 019C                                       u48_20 0042  
                                     u56_20 0427                                       u64_20 01A5  
                                     u48_21 0041                                       u56_21 0426  
                                     u64_21 01A4                                       u80_27 0012  
                                     u49_20 0079                                       u57_20 0418  
                                     u65_20 01AD                                       u49_21 0078  
                                     u57_21 0417                                       u65_21 01AC  
                                     _TRISA 008C                                       _TRISB 008D  
                                     u49_25 0075                                       _TRISC 008E  
                                     u81_27 0054                                       _TRISE 0090  
                                     u58_20 03BC                                       u66_20 01B5  
                                     u58_21 03BB                                       u66_21 01B4  
                                     u82_27 008C                                       u59_20 0409  
                                     u59_21 0408                                       u83_27 036A  
                                     u84_27 025B                                       u69_20 000A  
                                     u69_21 0009                                       u85_27 032D  
                                     u86_27 0341                      ?_createCustomCharacter 002E  
                   __end_of_PIN_MANAGER_IOC 01B9                              _WDT_Initialize 0472  
                                     pclath 000A                         __size_of_LCDPutChar 0020  
                                     status 0003                                       wtemp0 007E  
                           ?_LCD_Initialize 0070                             __initialization 001F  
                              __end_of_main 0188                 ?_INTERRUPT_InterruptManager 0070  
                    createCustomCharacter@i 0031                                      ??_main 0034  
                                 ??_LCDGoto 002F                           __end_of_LCDPutCmd 02CB  
                              LCDPutChar@ch 002D                     _IOCAF4_InterruptHandler 0057  
                         __end_of_LCDPutStr 0210                      __end_of_WDT_Initialize 0476  
              ??_IOCAF0_SetInterruptHandler 0029                ??_IOCAF3_SetInterruptHandler 0029  
                         __end_ofi1_LCDGoto 025F                                      _ANSELA 018C  
                                    _ANSELB 018D                                      _ANSELC 018E  
                                    _BORCON 0116                               ?i1_LCDPutChar 0070  
                                    i1l1220 0322                                      i1l1222 0327  
                                    i1l1214 030C                                      i1l1224 0328  
                                    i1l1216 0316                                      i1l1320 0059  
                                    i1l1312 003B                                      i1l1226 0329  
                                    i1l1218 031B                                      i1l1250 032C  
                                    i1l1242 0369                                      i1l1330 0089  
                                    i1l1322 0064                                      i1l1314 0042  
                                    i1l1252 0330                                      i1l1244 036D  
                                    i1l1332 0091                                      i1l1316 0047  
                                    i1l1324 006B                                      i1l1500 01A0  
                                    i1l1254 0335                                      i1l1246 0373  
                                    i1l1334 009C                                      i1l1318 0051  
                                    i1l1326 007A                                      i1l1510 01B5  
                                    i1l1502 01A5                                      i1l1256 0340  
                                    i1l1248 037E                                      i1l1280 0261  
                                    i1l1328 007F                                      i1l1336 00A3  
                                    i1l1440 03DF                                      i1l1504 01A8  
                                    _ODCONA 028C                                      i1l1258 0344  
                                    i1l1290 0246                                      i1l1282 0270  
                                    i1l1434 03CC                                      i1l1442 0420  
                                    i1l1450 0418                                      i1l1506 01AD  
                                    _ODCONB 028D                                      _ODCONC 028E  
                                    i1l1292 024B                                      i1l1284 0274  
                                    i1l1436 03D3                                      i1l1444 0427  
                                    i1l1452 041D                                      i1l1460 03C9  
                                    i1l1508 01B0                                      i1l1294 0251  
                                    i1l1286 0239                                      i1l1278 025F  
                                    i1l1438 03D8                                      i1l1446 042C  
                                    i1l1454 03B5                                      i1l1462 0402  
                                    i1l1470 03FA                                      i1l1296 0256  
                                    i1l1288 023F                                      i1l1448 0411  
                                    i1l1456 03BC                                      i1l1464 0409  
                                    i1l1472 03FF                                      i1l1560 000E  
                                    i1l1298 025A                                      i1l1458 03C1  
                                    i1l1466 040E                                      i1l1490 018D  
                                    i1l1562 0017                                      i1l1468 03F3  
                                    i1l1492 0190                                      i1l1564 001A  
                                    i1l1556 0006                                      i1l1494 0195  
                                    i1l1558 000A                                      i1l1496 0198  
                                    i1l1488 0188                                      i1l1498 019D  
                                    _INLVLA 038C                                      _INLVLB 038D  
                                    _INLVLC 038E                                      _INLVLE 0390  
                                    _OSCCON 0099                                      _WDTCON 0097  
                              LCDPutStr@str 002E                              _LCDWriteNibble 02EB  
       __size_of_IOCAF0_SetInterruptHandler 0006         __size_of_IOCAF3_SetInterruptHandler 0006  
                           ?_WDT_Initialize 0070                              i1LCDPutChar@ch 0076  
IOCAF5_SetInterruptHandler@InterruptHandler 0027  IOCAF4_SetInterruptHandler@InterruptHandler 0027  
IOCAF3_SetInterruptHandler@InterruptHandler 0027  IOCAF2_SetInterruptHandler@InterruptHandler 0027  
IOCAF1_SetInterruptHandler@InterruptHandler 0027  IOCAF0_SetInterruptHandler@InterruptHandler 0027  
                          ?_PIN_MANAGER_IOC 0070                              ??i1_LCDPutChar 0074  
                              ??_IOCAF0_ISR 007E                                ??_IOCAF1_ISR 0070  
                              ??_IOCAF2_ISR 0070                                ??_IOCAF3_ISR 007E  
                              ??_IOCAF4_ISR 0070                                ??_IOCAF5_ISR 0070  
                                 ?_LCDClear 0070                           _SYSTEM_Initialize 042F  
                    __end_of_LCDWriteNibble 030B                     __end_of__initialization 0037  
    __end_of_IOCAF1_DefaultInterruptHandler 047B     __size_of_IOCAF1_DefaultInterruptHandler 0001  
            _IOCAF1_DefaultInterruptHandler 047A                          ?_SYSTEM_Initialize 0070  
                            i1LCDPutStr@str 0077                                   LCDGoto@ln 002E  
                             i1_LCDGoto$468 0078                              __pcstackCOMMON 0070  
                              __pidataBANK0 0439                                __pidataBANK1 0385  
                       ??_SYSTEM_Initialize 0029                                ??_LCDPutChar 002B  
    __end_of_IOCAF4_DefaultInterruptHandler 0478     __size_of_IOCAF4_DefaultInterruptHandler 0001  
            _IOCAF4_DefaultInterruptHandler 0477                          __end_of_IOCAF0_ISR 03E2  
                        __end_of_IOCAF1_ISR 042F                          __end_of_IOCAF2_ISR 0420  
                        __end_of_IOCAF3_ISR 03CC                          __end_of_IOCAF4_ISR 0411  
                        __end_of_IOCAF5_ISR 0402                   __size_ofi1_LCDWriteNibble 0020  
                              i1LCDGoto@pos 007A                              _OPTION_REGbits 0095  
                      __size_ofi1_LCDPutCmd 001F                 ?_IOCAF2_SetInterruptHandler 0027  
          ??_IOCAF2_DefaultInterruptHandler 0070             ?_IOCAF2_DefaultInterruptHandler 0070  
                      __size_ofi1_LCDPutStr 0026                 ?_IOCAF5_SetInterruptHandler 0027  
                                _basicShoot 003B                   __end_of_SYSTEM_Initialize 0439  
                              i1LCDPutStr@i 007C                                  ??_LCDClear 0034  
                           ?_LCDWriteNibble 0027                          __end_of_LCDPutChar 02EB  
          ??_IOCAF5_DefaultInterruptHandler 0070             ?_IOCAF5_DefaultInterruptHandler 0070  
                   _IOCAF5_InterruptHandler 0055                                  __pmaintext 0124  
                                __pintentry 0004                     ??_createCustomCharacter 002F  
                                _idleScreen 039D                                     _LCDGoto 0210  
        __end_of_IOCAF0_SetInterruptHandler 0472                  _IOCAF0_SetInterruptHandler 046C  
        __end_of_IOCAF3_SetInterruptHandler 0460                  _IOCAF3_SetInterruptHandler 045A  
                                   _OSCTUNE 0098                                     _SLRCONA 030C  
                                   _SLRCONB 030D                                     _SLRCONC 030E  
                          ??_LCD_Initialize 002E                        __end_ofi1_LCDPutChar 0385  
                                   __ptext1 039D                                     __ptext2 034A  
                                   __ptext3 01E8                                     __ptext4 0210  
                                   __ptext5 01B9                                     __ptext6 02CB  
                                   __ptext7 042F                                     __ptext8 0472  
                                   __ptext9 00B2                       _OSCILLATOR_Initialize 0441  
                  ??_PIN_MANAGER_Initialize 0029                                   _IOCAFbits 0393  
                                 _IOCANbits 0392                                   _IOCAPbits 0391  
                               ?_basicShoot 0020                                   _LCDPutCmd 02A8  
                __size_of_SYSTEM_Initialize 000A                                   _LCDPutStr 01E8  
                      end_of_initialization 0037                                     init_ram 0448  
                                   initloop 0449                                   i1_LCDGoto 0238  
                       basicShoot@direction 0020                            ??_WDT_Initialize 0027  
                                 _PORTBbits 000D                            i1_LCDWriteNibble 030B  
                               ?_idleScreen 0070                     _IOCAF0_InterruptHandler 005F  
              ??_IOCAF1_SetInterruptHandler 0029                ??_IOCAF4_SetInterruptHandler 0029  
                                ?_LCDPutCmd 0070                                  ?_LCDPutStr 002E  
                                ?i1_LCDGoto 0077                                  LCDGoto@pos 0031  
                         __size_of_LCDClear 001E                         __size_of_basicShoot 0077  
                                LCDPutStr@i 0033         __size_of_IOCAF1_SetInterruptHandler 0006  
       __size_of_IOCAF4_SetInterruptHandler 0006                      ?_OSCILLATOR_Initialize 0070  
                       start_initialization 001F             __size_of_PIN_MANAGER_Initialize 0072  
                          ??_LCDWriteNibble 0028                createCustomCharacter@Pattern 0030  
                           basicShoot@j_491 0024                         __size_of_idleScreen 0018  
                  __size_of_PIN_MANAGER_IOC 0031      __end_of_IOCAF2_DefaultInterruptHandler 047A  
   __size_of_IOCAF2_DefaultInterruptHandler 0001              _IOCAF2_DefaultInterruptHandler 0479  
                     __size_ofi1_LCDPutChar 001D                                 __pdataBANK0 0061  
                               __pdataBANK1 00A0                               i1LCDPutCmd@ch 0076  
          ??_IOCAF0_DefaultInterruptHandler 0070             ?_IOCAF0_DefaultInterruptHandler 0070  
    __end_of_IOCAF5_DefaultInterruptHandler 0477     __size_of_IOCAF5_DefaultInterruptHandler 0001  
            _IOCAF5_DefaultInterruptHandler 0476                               ??i1_LCDPutCmd 0074  
                             ??i1_LCDPutStr 0079              __size_of_createCustomCharacter 002F  
             __end_of_createCustomCharacter 01E8                                    ?_LCDGoto 002E  
                                 ___latbits 0003                 ?_IOCAF0_SetInterruptHandler 0027  
                             __pcstackBANK0 0020                 ?_IOCAF3_SetInterruptHandler 0027  
                               ??_LCDPutCmd 002B                                 ??_LCDPutStr 0030  
          ??_IOCAF3_DefaultInterruptHandler 0070             ?_IOCAF3_DefaultInterruptHandler 0070  
                               i1LCDGoto@ln 0077                                i1_LCDPutChar 0368  
                               ??i1_LCDGoto 0078                                   __pnvBANK0 0055  
                   _IOCAF1_InterruptHandler 005D                      _PIN_MANAGER_Initialize 00B2  
                          LCDWriteNibble@ch 002A                            LCDWriteNibble@rs 0027  
              ??_INTERRUPT_InterruptManager 0026          __end_of_IOCAF1_SetInterruptHandler 046C  
                _IOCAF1_SetInterruptHandler 0466          __end_of_IOCAF4_SetInterruptHandler 045A  
                _IOCAF4_SetInterruptHandler 0454                                ??_basicShoot 007D  
                       __end_ofi1_LCDPutCmd 034A                         __end_ofi1_LCDPutStr 0285  
                                  _LCDClear 034A                    __end_ofi1_LCDWriteNibble 032B  
                               _LCDGoto$468 002F         __size_of_INTERRUPT_InterruptManager 0019  
             createCustomCharacter@Location 002E                                   main@F5650 00B0  
                                 main@F5652 00A8                                   main@F5654 00A0  
                                 main@F5648 0061                           ??_PIN_MANAGER_IOC 007E  
                        __end_of_basicShoot 00B2                                ??_idleScreen 0034  
                          __size_of_LCDGoto 0028                                 basicShoot@j 0022  
                        __end_of_idleScreen 03B5                     ??_OSCILLATOR_Initialize 0027  
                   __size_of_LCD_Initialize 0023                                 i1_LCDPutCmd 032B  
                               i1_LCDPutStr 025F                     _IOCAF2_InterruptHandler 005B  
              ??_IOCAF2_SetInterruptHandler 0029                                    __ptext10 044E  
                                  __ptext11 0454                                    __ptext12 045A  
                                  __ptext21 0188                                    __ptext13 0460  
                                  __ptext30 0420                                    __ptext22 03F3  
                                  __ptext14 0466                                    __ptext31 047A  
                                  __ptext23 0476                                    __ptext15 046C  
                                  __ptext32 03CC                                    __ptext24 0402  
                                  __ptext16 0441                                    __ptext33 003B  
                                  __ptext25 0477                                    __ptext17 0285  
                                  __ptext34 025F                                    __ptext26 03B5  
                                  __ptext18 02A8                                    __ptext35 0368  
                                  __ptext27 0478                                    __ptext19 02EB  
                                  __ptext36 0238                                    __ptext28 0411  
                                  __ptext37 032B                                    __ptext29 0479  
                                  __ptext38 030B                                    __ptext39 047B  
              ??_IOCAF5_SetInterruptHandler 0029                                  _IOCAF0_ISR 03CC  
                                _IOCAF1_ISR 0420                                  _IOCAF2_ISR 0411  
                                _IOCAF3_ISR 03B5                                  _IOCAF4_ISR 0402  
                                _IOCAF5_ISR 03F3                               __size_of_main 0064  
                        i1LCDWriteNibble@ch 0073                          i1LCDWriteNibble@rs 0070  
                                  int$flags 007E          __end_of_INTERRUPT_InterruptManager 001D  
                _INTERRUPT_InterruptManager 0004                                  _LCDPutChar 02CB  
       __size_of_IOCAF2_SetInterruptHandler 0006         __size_of_IOCAF5_SetInterruptHandler 0006  
                                _INTCONbits 000B                     __size_of_WDT_Initialize 0004  
                                  intlevel1 0000      __end_of_IOCAF0_DefaultInterruptHandler 047C  
   __size_of_IOCAF0_DefaultInterruptHandler 0001              _IOCAF0_DefaultInterruptHandler 047B  
                   ?_PIN_MANAGER_Initialize 0070      __end_of_IOCAF3_DefaultInterruptHandler 0479  
   __size_of_IOCAF3_DefaultInterruptHandler 0001              _IOCAF3_DefaultInterruptHandler 0478  
                             __pstringtext1 03E2                               __pstringtext2 0000  
          ??_IOCAF1_DefaultInterruptHandler 0070             ?_IOCAF1_DefaultInterruptHandler 0070  
               ?_IOCAF1_SetInterruptHandler 0027                       _createCustomCharacter 01B9  
               ?_IOCAF4_SetInterruptHandler 0027                                 ?_IOCAF0_ISR 0070  
                               ?_IOCAF1_ISR 0070                                 ?_IOCAF2_ISR 0070  
                               ?_IOCAF3_ISR 0070                                 ?_IOCAF4_ISR 0070  
                               ?_IOCAF5_ISR 0070              __end_of_PIN_MANAGER_Initialize 0124  
          ??_IOCAF4_DefaultInterruptHandler 0070             ?_IOCAF4_DefaultInterruptHandler 0070  
                           _PIN_MANAGER_IOC 0188                           ?i1_LCDWriteNibble 0070  
                   __size_of_LCDWriteNibble 0020                     _IOCAF3_InterruptHandler 0059  
                        ??i1_LCDWriteNibble 0071  
